
arch/arm/mach-sunxi/pm/standby/resume1.elf:     file format elf32-littlearm


Disassembly of section .text:

00000000 <resume_head>:
       0:	ea00000a 	b	30 <_start>
       4:	4e4f4765 	cdpmi	7, 4, cr4, cr15, cr5, {3}
       8:	3054422e 	subscc	r4, r4, lr, lsr #4
       c:	5f0a6c39 	svcpl	0x000a6c39
      10:	00000400 	andeq	r0, r0, r0, lsl #8
      14:	00000030 	andeq	r0, r0, r0, lsr r0
      18:	30303131 	eorscc	r3, r0, r1, lsr r1
      1c:	30333231 	eorscc	r3, r3, r1, lsr r2
      20:	30333231 	eorscc	r3, r3, r1, lsr r2
      24:	30303131 	eorscc	r3, r0, r1, lsr r1
	...

00000030 <_start>:
      30:	e10f0000 	mrs	r0, CPSR
      34:	e3c0001f 	bic	r0, r0, #31
      38:	e3800013 	orr	r0, r0, #19
      3c:	e38000c0 	orr	r0, r0, #192	; 0xc0
      40:	e3c00c02 	bic	r0, r0, #512	; 0x200
      44:	e121f000 	msr	CPSR_c, r0
      48:	ee110f10 	mrc	15, 0, r0, cr1, cr0, {0}
      4c:	e3c00005 	bic	r0, r0, #5
      50:	e3c00b06 	bic	r0, r0, #6144	; 0x1800
      54:	e3c00002 	bic	r0, r0, #2
      58:	ee010f10 	mcr	15, 0, r0, cr1, cr0, {0}
      5c:	f57ff04f 	dsb	sy
      60:	f57ff06f 	isb	sy
      64:	e59f0058 	ldr	r0, [pc, #88]	; c4 <config_end+0x18>
      68:	e5901000 	ldr	r1, [r0]
      6c:	e3811902 	orr	r1, r1, #32768	; 0x8000
      70:	e5801000 	str	r1, [r0]
      74:	e5901000 	ldr	r1, [r0]
      78:	e1a02821 	lsr	r2, r1, #16
      7c:	e59f3044 	ldr	r3, [pc, #68]	; c8 <config_end+0x1c>
      80:	e1520003 	cmp	r2, r3
      84:	0a000004 	beq	9c <config_61>

00000088 <config_50>:
      88:	e59f003c 	ldr	r0, [pc, #60]	; cc <config_end+0x20>
      8c:	e5901000 	ldr	r1, [r0]
      90:	e3811b06 	orr	r1, r1, #6144	; 0x1800
      94:	e5801000 	str	r1, [r0]
      98:	ea000003 	b	ac <config_end>

0000009c <config_61>:
      9c:	e59f0028 	ldr	r0, [pc, #40]	; cc <config_end+0x20>
      a0:	e5901000 	ldr	r1, [r0]
      a4:	e38110c0 	orr	r1, r1, #192	; 0xc0
      a8:	e5801000 	str	r1, [r0]

000000ac <config_end>:
      ac:	ee100fb0 	mrc	15, 0, r0, cr0, cr0, {5}
      b0:	e1a00480 	lsl	r0, r0, #9
      b4:	e280db0e 	add	sp, r0, #14336	; 0x3800
      b8:	eb000052 	bl	208 <set_pll>
      bc:	eb000017 	bl	120 <resume1_c_part>
      c0:	eafffffe 	b	c0 <config_end+0x14>
      c4:	01c00024 	biceq	r0, r0, r4, lsr #32
      c8:	00001661 	andeq	r1, r0, r1, ror #12
      cc:	01c00044 	biceq	r0, r0, r4, asr #32

000000d0 <mem_memcpy>:
      d0:	e2822003 	add	r2, r2, #3
      d4:	e1a02142 	asr	r2, r2, #2
      d8:	e3520000 	cmp	r2, #0
      dc:	d12fff1e 	bxle	lr
      e0:	e2411004 	sub	r1, r1, #4
      e4:	e5b13004 	ldr	r3, [r1, #4]!
      e8:	e2522001 	subs	r2, r2, #1
      ec:	e4803004 	str	r3, [r0], #4
      f0:	1afffffb 	bne	e4 <mem_memcpy+0x14>
      f4:	e12fff1e 	bx	lr

000000f8 <mem_delay>:
      f8:	e92d000f 	push	{r0, r1, r2, r3}
      fc:	e3a01011 	mov	r1, #17
     100:	e1a03000 	mov	r3, r0

00000104 <loop2>:
     104:	e2500001 	subs	r0, r0, #1
     108:	8afffffd 	bhi	104 <loop2>
     10c:	e1a00003 	mov	r0, r3
     110:	e2511001 	subs	r1, r1, #1
     114:	8afffffa 	bhi	104 <loop2>
     118:	e8bd000f 	pop	{r0, r1, r2, r3}
     11c:	e1a0f00e 	mov	pc, lr

00000120 <resume1_c_part>:
     120:	e92d4010 	push	{r4, lr}
     124:	e3a00047 	mov	r0, #71	; 0x47
     128:	e59f40b8 	ldr	r4, [pc, #184]	; 1e8 <resume1_c_part+0xc8>
     12c:	eb0000ab 	bl	3e0 <save_mem_status_nommu>
     130:	eb000340 	bl	e38 <set_copro_default>
     134:	e3a00048 	mov	r0, #72	; 0x48
     138:	eb0000a8 	bl	3e0 <save_mem_status_nommu>
     13c:	e5943010 	ldr	r3, [r4, #16]
     140:	e3130002 	tst	r3, #2
     144:	1a00001e 	bne	1c4 <resume1_c_part+0xa4>
     148:	e59f009c 	ldr	r0, [pc, #156]	; 1ec <resume1_c_part+0xcc>
     14c:	eb00080a 	bl	217c <mem_clk_setdiv>
     150:	e59f0098 	ldr	r0, [pc, #152]	; 1f0 <resume1_c_part+0xd0>
     154:	eb000834 	bl	222c <mem_clk_set_pll_factor>
     158:	eb0000ee 	bl	518 <change_runtime_env>
     15c:	e5940014 	ldr	r0, [r4, #20]
     160:	eb000116 	bl	5c0 <delay_ms>
     164:	e5943010 	ldr	r3, [r4, #16]
     168:	e3130002 	tst	r3, #2
     16c:	1a00001a 	bne	1dc <resume1_c_part+0xbc>
     170:	e3a00049 	mov	r0, #73	; 0x49
     174:	eb000099 	bl	3e0 <save_mem_status_nommu>
     178:	e59f0074 	ldr	r0, [pc, #116]	; 1f4 <resume1_c_part+0xd4>
     17c:	eb000146 	bl	69c <restore_mmu_state>
     180:	e3a0004a 	mov	r0, #74	; 0x4a
     184:	eb000079 	bl	370 <save_mem_status>
     188:	e3a0004b 	mov	r0, #75	; 0x4b
     18c:	eb000077 	bl	370 <save_mem_status>
     190:	eb000201 	bl	99c <mem_flush_tlb>
     194:	e3a00001 	mov	r0, #1
     198:	eb0007cb 	bl	20cc <mem_clk_init>
     19c:	e5943010 	ldr	r3, [r4, #16]
     1a0:	e3130002 	tst	r3, #2
     1a4:	1a000009 	bne	1d0 <resume1_c_part+0xb0>
     1a8:	e3a0004e 	mov	r0, #78	; 0x4e
     1ac:	eb00006f 	bl	370 <save_mem_status>
     1b0:	e5940000 	ldr	r0, [r4]
     1b4:	e59f103c 	ldr	r1, [pc, #60]	; 1f8 <resume1_c_part+0xd8>
     1b8:	eb000264 	bl	b50 <jump_to_resume>
     1bc:	e3a00000 	mov	r0, #0
     1c0:	e8bd8010 	pop	{r4, pc}
     1c4:	e59f0030 	ldr	r0, [pc, #48]	; 1fc <resume1_c_part+0xdc>
     1c8:	eb0003ab 	bl	107c <serial_puts_nommu>
     1cc:	eaffffdd 	b	148 <resume1_c_part+0x28>
     1d0:	e59f0028 	ldr	r0, [pc, #40]	; 200 <resume1_c_part+0xe0>
     1d4:	eb000424 	bl	126c <serial_puts>
     1d8:	eafffff2 	b	1a8 <resume1_c_part+0x88>
     1dc:	e59f0020 	ldr	r0, [pc, #32]	; 204 <resume1_c_part+0xe4>
     1e0:	eb0003a5 	bl	107c <serial_puts_nommu>
     1e4:	eaffffe1 	b	170 <resume1_c_part+0x50>
     1e8:	00002700 	andeq	r2, r0, r0, lsl #14
     1ec:	00002750 	andeq	r2, r0, r0, asr r7
     1f0:	0000277c 	andeq	r2, r0, ip, ror r7
     1f4:	00002784 	andeq	r2, r0, r4, lsl #15
     1f8:	00002718 	andeq	r2, r0, r8, lsl r7
     1fc:	00002438 	andeq	r2, r0, r8, lsr r4
     200:	0000246c 	andeq	r2, r0, ip, ror #8
     204:	00002448 	andeq	r2, r0, r8, asr #8

00000208 <set_pll>:
     208:	e92d4038 	push	{r3, r4, r5, lr}
     20c:	ee100fb0 	mrc	15, 0, r0, cr0, cr0, {5}
     210:	e2100003 	ands	r0, r0, #3
     214:	1a00002f 	bne	2d8 <set_pll+0xd0>
     218:	e59f20ec 	ldr	r2, [pc, #236]	; 30c <set_pll+0x104>
     21c:	e59f10ec 	ldr	r1, [pc, #236]	; 310 <set_pll+0x108>
     220:	e5923000 	ldr	r3, [r2]
     224:	e4830004 	str	r0, [r3], #4
     228:	e1530001 	cmp	r3, r1
     22c:	9afffffc 	bls	224 <set_pll+0x1c>
     230:	e59f50dc 	ldr	r5, [pc, #220]	; 314 <set_pll+0x10c>
     234:	e3a00000 	mov	r0, #0
     238:	e5823000 	str	r3, [r2]
     23c:	eb0007a2 	bl	20cc <mem_clk_init>
     240:	e1a04000 	mov	r4, r0
     244:	eb00003f 	bl	348 <mem_status_init_nommu>
     248:	e3a03801 	mov	r3, #65536	; 0x10000
     24c:	e3a01000 	mov	r1, #0
     250:	e3a020a8 	mov	r2, #168	; 0xa8
     254:	e3441301 	movt	r1, #17153	; 0x4301
     258:	e5843050 	str	r3, [r4, #80]	; 0x50
     25c:	e1a00005 	mov	r0, r5
     260:	ebffff9a 	bl	d0 <mem_memcpy>
     264:	e5953010 	ldr	r3, [r5, #16]
     268:	e59f00a8 	ldr	r0, [pc, #168]	; 318 <set_pll+0x110>
     26c:	e3130080 	tst	r3, #128	; 0x80
     270:	13a03000 	movne	r3, #0
     274:	13032033 	movwne	r2, #12339	; 0x3033
     278:	134031c2 	movtne	r3, #450	; 0x1c2
     27c:	13402030 	movtne	r2, #48	; 0x30
     280:	158328b4 	strne	r2, [r3, #2228]	; 0x8b4
     284:	eb000814 	bl	22dc <mem_clk_set_misc>
     288:	e3a03a01 	mov	r3, #4096	; 0x1000
     28c:	e3a00001 	mov	r0, #1
     290:	e3483000 	movt	r3, #32768	; 0x8000
     294:	e3a01000 	mov	r1, #0
     298:	e5843000 	str	r3, [r4]
     29c:	eb00007c 	bl	494 <init_perfcounters>
     2a0:	eb00009c 	bl	518 <change_runtime_env>
     2a4:	e3a0000a 	mov	r0, #10
     2a8:	eb0000c4 	bl	5c0 <delay_ms>
     2ac:	e5953010 	ldr	r3, [r5, #16]
     2b0:	e3130002 	tst	r3, #2
     2b4:	1a000012 	bne	304 <set_pll+0xfc>
     2b8:	e5943050 	ldr	r3, [r4, #80]	; 0x50
     2bc:	e3c33803 	bic	r3, r3, #196608	; 0x30000
     2c0:	e3833802 	orr	r3, r3, #131072	; 0x20000
     2c4:	e5843050 	str	r3, [r4, #80]	; 0x50
     2c8:	eb000092 	bl	518 <change_runtime_env>
     2cc:	e3a00064 	mov	r0, #100	; 0x64
     2d0:	e8bd4038 	pop	{r3, r4, r5, lr}
     2d4:	ea000099 	b	540 <delay_us>
     2d8:	e3a03000 	mov	r3, #0
     2dc:	ee083f33 	mcr	15, 0, r3, cr8, cr3, {1}
     2e0:	f57ff04f 	dsb	sy
     2e4:	e280071f 	add	r0, r0, #8126464	; 0x7c0000
     2e8:	e3a030ff 	mov	r3, #255	; 0xff
     2ec:	e2800041 	add	r0, r0, #65	; 0x41
     2f0:	e1a00100 	lsl	r0, r0, #2
     2f4:	e5803000 	str	r3, [r0]
     2f8:	f57ff04f 	dsb	sy
     2fc:	e320f004 	sev
     300:	eaffffec 	b	2b8 <set_pll+0xb0>
     304:	eb000334 	bl	fdc <serial_init_nommu>
     308:	eaffffea 	b	2b8 <set_pll+0xb0>
     30c:	00002514 	andeq	r2, r0, r4, lsl r5
     310:	000028c0 	andeq	r2, r0, r0, asr #17
     314:	00002700 	andeq	r2, r0, r0, lsl #14
     318:	00002758 	andeq	r2, r0, r8, asr r7

0000031c <busy_waiting>:
     31c:	e24dd008 	sub	sp, sp, #8
     320:	e3a03001 	mov	r3, #1
     324:	e58d3004 	str	r3, [sp, #4]
     328:	e59d3004 	ldr	r3, [sp, #4]
     32c:	e3530001 	cmp	r3, #1
     330:	0afffffc 	beq	328 <busy_waiting+0xc>
     334:	e28dd008 	add	sp, sp, #8
     338:	e12fff1e 	bx	lr

0000033c <save_mem_flag>:
     33c:	e12fff1e 	bx	lr

00000340 <clear_mem_flag>:
     340:	e12fff1e 	bx	lr

00000344 <mem_status_init>:
     344:	e12fff1e 	bx	lr

00000348 <mem_status_init_nommu>:
     348:	e12fff1e 	bx	lr

0000034c <mem_status_clear>:
     34c:	e3a03000 	mov	r3, #0
     350:	e1a02003 	mov	r2, r3
     354:	e34f31f0 	movt	r3, #61936	; 0xf1f0
     358:	e5832100 	str	r2, [r3, #256]	; 0x100
     35c:	e5832104 	str	r2, [r3, #260]	; 0x104
     360:	e5832108 	str	r2, [r3, #264]	; 0x108
     364:	e583210c 	str	r2, [r3, #268]	; 0x10c
     368:	e12fff1e 	bx	lr

0000036c <mem_status_exit>:
     36c:	e12fff1e 	bx	lr

00000370 <save_mem_status>:
     370:	e24dd008 	sub	sp, sp, #8
     374:	e3a03000 	mov	r3, #0
     378:	e58d0004 	str	r0, [sp, #4]
     37c:	e34f31f0 	movt	r3, #61936	; 0xf1f0
     380:	e59d2004 	ldr	r2, [sp, #4]
     384:	e5832104 	str	r2, [r3, #260]	; 0x104
     388:	f57ff04f 	dsb	sy
     38c:	f57ff06f 	isb	sy
     390:	e28dd008 	add	sp, sp, #8
     394:	e12fff1e 	bx	lr

00000398 <get_mem_status>:
     398:	e3a03000 	mov	r3, #0
     39c:	e34f31f0 	movt	r3, #61936	; 0xf1f0
     3a0:	e5930104 	ldr	r0, [r3, #260]	; 0x104
     3a4:	e12fff1e 	bx	lr

000003a8 <show_mem_status>:
     3a8:	e92d4038 	push	{r3, r4, r5, lr}
     3ac:	e3a04c01 	mov	r4, #256	; 0x100
     3b0:	e3a05e11 	mov	r5, #272	; 0x110
     3b4:	e34f41f0 	movt	r4, #61936	; 0xf1f0
     3b8:	e34f51f0 	movt	r5, #61936	; 0xf1f0
     3bc:	e5942000 	ldr	r2, [r4]
     3c0:	e1a01004 	mov	r1, r4
     3c4:	e59f0010 	ldr	r0, [pc, #16]	; 3dc <show_mem_status+0x34>
     3c8:	e2844004 	add	r4, r4, #4
     3cc:	eb000480 	bl	15d4 <printk>
     3d0:	e1540005 	cmp	r4, r5
     3d4:	1afffff8 	bne	3bc <show_mem_status+0x14>
     3d8:	e8bd8038 	pop	{r3, r4, r5, pc}
     3dc:	0000249c 	muleq	r0, ip, r4

000003e0 <save_mem_status_nommu>:
     3e0:	e24dd008 	sub	sp, sp, #8
     3e4:	e3a0361f 	mov	r3, #32505856	; 0x1f00000
     3e8:	e58d0004 	str	r0, [sp, #4]
     3ec:	e59d2004 	ldr	r2, [sp, #4]
     3f0:	e5832104 	str	r2, [r3, #260]	; 0x104
     3f4:	e28dd008 	add	sp, sp, #8
     3f8:	e12fff1e 	bx	lr

000003fc <save_cpux_mem_status_nommu>:
     3fc:	e24dd008 	sub	sp, sp, #8
     400:	e3a0361f 	mov	r3, #32505856	; 0x1f00000
     404:	e58d0004 	str	r0, [sp, #4]
     408:	e59d2004 	ldr	r2, [sp, #4]
     40c:	e5832100 	str	r2, [r3, #256]	; 0x100
     410:	e28dd008 	add	sp, sp, #8
     414:	e12fff1e 	bx	lr

00000418 <io_init>:
     418:	e3a03000 	mov	r3, #0
     41c:	e3012111 	movw	r2, #4369	; 0x1111
     420:	e34f31c2 	movt	r3, #61890	; 0xf1c2
     424:	e3402011 	movt	r2, #17
     428:	e5832890 	str	r2, [r3, #2192]	; 0x890
     42c:	e12fff1e 	bx	lr

00000430 <io_init_high>:
     430:	e3a03000 	mov	r3, #0
     434:	e34f31c2 	movt	r3, #61890	; 0xf1c2
     438:	e59328a0 	ldr	r2, [r3, #2208]	; 0x8a0
     43c:	e382203f 	orr	r2, r2, #63	; 0x3f
     440:	e58328a0 	str	r2, [r3, #2208]	; 0x8a0
     444:	e12fff1e 	bx	lr

00000448 <io_init_low>:
     448:	e3a03000 	mov	r3, #0
     44c:	e34f31c2 	movt	r3, #61890	; 0xf1c2
     450:	e59328a0 	ldr	r2, [r3, #2208]	; 0x8a0
     454:	e3c2203f 	bic	r2, r2, #63	; 0x3f
     458:	e58328a0 	str	r2, [r3, #2208]	; 0x8a0
     45c:	e12fff1e 	bx	lr

00000460 <io_high>:
     460:	e92d4070 	push	{r4, r5, r6, lr}
     464:	e3a04000 	mov	r4, #0
     468:	e34f41c2 	movt	r4, #61890	; 0xf1c2
     46c:	e3a05001 	mov	r5, #1
     470:	e1a05015 	lsl	r5, r5, r0
     474:	e3020710 	movw	r0, #10000	; 0x2710
     478:	e59468a0 	ldr	r6, [r4, #2208]	; 0x8a0
     47c:	e1c66005 	bic	r6, r6, r5
     480:	e58468a0 	str	r6, [r4, #2208]	; 0x8a0
     484:	e1865005 	orr	r5, r6, r5
     488:	eb00002c 	bl	540 <delay_us>
     48c:	e58458a0 	str	r5, [r4, #2208]	; 0x8a0
     490:	e8bd8070 	pop	{r4, r5, r6, pc}

00000494 <init_perfcounters>:
     494:	e3500000 	cmp	r0, #0
     498:	13a00007 	movne	r0, #7
     49c:	03a00001 	moveq	r0, #1
     4a0:	e3510000 	cmp	r1, #0
     4a4:	13800008 	orrne	r0, r0, #8
     4a8:	e3800010 	orr	r0, r0, #16
     4ac:	ee090f1c 	mcr	15, 0, r0, cr9, cr12, {0}
     4b0:	e3a0313e 	mov	r3, #-2147483633	; 0x8000000f
     4b4:	ee093f3c 	mcr	15, 0, r3, cr9, cr12, {1}
     4b8:	ee093f7c 	mcr	15, 0, r3, cr9, cr12, {3}
     4bc:	e12fff1e 	bx	lr

000004c0 <backup_perfcounter>:
     4c0:	ee192f1c 	mrc	15, 0, r2, cr9, cr12, {0}
     4c4:	e302351c 	movw	r3, #9500	; 0x251c
     4c8:	e3403000 	movt	r3, #0
     4cc:	e5832000 	str	r2, [r3]
     4d0:	ee192f3c 	mrc	15, 0, r2, cr9, cr12, {1}
     4d4:	e5832004 	str	r2, [r3, #4]
     4d8:	e12fff1e 	bx	lr

000004dc <restore_perfcounter>:
     4dc:	e302351c 	movw	r3, #9500	; 0x251c
     4e0:	e3403000 	movt	r3, #0
     4e4:	e5933000 	ldr	r3, [r3]
     4e8:	ee093f1c 	mcr	15, 0, r3, cr9, cr12, {0}
     4ec:	e302351c 	movw	r3, #9500	; 0x251c
     4f0:	e3403000 	movt	r3, #0
     4f4:	e5933004 	ldr	r3, [r3, #4]
     4f8:	ee093f3c 	mcr	15, 0, r3, cr9, cr12, {1}
     4fc:	e12fff1e 	bx	lr

00000500 <get_cyclecount>:
     500:	ee190f1d 	mrc	15, 0, r0, cr9, cr13, {0}
     504:	e12fff1e 	bx	lr

00000508 <reset_counter>:
     508:	ee193f1c 	mrc	15, 0, r3, cr9, cr12, {0}
     50c:	e3833004 	orr	r3, r3, #4
     510:	ee093f1c 	mcr	15, 0, r3, cr9, cr12, {0}
     514:	e12fff1e 	bx	lr

00000518 <change_runtime_env>:
     518:	e92d4010 	push	{r4, lr}
     51c:	ee193f1d 	mrc	15, 0, r3, cr9, cr13, {0}
     520:	ee192f1d 	mrc	15, 0, r2, cr9, cr13, {0}
     524:	e302451c 	movw	r4, #9500	; 0x251c
     528:	e0633002 	rsb	r3, r3, r2
     52c:	e3404000 	movt	r4, #0
     530:	e5843008 	str	r3, [r4, #8]
     534:	eb00079d 	bl	23b0 <mem_clk_get_cpu_freq>
     538:	e584000c 	str	r0, [r4, #12]
     53c:	e8bd8010 	pop	{r4, pc}

00000540 <delay_us>:
     540:	e92d4038 	push	{r3, r4, r5, lr}
     544:	e1a05000 	mov	r5, r0
     548:	e59f406c 	ldr	r4, [pc, #108]	; 5bc <delay_us+0x7c>
     54c:	e594000c 	ldr	r0, [r4, #12]
     550:	e3500ffa 	cmp	r0, #1000	; 0x3e8
     554:	8a000002 	bhi	564 <delay_us+0x24>
     558:	f57ff05f 	dmb	sy
     55c:	f57ff06f 	isb	sy
     560:	e8bd8038 	pop	{r3, r4, r5, pc}
     564:	e3a01ffa 	mov	r1, #1000	; 0x3e8
     568:	eb0005fb 	bl	1d5c <raw_lib_udiv>
     56c:	ee193f1d 	mrc	15, 0, r3, cr9, cr13, {0}
     570:	e5942008 	ldr	r2, [r4, #8]
     574:	e0255590 	mla	r5, r0, r5, r5
     578:	e0622003 	rsb	r2, r2, r3
     57c:	e0825005 	add	r5, r2, r5
     580:	ee192f3c 	mrc	15, 0, r2, cr9, cr12, {1}
     584:	e202213e 	and	r2, r2, #-2147483633	; 0x8000000f
     588:	e352013e 	cmp	r2, #-2147483633	; 0x8000000f
     58c:	0a000006 	beq	5ac <delay_us+0x6c>
     590:	e3a02017 	mov	r2, #23
     594:	ee092f1c 	mcr	15, 0, r2, cr9, cr12, {0}
     598:	e3a0213e 	mov	r2, #-2147483633	; 0x8000000f
     59c:	ee092f3c 	mcr	15, 0, r2, cr9, cr12, {1}
     5a0:	ee092f7c 	mcr	15, 0, r2, cr9, cr12, {3}
     5a4:	ea000000 	b	5ac <delay_us+0x6c>
     5a8:	ee193f1d 	mrc	15, 0, r3, cr9, cr13, {0}
     5ac:	e0653003 	rsb	r3, r5, r3
     5b0:	e3530000 	cmp	r3, #0
     5b4:	bafffffb 	blt	5a8 <delay_us+0x68>
     5b8:	eaffffe6 	b	558 <delay_us+0x18>
     5bc:	0000251c 	andeq	r2, r0, ip, lsl r5

000005c0 <delay_ms>:
     5c0:	e3a03ffa 	mov	r3, #1000	; 0x3e8
     5c4:	e0000093 	mul	r0, r3, r0
     5c8:	eaffffdc 	b	540 <delay_us>

000005cc <init_event_counter>:
     5cc:	e3500000 	cmp	r0, #0
     5d0:	13a00007 	movne	r0, #7
     5d4:	03a00001 	moveq	r0, #1
     5d8:	e3510000 	cmp	r1, #0
     5dc:	13800008 	orrne	r0, r0, #8
     5e0:	e3800010 	orr	r0, r0, #16
     5e4:	ee090f1c 	mcr	15, 0, r0, cr9, cr12, {0}
     5e8:	e3a0313e 	mov	r3, #-2147483633	; 0x8000000f
     5ec:	ee093f3c 	mcr	15, 0, r3, cr9, cr12, {1}
     5f0:	ee093f7c 	mcr	15, 0, r3, cr9, cr12, {3}
     5f4:	e12fff1e 	bx	lr

000005f8 <set_event_counter>:
     5f8:	e2403002 	sub	r3, r0, #2
     5fc:	e3530003 	cmp	r3, #3
     600:	959f2018 	ldrls	r2, [pc, #24]	; 620 <set_event_counter+0x28>
     604:	83a03000 	movhi	r3, #0
     608:	97923103 	ldrls	r3, [r2, r3, lsl #2]
     60c:	ee093fbc 	mcr	15, 0, r3, cr9, cr12, {5}
     610:	ee090f3d 	mcr	15, 0, r0, cr9, cr13, {1}
     614:	f57ff04f 	dsb	sy
     618:	f57ff06f 	isb	sy
     61c:	e12fff1e 	bx	lr
     620:	0000241c 	andeq	r2, r0, ip, lsl r4

00000624 <get_event_counter>:
     624:	e2400002 	sub	r0, r0, #2
     628:	e3500003 	cmp	r0, #3
     62c:	959f3018 	ldrls	r3, [pc, #24]	; 64c <get_event_counter+0x28>
     630:	83a03000 	movhi	r3, #0
     634:	97933100 	ldrls	r3, [r3, r0, lsl #2]
     638:	ee093fbc 	mcr	15, 0, r3, cr9, cr12, {5}
     63c:	ee190f5d 	mrc	15, 0, r0, cr9, cr13, {2}
     640:	f57ff04f 	dsb	sy
     644:	f57ff06f 	isb	sy
     648:	e12fff1e 	bx	lr
     64c:	0000241c 	andeq	r2, r0, ip, lsl r4
	...

00000660 <save_mmu_state>:
     660:	ee503f10 	mrc	15, 2, r3, cr0, cr0, {0}
     664:	e5803000 	str	r3, [r0]
     668:	ee113f50 	mrc	15, 0, r3, cr1, cr0, {2}
     66c:	e5803008 	str	r3, [r0, #8]
     670:	ee133f10 	mrc	15, 0, r3, cr3, cr0, {0}
     674:	e5803018 	str	r3, [r0, #24]
     678:	ee123f10 	mrc	15, 0, r3, cr2, cr0, {0}
     67c:	e580300c 	str	r3, [r0, #12]
     680:	ee123f30 	mrc	15, 0, r3, cr2, cr0, {1}
     684:	e5803010 	str	r3, [r0, #16]
     688:	ee123f50 	mrc	15, 0, r3, cr2, cr0, {2}
     68c:	e5803014 	str	r3, [r0, #20]
     690:	ee113f10 	mrc	15, 0, r3, cr1, cr0, {0}
     694:	e5803004 	str	r3, [r0, #4]
     698:	e12fff1e 	bx	lr

0000069c <restore_mmu_state>:
     69c:	e5903000 	ldr	r3, [r0]
     6a0:	ee403f10 	mcr	15, 2, r3, cr0, cr0, {0}
     6a4:	e5903008 	ldr	r3, [r0, #8]
     6a8:	ee013f50 	mcr	15, 0, r3, cr1, cr0, {2}
     6ac:	e5903018 	ldr	r3, [r0, #24]
     6b0:	ee033f10 	mcr	15, 0, r3, cr3, cr0, {0}
     6b4:	e5903010 	ldr	r3, [r0, #16]
     6b8:	ee023f10 	mcr	15, 0, r3, cr2, cr0, {0}
     6bc:	ee023f30 	mcr	15, 0, r3, cr2, cr0, {1}
     6c0:	e5903014 	ldr	r3, [r0, #20]
     6c4:	ee023f50 	mcr	15, 0, r3, cr2, cr0, {2}
     6c8:	ea000004 	b	6e0 <__turn_mmu_on>
     6cc:	e320f000 	nop	{0}
     6d0:	e320f000 	nop	{0}
     6d4:	e320f000 	nop	{0}
     6d8:	e320f000 	nop	{0}
     6dc:	e320f000 	nop	{0}

000006e0 <__turn_mmu_on>:
     6e0:	e1a00000 	nop			; (mov r0, r0)
     6e4:	e5903004 	ldr	r3, [r0, #4]
     6e8:	ee013f10 	mcr	15, 0, r3, cr1, cr0, {0}
     6ec:	ee103f10 	mrc	15, 0, r3, cr0, cr0, {0}
     6f0:	e1a03003 	mov	r3, r3
     6f4:	e1a03003 	mov	r3, r3
     6f8:	f57ff06f 	isb	sy
     6fc:	e12fff1e 	bx	lr

00000700 <save_sp>:
     700:	e1a0000d 	mov	r0, sp
     704:	e59fd49c 	ldr	sp, [pc, #1180]	; ba8 <jump_to_resume0_nommu+0x28>
     708:	e1a0f00e 	mov	pc, lr

0000070c <save_sp_nommu>:
     70c:	e1a0000d 	mov	r0, sp
     710:	e59fd494 	ldr	sp, [pc, #1172]	; bac <jump_to_resume0_nommu+0x2c>
     714:	e1a0f00e 	mov	pc, lr

00000718 <restore_sp>:
     718:	e1a0d000 	mov	sp, r0
     71c:	e1a0f00e 	mov	pc, lr

00000720 <get_sp>:
     720:	e1a0000d 	mov	r0, sp
     724:	e1a0f00e 	mov	pc, lr
     728:	e320f000 	nop	{0}
     72c:	e320f000 	nop	{0}

00000730 <invalidate_dcache>:
     730:	f57ff05f 	dmb	sy
     734:	ee300f30 	mrc	15, 1, r0, cr0, cr0, {1}
     738:	e2103407 	ands	r3, r0, #117440512	; 0x7000000
     73c:	e1a03ba3 	lsr	r3, r3, #23
     740:	0a00001a 	beq	7b0 <inv_finished>
     744:	e3a0a000 	mov	sl, #0

00000748 <inv_loop1>:
     748:	e08a20aa 	add	r2, sl, sl, lsr #1
     74c:	e1a01230 	lsr	r1, r0, r2
     750:	e2011007 	and	r1, r1, #7
     754:	e3510002 	cmp	r1, #2
     758:	ba000011 	blt	7a4 <inv_skip>
     75c:	ee40af10 	mcr	15, 2, sl, cr0, cr0, {0}
     760:	f57ff06f 	isb	sy
     764:	ee301f10 	mrc	15, 1, r1, cr0, cr0, {0}
     768:	e2012007 	and	r2, r1, #7
     76c:	e2822004 	add	r2, r2, #4
     770:	e59f4438 	ldr	r4, [pc, #1080]	; bb0 <jump_to_resume0_nommu+0x30>
     774:	e01441a1 	ands	r4, r4, r1, lsr #3
     778:	e16f5f14 	clz	r5, r4
     77c:	e59f7430 	ldr	r7, [pc, #1072]	; bb4 <jump_to_resume0_nommu+0x34>
     780:	e01776a1 	ands	r7, r7, r1, lsr #13

00000784 <inv_loop2>:
     784:	e1a09004 	mov	r9, r4

00000788 <inv_loop3>:
     788:	e18ab519 	orr	fp, sl, r9, lsl r5
     78c:	e18bb217 	orr	fp, fp, r7, lsl r2
     790:	ee07bf56 	mcr	15, 0, fp, cr7, cr6, {2}
     794:	e2599001 	subs	r9, r9, #1
     798:	aafffffa 	bge	788 <inv_loop3>
     79c:	e2577001 	subs	r7, r7, #1
     7a0:	aafffff7 	bge	784 <inv_loop2>

000007a4 <inv_skip>:
     7a4:	e28aa002 	add	sl, sl, #2
     7a8:	e153000a 	cmp	r3, sl
     7ac:	caffffe5 	bgt	748 <inv_loop1>

000007b0 <inv_finished>:
     7b0:	e3a0a000 	mov	sl, #0
     7b4:	ee40af10 	mcr	15, 2, sl, cr0, cr0, {0}
     7b8:	f57ff04f 	dsb	sy
     7bc:	f57ff06f 	isb	sy
     7c0:	e1a0f00e 	mov	pc, lr

000007c4 <invalidate_icache>:
     7c4:	e3a00000 	mov	r0, #0
     7c8:	ee070f11 	mcr	15, 0, r0, cr7, cr1, {0}
     7cc:	ee070f15 	mcr	15, 0, r0, cr7, cr5, {0}
     7d0:	f57ff04f 	dsb	sy
     7d4:	f57ff06f 	isb	sy
     7d8:	e1a0f00e 	mov	pc, lr

000007dc <flush_dcache>:
     7dc:	e92d1fff 	push	{r0, r1, r2, r3, r4, r5, r6, r7, r8, r9, sl, fp, ip}
     7e0:	f57ff05f 	dmb	sy
     7e4:	ee300f30 	mrc	15, 1, r0, cr0, cr0, {1}
     7e8:	e2103407 	ands	r3, r0, #117440512	; 0x7000000
     7ec:	e1a03ba3 	lsr	r3, r3, #23
     7f0:	0a00001a 	beq	860 <finished>
     7f4:	e3a0a000 	mov	sl, #0

000007f8 <loop1>:
     7f8:	e08a20aa 	add	r2, sl, sl, lsr #1
     7fc:	e1a01230 	lsr	r1, r0, r2
     800:	e2011007 	and	r1, r1, #7
     804:	e3510002 	cmp	r1, #2
     808:	ba000011 	blt	854 <skip>
     80c:	ee40af10 	mcr	15, 2, sl, cr0, cr0, {0}
     810:	f57ff06f 	isb	sy
     814:	ee301f10 	mrc	15, 1, r1, cr0, cr0, {0}
     818:	e2012007 	and	r2, r1, #7
     81c:	e2822004 	add	r2, r2, #4
     820:	e59f4388 	ldr	r4, [pc, #904]	; bb0 <jump_to_resume0_nommu+0x30>
     824:	e01441a1 	ands	r4, r4, r1, lsr #3
     828:	e16f5f14 	clz	r5, r4
     82c:	e59f7380 	ldr	r7, [pc, #896]	; bb4 <jump_to_resume0_nommu+0x34>
     830:	e01776a1 	ands	r7, r7, r1, lsr #13

00000834 <loop2>:
     834:	e1a09004 	mov	r9, r4

00000838 <loop3>:
     838:	e18ab519 	orr	fp, sl, r9, lsl r5
     83c:	e18bb217 	orr	fp, fp, r7, lsl r2
     840:	ee07bf5e 	mcr	15, 0, fp, cr7, cr14, {2}
     844:	e2599001 	subs	r9, r9, #1
     848:	aafffffa 	bge	838 <loop3>
     84c:	e2577001 	subs	r7, r7, #1
     850:	aafffff7 	bge	834 <loop2>

00000854 <skip>:
     854:	e28aa002 	add	sl, sl, #2
     858:	e153000a 	cmp	r3, sl
     85c:	caffffe5 	bgt	7f8 <loop1>

00000860 <finished>:
     860:	e3a0a000 	mov	sl, #0
     864:	ee40af10 	mcr	15, 2, sl, cr0, cr0, {0}
     868:	f57ff04f 	dsb	sy
     86c:	f57ff06f 	isb	sy
     870:	e8bd1fff 	pop	{r0, r1, r2, r3, r4, r5, r6, r7, r8, r9, sl, fp, ip}
     874:	e1a0f00e 	mov	pc, lr

00000878 <flush_icache>:
     878:	e92d000f 	push	{r0, r1, r2, r3}
     87c:	e3a00000 	mov	r0, #0
     880:	ee070f15 	mcr	15, 0, r0, cr7, cr5, {0}
     884:	ee070f11 	mcr	15, 0, r0, cr7, cr1, {0}
     888:	ee070fd1 	mcr	15, 0, r0, cr7, cr1, {6}
     88c:	f57ff06f 	isb	sy
     890:	f57ff04f 	dsb	sy
     894:	e8bd000f 	pop	{r0, r1, r2, r3}
     898:	e1a0f00e 	mov	pc, lr

0000089c <disable_cache>:
     89c:	e92d000f 	push	{r0, r1, r2, r3}
     8a0:	ee110f10 	mrc	15, 0, r0, cr1, cr0, {0}
     8a4:	e3c00a01 	bic	r0, r0, #4096	; 0x1000
     8a8:	e3c00004 	bic	r0, r0, #4
     8ac:	ee010f10 	mcr	15, 0, r0, cr1, cr0, {0}
     8b0:	f57ff06f 	isb	sy
     8b4:	e8bd000f 	pop	{r0, r1, r2, r3}
     8b8:	e1a0f00e 	mov	pc, lr

000008bc <disable_dcache>:
     8bc:	e92d000f 	push	{r0, r1, r2, r3}
     8c0:	ee110f10 	mrc	15, 0, r0, cr1, cr0, {0}
     8c4:	e3c00004 	bic	r0, r0, #4
     8c8:	ee010f10 	mcr	15, 0, r0, cr1, cr0, {0}
     8cc:	f57ff06f 	isb	sy
     8d0:	e8bd000f 	pop	{r0, r1, r2, r3}
     8d4:	e1a0f00e 	mov	pc, lr

000008d8 <disable_icache>:
     8d8:	e92d000f 	push	{r0, r1, r2, r3}
     8dc:	ee110f10 	mrc	15, 0, r0, cr1, cr0, {0}
     8e0:	e3c00a01 	bic	r0, r0, #4096	; 0x1000
     8e4:	ee010f10 	mcr	15, 0, r0, cr1, cr0, {0}
     8e8:	f57ff06f 	isb	sy
     8ec:	e8bd000f 	pop	{r0, r1, r2, r3}
     8f0:	e1a0f00e 	mov	pc, lr

000008f4 <disable_l2cache>:
     8f4:	e92d000f 	push	{r0, r1, r2, r3}
     8f8:	ee110f30 	mrc	15, 0, r0, cr1, cr0, {1}
     8fc:	e3c00002 	bic	r0, r0, #2
     900:	ee010f30 	mcr	15, 0, r0, cr1, cr0, {1}
     904:	f57ff06f 	isb	sy
     908:	e8bd000f 	pop	{r0, r1, r2, r3}
     90c:	e1a0f00e 	mov	pc, lr

00000910 <enable_cache>:
     910:	e92d000f 	push	{r0, r1, r2, r3}
     914:	ee110f10 	mrc	15, 0, r0, cr1, cr0, {0}
     918:	e3800a01 	orr	r0, r0, #4096	; 0x1000
     91c:	e3800004 	orr	r0, r0, #4
     920:	ee010f10 	mcr	15, 0, r0, cr1, cr0, {0}
     924:	f57ff06f 	isb	sy
     928:	e8bd000f 	pop	{r0, r1, r2, r3}
     92c:	e1a0f00e 	mov	pc, lr

00000930 <enable_icache>:
     930:	e92d000f 	push	{r0, r1, r2, r3}
     934:	ee110f10 	mrc	15, 0, r0, cr1, cr0, {0}
     938:	e3800a01 	orr	r0, r0, #4096	; 0x1000
     93c:	ee010f10 	mcr	15, 0, r0, cr1, cr0, {0}
     940:	f57ff06f 	isb	sy
     944:	e8bd000f 	pop	{r0, r1, r2, r3}
     948:	e1a0f00e 	mov	pc, lr

0000094c <invalidate_branch_predictor>:
     94c:	e92d000f 	push	{r0, r1, r2, r3}
     950:	e3a00000 	mov	r0, #0
     954:	ee070fd5 	mcr	15, 0, r0, cr7, cr5, {6}
     958:	f57ff06f 	isb	sy
     95c:	e8bd000f 	pop	{r0, r1, r2, r3}
     960:	e1a0f00e 	mov	pc, lr

00000964 <disable_program_flow_prediction>:
     964:	e92d000f 	push	{r0, r1, r2, r3}
     968:	ee110f10 	mrc	15, 0, r0, cr1, cr0, {0}
     96c:	e3c00b02 	bic	r0, r0, #2048	; 0x800
     970:	ee010f10 	mcr	15, 0, r0, cr1, cr0, {0}
     974:	f57ff06f 	isb	sy
     978:	e8bd000f 	pop	{r0, r1, r2, r3}
     97c:	e1a0f00e 	mov	pc, lr

00000980 <enable_program_flow_prediction>:
     980:	e92d000f 	push	{r0, r1, r2, r3}
     984:	ee110f10 	mrc	15, 0, r0, cr1, cr0, {0}
     988:	e3800b02 	orr	r0, r0, #2048	; 0x800
     98c:	ee010f10 	mcr	15, 0, r0, cr1, cr0, {0}
     990:	f57ff06f 	isb	sy
     994:	e8bd000f 	pop	{r0, r1, r2, r3}
     998:	e1a0f00e 	mov	pc, lr

0000099c <mem_flush_tlb>:
     99c:	e92d000f 	push	{r0, r1, r2, r3}
     9a0:	e3a00000 	mov	r0, #0
     9a4:	ee080f15 	mcr	15, 0, r0, cr8, cr5, {0}
     9a8:	ee080f16 	mcr	15, 0, r0, cr8, cr6, {0}
     9ac:	ee080f13 	mcr	15, 0, r0, cr8, cr3, {0}
     9b0:	f57ff04f 	dsb	sy
     9b4:	f57ff06f 	isb	sy
     9b8:	e8bd000f 	pop	{r0, r1, r2, r3}
     9bc:	e1a0f00e 	mov	pc, lr

000009c0 <mem_preload_tlb>:
     9c0:	e92d000f 	push	{r0, r1, r2, r3}
     9c4:	e3a0020f 	mov	r0, #-268435456	; 0xf0000000
     9c8:	e5901000 	ldr	r1, [r0]
     9cc:	e59f01e4 	ldr	r0, [pc, #484]	; bb8 <jump_to_resume0_nommu+0x38>
     9d0:	e5901000 	ldr	r1, [r0]
     9d4:	e59f01e0 	ldr	r0, [pc, #480]	; bbc <jump_to_resume0_nommu+0x3c>
     9d8:	e5901000 	ldr	r1, [r0]
     9dc:	e59f01dc 	ldr	r0, [pc, #476]	; bc0 <jump_to_resume0_nommu+0x40>
     9e0:	e5901000 	ldr	r1, [r0]
     9e4:	e59f01d8 	ldr	r0, [pc, #472]	; bc4 <jump_to_resume0_nommu+0x44>
     9e8:	e5901000 	ldr	r1, [r0]
     9ec:	e59f01d4 	ldr	r0, [pc, #468]	; bc8 <jump_to_resume0_nommu+0x48>
     9f0:	e5901000 	ldr	r1, [r0]
     9f4:	e59f01d0 	ldr	r0, [pc, #464]	; bcc <jump_to_resume0_nommu+0x4c>
     9f8:	e5901000 	ldr	r1, [r0]
     9fc:	e59f01cc 	ldr	r0, [pc, #460]	; bd0 <jump_to_resume0_nommu+0x50>
     a00:	e5901000 	ldr	r1, [r0]
     a04:	e59f01c8 	ldr	r0, [pc, #456]	; bd4 <jump_to_resume0_nommu+0x54>
     a08:	e5901000 	ldr	r1, [r0]
     a0c:	e59f01c4 	ldr	r0, [pc, #452]	; bd8 <jump_to_resume0_nommu+0x58>
     a10:	e5901000 	ldr	r1, [r0]
     a14:	e59f01c0 	ldr	r0, [pc, #448]	; bdc <jump_to_resume0_nommu+0x5c>
     a18:	e5901000 	ldr	r1, [r0]
     a1c:	e59f01bc 	ldr	r0, [pc, #444]	; be0 <jump_to_resume0_nommu+0x60>
     a20:	e5901000 	ldr	r1, [r0]
     a24:	e59f01b8 	ldr	r0, [pc, #440]	; be4 <jump_to_resume0_nommu+0x64>
     a28:	e5901000 	ldr	r1, [r0]
     a2c:	e59f01b4 	ldr	r0, [pc, #436]	; be8 <jump_to_resume0_nommu+0x68>
     a30:	e5901000 	ldr	r1, [r0]
     a34:	e59f01b0 	ldr	r0, [pc, #432]	; bec <jump_to_resume0_nommu+0x6c>
     a38:	e5901000 	ldr	r1, [r0]
     a3c:	e59f01ac 	ldr	r0, [pc, #428]	; bf0 <jump_to_resume0_nommu+0x70>
     a40:	e5901000 	ldr	r1, [r0]
     a44:	e59f01a8 	ldr	r0, [pc, #424]	; bf4 <jump_to_resume0_nommu+0x74>
     a48:	e5901000 	ldr	r1, [r0]
     a4c:	e59f01a4 	ldr	r0, [pc, #420]	; bf8 <jump_to_resume0_nommu+0x78>
     a50:	e5901000 	ldr	r1, [r0]
     a54:	e59f01a0 	ldr	r0, [pc, #416]	; bfc <jump_to_resume0_nommu+0x7c>
     a58:	e5901000 	ldr	r1, [r0]
     a5c:	e59f019c 	ldr	r0, [pc, #412]	; c00 <jump_to_resume0_nommu+0x80>
     a60:	e5901000 	ldr	r1, [r0]
     a64:	e59f0198 	ldr	r0, [pc, #408]	; c04 <jump_to_resume0_nommu+0x84>
     a68:	e5901000 	ldr	r1, [r0]
     a6c:	e59f0194 	ldr	r0, [pc, #404]	; c08 <jump_to_resume0_nommu+0x88>
     a70:	e5901000 	ldr	r1, [r0]
     a74:	e59f0190 	ldr	r0, [pc, #400]	; c0c <jump_to_resume0_nommu+0x8c>
     a78:	e5901000 	ldr	r1, [r0]
     a7c:	e59f018c 	ldr	r0, [pc, #396]	; c10 <jump_to_resume0_nommu+0x90>
     a80:	e5901000 	ldr	r1, [r0]
     a84:	e59f0188 	ldr	r0, [pc, #392]	; c14 <jump_to_resume0_nommu+0x94>
     a88:	e5901000 	ldr	r1, [r0]
     a8c:	e59f0184 	ldr	r0, [pc, #388]	; c18 <jump_to_resume0_nommu+0x98>
     a90:	e5901000 	ldr	r1, [r0]
     a94:	e59f0180 	ldr	r0, [pc, #384]	; c1c <jump_to_resume0_nommu+0x9c>
     a98:	e5901000 	ldr	r1, [r0]
     a9c:	e59f017c 	ldr	r0, [pc, #380]	; c20 <jump_to_resume0_nommu+0xa0>
     aa0:	e5901000 	ldr	r1, [r0]
     aa4:	e59f0178 	ldr	r0, [pc, #376]	; c24 <jump_to_resume0_nommu+0xa4>
     aa8:	e5901000 	ldr	r1, [r0]
     aac:	e59f0174 	ldr	r0, [pc, #372]	; c28 <jump_to_resume0_nommu+0xa8>
     ab0:	e5901000 	ldr	r1, [r0]
     ab4:	e59f0170 	ldr	r0, [pc, #368]	; c2c <jump_to_resume0_nommu+0xac>
     ab8:	e5901000 	ldr	r1, [r0]
     abc:	f57ff04f 	dsb	sy
     ac0:	f57ff06f 	isb	sy
     ac4:	e8bd000f 	pop	{r0, r1, r2, r3}
     ac8:	e1a0f00e 	mov	pc, lr

00000acc <disable_mmu>:
     acc:	ee111f10 	mrc	15, 0, r1, cr1, cr0, {0}
     ad0:	e3c11a01 	bic	r1, r1, #4096	; 0x1000
     ad4:	e3c11005 	bic	r1, r1, #5
     ad8:	ea000000 	b	ae0 <__turn_mmu_off>
     adc:	e320f000 	nop	{0}

00000ae0 <__turn_mmu_off>:
     ae0:	ee011f10 	mcr	15, 0, r1, cr1, cr0, {0}
     ae4:	ee103f10 	mrc	15, 0, r3, cr0, cr0, {0}
     ae8:	e1a03003 	mov	r3, r3
     aec:	e1a03003 	mov	r3, r3
     af0:	e1a0f00e 	mov	pc, lr

00000af4 <enable_mmu>:
     af4:	ee111f10 	mrc	15, 0, r1, cr1, cr0, {0}
     af8:	e3811a01 	orr	r1, r1, #4096	; 0x1000
     afc:	e3811005 	orr	r1, r1, #5
     b00:	ea000006 	b	b20 <__turn_mmu_on>
     b04:	e320f000 	nop	{0}
     b08:	e320f000 	nop	{0}
     b0c:	e320f000 	nop	{0}
     b10:	e320f000 	nop	{0}
     b14:	e320f000 	nop	{0}
     b18:	e320f000 	nop	{0}
     b1c:	e320f000 	nop	{0}

00000b20 <__turn_mmu_on>:
     b20:	ee011f10 	mcr	15, 0, r1, cr1, cr0, {0}
     b24:	ee103f10 	mrc	15, 0, r3, cr0, cr0, {0}
     b28:	e1a03003 	mov	r3, r3
     b2c:	e1a03003 	mov	r3, r3
     b30:	e1a0f00e 	mov	pc, lr

00000b34 <jump_to_suspend>:
     b34:	ee020f10 	mcr	15, 0, r0, cr2, cr0, {0}
     b38:	f57ff04f 	dsb	sy
     b3c:	f57ff06f 	isb	sy
     b40:	e1a0f001 	mov	pc, r1
     b44:	e320f000 	nop	{0}
     b48:	e320f000 	nop	{0}
     b4c:	e320f000 	nop	{0}

00000b50 <jump_to_resume>:
     b50:	e1a0c000 	mov	ip, r0
     b54:	e1a08001 	mov	r8, r1
     b58:	ebfffef4 	bl	730 <invalidate_dcache>
     b5c:	e1a01008 	mov	r1, r8
     b60:	e1a0e00c 	mov	lr, ip
     b64:	e8913fff 	ldm	r1, {r0, r1, r2, r3, r4, r5, r6, r7, r8, r9, sl, fp, ip, sp}
     b68:	e1a0f00e 	mov	pc, lr
     b6c:	e320f000 	nop	{0}

00000b70 <jump_to_resume0>:
     b70:	e1a0e000 	mov	lr, r0
     b74:	e1a0f00e 	mov	pc, lr
     b78:	e320f000 	nop	{0}
     b7c:	e320f000 	nop	{0}

00000b80 <jump_to_resume0_nommu>:
     b80:	ee111f10 	mrc	15, 0, r1, cr1, cr0, {0}
     b84:	e3c11a01 	bic	r1, r1, #4096	; 0x1000
     b88:	e3c11007 	bic	r1, r1, #7
     b8c:	ee011f10 	mcr	15, 0, r1, cr1, cr0, {0}
     b90:	ee103f10 	mrc	15, 0, r3, cr0, cr0, {0}
     b94:	e1a03003 	mov	r3, r3
     b98:	e1a03003 	mov	r3, r3
     b9c:	e1a0e000 	mov	lr, r0
     ba0:	f57ff06f 	isb	sy
     ba4:	e1a0f00e 	mov	pc, lr
     ba8:	f0003ffc 			; <UNDEFINED> instruction: 0xf0003ffc
     bac:	00003ffc 	strdeq	r3, [r0], -ip
     bb0:	000003ff 	strdeq	r0, [r0], -pc	; <UNPREDICTABLE>
     bb4:	00007fff 	strdeq	r7, [r0], -pc	; <UNPREDICTABLE>
     bb8:	f0001000 			; <UNDEFINED> instruction: 0xf0001000
     bbc:	f0002000 			; <UNDEFINED> instruction: 0xf0002000
     bc0:	f0003000 			; <UNDEFINED> instruction: 0xf0003000
     bc4:	f0040000 			; <UNDEFINED> instruction: 0xf0040000
     bc8:	f0041000 			; <UNDEFINED> instruction: 0xf0041000
     bcc:	f0042000 			; <UNDEFINED> instruction: 0xf0042000
     bd0:	f0043000 			; <UNDEFINED> instruction: 0xf0043000
     bd4:	f0044000 			; <UNDEFINED> instruction: 0xf0044000
     bd8:	f0045000 			; <UNDEFINED> instruction: 0xf0045000
     bdc:	f0046000 			; <UNDEFINED> instruction: 0xf0046000
     be0:	f0047000 			; <UNDEFINED> instruction: 0xf0047000
     be4:	f0048000 			; <UNDEFINED> instruction: 0xf0048000
     be8:	f0049000 			; <UNDEFINED> instruction: 0xf0049000
     bec:	f004a000 			; <UNDEFINED> instruction: 0xf004a000
     bf0:	f004b000 			; <UNDEFINED> instruction: 0xf004b000
     bf4:	f004c000 			; <UNDEFINED> instruction: 0xf004c000
     bf8:	f004d000 			; <UNDEFINED> instruction: 0xf004d000
     bfc:	f004e000 			; <UNDEFINED> instruction: 0xf004e000
     c00:	f004f000 			; <UNDEFINED> instruction: 0xf004f000
     c04:	f0050000 			; <UNDEFINED> instruction: 0xf0050000
     c08:	f0051000 			; <UNDEFINED> instruction: 0xf0051000
     c0c:	f0052000 			; <UNDEFINED> instruction: 0xf0052000
     c10:	f0053000 			; <UNDEFINED> instruction: 0xf0053000
     c14:	f1c17000 			; <UNDEFINED> instruction: 0xf1c17000
     c18:	f1c18000 			; <UNDEFINED> instruction: 0xf1c18000
     c1c:	f1c20800 			; <UNDEFINED> instruction: 0xf1c20800
     c20:	f1f01400 			; <UNDEFINED> instruction: 0xf1f01400
     c24:	f1c28000 			; <UNDEFINED> instruction: 0xf1c28000
     c28:	f1f00000 			; <UNDEFINED> instruction: 0xf1f00000
     c2c:	f1c20000 			; <UNDEFINED> instruction: 0xf1c20000
     c30:	e320f000 	nop	{0}
     c34:	e320f000 	nop	{0}
     c38:	e320f000 	nop	{0}
     c3c:	e320f000 	nop	{0}

00000c40 <__save_processor_state>:
     c40:	ee503f10 	mrc	15, 2, r3, cr0, cr0, {0}
     c44:	e5803000 	str	r3, [r0]
     c48:	ee113f10 	mrc	15, 0, r3, cr1, cr0, {0}
     c4c:	e5803004 	str	r3, [r0, #4]
     c50:	ee113f50 	mrc	15, 0, r3, cr1, cr0, {2}
     c54:	e580300c 	str	r3, [r0, #12]
     c58:	ee123f10 	mrc	15, 0, r3, cr2, cr0, {0}
     c5c:	e580301c 	str	r3, [r0, #28]
     c60:	ee123f30 	mrc	15, 0, r3, cr2, cr0, {1}
     c64:	e5803020 	str	r3, [r0, #32]
     c68:	ee123f50 	mrc	15, 0, r3, cr2, cr0, {2}
     c6c:	e5803024 	str	r3, [r0, #36]	; 0x24
     c70:	ee133f10 	mrc	15, 0, r3, cr3, cr0, {0}
     c74:	e5803028 	str	r3, [r0, #40]	; 0x28
     c78:	ee153f10 	mrc	15, 0, r3, cr5, cr0, {0}
     c7c:	e580302c 	str	r3, [r0, #44]	; 0x2c
     c80:	ee153f30 	mrc	15, 0, r3, cr5, cr0, {1}
     c84:	e5803030 	str	r3, [r0, #48]	; 0x30
     c88:	ee153f11 	mrc	15, 0, r3, cr5, cr1, {0}
     c8c:	e5803034 	str	r3, [r0, #52]	; 0x34
     c90:	ee153f31 	mrc	15, 0, r3, cr5, cr1, {1}
     c94:	e5803038 	str	r3, [r0, #56]	; 0x38
     c98:	ee163f10 	mrc	15, 0, r3, cr6, cr0, {0}
     c9c:	e580303c 	str	r3, [r0, #60]	; 0x3c
     ca0:	ee163f50 	mrc	15, 0, r3, cr6, cr0, {2}
     ca4:	e5803040 	str	r3, [r0, #64]	; 0x40
     ca8:	ee173f14 	mrc	15, 0, r3, cr7, cr4, {0}
     cac:	e5803044 	str	r3, [r0, #68]	; 0x44
     cb0:	ee193f1c 	mrc	15, 0, r3, cr9, cr12, {0}
     cb4:	e5803048 	str	r3, [r0, #72]	; 0x48
     cb8:	ee193f3c 	mrc	15, 0, r3, cr9, cr12, {1}
     cbc:	e580304c 	str	r3, [r0, #76]	; 0x4c
     cc0:	ee193f5c 	mrc	15, 0, r3, cr9, cr12, {2}
     cc4:	e5803050 	str	r3, [r0, #80]	; 0x50
     cc8:	ee193f7c 	mrc	15, 0, r3, cr9, cr12, {3}
     ccc:	e5803054 	str	r3, [r0, #84]	; 0x54
     cd0:	ee193fbc 	mrc	15, 0, r3, cr9, cr12, {5}
     cd4:	e580305c 	str	r3, [r0, #92]	; 0x5c
     cd8:	ee193f1d 	mrc	15, 0, r3, cr9, cr13, {0}
     cdc:	e5803060 	str	r3, [r0, #96]	; 0x60
     ce0:	ee193f3d 	mrc	15, 0, r3, cr9, cr13, {1}
     ce4:	e5803064 	str	r3, [r0, #100]	; 0x64
     ce8:	ee193f5d 	mrc	15, 0, r3, cr9, cr13, {2}
     cec:	e5803068 	str	r3, [r0, #104]	; 0x68
     cf0:	ee193f1e 	mrc	15, 0, r3, cr9, cr14, {0}
     cf4:	e580306c 	str	r3, [r0, #108]	; 0x6c
     cf8:	ee193f3e 	mrc	15, 0, r3, cr9, cr14, {1}
     cfc:	e5803070 	str	r3, [r0, #112]	; 0x70
     d00:	ee193f5e 	mrc	15, 0, r3, cr9, cr14, {2}
     d04:	e5803074 	str	r3, [r0, #116]	; 0x74
     d08:	ee1a3f12 	mrc	15, 0, r3, cr10, cr2, {0}
     d0c:	e5803078 	str	r3, [r0, #120]	; 0x78
     d10:	ee1a3f32 	mrc	15, 0, r3, cr10, cr2, {1}
     d14:	e580307c 	str	r3, [r0, #124]	; 0x7c
     d18:	ee1c3f10 	mrc	15, 0, r3, cr12, cr0, {0}
     d1c:	e5803080 	str	r3, [r0, #128]	; 0x80
     d20:	ee1c3f30 	mrc	15, 0, r3, cr12, cr0, {1}
     d24:	e5803084 	str	r3, [r0, #132]	; 0x84
     d28:	ee1d3f30 	mrc	15, 0, r3, cr13, cr0, {1}
     d2c:	e5803090 	str	r3, [r0, #144]	; 0x90
     d30:	ee1d3f50 	mrc	15, 0, r3, cr13, cr0, {2}
     d34:	e5803094 	str	r3, [r0, #148]	; 0x94
     d38:	ee1d3f70 	mrc	15, 0, r3, cr13, cr0, {3}
     d3c:	e5803098 	str	r3, [r0, #152]	; 0x98
     d40:	ee1d3f90 	mrc	15, 0, r3, cr13, cr0, {4}
     d44:	e580309c 	str	r3, [r0, #156]	; 0x9c
     d48:	e12fff1e 	bx	lr

00000d4c <__restore_processor_state>:
     d4c:	e5903000 	ldr	r3, [r0]
     d50:	ee403f10 	mcr	15, 2, r3, cr0, cr0, {0}
     d54:	e590300c 	ldr	r3, [r0, #12]
     d58:	ee013f50 	mcr	15, 0, r3, cr1, cr0, {2}
     d5c:	e590301c 	ldr	r3, [r0, #28]
     d60:	ee023f10 	mcr	15, 0, r3, cr2, cr0, {0}
     d64:	f57ff04f 	dsb	sy
     d68:	f57ff06f 	isb	sy
     d6c:	e5903020 	ldr	r3, [r0, #32]
     d70:	ee023f30 	mcr	15, 0, r3, cr2, cr0, {1}
     d74:	f57ff04f 	dsb	sy
     d78:	f57ff06f 	isb	sy
     d7c:	e5903024 	ldr	r3, [r0, #36]	; 0x24
     d80:	ee023f50 	mcr	15, 0, r3, cr2, cr0, {2}
     d84:	f57ff04f 	dsb	sy
     d88:	f57ff06f 	isb	sy
     d8c:	e5903028 	ldr	r3, [r0, #40]	; 0x28
     d90:	ee033f10 	mcr	15, 0, r3, cr3, cr0, {0}
     d94:	e5903044 	ldr	r3, [r0, #68]	; 0x44
     d98:	ee073f14 	mcr	15, 0, r3, cr7, cr4, {0}
     d9c:	e590305c 	ldr	r3, [r0, #92]	; 0x5c
     da0:	ee093fbc 	mcr	15, 0, r3, cr9, cr12, {5}
     da4:	e5903060 	ldr	r3, [r0, #96]	; 0x60
     da8:	ee093f1d 	mcr	15, 0, r3, cr9, cr13, {0}
     dac:	e5903064 	ldr	r3, [r0, #100]	; 0x64
     db0:	ee093f3d 	mcr	15, 0, r3, cr9, cr13, {1}
     db4:	e5903068 	ldr	r3, [r0, #104]	; 0x68
     db8:	ee093f5d 	mcr	15, 0, r3, cr9, cr13, {2}
     dbc:	e590306c 	ldr	r3, [r0, #108]	; 0x6c
     dc0:	ee093f1e 	mcr	15, 0, r3, cr9, cr14, {0}
     dc4:	e5903070 	ldr	r3, [r0, #112]	; 0x70
     dc8:	ee093f3e 	mcr	15, 0, r3, cr9, cr14, {1}
     dcc:	e5903074 	ldr	r3, [r0, #116]	; 0x74
     dd0:	ee093f5e 	mcr	15, 0, r3, cr9, cr14, {2}
     dd4:	e5903078 	ldr	r3, [r0, #120]	; 0x78
     dd8:	ee0a3f12 	mcr	15, 0, r3, cr10, cr2, {0}
     ddc:	e590307c 	ldr	r3, [r0, #124]	; 0x7c
     de0:	ee0a3f32 	mcr	15, 0, r3, cr10, cr2, {1}
     de4:	e5903080 	ldr	r3, [r0, #128]	; 0x80
     de8:	ee0c3f10 	mcr	15, 0, r3, cr12, cr0, {0}
     dec:	e5903084 	ldr	r3, [r0, #132]	; 0x84
     df0:	ee0c3f30 	mcr	15, 0, r3, cr12, cr0, {1}
     df4:	e5903090 	ldr	r3, [r0, #144]	; 0x90
     df8:	ee0d3f30 	mcr	15, 0, r3, cr13, cr0, {1}
     dfc:	e5903094 	ldr	r3, [r0, #148]	; 0x94
     e00:	ee0d3f50 	mcr	15, 0, r3, cr13, cr0, {2}
     e04:	e5903098 	ldr	r3, [r0, #152]	; 0x98
     e08:	ee0d3f70 	mcr	15, 0, r3, cr13, cr0, {3}
     e0c:	e590309c 	ldr	r3, [r0, #156]	; 0x9c
     e10:	ee0d3f90 	mcr	15, 0, r3, cr13, cr0, {4}
     e14:	f57ff04f 	dsb	sy
     e18:	f57ff06f 	isb	sy
     e1c:	e12fff1e 	bx	lr

00000e20 <disable_cache_invalidate>:
     e20:	e3a03000 	mov	r3, #0
     e24:	e34f31c2 	movt	r3, #61890	; 0xf1c2
     e28:	e5932d3c 	ldr	r2, [r3, #3388]	; 0xd3c
     e2c:	e3822003 	orr	r2, r2, #3
     e30:	e5832d3c 	str	r2, [r3, #3388]	; 0xd3c
     e34:	e12fff1e 	bx	lr

00000e38 <set_copro_default>:
     e38:	e3a03002 	mov	r3, #2
     e3c:	ee403f10 	mcr	15, 2, r3, cr0, cr0, {0}
     e40:	e3003878 	movw	r3, #2168	; 0x878
     e44:	e34030c5 	movt	r3, #197	; 0xc5
     e48:	ee013f10 	mcr	15, 0, r3, cr1, cr0, {0}
     e4c:	e3063040 	movw	r3, #24640	; 0x6040
     e50:	ee013f30 	mcr	15, 0, r3, cr1, cr0, {1}
     e54:	e3a03000 	mov	r3, #0
     e58:	ee013f50 	mcr	15, 0, r3, cr1, cr0, {2}
     e5c:	ee013f11 	mcr	15, 0, r3, cr1, cr1, {0}
     e60:	ee013f31 	mcr	15, 0, r3, cr1, cr1, {1}
     e64:	ee013f51 	mcr	15, 0, r3, cr1, cr1, {2}
     e68:	ee023f10 	mcr	15, 0, r3, cr2, cr0, {0}
     e6c:	ee023f30 	mcr	15, 0, r3, cr2, cr0, {1}
     e70:	ee023f50 	mcr	15, 0, r3, cr2, cr0, {2}
     e74:	ee033f10 	mcr	15, 0, r3, cr3, cr0, {0}
     e78:	ee053f10 	mcr	15, 0, r3, cr5, cr0, {0}
     e7c:	ee053f30 	mcr	15, 0, r3, cr5, cr0, {1}
     e80:	ee053f11 	mcr	15, 0, r3, cr5, cr1, {0}
     e84:	ee053f31 	mcr	15, 0, r3, cr5, cr1, {1}
     e88:	ee063f10 	mcr	15, 0, r3, cr6, cr0, {0}
     e8c:	ee063f50 	mcr	15, 0, r3, cr6, cr0, {2}
     e90:	ee073f14 	mcr	15, 0, r3, cr7, cr4, {0}
     e94:	ee093f1e 	mcr	15, 0, r3, cr9, cr14, {0}
     e98:	ee093f3e 	mcr	15, 0, r3, cr9, cr14, {1}
     e9c:	ee093f5e 	mcr	15, 0, r3, cr9, cr14, {2}
     ea0:	e30831a4 	movw	r3, #33188	; 0x81a4
     ea4:	e340300a 	movt	r3, #10
     ea8:	ee0a3f12 	mcr	15, 0, r3, cr10, cr2, {0}
     eac:	e30438e0 	movw	r3, #18656	; 0x48e0
     eb0:	e34434e0 	movt	r3, #17632	; 0x44e0
     eb4:	ee0a3f32 	mcr	15, 0, r3, cr10, cr2, {1}
     eb8:	e3a03000 	mov	r3, #0
     ebc:	ee0c3f10 	mcr	15, 0, r3, cr12, cr0, {0}
     ec0:	ee0c3f30 	mcr	15, 0, r3, cr12, cr0, {1}
     ec4:	ee0d3f30 	mcr	15, 0, r3, cr13, cr0, {1}
     ec8:	ee0d3f50 	mcr	15, 0, r3, cr13, cr0, {2}
     ecc:	ee0d3f70 	mcr	15, 0, r3, cr13, cr0, {3}
     ed0:	ee0d3f90 	mcr	15, 0, r3, cr13, cr0, {4}
     ed4:	f57ff04f 	dsb	sy
     ed8:	f57ff06f 	isb	sy
     edc:	e12fff1e 	bx	lr

00000ee0 <save_processor_state>:
     ee0:	e302052c 	movw	r0, #9516	; 0x252c
     ee4:	e3400000 	movt	r0, #0
     ee8:	eaffff54 	b	c40 <__save_processor_state>

00000eec <restore_processor_state>:
     eec:	e302052c 	movw	r0, #9516	; 0x252c
     ef0:	e3400000 	movt	r0, #0
     ef4:	eaffff94 	b	d4c <__restore_processor_state>

00000ef8 <restore_processor_ttbr0>:
     ef8:	e302352c 	movw	r3, #9516	; 0x252c
     efc:	e3403000 	movt	r3, #0
     f00:	e593301c 	ldr	r3, [r3, #28]
     f04:	ee023f10 	mcr	15, 0, r3, cr2, cr0, {0}
     f08:	e12fff1e 	bx	lr

00000f0c <set_ttbr0>:
     f0c:	ee123f30 	mrc	15, 0, r3, cr2, cr0, {1}
     f10:	ee023f10 	mcr	15, 0, r3, cr2, cr0, {0}
     f14:	f57ff06f 	isb	sy
     f18:	e12fff1e 	bx	lr

00000f1c <set_serial_clk>:
     f1c:	e92d4038 	push	{r3, r4, r5, lr}
     f20:	e1a04000 	mov	r4, r0
     f24:	eb000474 	bl	20fc <mem_get_ba>
     f28:	e1a03000 	mov	r3, r0
     f2c:	e5902058 	ldr	r2, [r0, #88]	; 0x58
     f30:	e7e12c52 	ubfx	r2, r2, #24, #2
     f34:	e3520003 	cmp	r2, #3
     f38:	159f1094 	ldrne	r1, [pc, #148]	; fd4 <set_serial_clk+0xb8>
     f3c:	03a00000 	moveq	r0, #0
     f40:	17910102 	ldrne	r0, [r1, r2, lsl #2]
     f44:	e5931058 	ldr	r1, [r3, #88]	; 0x58
     f48:	e5933058 	ldr	r3, [r3, #88]	; 0x58
     f4c:	e201101f 	and	r1, r1, #31
     f50:	e7e13853 	ubfx	r3, r3, #16, #2
     f54:	e2811001 	add	r1, r1, #1
     f58:	e1a01311 	lsl	r1, r1, r3
     f5c:	eb000315 	bl	1bb8 <__aeabi_uidiv>
     f60:	e3540000 	cmp	r4, #0
     f64:	e3a04000 	mov	r4, #0
     f68:	134f41c2 	movtne	r4, #61890	; 0xf1c2
     f6c:	159f3064 	ldrne	r3, [pc, #100]	; fd8 <set_serial_clk+0xbc>
     f70:	1594206c 	ldrne	r2, [r4, #108]	; 0x6c
     f74:	034041c2 	movteq	r4, #450	; 0x1c2
     f78:	e1a05000 	mov	r5, r0
     f7c:	15832000 	strne	r2, [r3]
     f80:	159422d8 	ldrne	r2, [r4, #728]	; 0x2d8
     f84:	15832004 	strne	r2, [r3, #4]
     f88:	159428b4 	ldrne	r2, [r4, #2228]	; 0x8b4
     f8c:	15832008 	strne	r2, [r3, #8]
     f90:	e59432d8 	ldr	r3, [r4, #728]	; 0x2d8
     f94:	e3c33801 	bic	r3, r3, #65536	; 0x10000
     f98:	e58432d8 	str	r3, [r4, #728]	; 0x2d8
     f9c:	e59432d8 	ldr	r3, [r4, #728]	; 0x2d8
     fa0:	e3833801 	orr	r3, r3, #65536	; 0x10000
     fa4:	e58432d8 	str	r3, [r4, #728]	; 0x2d8
     fa8:	ebfffd5a 	bl	518 <change_runtime_env>
     fac:	e3a00001 	mov	r0, #1
     fb0:	ebfffd62 	bl	540 <delay_us>
     fb4:	e594306c 	ldr	r3, [r4, #108]	; 0x6c
     fb8:	e1a00005 	mov	r0, r5
     fbc:	e3c33801 	bic	r3, r3, #65536	; 0x10000
     fc0:	e584306c 	str	r3, [r4, #108]	; 0x6c
     fc4:	e594306c 	ldr	r3, [r4, #108]	; 0x6c
     fc8:	e3833801 	orr	r3, r3, #65536	; 0x10000
     fcc:	e584306c 	str	r3, [r4, #108]	; 0x6c
     fd0:	e8bd8038 	pop	{r3, r4, r5, pc}
     fd4:	0000242c 	andeq	r2, r0, ip, lsr #8
     fd8:	000025cc 	andeq	r2, r0, ip, asr #11

00000fdc <serial_init_nommu>:
     fdc:	e92d4038 	push	{r3, r4, r5, lr}
     fe0:	e3a03000 	mov	r3, #0
     fe4:	e1a00003 	mov	r0, r3
     fe8:	e34031c2 	movt	r3, #450	; 0x1c2
     fec:	e59328b4 	ldr	r2, [r3, #2228]	; 0x8b4
     ff0:	e3c22807 	bic	r2, r2, #458752	; 0x70000
     ff4:	e3c22c07 	bic	r2, r2, #1792	; 0x700
     ff8:	e58328b4 	str	r2, [r3, #2228]	; 0x8b4
     ffc:	e59328b4 	ldr	r2, [r3, #2228]	; 0x8b4
    1000:	e3822803 	orr	r2, r2, #196608	; 0x30000
    1004:	e3822c03 	orr	r2, r2, #768	; 0x300
    1008:	e58328b4 	str	r2, [r3, #2228]	; 0x8b4
    100c:	ebffffc2 	bl	f1c <set_serial_clk>
    1010:	e30b33c5 	movw	r3, #46021	; 0xb3c5
    1014:	e2800ae1 	add	r0, r0, #921600	; 0xe1000
    1018:	e34931a2 	movt	r3, #37282	; 0x91a2
    101c:	e3a02902 	mov	r2, #32768	; 0x8000
    1020:	e0831093 	umull	r1, r3, r3, r0
    1024:	e34021c2 	movt	r2, #450	; 0x1c2
    1028:	e592000c 	ldr	r0, [r2, #12]
    102c:	e3a0c001 	mov	ip, #1
    1030:	e582c0a4 	str	ip, [r2, #164]	; 0xa4
    1034:	e30215cc 	movw	r1, #9676	; 0x25cc
    1038:	e3401000 	movt	r1, #0
    103c:	e3805080 	orr	r5, r0, #128	; 0x80
    1040:	e3c00080 	bic	r0, r0, #128	; 0x80
    1044:	e1a04e23 	lsr	r4, r3, #28
    1048:	e7e73a53 	ubfx	r3, r3, #20, #8
    104c:	e582500c 	str	r5, [r2, #12]
    1050:	e5824004 	str	r4, [r2, #4]
    1054:	e5823000 	str	r3, [r2]
    1058:	e3a03000 	mov	r3, #0
    105c:	e582000c 	str	r0, [r2, #12]
    1060:	e58230a4 	str	r3, [r2, #164]	; 0xa4
    1064:	e3a03003 	mov	r3, #3
    1068:	e582300c 	str	r3, [r2, #12]
    106c:	e3a030e1 	mov	r3, #225	; 0xe1
    1070:	e5823008 	str	r3, [r2, #8]
    1074:	e581c00c 	str	ip, [r1, #12]
    1078:	e8bd8038 	pop	{r3, r4, r5, pc}

0000107c <serial_puts_nommu>:
    107c:	e59f3084 	ldr	r3, [pc, #132]	; 1108 <serial_puts_nommu+0x8c>
    1080:	e52d4004 	push	{r4}		; (str r4, [sp, #-4]!)
    1084:	e593300c 	ldr	r3, [r3, #12]
    1088:	e3530000 	cmp	r3, #0
    108c:	03e00000 	mvneq	r0, #0
    1090:	0a000013 	beq	10e4 <serial_puts_nommu+0x68>
    1094:	e5d03000 	ldrb	r3, [r0]
    1098:	e3530000 	cmp	r3, #0
    109c:	0a00000f 	beq	10e0 <serial_puts_nommu+0x64>
    10a0:	e3a01902 	mov	r1, #32768	; 0x8000
    10a4:	e2400001 	sub	r0, r0, #1
    10a8:	e34011c2 	movt	r1, #450	; 0x1c2
    10ac:	e3a0400d 	mov	r4, #13
    10b0:	e353000a 	cmp	r3, #10
    10b4:	0a00000c 	beq	10ec <serial_puts_nommu+0x70>
    10b8:	e5f0c001 	ldrb	ip, [r0, #1]!
    10bc:	e591207c 	ldr	r2, [r1, #124]	; 0x7c
    10c0:	e3a03902 	mov	r3, #32768	; 0x8000
    10c4:	e34031c2 	movt	r3, #450	; 0x1c2
    10c8:	e3120002 	tst	r2, #2
    10cc:	0afffffa 	beq	10bc <serial_puts_nommu+0x40>
    10d0:	e583c000 	str	ip, [r3]
    10d4:	e5d03001 	ldrb	r3, [r0, #1]
    10d8:	e3530000 	cmp	r3, #0
    10dc:	1afffff3 	bne	10b0 <serial_puts_nommu+0x34>
    10e0:	e1a00003 	mov	r0, r3
    10e4:	e8bd0010 	pop	{r4}
    10e8:	e12fff1e 	bx	lr
    10ec:	e591207c 	ldr	r2, [r1, #124]	; 0x7c
    10f0:	e3a03902 	mov	r3, #32768	; 0x8000
    10f4:	e34031c2 	movt	r3, #450	; 0x1c2
    10f8:	e3120002 	tst	r2, #2
    10fc:	0afffffa 	beq	10ec <serial_puts_nommu+0x70>
    1100:	e5834000 	str	r4, [r3]
    1104:	eaffffeb 	b	10b8 <serial_puts_nommu+0x3c>
    1108:	000025cc 	andeq	r2, r0, ip, asr #11

0000110c <serial_gets_nommu>:
    110c:	e59f3080 	ldr	r3, [pc, #128]	; 1194 <serial_gets_nommu+0x88>
    1110:	e52d4004 	push	{r4}		; (str r4, [sp, #-4]!)
    1114:	e593300c 	ldr	r3, [r3, #12]
    1118:	e3530000 	cmp	r3, #0
    111c:	03e00000 	mvneq	r0, #0
    1120:	1a000001 	bne	112c <serial_gets_nommu+0x20>
    1124:	e8bd0010 	pop	{r4}
    1128:	e12fff1e 	bx	lr
    112c:	e3510000 	cmp	r1, #0
    1130:	03a00001 	moveq	r0, #1
    1134:	0afffffa 	beq	1124 <serial_gets_nommu+0x18>
    1138:	e3a0c902 	mov	ip, #32768	; 0x8000
    113c:	e3a04000 	mov	r4, #0
    1140:	e340c1c2 	movt	ip, #450	; 0x1c2
    1144:	e30f3fff 	movw	r3, #65535	; 0xffff
    1148:	ea000001 	b	1154 <serial_gets_nommu+0x48>
    114c:	e2533001 	subs	r3, r3, #1
    1150:	3a000006 	bcc	1170 <serial_gets_nommu+0x64>
    1154:	e59c207c 	ldr	r2, [ip, #124]	; 0x7c
    1158:	e3120008 	tst	r2, #8
    115c:	0afffffa 	beq	114c <serial_gets_nommu+0x40>
    1160:	e3530000 	cmp	r3, #0
    1164:	1a000001 	bne	1170 <serial_gets_nommu+0x64>
    1168:	e2840001 	add	r0, r4, #1
    116c:	eaffffec 	b	1124 <serial_gets_nommu+0x18>
    1170:	e59c3000 	ldr	r3, [ip]
    1174:	e6ef3073 	uxtb	r3, r3
    1178:	e3530000 	cmp	r3, #0
    117c:	0afffff9 	beq	1168 <serial_gets_nommu+0x5c>
    1180:	e7c03004 	strb	r3, [r0, r4]
    1184:	e2844001 	add	r4, r4, #1
    1188:	e1540001 	cmp	r4, r1
    118c:	1affffec 	bne	1144 <serial_gets_nommu+0x38>
    1190:	eafffff4 	b	1168 <serial_gets_nommu+0x5c>
    1194:	000025cc 	andeq	r2, r0, ip, asr #11

00001198 <serial_init>:
    1198:	e92d4038 	push	{r3, r4, r5, lr}
    119c:	e3a03000 	mov	r3, #0
    11a0:	e34f31c2 	movt	r3, #61890	; 0xf1c2
    11a4:	e3a00001 	mov	r0, #1
    11a8:	e59328b4 	ldr	r2, [r3, #2228]	; 0x8b4
    11ac:	e3c22807 	bic	r2, r2, #458752	; 0x70000
    11b0:	e3c22c07 	bic	r2, r2, #1792	; 0x700
    11b4:	e58328b4 	str	r2, [r3, #2228]	; 0x8b4
    11b8:	e59328b4 	ldr	r2, [r3, #2228]	; 0x8b4
    11bc:	e3822803 	orr	r2, r2, #196608	; 0x30000
    11c0:	e3822c03 	orr	r2, r2, #768	; 0x300
    11c4:	e58328b4 	str	r2, [r3, #2228]	; 0x8b4
    11c8:	ebffff53 	bl	f1c <set_serial_clk>
    11cc:	e30b33c5 	movw	r3, #46021	; 0xb3c5
    11d0:	e2800ae1 	add	r0, r0, #921600	; 0xe1000
    11d4:	e34931a2 	movt	r3, #37282	; 0x91a2
    11d8:	e3a02902 	mov	r2, #32768	; 0x8000
    11dc:	e0831093 	umull	r1, r3, r3, r0
    11e0:	e34f21c2 	movt	r2, #61890	; 0xf1c2
    11e4:	e592000c 	ldr	r0, [r2, #12]
    11e8:	e3a0c001 	mov	ip, #1
    11ec:	e582c0a4 	str	ip, [r2, #164]	; 0xa4
    11f0:	e30215cc 	movw	r1, #9676	; 0x25cc
    11f4:	e3401000 	movt	r1, #0
    11f8:	e3805080 	orr	r5, r0, #128	; 0x80
    11fc:	e3c00080 	bic	r0, r0, #128	; 0x80
    1200:	e1a04e23 	lsr	r4, r3, #28
    1204:	e7e73a53 	ubfx	r3, r3, #20, #8
    1208:	e582500c 	str	r5, [r2, #12]
    120c:	e5824004 	str	r4, [r2, #4]
    1210:	e5823000 	str	r3, [r2]
    1214:	e3a03000 	mov	r3, #0
    1218:	e582000c 	str	r0, [r2, #12]
    121c:	e58230a4 	str	r3, [r2, #164]	; 0xa4
    1220:	e3a03003 	mov	r3, #3
    1224:	e582300c 	str	r3, [r2, #12]
    1228:	e3a030e1 	mov	r3, #225	; 0xe1
    122c:	e5823008 	str	r3, [r2, #8]
    1230:	e581c00c 	str	ip, [r1, #12]
    1234:	e8bd8038 	pop	{r3, r4, r5, pc}

00001238 <serial_exit>:
    1238:	e30235cc 	movw	r3, #9676	; 0x25cc
    123c:	e3a02000 	mov	r2, #0
    1240:	e3403000 	movt	r3, #0
    1244:	e34f21c2 	movt	r2, #61890	; 0xf1c2
    1248:	e5931000 	ldr	r1, [r3]
    124c:	e582106c 	str	r1, [r2, #108]	; 0x6c
    1250:	e5931004 	ldr	r1, [r3, #4]
    1254:	e58212d8 	str	r1, [r2, #728]	; 0x2d8
    1258:	e5931008 	ldr	r1, [r3, #8]
    125c:	e58218b4 	str	r1, [r2, #2228]	; 0x8b4
    1260:	e3a02000 	mov	r2, #0
    1264:	e583200c 	str	r2, [r3, #12]
    1268:	e12fff1e 	bx	lr

0000126c <serial_puts>:
    126c:	e59f3084 	ldr	r3, [pc, #132]	; 12f8 <serial_puts+0x8c>
    1270:	e52d4004 	push	{r4}		; (str r4, [sp, #-4]!)
    1274:	e593300c 	ldr	r3, [r3, #12]
    1278:	e3530000 	cmp	r3, #0
    127c:	03e00000 	mvneq	r0, #0
    1280:	0a000013 	beq	12d4 <serial_puts+0x68>
    1284:	e5d03000 	ldrb	r3, [r0]
    1288:	e3530000 	cmp	r3, #0
    128c:	0a00000f 	beq	12d0 <serial_puts+0x64>
    1290:	e3a01902 	mov	r1, #32768	; 0x8000
    1294:	e2400001 	sub	r0, r0, #1
    1298:	e34f11c2 	movt	r1, #61890	; 0xf1c2
    129c:	e3a0400d 	mov	r4, #13
    12a0:	e353000a 	cmp	r3, #10
    12a4:	0a00000c 	beq	12dc <serial_puts+0x70>
    12a8:	e5f0c001 	ldrb	ip, [r0, #1]!
    12ac:	e591207c 	ldr	r2, [r1, #124]	; 0x7c
    12b0:	e3a03902 	mov	r3, #32768	; 0x8000
    12b4:	e34f31c2 	movt	r3, #61890	; 0xf1c2
    12b8:	e3120002 	tst	r2, #2
    12bc:	0afffffa 	beq	12ac <serial_puts+0x40>
    12c0:	e583c000 	str	ip, [r3]
    12c4:	e5d03001 	ldrb	r3, [r0, #1]
    12c8:	e3530000 	cmp	r3, #0
    12cc:	1afffff3 	bne	12a0 <serial_puts+0x34>
    12d0:	e1a00003 	mov	r0, r3
    12d4:	e8bd0010 	pop	{r4}
    12d8:	e12fff1e 	bx	lr
    12dc:	e591207c 	ldr	r2, [r1, #124]	; 0x7c
    12e0:	e3a03902 	mov	r3, #32768	; 0x8000
    12e4:	e34f31c2 	movt	r3, #61890	; 0xf1c2
    12e8:	e3120002 	tst	r2, #2
    12ec:	0afffffa 	beq	12dc <serial_puts+0x70>
    12f0:	e5834000 	str	r4, [r3]
    12f4:	eaffffeb 	b	12a8 <serial_puts+0x3c>
    12f8:	000025cc 	andeq	r2, r0, ip, asr #11

000012fc <serial_gets>:
    12fc:	e59f3080 	ldr	r3, [pc, #128]	; 1384 <serial_gets+0x88>
    1300:	e52d4004 	push	{r4}		; (str r4, [sp, #-4]!)
    1304:	e593300c 	ldr	r3, [r3, #12]
    1308:	e3530000 	cmp	r3, #0
    130c:	03e00000 	mvneq	r0, #0
    1310:	1a000001 	bne	131c <serial_gets+0x20>
    1314:	e8bd0010 	pop	{r4}
    1318:	e12fff1e 	bx	lr
    131c:	e3510000 	cmp	r1, #0
    1320:	03a00001 	moveq	r0, #1
    1324:	0afffffa 	beq	1314 <serial_gets+0x18>
    1328:	e3a0c902 	mov	ip, #32768	; 0x8000
    132c:	e3a04000 	mov	r4, #0
    1330:	e34fc1c2 	movt	ip, #61890	; 0xf1c2
    1334:	e30f3fff 	movw	r3, #65535	; 0xffff
    1338:	ea000001 	b	1344 <serial_gets+0x48>
    133c:	e2533001 	subs	r3, r3, #1
    1340:	3a000006 	bcc	1360 <serial_gets+0x64>
    1344:	e59c207c 	ldr	r2, [ip, #124]	; 0x7c
    1348:	e3120008 	tst	r2, #8
    134c:	0afffffa 	beq	133c <serial_gets+0x40>
    1350:	e3530000 	cmp	r3, #0
    1354:	1a000001 	bne	1360 <serial_gets+0x64>
    1358:	e2840001 	add	r0, r4, #1
    135c:	eaffffec 	b	1314 <serial_gets+0x18>
    1360:	e59c3000 	ldr	r3, [ip]
    1364:	e6ef3073 	uxtb	r3, r3
    1368:	e3530000 	cmp	r3, #0
    136c:	0afffff9 	beq	1358 <serial_gets+0x5c>
    1370:	e7c03004 	strb	r3, [r0, r4]
    1374:	e2844001 	add	r4, r4, #1
    1378:	e1540001 	cmp	r4, r1
    137c:	1affffec 	bne	1334 <serial_gets+0x38>
    1380:	eafffff4 	b	1358 <serial_gets+0x5c>
    1384:	000025cc 	andeq	r2, r0, ip, asr #11

00001388 <utoa>:
    1388:	e92d45f0 	push	{r4, r5, r6, r7, r8, sl, lr}
    138c:	e3500000 	cmp	r0, #0
    1390:	e59f60a8 	ldr	r6, [pc, #168]	; 1440 <utoa+0xb8>
    1394:	e1a07001 	mov	r7, r1
    1398:	e1a04000 	mov	r4, r0
    139c:	e1a05002 	mov	r5, r2
    13a0:	e24dd02c 	sub	sp, sp, #44	; 0x2c
    13a4:	13a08000 	movne	r8, #0
    13a8:	e28dc004 	add	ip, sp, #4
    13ac:	128da018 	addne	sl, sp, #24
    13b0:	e8b6000f 	ldm	r6!, {r0, r1, r2, r3}
    13b4:	e5966000 	ldr	r6, [r6]
    13b8:	e8ac000f 	stmia	ip!, {r0, r1, r2, r3}
    13bc:	03a03030 	moveq	r3, #48	; 0x30
    13c0:	05c74001 	strbeq	r4, [r7, #1]
    13c4:	e5cc6000 	strb	r6, [ip]
    13c8:	05c73000 	strbeq	r3, [r7]
    13cc:	1a000001 	bne	13d8 <utoa+0x50>
    13d0:	ea000017 	b	1434 <utoa+0xac>
    13d4:	e1a08003 	mov	r8, r3
    13d8:	e1a00004 	mov	r0, r4
    13dc:	e1a01005 	mov	r1, r5
    13e0:	eb00024e 	bl	1d20 <__aeabi_uidivmod>
    13e4:	e28d3028 	add	r3, sp, #40	; 0x28
    13e8:	e1a00004 	mov	r0, r4
    13ec:	e0831001 	add	r1, r3, r1
    13f0:	e5516024 	ldrb	r6, [r1, #-36]	; 0x24
    13f4:	e1a01005 	mov	r1, r5
    13f8:	e7ca6008 	strb	r6, [sl, r8]
    13fc:	eb0001ed 	bl	1bb8 <__aeabi_uidiv>
    1400:	e2504000 	subs	r4, r0, #0
    1404:	e2883001 	add	r3, r8, #1
    1408:	1afffff1 	bne	13d4 <utoa+0x4c>
    140c:	e2472001 	sub	r2, r7, #1
    1410:	e08a3008 	add	r3, sl, r8
    1414:	ea000000 	b	141c <utoa+0x94>
    1418:	e5736001 	ldrb	r6, [r3, #-1]!
    141c:	e153000a 	cmp	r3, sl
    1420:	e5e26001 	strb	r6, [r2, #1]!
    1424:	1afffffb 	bne	1418 <utoa+0x90>
    1428:	e0878008 	add	r8, r7, r8
    142c:	e3a03000 	mov	r3, #0
    1430:	e5c83001 	strb	r3, [r8, #1]
    1434:	e1a00007 	mov	r0, r7
    1438:	e28dd02c 	add	sp, sp, #44	; 0x2c
    143c:	e8bd85f0 	pop	{r4, r5, r6, r7, r8, sl, pc}
    1440:	000024b4 			; <UNDEFINED> instruction: 0x000024b4

00001444 <print_align>:
    1444:	e92d00f0 	push	{r4, r5, r6, r7}
    1448:	e1510002 	cmp	r1, r2
    144c:	e59f4094 	ldr	r4, [pc, #148]	; 14e8 <print_align+0xa4>
    1450:	e1a07001 	mov	r7, r1
    1454:	e1a06002 	mov	r6, r2
    1458:	e1a05000 	mov	r5, r0
    145c:	e24dd018 	sub	sp, sp, #24
    1460:	e28dc004 	add	ip, sp, #4
    1464:	e8b4000f 	ldm	r4!, {r0, r1, r2, r3}
    1468:	e5944000 	ldr	r4, [r4]
    146c:	e8ac000f 	stmia	ip!, {r0, r1, r2, r3}
    1470:	a3a00000 	movge	r0, #0
    1474:	e5cc4000 	strb	r4, [ip]
    1478:	aa000017 	bge	14dc <print_align+0x98>
    147c:	e0670006 	rsb	r0, r7, r6
    1480:	e3500000 	cmp	r0, #0
    1484:	e1a01000 	mov	r1, r0
    1488:	0a000013 	beq	14dc <print_align+0x98>
    148c:	e5d53000 	ldrb	r3, [r5]
    1490:	e3530000 	cmp	r3, #0
    1494:	0a000005 	beq	14b0 <print_align+0x6c>
    1498:	e1a03005 	mov	r3, r5
    149c:	e2833001 	add	r3, r3, #1
    14a0:	e5d32000 	ldrb	r2, [r3]
    14a4:	e1a05003 	mov	r5, r3
    14a8:	e3520000 	cmp	r2, #0
    14ac:	1afffffa 	bne	149c <print_align+0x58>
    14b0:	e28dc003 	add	ip, sp, #3
    14b4:	ea000000 	b	14bc <print_align+0x78>
    14b8:	e1a05003 	mov	r5, r3
    14bc:	e5fc2001 	ldrb	r2, [ip, #1]!
    14c0:	e1a03005 	mov	r3, r5
    14c4:	e3520000 	cmp	r2, #0
    14c8:	e4c32001 	strb	r2, [r3], #1
    14cc:	0a000002 	beq	14dc <print_align+0x98>
    14d0:	e2511001 	subs	r1, r1, #1
    14d4:	1afffff7 	bne	14b8 <print_align+0x74>
    14d8:	e5c51001 	strb	r1, [r5, #1]
    14dc:	e28dd018 	add	sp, sp, #24
    14e0:	e8bd00f0 	pop	{r4, r5, r6, r7}
    14e4:	e12fff1e 	bx	lr
    14e8:	000024c8 	andeq	r2, r0, r8, asr #9

000014ec <itoa.constprop.0>:
    14ec:	e92d01f0 	push	{r4, r5, r6, r7, r8}
    14f0:	e3500000 	cmp	r0, #0
    14f4:	e59f50d4 	ldr	r5, [pc, #212]	; 15d0 <itoa.constprop.0+0xe4>
    14f8:	e1a06001 	mov	r6, r1
    14fc:	e1a0c000 	mov	ip, r0
    1500:	e24dd02c 	sub	sp, sp, #44	; 0x2c
    1504:	e28d4004 	add	r4, sp, #4
    1508:	e8b5000f 	ldm	r5!, {r0, r1, r2, r3}
    150c:	e5955000 	ldr	r5, [r5]
    1510:	e8a4000f 	stmia	r4!, {r0, r1, r2, r3}
    1514:	03a03030 	moveq	r3, #48	; 0x30
    1518:	05c6c001 	strbeq	ip, [r6, #1]
    151c:	e5c45000 	strb	r5, [r4]
    1520:	05c63000 	strbeq	r3, [r6]
    1524:	0a000025 	beq	15c0 <itoa.constprop.0+0xd4>
    1528:	e3065667 	movw	r5, #26215	; 0x6667
    152c:	b26cc000 	rsblt	ip, ip, #0
    1530:	b3a07001 	movlt	r7, #1
    1534:	a3a07000 	movge	r7, #0
    1538:	e3a03000 	mov	r3, #0
    153c:	e28d0018 	add	r0, sp, #24
    1540:	e3465666 	movt	r5, #26214	; 0x6666
    1544:	ea000000 	b	154c <itoa.constprop.0+0x60>
    1548:	e1a03004 	mov	r3, r4
    154c:	e0c12c95 	smull	r2, r1, r5, ip
    1550:	e1a02fcc 	asr	r2, ip, #31
    1554:	e28d8028 	add	r8, sp, #40	; 0x28
    1558:	e2834001 	add	r4, r3, #1
    155c:	e0622141 	rsb	r2, r2, r1, asr #2
    1560:	e0821102 	add	r1, r2, r2, lsl #2
    1564:	e04c1081 	sub	r1, ip, r1, lsl #1
    1568:	e252c000 	subs	ip, r2, #0
    156c:	e0882001 	add	r2, r8, r1
    1570:	e5522024 	ldrb	r2, [r2, #-36]	; 0x24
    1574:	e7c02003 	strb	r2, [r0, r3]
    1578:	1afffff2 	bne	1548 <itoa.constprop.0+0x5c>
    157c:	e3570000 	cmp	r7, #0
    1580:	e1a0c003 	mov	ip, r3
    1584:	13a0102d 	movne	r1, #45	; 0x2d
    1588:	13a07001 	movne	r7, #1
    158c:	15c61000 	strbne	r1, [r6]
    1590:	e2471001 	sub	r1, r7, #1
    1594:	e0861001 	add	r1, r6, r1
    1598:	ea000000 	b	15a0 <itoa.constprop.0+0xb4>
    159c:	e7d02003 	ldrb	r2, [r0, r3]
    15a0:	e2433001 	sub	r3, r3, #1
    15a4:	e5e12001 	strb	r2, [r1, #1]!
    15a8:	e3730001 	cmn	r3, #1
    15ac:	1afffffa 	bne	159c <itoa.constprop.0+0xb0>
    15b0:	e2877001 	add	r7, r7, #1
    15b4:	e3a03000 	mov	r3, #0
    15b8:	e0867007 	add	r7, r6, r7
    15bc:	e7c7300c 	strb	r3, [r7, ip]
    15c0:	e1a00006 	mov	r0, r6
    15c4:	e28dd02c 	add	sp, sp, #44	; 0x2c
    15c8:	e8bd01f0 	pop	{r4, r5, r6, r7, r8}
    15cc:	e12fff1e 	bx	lr
    15d0:	000024b4 			; <UNDEFINED> instruction: 0x000024b4

000015d4 <printk>:
    15d4:	e92d000f 	push	{r0, r1, r2, r3}
    15d8:	e92d47f0 	push	{r4, r5, r6, r7, r8, r9, sl, lr}
    15dc:	e24dd018 	sub	sp, sp, #24
    15e0:	e28d303c 	add	r3, sp, #60	; 0x3c
    15e4:	e59d4038 	ldr	r4, [sp, #56]	; 0x38
    15e8:	e58d3014 	str	r3, [sp, #20]
    15ec:	e59f82ac 	ldr	r8, [pc, #684]	; 18a0 <printk+0x2cc>
    15f0:	e5d43000 	ldrb	r3, [r4]
    15f4:	e3530000 	cmp	r3, #0
    15f8:	01a05008 	moveq	r5, r8
    15fc:	0a00002c 	beq	16b4 <printk+0xe0>
    1600:	e3a09025 	mov	r9, #37	; 0x25
    1604:	e28d6004 	add	r6, sp, #4
    1608:	e1a05008 	mov	r5, r8
    160c:	ea000003 	b	1620 <printk+0x4c>
    1610:	e5d43001 	ldrb	r3, [r4, #1]
    1614:	e2844001 	add	r4, r4, #1
    1618:	e3530000 	cmp	r3, #0
    161c:	0a000024 	beq	16b4 <printk+0xe0>
    1620:	e3530025 	cmp	r3, #37	; 0x25
    1624:	14c53001 	strbne	r3, [r5], #1
    1628:	1afffff8 	bne	1610 <printk+0x3c>
    162c:	e5d43001 	ldrb	r3, [r4, #1]
    1630:	e2432031 	sub	r2, r3, #49	; 0x31
    1634:	e3520008 	cmp	r2, #8
    1638:	92437030 	subls	r7, r3, #48	; 0x30
    163c:	95d43002 	ldrbls	r3, [r4, #2]
    1640:	82844001 	addhi	r4, r4, #1
    1644:	83a07000 	movhi	r7, #0
    1648:	92844002 	addls	r4, r4, #2
    164c:	e2433063 	sub	r3, r3, #99	; 0x63
    1650:	e3530015 	cmp	r3, #21
    1654:	979ff103 	ldrls	pc, [pc, r3, lsl #2]
    1658:	ea000070 	b	1820 <printk+0x24c>
    165c:	00001808 	andeq	r1, r0, r8, lsl #16
    1660:	00001834 	andeq	r1, r0, r4, lsr r8
    1664:	00001820 	andeq	r1, r0, r0, lsr #16
    1668:	00001820 	andeq	r1, r0, r0, lsr #16
    166c:	00001820 	andeq	r1, r0, r0, lsr #16
    1670:	00001820 	andeq	r1, r0, r0, lsr #16
    1674:	00001820 	andeq	r1, r0, r0, lsr #16
    1678:	00001820 	andeq	r1, r0, r0, lsr #16
    167c:	00001820 	andeq	r1, r0, r0, lsr #16
    1680:	00001820 	andeq	r1, r0, r0, lsr #16
    1684:	00001820 	andeq	r1, r0, r0, lsr #16
    1688:	00001820 	andeq	r1, r0, r0, lsr #16
    168c:	00001820 	andeq	r1, r0, r0, lsr #16
    1690:	00001798 	muleq	r0, r8, r7
    1694:	00001820 	andeq	r1, r0, r0, lsr #16
    1698:	00001820 	andeq	r1, r0, r0, lsr #16
    169c:	00001748 	andeq	r1, r0, r8, asr #14
    16a0:	00001820 	andeq	r1, r0, r0, lsr #16
    16a4:	000016d8 	ldrdeq	r1, [r0], -r8
    16a8:	00001820 	andeq	r1, r0, r0, lsr #16
    16ac:	00001820 	andeq	r1, r0, r0, lsr #16
    16b0:	00001798 	muleq	r0, r8, r7
    16b4:	e3a03000 	mov	r3, #0
    16b8:	e59f01e0 	ldr	r0, [pc, #480]	; 18a0 <printk+0x2cc>
    16bc:	e4c53001 	strb	r3, [r5], #1
    16c0:	ebfffee9 	bl	126c <serial_puts>
    16c4:	e0680005 	rsb	r0, r8, r5
    16c8:	e28dd018 	add	sp, sp, #24
    16cc:	e8bd47f0 	pop	{r4, r5, r6, r7, r8, r9, sl, lr}
    16d0:	e28dd010 	add	sp, sp, #16
    16d4:	e12fff1e 	bx	lr
    16d8:	e59d0014 	ldr	r0, [sp, #20]
    16dc:	e1a01006 	mov	r1, r6
    16e0:	e3a0200a 	mov	r2, #10
    16e4:	e2803004 	add	r3, r0, #4
    16e8:	e5900000 	ldr	r0, [r0]
    16ec:	e58d3014 	str	r3, [sp, #20]
    16f0:	ebffff24 	bl	1388 <utoa>
    16f4:	e5d6a000 	ldrb	sl, [r6]
    16f8:	e35a0000 	cmp	sl, #0
    16fc:	0a000004 	beq	1714 <printk+0x140>
    1700:	e1a0a006 	mov	sl, r6
    1704:	e5fa3001 	ldrb	r3, [sl, #1]!
    1708:	e3530000 	cmp	r3, #0
    170c:	1afffffc 	bne	1704 <printk+0x130>
    1710:	e066a00a 	rsb	sl, r6, sl
    1714:	e1a0100a 	mov	r1, sl
    1718:	e1a00006 	mov	r0, r6
    171c:	e1a02007 	mov	r2, r7
    1720:	ebffff47 	bl	1444 <print_align>
    1724:	e28d3003 	add	r3, sp, #3
    1728:	e080000a 	add	r0, r0, sl
    172c:	e1a01005 	mov	r1, r5
    1730:	e5f32001 	ldrb	r2, [r3, #1]!
    1734:	e3520000 	cmp	r2, #0
    1738:	e4c12001 	strb	r2, [r1], #1
    173c:	1afffffb 	bne	1730 <printk+0x15c>
    1740:	e0855000 	add	r5, r5, r0
    1744:	eaffffb1 	b	1610 <printk+0x3c>
    1748:	e59d3014 	ldr	r3, [sp, #20]
    174c:	e1a01005 	mov	r1, r5
    1750:	e2832004 	add	r2, r3, #4
    1754:	e58d2014 	str	r2, [sp, #20]
    1758:	e5930000 	ldr	r0, [r3]
    175c:	e2402001 	sub	r2, r0, #1
    1760:	e5f23001 	ldrb	r3, [r2, #1]!
    1764:	e3530000 	cmp	r3, #0
    1768:	e4c13001 	strb	r3, [r1], #1
    176c:	1afffffb 	bne	1760 <printk+0x18c>
    1770:	e5d03000 	ldrb	r3, [r0]
    1774:	e3530000 	cmp	r3, #0
    1778:	0a000004 	beq	1790 <printk+0x1bc>
    177c:	e1a03000 	mov	r3, r0
    1780:	e5f32001 	ldrb	r2, [r3, #1]!
    1784:	e3520000 	cmp	r2, #0
    1788:	1afffffc 	bne	1780 <printk+0x1ac>
    178c:	e0603003 	rsb	r3, r0, r3
    1790:	e0855003 	add	r5, r5, r3
    1794:	eaffff9d 	b	1610 <printk+0x3c>
    1798:	e59d0014 	ldr	r0, [sp, #20]
    179c:	e1a01006 	mov	r1, r6
    17a0:	e3a02010 	mov	r2, #16
    17a4:	e2803004 	add	r3, r0, #4
    17a8:	e5900000 	ldr	r0, [r0]
    17ac:	e58d3014 	str	r3, [sp, #20]
    17b0:	ebfffef4 	bl	1388 <utoa>
    17b4:	e5d6a000 	ldrb	sl, [r6]
    17b8:	e35a0000 	cmp	sl, #0
    17bc:	0a000004 	beq	17d4 <printk+0x200>
    17c0:	e1a0a006 	mov	sl, r6
    17c4:	e5fa3001 	ldrb	r3, [sl, #1]!
    17c8:	e3530000 	cmp	r3, #0
    17cc:	1afffffc 	bne	17c4 <printk+0x1f0>
    17d0:	e066a00a 	rsb	sl, r6, sl
    17d4:	e1a0100a 	mov	r1, sl
    17d8:	e1a00006 	mov	r0, r6
    17dc:	e1a02007 	mov	r2, r7
    17e0:	ebffff17 	bl	1444 <print_align>
    17e4:	e28d3003 	add	r3, sp, #3
    17e8:	e080000a 	add	r0, r0, sl
    17ec:	e1a01005 	mov	r1, r5
    17f0:	e5f32001 	ldrb	r2, [r3, #1]!
    17f4:	e3520000 	cmp	r2, #0
    17f8:	e4c12001 	strb	r2, [r1], #1
    17fc:	1afffffb 	bne	17f0 <printk+0x21c>
    1800:	e0855000 	add	r5, r5, r0
    1804:	eaffff81 	b	1610 <printk+0x3c>
    1808:	e59d3014 	ldr	r3, [sp, #20]
    180c:	e5932000 	ldr	r2, [r3]
    1810:	e2833004 	add	r3, r3, #4
    1814:	e58d3014 	str	r3, [sp, #20]
    1818:	e5c52000 	strb	r2, [r5]
    181c:	eaffff7b 	b	1610 <printk+0x3c>
    1820:	e5c59000 	strb	r9, [r5]
    1824:	e5d43000 	ldrb	r3, [r4]
    1828:	e5c53001 	strb	r3, [r5, #1]
    182c:	e2855002 	add	r5, r5, #2
    1830:	eaffff76 	b	1610 <printk+0x3c>
    1834:	e59d2014 	ldr	r2, [sp, #20]
    1838:	e1a01006 	mov	r1, r6
    183c:	e2823004 	add	r3, r2, #4
    1840:	e5920000 	ldr	r0, [r2]
    1844:	e58d3014 	str	r3, [sp, #20]
    1848:	ebffff27 	bl	14ec <itoa.constprop.0>
    184c:	e5d6a000 	ldrb	sl, [r6]
    1850:	e35a0000 	cmp	sl, #0
    1854:	0a000004 	beq	186c <printk+0x298>
    1858:	e1a0a006 	mov	sl, r6
    185c:	e5fa3001 	ldrb	r3, [sl, #1]!
    1860:	e3530000 	cmp	r3, #0
    1864:	1afffffc 	bne	185c <printk+0x288>
    1868:	e066a00a 	rsb	sl, r6, sl
    186c:	e1a0100a 	mov	r1, sl
    1870:	e1a00006 	mov	r0, r6
    1874:	e1a02007 	mov	r2, r7
    1878:	ebfffef1 	bl	1444 <print_align>
    187c:	e28d3003 	add	r3, sp, #3
    1880:	e080000a 	add	r0, r0, sl
    1884:	e1a01005 	mov	r1, r5
    1888:	e5f32001 	ldrb	r2, [r3, #1]!
    188c:	e3520000 	cmp	r2, #0
    1890:	e4c12001 	strb	r2, [r1], #1
    1894:	1afffffb 	bne	1888 <printk+0x2b4>
    1898:	e0855000 	add	r5, r5, r0
    189c:	eaffff5b 	b	1610 <printk+0x3c>
    18a0:	000025dc 	ldrdeq	r2, [r0], -ip

000018a4 <printk_nommu>:
    18a4:	e92d000f 	push	{r0, r1, r2, r3}
    18a8:	e92d47f0 	push	{r4, r5, r6, r7, r8, r9, sl, lr}
    18ac:	e24dd018 	sub	sp, sp, #24
    18b0:	e28d303c 	add	r3, sp, #60	; 0x3c
    18b4:	e59d4038 	ldr	r4, [sp, #56]	; 0x38
    18b8:	e58d3014 	str	r3, [sp, #20]
    18bc:	e59f82ac 	ldr	r8, [pc, #684]	; 1b70 <printk_nommu+0x2cc>
    18c0:	e5d43000 	ldrb	r3, [r4]
    18c4:	e3530000 	cmp	r3, #0
    18c8:	01a05008 	moveq	r5, r8
    18cc:	0a00002c 	beq	1984 <printk_nommu+0xe0>
    18d0:	e3a09025 	mov	r9, #37	; 0x25
    18d4:	e28d6004 	add	r6, sp, #4
    18d8:	e1a05008 	mov	r5, r8
    18dc:	ea000003 	b	18f0 <printk_nommu+0x4c>
    18e0:	e5d43001 	ldrb	r3, [r4, #1]
    18e4:	e2844001 	add	r4, r4, #1
    18e8:	e3530000 	cmp	r3, #0
    18ec:	0a000024 	beq	1984 <printk_nommu+0xe0>
    18f0:	e3530025 	cmp	r3, #37	; 0x25
    18f4:	14c53001 	strbne	r3, [r5], #1
    18f8:	1afffff8 	bne	18e0 <printk_nommu+0x3c>
    18fc:	e5d43001 	ldrb	r3, [r4, #1]
    1900:	e2432031 	sub	r2, r3, #49	; 0x31
    1904:	e3520008 	cmp	r2, #8
    1908:	92437030 	subls	r7, r3, #48	; 0x30
    190c:	95d43002 	ldrbls	r3, [r4, #2]
    1910:	82844001 	addhi	r4, r4, #1
    1914:	83a07000 	movhi	r7, #0
    1918:	92844002 	addls	r4, r4, #2
    191c:	e2433063 	sub	r3, r3, #99	; 0x63
    1920:	e3530015 	cmp	r3, #21
    1924:	979ff103 	ldrls	pc, [pc, r3, lsl #2]
    1928:	ea000070 	b	1af0 <printk_nommu+0x24c>
    192c:	00001ad8 	ldrdeq	r1, [r0], -r8
    1930:	00001b04 	andeq	r1, r0, r4, lsl #22
    1934:	00001af0 	strdeq	r1, [r0], -r0
    1938:	00001af0 	strdeq	r1, [r0], -r0
    193c:	00001af0 	strdeq	r1, [r0], -r0
    1940:	00001af0 	strdeq	r1, [r0], -r0
    1944:	00001af0 	strdeq	r1, [r0], -r0
    1948:	00001af0 	strdeq	r1, [r0], -r0
    194c:	00001af0 	strdeq	r1, [r0], -r0
    1950:	00001af0 	strdeq	r1, [r0], -r0
    1954:	00001af0 	strdeq	r1, [r0], -r0
    1958:	00001af0 	strdeq	r1, [r0], -r0
    195c:	00001af0 	strdeq	r1, [r0], -r0
    1960:	00001a68 	andeq	r1, r0, r8, ror #20
    1964:	00001af0 	strdeq	r1, [r0], -r0
    1968:	00001af0 	strdeq	r1, [r0], -r0
    196c:	00001a18 	andeq	r1, r0, r8, lsl sl
    1970:	00001af0 	strdeq	r1, [r0], -r0
    1974:	000019a8 	andeq	r1, r0, r8, lsr #19
    1978:	00001af0 	strdeq	r1, [r0], -r0
    197c:	00001af0 	strdeq	r1, [r0], -r0
    1980:	00001a68 	andeq	r1, r0, r8, ror #20
    1984:	e3a03000 	mov	r3, #0
    1988:	e59f01e0 	ldr	r0, [pc, #480]	; 1b70 <printk_nommu+0x2cc>
    198c:	e4c53001 	strb	r3, [r5], #1
    1990:	ebfffdb9 	bl	107c <serial_puts_nommu>
    1994:	e0680005 	rsb	r0, r8, r5
    1998:	e28dd018 	add	sp, sp, #24
    199c:	e8bd47f0 	pop	{r4, r5, r6, r7, r8, r9, sl, lr}
    19a0:	e28dd010 	add	sp, sp, #16
    19a4:	e12fff1e 	bx	lr
    19a8:	e59d0014 	ldr	r0, [sp, #20]
    19ac:	e1a01006 	mov	r1, r6
    19b0:	e3a0200a 	mov	r2, #10
    19b4:	e2803004 	add	r3, r0, #4
    19b8:	e5900000 	ldr	r0, [r0]
    19bc:	e58d3014 	str	r3, [sp, #20]
    19c0:	ebfffe70 	bl	1388 <utoa>
    19c4:	e5d6a000 	ldrb	sl, [r6]
    19c8:	e35a0000 	cmp	sl, #0
    19cc:	0a000004 	beq	19e4 <printk_nommu+0x140>
    19d0:	e1a0a006 	mov	sl, r6
    19d4:	e5fa3001 	ldrb	r3, [sl, #1]!
    19d8:	e3530000 	cmp	r3, #0
    19dc:	1afffffc 	bne	19d4 <printk_nommu+0x130>
    19e0:	e066a00a 	rsb	sl, r6, sl
    19e4:	e1a0100a 	mov	r1, sl
    19e8:	e1a00006 	mov	r0, r6
    19ec:	e1a02007 	mov	r2, r7
    19f0:	ebfffe93 	bl	1444 <print_align>
    19f4:	e28d3003 	add	r3, sp, #3
    19f8:	e080000a 	add	r0, r0, sl
    19fc:	e1a01005 	mov	r1, r5
    1a00:	e5f32001 	ldrb	r2, [r3, #1]!
    1a04:	e3520000 	cmp	r2, #0
    1a08:	e4c12001 	strb	r2, [r1], #1
    1a0c:	1afffffb 	bne	1a00 <printk_nommu+0x15c>
    1a10:	e0855000 	add	r5, r5, r0
    1a14:	eaffffb1 	b	18e0 <printk_nommu+0x3c>
    1a18:	e59d3014 	ldr	r3, [sp, #20]
    1a1c:	e1a01005 	mov	r1, r5
    1a20:	e2832004 	add	r2, r3, #4
    1a24:	e58d2014 	str	r2, [sp, #20]
    1a28:	e5930000 	ldr	r0, [r3]
    1a2c:	e2402001 	sub	r2, r0, #1
    1a30:	e5f23001 	ldrb	r3, [r2, #1]!
    1a34:	e3530000 	cmp	r3, #0
    1a38:	e4c13001 	strb	r3, [r1], #1
    1a3c:	1afffffb 	bne	1a30 <printk_nommu+0x18c>
    1a40:	e5d03000 	ldrb	r3, [r0]
    1a44:	e3530000 	cmp	r3, #0
    1a48:	0a000004 	beq	1a60 <printk_nommu+0x1bc>
    1a4c:	e1a03000 	mov	r3, r0
    1a50:	e5f32001 	ldrb	r2, [r3, #1]!
    1a54:	e3520000 	cmp	r2, #0
    1a58:	1afffffc 	bne	1a50 <printk_nommu+0x1ac>
    1a5c:	e0603003 	rsb	r3, r0, r3
    1a60:	e0855003 	add	r5, r5, r3
    1a64:	eaffff9d 	b	18e0 <printk_nommu+0x3c>
    1a68:	e59d0014 	ldr	r0, [sp, #20]
    1a6c:	e1a01006 	mov	r1, r6
    1a70:	e3a02010 	mov	r2, #16
    1a74:	e2803004 	add	r3, r0, #4
    1a78:	e5900000 	ldr	r0, [r0]
    1a7c:	e58d3014 	str	r3, [sp, #20]
    1a80:	ebfffe40 	bl	1388 <utoa>
    1a84:	e5d6a000 	ldrb	sl, [r6]
    1a88:	e35a0000 	cmp	sl, #0
    1a8c:	0a000004 	beq	1aa4 <printk_nommu+0x200>
    1a90:	e1a0a006 	mov	sl, r6
    1a94:	e5fa3001 	ldrb	r3, [sl, #1]!
    1a98:	e3530000 	cmp	r3, #0
    1a9c:	1afffffc 	bne	1a94 <printk_nommu+0x1f0>
    1aa0:	e066a00a 	rsb	sl, r6, sl
    1aa4:	e1a0100a 	mov	r1, sl
    1aa8:	e1a00006 	mov	r0, r6
    1aac:	e1a02007 	mov	r2, r7
    1ab0:	ebfffe63 	bl	1444 <print_align>
    1ab4:	e28d3003 	add	r3, sp, #3
    1ab8:	e080000a 	add	r0, r0, sl
    1abc:	e1a01005 	mov	r1, r5
    1ac0:	e5f32001 	ldrb	r2, [r3, #1]!
    1ac4:	e3520000 	cmp	r2, #0
    1ac8:	e4c12001 	strb	r2, [r1], #1
    1acc:	1afffffb 	bne	1ac0 <printk_nommu+0x21c>
    1ad0:	e0855000 	add	r5, r5, r0
    1ad4:	eaffff81 	b	18e0 <printk_nommu+0x3c>
    1ad8:	e59d3014 	ldr	r3, [sp, #20]
    1adc:	e5932000 	ldr	r2, [r3]
    1ae0:	e2833004 	add	r3, r3, #4
    1ae4:	e58d3014 	str	r3, [sp, #20]
    1ae8:	e5c52000 	strb	r2, [r5]
    1aec:	eaffff7b 	b	18e0 <printk_nommu+0x3c>
    1af0:	e5c59000 	strb	r9, [r5]
    1af4:	e5d43000 	ldrb	r3, [r4]
    1af8:	e5c53001 	strb	r3, [r5, #1]
    1afc:	e2855002 	add	r5, r5, #2
    1b00:	eaffff76 	b	18e0 <printk_nommu+0x3c>
    1b04:	e59d2014 	ldr	r2, [sp, #20]
    1b08:	e1a01006 	mov	r1, r6
    1b0c:	e2823004 	add	r3, r2, #4
    1b10:	e5920000 	ldr	r0, [r2]
    1b14:	e58d3014 	str	r3, [sp, #20]
    1b18:	ebfffe73 	bl	14ec <itoa.constprop.0>
    1b1c:	e5d6a000 	ldrb	sl, [r6]
    1b20:	e35a0000 	cmp	sl, #0
    1b24:	0a000004 	beq	1b3c <printk_nommu+0x298>
    1b28:	e1a0a006 	mov	sl, r6
    1b2c:	e5fa3001 	ldrb	r3, [sl, #1]!
    1b30:	e3530000 	cmp	r3, #0
    1b34:	1afffffc 	bne	1b2c <printk_nommu+0x288>
    1b38:	e066a00a 	rsb	sl, r6, sl
    1b3c:	e1a0100a 	mov	r1, sl
    1b40:	e1a00006 	mov	r0, r6
    1b44:	e1a02007 	mov	r2, r7
    1b48:	ebfffe3d 	bl	1444 <print_align>
    1b4c:	e28d3003 	add	r3, sp, #3
    1b50:	e080000a 	add	r0, r0, sl
    1b54:	e1a01005 	mov	r1, r5
    1b58:	e5f32001 	ldrb	r2, [r3, #1]!
    1b5c:	e3520000 	cmp	r2, #0
    1b60:	e4c12001 	strb	r2, [r1], #1
    1b64:	1afffffb 	bne	1b58 <printk_nommu+0x2b4>
    1b68:	e0855000 	add	r5, r5, r0
    1b6c:	eaffff5b 	b	18e0 <printk_nommu+0x3c>
    1b70:	000025dc 	ldrdeq	r2, [r0], -ip

00001b74 <standby_delay>:
    1b74:	e92d000f 	push	{r0, r1, r2, r3}
    1b78:	e3a01011 	mov	r1, #17
    1b7c:	e1a03000 	mov	r3, r0

00001b80 <standby_delay_loop2>:
    1b80:	e2500001 	subs	r0, r0, #1
    1b84:	8afffffd 	bhi	1b80 <standby_delay_loop2>
    1b88:	e1a00003 	mov	r0, r3
    1b8c:	e2511001 	subs	r1, r1, #1
    1b90:	8afffffa 	bhi	1b80 <standby_delay_loop2>
    1b94:	e8bd000f 	pop	{r0, r1, r2, r3}
    1b98:	e1a0f00e 	mov	pc, lr

00001b9c <standby_delay_cycle>:
    1b9c:	e2500001 	subs	r0, r0, #1
    1ba0:	8afffffd 	bhi	1b9c <standby_delay_cycle>
    1ba4:	e1a0f00e 	mov	pc, lr

00001ba8 <Ldiv0>:
    1ba8:	e52de008 	str	lr, [sp, #-8]!
    1bac:	eb000067 	bl	1d50 <__mem_div0>
    1bb0:	e3a00000 	mov	r0, #0
    1bb4:	e49df008 	ldr	pc, [sp], #8

00001bb8 <__aeabi_uidiv>:
    1bb8:	e2512001 	subs	r2, r1, #1
    1bbc:	01a0f00e 	moveq	pc, lr
    1bc0:	3afffff8 	bcc	1ba8 <Ldiv0>
    1bc4:	e1500001 	cmp	r0, r1
    1bc8:	9a00001a 	bls	1c38 <__aeabi_uidiv+0x80>
    1bcc:	e1110002 	tst	r1, r2
    1bd0:	0a00001b 	beq	1c44 <__aeabi_uidiv+0x8c>
    1bd4:	e16f3f11 	clz	r3, r1
    1bd8:	e16f2f10 	clz	r2, r0
    1bdc:	e0432002 	sub	r2, r3, r2
    1be0:	e3a03001 	mov	r3, #1
    1be4:	e1a01211 	lsl	r1, r1, r2
    1be8:	e1a03213 	lsl	r3, r3, r2
    1bec:	e3a02000 	mov	r2, #0
    1bf0:	e1500001 	cmp	r0, r1
    1bf4:	20400001 	subcs	r0, r0, r1
    1bf8:	21822003 	orrcs	r2, r2, r3
    1bfc:	e15000a1 	cmp	r0, r1, lsr #1
    1c00:	204000a1 	subcs	r0, r0, r1, lsr #1
    1c04:	218220a3 	orrcs	r2, r2, r3, lsr #1
    1c08:	e1500121 	cmp	r0, r1, lsr #2
    1c0c:	20400121 	subcs	r0, r0, r1, lsr #2
    1c10:	21822123 	orrcs	r2, r2, r3, lsr #2
    1c14:	e15001a1 	cmp	r0, r1, lsr #3
    1c18:	204001a1 	subcs	r0, r0, r1, lsr #3
    1c1c:	218221a3 	orrcs	r2, r2, r3, lsr #3
    1c20:	e3500000 	cmp	r0, #0
    1c24:	11b03223 	lsrsne	r3, r3, #4
    1c28:	11a01221 	lsrne	r1, r1, #4
    1c2c:	1affffef 	bne	1bf0 <__aeabi_uidiv+0x38>
    1c30:	e1a00002 	mov	r0, r2
    1c34:	e1a0f00e 	mov	pc, lr
    1c38:	03a00001 	moveq	r0, #1
    1c3c:	13a00000 	movne	r0, #0
    1c40:	e1a0f00e 	mov	pc, lr
    1c44:	e16f2f11 	clz	r2, r1
    1c48:	e262201f 	rsb	r2, r2, #31
    1c4c:	e1a00230 	lsr	r0, r0, r2
    1c50:	e1a0f00e 	mov	pc, lr

00001c54 <__aeabi_idiv>:
    1c54:	e3510000 	cmp	r1, #0
    1c58:	e020c001 	eor	ip, r0, r1
    1c5c:	0affffd1 	beq	1ba8 <Ldiv0>
    1c60:	42611000 	rsbmi	r1, r1, #0
    1c64:	e2512001 	subs	r2, r1, #1
    1c68:	0a00001f 	beq	1cec <__aeabi_idiv+0x98>
    1c6c:	e1b03000 	movs	r3, r0
    1c70:	42603000 	rsbmi	r3, r0, #0
    1c74:	e1530001 	cmp	r3, r1
    1c78:	9a00001e 	bls	1cf8 <__aeabi_idiv+0xa4>
    1c7c:	e1110002 	tst	r1, r2
    1c80:	0a000020 	beq	1d08 <__aeabi_idiv+0xb4>
    1c84:	e16f2f11 	clz	r2, r1
    1c88:	e16f0f13 	clz	r0, r3
    1c8c:	e0420000 	sub	r0, r2, r0
    1c90:	e3a02001 	mov	r2, #1
    1c94:	e1a01011 	lsl	r1, r1, r0
    1c98:	e1a02012 	lsl	r2, r2, r0
    1c9c:	e3a00000 	mov	r0, #0
    1ca0:	e1530001 	cmp	r3, r1
    1ca4:	20433001 	subcs	r3, r3, r1
    1ca8:	21800002 	orrcs	r0, r0, r2
    1cac:	e15300a1 	cmp	r3, r1, lsr #1
    1cb0:	204330a1 	subcs	r3, r3, r1, lsr #1
    1cb4:	218000a2 	orrcs	r0, r0, r2, lsr #1
    1cb8:	e1530121 	cmp	r3, r1, lsr #2
    1cbc:	20433121 	subcs	r3, r3, r1, lsr #2
    1cc0:	21800122 	orrcs	r0, r0, r2, lsr #2
    1cc4:	e15301a1 	cmp	r3, r1, lsr #3
    1cc8:	204331a1 	subcs	r3, r3, r1, lsr #3
    1ccc:	218001a2 	orrcs	r0, r0, r2, lsr #3
    1cd0:	e3530000 	cmp	r3, #0
    1cd4:	11b02222 	lsrsne	r2, r2, #4
    1cd8:	11a01221 	lsrne	r1, r1, #4
    1cdc:	1affffef 	bne	1ca0 <__aeabi_idiv+0x4c>
    1ce0:	e35c0000 	cmp	ip, #0
    1ce4:	42600000 	rsbmi	r0, r0, #0
    1ce8:	e1a0f00e 	mov	pc, lr
    1cec:	e13c0000 	teq	ip, r0
    1cf0:	42600000 	rsbmi	r0, r0, #0
    1cf4:	e1a0f00e 	mov	pc, lr
    1cf8:	33a00000 	movcc	r0, #0
    1cfc:	01a00fcc 	asreq	r0, ip, #31
    1d00:	03800001 	orreq	r0, r0, #1
    1d04:	e1a0f00e 	mov	pc, lr
    1d08:	e16f2f11 	clz	r2, r1
    1d0c:	e262201f 	rsb	r2, r2, #31
    1d10:	e35c0000 	cmp	ip, #0
    1d14:	e1a00233 	lsr	r0, r3, r2
    1d18:	42600000 	rsbmi	r0, r0, #0
    1d1c:	e1a0f00e 	mov	pc, lr

00001d20 <__aeabi_uidivmod>:
    1d20:	e92d5003 	push	{r0, r1, ip, lr}
    1d24:	ebffffa3 	bl	1bb8 <__aeabi_uidiv>
    1d28:	e8bd5006 	pop	{r1, r2, ip, lr}
    1d2c:	e0030290 	mul	r3, r0, r2
    1d30:	e0411003 	sub	r1, r1, r3
    1d34:	e1a0f00e 	mov	pc, lr

00001d38 <__aeabi_idivmod>:
    1d38:	e92d5003 	push	{r0, r1, ip, lr}
    1d3c:	ebffffc4 	bl	1c54 <__aeabi_idiv>
    1d40:	e8bd5006 	pop	{r1, r2, ip, lr}
    1d44:	e0030290 	mul	r3, r0, r2
    1d48:	e0411003 	sub	r1, r1, r3
    1d4c:	e1a0f00e 	mov	pc, lr

00001d50 <__mem_div0>:
    1d50:	e30204dc 	movw	r0, #9436	; 0x24dc
    1d54:	e3400000 	movt	r0, #0
    1d58:	eafffe1d 	b	15d4 <printk>

00001d5c <raw_lib_udiv>:
    1d5c:	e3510000 	cmp	r1, #0
    1d60:	01a02001 	moveq	r2, r1
    1d64:	0a00000d 	beq	1da0 <raw_lib_udiv+0x44>
    1d68:	e3a03000 	mov	r3, #0
    1d6c:	ba000002 	blt	1d7c <raw_lib_udiv+0x20>
    1d70:	e1b01081 	lsls	r1, r1, #1
    1d74:	e2833001 	add	r3, r3, #1
    1d78:	5afffffc 	bpl	1d70 <raw_lib_udiv+0x14>
    1d7c:	e3a02000 	mov	r2, #0
    1d80:	e1a0c082 	lsl	ip, r2, #1
    1d84:	e1500001 	cmp	r0, r1
    1d88:	20610000 	rsbcs	r0, r1, r0
    1d8c:	31a02082 	lslcc	r2, r2, #1
    1d90:	238c2001 	orrcs	r2, ip, #1
    1d94:	e1a010a1 	lsr	r1, r1, #1
    1d98:	e2533001 	subs	r3, r3, #1
    1d9c:	5afffff7 	bpl	1d80 <raw_lib_udiv+0x24>
    1da0:	e1a00002 	mov	r0, r2
    1da4:	e12fff1e 	bx	lr

00001da8 <mem_int_init>:
    1da8:	e59f0080 	ldr	r0, [pc, #128]	; 1e30 <mem_int_init+0x88>
    1dac:	e3013184 	movw	r3, #4484	; 0x1184
    1db0:	e3a02d47 	mov	r2, #4544	; 0x11c0
    1db4:	e92d4010 	push	{r4, lr}
    1db8:	e3a0ca02 	mov	ip, #8192	; 0x2000
    1dbc:	e3a04a01 	mov	r4, #4096	; 0x1000
    1dc0:	e34f31c8 	movt	r3, #61896	; 0xf1c8
    1dc4:	e3e01000 	mvn	r1, #0
    1dc8:	e34f21c8 	movt	r2, #61896	; 0xf1c8
    1dcc:	e34f41c8 	movt	r4, #61896	; 0xf1c8
    1dd0:	e34fc1c8 	movt	ip, #61896	; 0xf1c8
    1dd4:	e8801010 	stm	r0, {r4, ip}
    1dd8:	e4831004 	str	r1, [r3], #4
    1ddc:	e1530002 	cmp	r3, r2
    1de0:	1afffffc 	bne	1dd8 <mem_int_init+0x30>
    1de4:	e3013284 	movw	r3, #4740	; 0x1284
    1de8:	e3a02d4b 	mov	r2, #4800	; 0x12c0
    1dec:	e34f31c8 	movt	r3, #61896	; 0xf1c8
    1df0:	e3e01000 	mvn	r1, #0
    1df4:	e34f21c8 	movt	r2, #61896	; 0xf1c8
    1df8:	e4831004 	str	r1, [r3], #4
    1dfc:	e1530002 	cmp	r3, r2
    1e00:	1afffffc 	bne	1df8 <mem_int_init+0x50>
    1e04:	e3a03a02 	mov	r3, #8192	; 0x2000
    1e08:	e30023ff 	movw	r2, #1023	; 0x3ff
    1e0c:	e34f31c8 	movt	r3, #61896	; 0xf1c8
    1e10:	e593100c 	ldr	r1, [r3, #12]
    1e14:	e1510002 	cmp	r1, r2
    1e18:	0a000002 	beq	1e28 <mem_int_init+0x80>
    1e1c:	e5831010 	str	r1, [r3, #16]
    1e20:	e59f000c 	ldr	r0, [pc, #12]	; 1e34 <mem_int_init+0x8c>
    1e24:	ebfffdea 	bl	15d4 <printk>
    1e28:	e3a00000 	mov	r0, #0
    1e2c:	e8bd8010 	pop	{r4, pc}
    1e30:	000026dc 	ldrdeq	r2, [r0], -ip
    1e34:	000024f8 	strdeq	r2, [r0], -r8

00001e38 <mem_int_exit>:
    1e38:	e3a02000 	mov	r2, #0
    1e3c:	e24dd008 	sub	sp, sp, #8
    1e40:	e1a03002 	mov	r3, r2
    1e44:	e58d2004 	str	r2, [sp, #4]
    1e48:	e59f2038 	ldr	r2, [pc, #56]	; 1e88 <mem_int_exit+0x50>
    1e4c:	e5922000 	ldr	r2, [r2]
    1e50:	e282cc01 	add	ip, r2, #256	; 0x100
    1e54:	e2822d0a 	add	r2, r2, #640	; 0x280
    1e58:	e79c1003 	ldr	r1, [ip, r3]
    1e5c:	e58d1004 	str	r1, [sp, #4]
    1e60:	e7921003 	ldr	r1, [r2, r3]
    1e64:	e59d0004 	ldr	r0, [sp, #4]
    1e68:	e1c11000 	bic	r1, r1, r0
    1e6c:	e7821003 	str	r1, [r2, r3]
    1e70:	e2833004 	add	r3, r3, #4
    1e74:	e3530040 	cmp	r3, #64	; 0x40
    1e78:	1afffff6 	bne	1e58 <mem_int_exit+0x20>
    1e7c:	e3a00000 	mov	r0, #0
    1e80:	e28dd008 	add	sp, sp, #8
    1e84:	e12fff1e 	bx	lr
    1e88:	000026dc 	ldrdeq	r2, [r0], -ip

00001e8c <mem_enable_int>:
    1e8c:	e1a022a0 	lsr	r2, r0, #5
    1e90:	e92d0030 	push	{r4, r5}
    1e94:	e30236dc 	movw	r3, #9948	; 0x26dc
    1e98:	e2822040 	add	r2, r2, #64	; 0x40
    1e9c:	e3a0ca01 	mov	ip, #4096	; 0x1000
    1ea0:	e1a02102 	lsl	r2, r2, #2
    1ea4:	e3a01a02 	mov	r1, #8192	; 0x2000
    1ea8:	e3403000 	movt	r3, #0
    1eac:	e24226e3 	sub	r2, r2, #238026752	; 0xe300000
    1eb0:	e34fc1c8 	movt	ip, #61896	; 0xf1c8
    1eb4:	e2422a7f 	sub	r2, r2, #520192	; 0x7f000
    1eb8:	e34f11c8 	movt	r1, #61896	; 0xf1c8
    1ebc:	e5924000 	ldr	r4, [r2]
    1ec0:	e200501f 	and	r5, r0, #31
    1ec4:	e583c000 	str	ip, [r3]
    1ec8:	e3a00000 	mov	r0, #0
    1ecc:	e5831004 	str	r1, [r3, #4]
    1ed0:	e3a03001 	mov	r3, #1
    1ed4:	e1843513 	orr	r3, r4, r3, lsl r5
    1ed8:	e5823000 	str	r3, [r2]
    1edc:	e8bd0030 	pop	{r4, r5}
    1ee0:	e12fff1e 	bx	lr

00001ee4 <mem_query_int>:
    1ee4:	e1a0c2a0 	lsr	ip, r0, #5
    1ee8:	e59f3040 	ldr	r3, [pc, #64]	; 1f30 <mem_query_int+0x4c>
    1eec:	e3a01a01 	mov	r1, #4096	; 0x1000
    1ef0:	e28cc080 	add	ip, ip, #128	; 0x80
    1ef4:	e34f11c8 	movt	r1, #61896	; 0xf1c8
    1ef8:	e1a0c10c 	lsl	ip, ip, #2
    1efc:	e5831000 	str	r1, [r3]
    1f00:	e3a02a02 	mov	r2, #8192	; 0x2000
    1f04:	e24cc6e3 	sub	ip, ip, #238026752	; 0xe300000
    1f08:	e34f21c8 	movt	r2, #61896	; 0xf1c8
    1f0c:	e24cca7f 	sub	ip, ip, #520192	; 0x7f000
    1f10:	e200001f 	and	r0, r0, #31
    1f14:	e59c1000 	ldr	r1, [ip]
    1f18:	e5832004 	str	r2, [r3, #4]
    1f1c:	e3a03001 	mov	r3, #1
    1f20:	e0113013 	ands	r3, r1, r3, lsl r0
    1f24:	03e00000 	mvneq	r0, #0
    1f28:	13a00000 	movne	r0, #0
    1f2c:	e12fff1e 	bx	lr
    1f30:	000026dc 	ldrdeq	r2, [r0], -ip

00001f34 <mem_tmr_save>:
    1f34:	e3a03000 	mov	r3, #0
    1f38:	e1a02000 	mov	r2, r0
    1f3c:	e34f31c2 	movt	r3, #61890	; 0xf1c2
    1f40:	e30206e4 	movw	r0, #9956	; 0x26e4
    1f44:	e5931c00 	ldr	r1, [r3, #3072]	; 0xc00
    1f48:	e3a0cb03 	mov	ip, #3072	; 0xc00
    1f4c:	e3400000 	movt	r0, #0
    1f50:	e34fc1c2 	movt	ip, #61890	; 0xf1c2
    1f54:	e580c000 	str	ip, [r0]
    1f58:	e3a00000 	mov	r0, #0
    1f5c:	e5821000 	str	r1, [r2]
    1f60:	e5931c10 	ldr	r1, [r3, #3088]	; 0xc10
    1f64:	e5821010 	str	r1, [r2, #16]
    1f68:	e5931c14 	ldr	r1, [r3, #3092]	; 0xc14
    1f6c:	e5821014 	str	r1, [r2, #20]
    1f70:	e5931c18 	ldr	r1, [r3, #3096]	; 0xc18
    1f74:	e5821018 	str	r1, [r2, #24]
    1f78:	e5931c20 	ldr	r1, [r3, #3104]	; 0xc20
    1f7c:	e5821020 	str	r1, [r2, #32]
    1f80:	e5931c24 	ldr	r1, [r3, #3108]	; 0xc24
    1f84:	e5821024 	str	r1, [r2, #36]	; 0x24
    1f88:	e5933c28 	ldr	r3, [r3, #3112]	; 0xc28
    1f8c:	e5823028 	str	r3, [r2, #40]	; 0x28
    1f90:	e12fff1e 	bx	lr

00001f94 <mem_tmr_restore>:
    1f94:	e30236e4 	movw	r3, #9956	; 0x26e4
    1f98:	e5901014 	ldr	r1, [r0, #20]
    1f9c:	e3403000 	movt	r3, #0
    1fa0:	e1a02000 	mov	r2, r0
    1fa4:	e5933000 	ldr	r3, [r3]
    1fa8:	e3a00000 	mov	r0, #0
    1fac:	e5831014 	str	r1, [r3, #20]
    1fb0:	e5921018 	ldr	r1, [r2, #24]
    1fb4:	e5831018 	str	r1, [r3, #24]
    1fb8:	e5921010 	ldr	r1, [r2, #16]
    1fbc:	e5831010 	str	r1, [r3, #16]
    1fc0:	e5921024 	ldr	r1, [r2, #36]	; 0x24
    1fc4:	e5831024 	str	r1, [r3, #36]	; 0x24
    1fc8:	e5921028 	ldr	r1, [r2, #40]	; 0x28
    1fcc:	e5831028 	str	r1, [r3, #40]	; 0x28
    1fd0:	e5921020 	ldr	r1, [r2, #32]
    1fd4:	e5831020 	str	r1, [r3, #32]
    1fd8:	e5922000 	ldr	r2, [r2]
    1fdc:	e5832000 	str	r2, [r3]
    1fe0:	e12fff1e 	bx	lr

00001fe4 <mem_tmr_init>:
    1fe4:	e3a02000 	mov	r2, #0
    1fe8:	e30236e4 	movw	r3, #9956	; 0x26e4
    1fec:	e34f21c2 	movt	r2, #61890	; 0xf1c2
    1ff0:	e3a01b03 	mov	r1, #3072	; 0xc00
    1ff4:	e592ccb4 	ldr	ip, [r2, #3252]	; 0xcb4
    1ff8:	e3403000 	movt	r3, #0
    1ffc:	e34f11c2 	movt	r1, #61890	; 0xf1c2
    2000:	e3a00000 	mov	r0, #0
    2004:	e8831002 	stm	r3, {r1, ip}
    2008:	e5921cb8 	ldr	r1, [r2, #3256]	; 0xcb8
    200c:	e5831008 	str	r1, [r3, #8]
    2010:	e5922ca0 	ldr	r2, [r2, #3232]	; 0xca0
    2014:	e583200c 	str	r2, [r3, #12]
    2018:	e12fff1e 	bx	lr

0000201c <mem_tmr_exit>:
    201c:	e30236e4 	movw	r3, #9956	; 0x26e4
    2020:	e3a00000 	mov	r0, #0
    2024:	e3403000 	movt	r3, #0
    2028:	e8931004 	ldm	r3, {r2, ip}
    202c:	e5931008 	ldr	r1, [r3, #8]
    2030:	e593300c 	ldr	r3, [r3, #12]
    2034:	e582c0b4 	str	ip, [r2, #180]	; 0xb4
    2038:	e58210b8 	str	r1, [r2, #184]	; 0xb8
    203c:	e58230a0 	str	r3, [r2, #160]	; 0xa0
    2040:	e12fff1e 	bx	lr

00002044 <mem_tmr_enable_watchdog>:
    2044:	e30236e4 	movw	r3, #9956	; 0x26e4
    2048:	e3403000 	movt	r3, #0
    204c:	e5933000 	ldr	r3, [r3]
    2050:	e59320b4 	ldr	r2, [r3, #180]	; 0xb4
    2054:	e3c22003 	bic	r2, r2, #3
    2058:	e58320b4 	str	r2, [r3, #180]	; 0xb4
    205c:	e59320b4 	ldr	r2, [r3, #180]	; 0xb4
    2060:	e3822001 	orr	r2, r2, #1
    2064:	e58320b4 	str	r2, [r3, #180]	; 0xb4
    2068:	e3a020b0 	mov	r2, #176	; 0xb0
    206c:	e58320b8 	str	r2, [r3, #184]	; 0xb8
    2070:	e59320a0 	ldr	r2, [r3, #160]	; 0xa0
    2074:	e3822001 	orr	r2, r2, #1
    2078:	e58320a0 	str	r2, [r3, #160]	; 0xa0
    207c:	e59320b8 	ldr	r2, [r3, #184]	; 0xb8
    2080:	e3822001 	orr	r2, r2, #1
    2084:	e58320b8 	str	r2, [r3, #184]	; 0xb8
    2088:	e12fff1e 	bx	lr

0000208c <mem_tmr_disable_watchdog>:
    208c:	e30236e4 	movw	r3, #9956	; 0x26e4
    2090:	e3403000 	movt	r3, #0
    2094:	e5933000 	ldr	r3, [r3]
    2098:	e59320b4 	ldr	r2, [r3, #180]	; 0xb4
    209c:	e3c22003 	bic	r2, r2, #3
    20a0:	e58320b4 	str	r2, [r3, #180]	; 0xb4
    20a4:	e59320b4 	ldr	r2, [r3, #180]	; 0xb4
    20a8:	e3822002 	orr	r2, r2, #2
    20ac:	e58320b4 	str	r2, [r3, #180]	; 0xb4
    20b0:	e59320a0 	ldr	r2, [r3, #160]	; 0xa0
    20b4:	e3c22001 	bic	r2, r2, #1
    20b8:	e58320a0 	str	r2, [r3, #160]	; 0xa0
    20bc:	e59320b8 	ldr	r2, [r3, #184]	; 0xb8
    20c0:	e3c22001 	bic	r2, r2, #1
    20c4:	e58320b8 	str	r2, [r3, #184]	; 0xb8
    20c8:	e12fff1e 	bx	lr

000020cc <mem_clk_init>:
    20cc:	e3500001 	cmp	r0, #1
    20d0:	e3a03000 	mov	r3, #0
    20d4:	059f201c 	ldreq	r2, [pc, #28]	; 20f8 <mem_clk_init+0x2c>
    20d8:	034f31c2 	movteq	r3, #61890	; 0xf1c2
    20dc:	159f2014 	ldrne	r2, [pc, #20]	; 20f8 <mem_clk_init+0x2c>
    20e0:	134031c2 	movtne	r3, #450	; 0x1c2
    20e4:	01a00003 	moveq	r0, r3
    20e8:	11a00003 	movne	r0, r3
    20ec:	05823000 	streq	r3, [r2]
    20f0:	15823000 	strne	r3, [r2]
    20f4:	e12fff1e 	bx	lr
    20f8:	000026f4 	strdeq	r2, [r0], -r4

000020fc <mem_get_ba>:
    20fc:	e30236f4 	movw	r3, #9972	; 0x26f4
    2100:	e3403000 	movt	r3, #0
    2104:	e5930000 	ldr	r0, [r3]
    2108:	e12fff1e 	bx	lr

0000210c <mem_clk_save>:
    210c:	e3a03000 	mov	r3, #0
    2110:	e1a02000 	mov	r2, r0
    2114:	e34f31c2 	movt	r3, #61890	; 0xf1c2
    2118:	e30206f4 	movw	r0, #9972	; 0x26f4
    211c:	e5931050 	ldr	r1, [r3, #80]	; 0x50
    2120:	e3400000 	movt	r0, #0
    2124:	e5803000 	str	r3, [r0]
    2128:	e3a00000 	mov	r0, #0
    212c:	e5823000 	str	r3, [r2]
    2130:	e5821004 	str	r1, [r2, #4]
    2134:	e5931058 	ldr	r1, [r3, #88]	; 0x58
    2138:	e5821008 	str	r1, [r2, #8]
    213c:	e5933054 	ldr	r3, [r3, #84]	; 0x54
    2140:	e582300c 	str	r3, [r2, #12]
    2144:	e12fff1e 	bx	lr

00002148 <mem_clk_restore>:
    2148:	e5903000 	ldr	r3, [r0]
    214c:	e30216f4 	movw	r1, #9972	; 0x26f4
    2150:	e590c004 	ldr	ip, [r0, #4]
    2154:	e1a02000 	mov	r2, r0
    2158:	e3401000 	movt	r1, #0
    215c:	e3a00000 	mov	r0, #0
    2160:	e5813000 	str	r3, [r1]
    2164:	e583c050 	str	ip, [r3, #80]	; 0x50
    2168:	e5921008 	ldr	r1, [r2, #8]
    216c:	e5831058 	str	r1, [r3, #88]	; 0x58
    2170:	e592200c 	ldr	r2, [r2, #12]
    2174:	e5832054 	str	r2, [r3, #84]	; 0x54
    2178:	e12fff1e 	bx	lr

0000217c <mem_clk_setdiv>:
    217c:	e92d4038 	push	{r3, r4, r5, lr}
    2180:	e2504000 	subs	r4, r0, #0
    2184:	0a000013 	beq	21d8 <mem_clk_setdiv+0x5c>
    2188:	e59f5050 	ldr	r5, [pc, #80]	; 21e0 <mem_clk_setdiv+0x64>
    218c:	e3a03000 	mov	r3, #0
    2190:	e34031c2 	movt	r3, #450	; 0x1c2
    2194:	e5941000 	ldr	r1, [r4]
    2198:	e3a0000a 	mov	r0, #10
    219c:	e5853000 	str	r3, [r5]
    21a0:	e5932050 	ldr	r2, [r3, #80]	; 0x50
    21a4:	e7c12011 	bfi	r2, r1, #0, #2
    21a8:	e5852004 	str	r2, [r5, #4]
    21ac:	e5832050 	str	r2, [r3, #80]	; 0x50
    21b0:	e5942004 	ldr	r2, [r4, #4]
    21b4:	e3c22a03 	bic	r2, r2, #12288	; 0x3000
    21b8:	e3822a01 	orr	r2, r2, #4096	; 0x1000
    21bc:	e5832054 	str	r2, [r3, #84]	; 0x54
    21c0:	ebfff8de 	bl	540 <delay_us>
    21c4:	e5953000 	ldr	r3, [r5]
    21c8:	e3a00000 	mov	r0, #0
    21cc:	e5942004 	ldr	r2, [r4, #4]
    21d0:	e5832054 	str	r2, [r3, #84]	; 0x54
    21d4:	e8bd8038 	pop	{r3, r4, r5, pc}
    21d8:	e3e00000 	mvn	r0, #0
    21dc:	e8bd8038 	pop	{r3, r4, r5, pc}
    21e0:	000026f4 	strdeq	r2, [r0], -r4

000021e4 <mem_clk_getdiv>:
    21e4:	e2502000 	subs	r2, r0, #0
    21e8:	e52d4004 	push	{r4}		; (str r4, [sp, #-4]!)
    21ec:	03e00000 	mvneq	r0, #0
    21f0:	0a00000a 	beq	2220 <mem_clk_getdiv+0x3c>
    21f4:	e59f102c 	ldr	r1, [pc, #44]	; 2228 <mem_clk_getdiv+0x44>
    21f8:	e3a03000 	mov	r3, #0
    21fc:	e34f31c2 	movt	r3, #61890	; 0xf1c2
    2200:	e3a00000 	mov	r0, #0
    2204:	e5813000 	str	r3, [r1]
    2208:	e593c050 	ldr	ip, [r3, #80]	; 0x50
    220c:	e20c4003 	and	r4, ip, #3
    2210:	e581c004 	str	ip, [r1, #4]
    2214:	e5824000 	str	r4, [r2]
    2218:	e5933054 	ldr	r3, [r3, #84]	; 0x54
    221c:	e5823004 	str	r3, [r2, #4]
    2220:	e8bd0010 	pop	{r4}
    2224:	e12fff1e 	bx	lr
    2228:	000026f4 	strdeq	r2, [r0], -r4

0000222c <mem_clk_set_pll_factor>:
    222c:	e30236f4 	movw	r3, #9972	; 0x26f4
    2230:	e3a02000 	mov	r2, #0
    2234:	e3403000 	movt	r3, #0
    2238:	e1a01000 	mov	r1, r0
    223c:	e34021c2 	movt	r2, #450	; 0x1c2
    2240:	e52d4004 	push	{r4}		; (str r4, [sp, #-4]!)
    2244:	e5832000 	str	r2, [r3]
    2248:	e3a00000 	mov	r0, #0
    224c:	e5d14003 	ldrb	r4, [r1, #3]
    2250:	e592c000 	ldr	ip, [r2]
    2254:	e7d1c814 	bfi	ip, r4, #16, #2
    2258:	e583c008 	str	ip, [r3, #8]
    225c:	e5d14002 	ldrb	r4, [r1, #2]
    2260:	e7c1c014 	bfi	ip, r4, #0, #2
    2264:	e583c008 	str	ip, [r3, #8]
    2268:	e5d14001 	ldrb	r4, [r1, #1]
    226c:	e7c5c214 	bfi	ip, r4, #4, #2
    2270:	e583c008 	str	ip, [r3, #8]
    2274:	e5d11000 	ldrb	r1, [r1]
    2278:	e7ccc411 	bfi	ip, r1, #8, #5
    227c:	e583c008 	str	ip, [r3, #8]
    2280:	e582c000 	str	ip, [r2]
    2284:	e8bd0010 	pop	{r4}
    2288:	e12fff1e 	bx	lr

0000228c <mem_clk_get_pll_factor>:
    228c:	e30216f4 	movw	r1, #9972	; 0x26f4
    2290:	e3a03000 	mov	r3, #0
    2294:	e3401000 	movt	r1, #0
    2298:	e34f31c2 	movt	r3, #61890	; 0xf1c2
    229c:	e92d0070 	push	{r4, r5, r6}
    22a0:	e1a02000 	mov	r2, r0
    22a4:	e5813000 	str	r3, [r1]
    22a8:	e3a00000 	mov	r0, #0
    22ac:	e5933000 	ldr	r3, [r3]
    22b0:	e7e46453 	ubfx	r6, r3, #8, #5
    22b4:	e7e15253 	ubfx	r5, r3, #4, #2
    22b8:	e7e14053 	ubfx	r4, r3, #0, #2
    22bc:	e7e1c853 	ubfx	ip, r3, #16, #2
    22c0:	e5813008 	str	r3, [r1, #8]
    22c4:	e5c26000 	strb	r6, [r2]
    22c8:	e5c25001 	strb	r5, [r2, #1]
    22cc:	e5c24002 	strb	r4, [r2, #2]
    22d0:	e5c2c003 	strb	ip, [r2, #3]
    22d4:	e8bd0070 	pop	{r4, r5, r6}
    22d8:	e12fff1e 	bx	lr

000022dc <mem_clk_set_misc>:
    22dc:	e1a02000 	mov	r2, r0
    22e0:	e5900000 	ldr	r0, [r0]
    22e4:	e30216f4 	movw	r1, #9972	; 0x26f4
    22e8:	e3a03000 	mov	r3, #0
    22ec:	e34031c2 	movt	r3, #450	; 0x1c2
    22f0:	e3401000 	movt	r1, #0
    22f4:	e5813000 	str	r3, [r1]
    22f8:	e5830220 	str	r0, [r3, #544]	; 0x220
    22fc:	e3a00000 	mov	r0, #0
    2300:	e592c008 	ldr	ip, [r2, #8]
    2304:	e583c250 	str	ip, [r3, #592]	; 0x250
    2308:	e592c014 	ldr	ip, [r2, #20]
    230c:	e583c228 	str	ip, [r3, #552]	; 0x228
    2310:	e592c018 	ldr	ip, [r2, #24]
    2314:	e583c22c 	str	ip, [r3, #556]	; 0x22c
    2318:	e592c01c 	ldr	ip, [r2, #28]
    231c:	e583c288 	str	ip, [r3, #648]	; 0x288
    2320:	e592c020 	ldr	ip, [r2, #32]
    2324:	e583c28c 	str	ip, [r3, #652]	; 0x28c
    2328:	e592c00c 	ldr	ip, [r2, #12]
    232c:	e583c010 	str	ip, [r3, #16]
    2330:	e3a0c001 	mov	ip, #1
    2334:	e5922010 	ldr	r2, [r2, #16]
    2338:	e5832018 	str	r2, [r3, #24]
    233c:	e5932050 	ldr	r2, [r3, #80]	; 0x50
    2340:	e7c1201c 	bfi	r2, ip, #0, #2
    2344:	e5812004 	str	r2, [r1, #4]
    2348:	e5832050 	str	r2, [r3, #80]	; 0x50
    234c:	e12fff1e 	bx	lr

00002350 <mem_clk_get_misc>:
    2350:	e3a03000 	mov	r3, #0
    2354:	e1a02000 	mov	r2, r0
    2358:	e34f31c2 	movt	r3, #61890	; 0xf1c2
    235c:	e30206f4 	movw	r0, #9972	; 0x26f4
    2360:	e5931220 	ldr	r1, [r3, #544]	; 0x220
    2364:	e3400000 	movt	r0, #0
    2368:	e5803000 	str	r3, [r0]
    236c:	e3a00000 	mov	r0, #0
    2370:	e5821000 	str	r1, [r2]
    2374:	e5931250 	ldr	r1, [r3, #592]	; 0x250
    2378:	e5821008 	str	r1, [r2, #8]
    237c:	e5931228 	ldr	r1, [r3, #552]	; 0x228
    2380:	e5821014 	str	r1, [r2, #20]
    2384:	e593122c 	ldr	r1, [r3, #556]	; 0x22c
    2388:	e5821018 	str	r1, [r2, #24]
    238c:	e5931288 	ldr	r1, [r3, #648]	; 0x288
    2390:	e582101c 	str	r1, [r2, #28]
    2394:	e593128c 	ldr	r1, [r3, #652]	; 0x28c
    2398:	e5821020 	str	r1, [r2, #32]
    239c:	e5931010 	ldr	r1, [r3, #16]
    23a0:	e582100c 	str	r1, [r2, #12]
    23a4:	e5933018 	ldr	r3, [r3, #24]
    23a8:	e5823010 	str	r3, [r2, #16]
    23ac:	e12fff1e 	bx	lr

000023b0 <mem_clk_get_cpu_freq>:
    23b0:	e59f2060 	ldr	r2, [pc, #96]	; 2418 <mem_clk_get_cpu_freq+0x68>
    23b4:	e5920000 	ldr	r0, [r2]
    23b8:	e5903050 	ldr	r3, [r0, #80]	; 0x50
    23bc:	e7e11853 	ubfx	r1, r3, #16, #2
    23c0:	e5823004 	str	r3, [r2, #4]
    23c4:	e3510000 	cmp	r1, #0
    23c8:	03a00020 	moveq	r0, #32
    23cc:	012fff1e 	bxeq	lr
    23d0:	e3510001 	cmp	r1, #1
    23d4:	0a00000d 	beq	2410 <mem_clk_get_cpu_freq+0x60>
    23d8:	e5903000 	ldr	r3, [r0]
    23dc:	e7e10253 	ubfx	r0, r3, #4, #2
    23e0:	e7e4c453 	ubfx	ip, r3, #8, #5
    23e4:	e2800001 	add	r0, r0, #1
    23e8:	e5823008 	str	r3, [r2, #8]
    23ec:	e020009c 	mla	r0, ip, r0, r0
    23f0:	e7e11853 	ubfx	r1, r3, #16, #2
    23f4:	e3a02001 	mov	r2, #1
    23f8:	e2033003 	and	r3, r3, #3
    23fc:	e1a01112 	lsl	r1, r2, r1
    2400:	e3052dc0 	movw	r2, #24000	; 0x5dc0
    2404:	e0000092 	mul	r0, r2, r0
    2408:	e0211193 	mla	r1, r3, r1, r1
    240c:	eafffe52 	b	1d5c <raw_lib_udiv>
    2410:	e3050dc0 	movw	r0, #24000	; 0x5dc0
    2414:	e12fff1e 	bx	lr
    2418:	000026f4 	strdeq	r2, [r0], -r4

Disassembly of section .rodata:

0000241c <CSWTCH.9>:
    241c:	00000001 	andeq	r0, r0, r1
    2420:	00000002 	andeq	r0, r0, r2
    2424:	00000000 	andeq	r0, r0, r0
    2428:	00000003 	andeq	r0, r0, r3

0000242c <CSWTCH.11>:
    242c:	00007d00 	andeq	r7, r0, r0, lsl #26
    2430:	016e3600 	cmneq	lr, r0, lsl #12
    2434:	23c34600 	biccs	r4, r3, #0

Disassembly of section .rodata.str1.4:

00002438 <.rodata.str1.4>:
    2438:	75736572 	ldrbvc	r6, [r3, #-1394]!	; 0x572
    243c:	3a31656d 	bcc	c5b9f8 <__bss_end+0xc59138>
    2440:	202e3020 	eorcs	r3, lr, r0, lsr #32
    2444:	0000000a 	andeq	r0, r0, sl
    2448:	75736572 	ldrbvc	r6, [r3, #-1394]!	; 0x572
    244c:	3a31656d 	bcc	c5ba08 <__bss_end+0xc59148>
    2450:	202e3120 	eorcs	r3, lr, r0, lsr #2
    2454:	6f666562 	svcvs	0x00666562
    2458:	72206572 	eorvc	r6, r0, #478150656	; 0x1c800000
    245c:	6f747365 	svcvs	0x00747365
    2460:	6d206572 	cfstr32vs	mvfx6, [r0, #-456]!	; 0xfffffe38
    2464:	202e756d 	eorcs	r7, lr, sp, ror #10
    2468:	0000000a 	andeq	r0, r0, sl
    246c:	75736572 	ldrbvc	r6, [r3, #-1394]!	; 0x572
    2470:	3a31656d 	bcc	c5ba2c <__bss_end+0xc5916c>
    2474:	202e3320 	eorcs	r3, lr, r0, lsr #6
    2478:	65746661 	ldrbvs	r6, [r4, #-1633]!	; 0x661
    247c:	65722072 	ldrbvs	r2, [r2, #-114]!	; 0x72
    2480:	726f7473 	rsbvc	r7, pc, #1929379840	; 0x73000000
    2484:	6d6d2065 	stclvs	0, cr2, [sp, #-404]!	; 0xfffffe6c
    2488:	62202c75 	eorvs	r2, r0, #29952	; 0x7500
    248c:	726f6665 	rsbvc	r6, pc, #105906176	; 0x6500000
    2490:	756a2065 	strbvc	r2, [sl, #-101]!	; 0x65
    2494:	0a2e706d 	beq	b9e650 <__bss_end+0xb9bd90>
    2498:	00000000 	andeq	r0, r0, r0
    249c:	72646461 	rsbvc	r6, r4, #1627389952	; 0x61000000
    24a0:	2c782520 	cfldr64cs	mvdx2, [r8], #-128	; 0xffffff80
    24a4:	6c617620 	stclvs	6, cr7, [r1], #-128	; 0xffffff80
    24a8:	3d206575 	cfstr32cc	mvfx6, [r0, #-468]!	; 0xfffffe2c
    24ac:	2e782520 	cdpcs	5, 7, cr2, cr8, cr0, {1}
    24b0:	00000a20 	andeq	r0, r0, r0, lsr #20
    24b4:	33323130 	teqcc	r2, #12
    24b8:	37363534 			; <UNDEFINED> instruction: 0x37363534
    24bc:	42413938 	submi	r3, r1, #917504	; 0xe0000
    24c0:	46454443 	strbmi	r4, [r5], -r3, asr #8
    24c4:	00000000 	andeq	r0, r0, r0
    24c8:	20202020 	eorcs	r2, r0, r0, lsr #32
    24cc:	20202020 	eorcs	r2, r0, r0, lsr #32
    24d0:	20202020 	eorcs	r2, r0, r0, lsr #32
    24d4:	20202020 	eorcs	r2, r0, r0, lsr #32
    24d8:	00000000 	andeq	r0, r0, r0
    24dc:	65747441 	ldrbvs	r7, [r4, #-1089]!	; 0x441
    24e0:	6974706d 	ldmdbvs	r4!, {r0, r2, r3, r5, r6, ip, sp, lr}^
    24e4:	6420676e 	strtvs	r6, [r0], #-1902	; 0x76e
    24e8:	73697669 	cmnvc	r9, #110100480	; 0x6900000
    24ec:	206e6f69 	rsbcs	r6, lr, r9, ror #30
    24f0:	30207962 	eorcc	r7, r0, r2, ror #18
    24f4:	00000021 	andeq	r0, r0, r1, lsr #32
    24f8:	69746f6e 	ldmdbvs	r4!, {r1, r2, r3, r5, r6, r8, r9, sl, fp, sp, lr}^
    24fc:	203a6563 	eorscs	r6, sl, r3, ror #10
    2500:	20636967 	rsbcs	r6, r3, r7, ror #18
    2504:	20726169 	rsbscs	r6, r2, r9, ror #2
    2508:	30203d3d 	eorcc	r3, r0, sp, lsr sp
    250c:	2e782578 	mrccs	5, 3, r2, cr8, cr8, {3}
    2510:	00000a20 	andeq	r0, r0, r0, lsr #20

Disassembly of section .data:

00002514 <tmpPtr>:
    2514:	00002518 	andeq	r2, r0, r8, lsl r5

Disassembly of section .bss:

00002518 <print_flag>:
    2518:	00000000 	andeq	r0, r0, r0

0000251c <backup_perf_counter_ctrl_reg>:
    251c:	00000000 	andeq	r0, r0, r0

00002520 <backup_perf_counter_enable_reg>:
    2520:	00000000 	andeq	r0, r0, r0

00002524 <overhead>:
    2524:	00000000 	andeq	r0, r0, r0

00002528 <cpu_freq>:
    2528:	00000000 	andeq	r0, r0, r0

0000252c <saved_context>:
	...

000025cc <backup_ccu_uart>:
    25cc:	00000000 	andeq	r0, r0, r0

000025d0 <backup_ccu_uart_reset>:
    25d0:	00000000 	andeq	r0, r0, r0

000025d4 <backup_gpio_uart>:
    25d4:	00000000 	andeq	r0, r0, r0

000025d8 <serial_inited_flag>:
    25d8:	00000000 	andeq	r0, r0, r0

000025dc <debugger_buffer>:
	...

000026dc <GicDDisc>:
    26dc:	00000000 	andeq	r0, r0, r0

000026e0 <GicCDisc>:
    26e0:	00000000 	andeq	r0, r0, r0

000026e4 <TmrReg>:
    26e4:	00000000 	andeq	r0, r0, r0

000026e8 <WatchDog1_Config_Reg_Bak>:
    26e8:	00000000 	andeq	r0, r0, r0

000026ec <WatchDog1_Mod_Reg_Bak>:
    26ec:	00000000 	andeq	r0, r0, r0

000026f0 <WatchDog1_Irq_En_Bak>:
    26f0:	00000000 	andeq	r0, r0, r0

000026f4 <CmuReg>:
    26f4:	00000000 	andeq	r0, r0, r0

000026f8 <CmuReg_SysClkDiv_tmp>:
    26f8:	00000000 	andeq	r0, r0, r0

000026fc <CmuReg_Pll1Ctl_tmp>:
    26fc:	00000000 	andeq	r0, r0, r0

00002700 <mem_para_info>:
	...

000027a8 <saved_context_r13_irq>:
	...

000027b0 <saved_context_r12_svc>:
	...

000027b8 <saved_spsr_fiq>:
    27b8:	00000000 	andeq	r0, r0, r0

000027bc <saved_spsr_und>:
    27bc:	00000000 	andeq	r0, r0, r0

000027c0 <saved_spsr_irq>:
    27c0:	00000000 	andeq	r0, r0, r0

000027c4 <saved_context_r13_abt>:
	...

000027cc <saved_spsr_mon>:
    27cc:	00000000 	andeq	r0, r0, r0

000027d0 <saved_empty_context_svc>:
	...

00002880 <saved_context_r13_fiq>:
	...

0000289c <saved_cpsr_svc>:
    289c:	00000000 	andeq	r0, r0, r0

000028a0 <saved_context_r13_sys>:
	...

000028a8 <saved_spsr_abt>:
    28a8:	00000000 	andeq	r0, r0, r0

000028ac <saved_context_r13_mon>:
	...

000028b4 <saved_spsr_svc>:
    28b4:	00000000 	andeq	r0, r0, r0

000028b8 <saved_context_r13_und>:
	...

Disassembly of section .debug_info:

00000000 <.debug_info>:
       0:	0000013c 	andeq	r0, r0, ip, lsr r1
       4:	00000002 	andeq	r0, r0, r2
       8:	01040000 	mrseq	r0, (UNDEF: 4)
       c:	00000116 	andeq	r0, r0, r6, lsl r1
      10:	00005901 	andeq	r5, r0, r1, lsl #18
      14:	00009300 	andeq	r9, r0, r0, lsl #6
      18:	0000d000 	andeq	sp, r0, r0
      1c:	0000d000 	andeq	sp, r0, r0
      20:	00000000 	andeq	r0, r0, r0
      24:	06010200 	streq	r0, [r1], -r0, lsl #4
      28:	000000d1 	ldrdeq	r0, [r0], -r1
      2c:	cf080102 	svcgt	0x00080102
      30:	02000000 	andeq	r0, r0, #0
      34:	014a0502 	cmpeq	sl, r2, lsl #10
      38:	02020000 	andeq	r0, r2, #0
      3c:	00010307 	andeq	r0, r1, r7, lsl #6
      40:	05040300 	streq	r0, [r4, #-768]	; 0x300
      44:	00746e69 	rsbseq	r6, r4, r9, ror #28
      48:	4c070402 	cfstrsmi	mvf0, [r7], {2}
      4c:	02000000 	andeq	r0, r0, #0
      50:	00000508 	andeq	r0, r0, r8, lsl #10
      54:	08020000 	stmdaeq	r2, {}	; <UNPREDICTABLE>
      58:	00004207 	andeq	r4, r0, r7, lsl #4
      5c:	07040200 	streq	r0, [r4, -r0, lsl #4]
      60:	00000047 	andeq	r0, r0, r7, asr #32
      64:	00000e04 	andeq	r0, r0, r4, lsl #28
      68:	49013000 	stmdbmi	r1, {ip, sp}
      6c:	000000fd 	strdeq	r0, [r0], -sp
      70:	0000dd05 	andeq	sp, r0, r5, lsl #26
      74:	484b0100 	stmdami	fp, {r8}^
      78:	02000000 	andeq	r0, r0, #0
      7c:	bb050023 	bllt	140110 <__bss_end+0x13d850>
      80:	01000000 	mrseq	r0, (UNDEF: 0)
      84:	0000fd4c 	andeq	pc, r0, ip, asr #26
      88:	04230200 	strteq	r0, [r3], #-512	; 0x200
      8c:	0000f905 	andeq	pc, r0, r5, lsl #18
      90:	484d0100 	stmdami	sp, {r8}^
      94:	02000000 	andeq	r0, r0, #0
      98:	2e050c23 	cdpcs	12, 0, cr0, cr5, cr3, {1}
      9c:	01000000 	mrseq	r0, (UNDEF: 0)
      a0:	0000484e 	andeq	r4, r0, lr, asr #16
      a4:	10230200 	eorne	r0, r3, r0, lsl #4
      a8:	0000c105 	andeq	ip, r0, r5, lsl #2
      ac:	484f0100 	stmdami	pc, {r8}^	; <UNPREDICTABLE>
      b0:	02000000 	andeq	r0, r0, #0
      b4:	35051423 	strcc	r1, [r5, #-1059]	; 0x423
      b8:	01000000 	mrseq	r0, (UNDEF: 0)
      bc:	00010d50 	andeq	r0, r1, r0, asr sp
      c0:	18230200 	stmdane	r3!, {r9}
      c4:	00002005 	andeq	r2, r0, r5
      c8:	0d510100 	ldfeqe	f0, [r1, #-0]
      cc:	02000001 	andeq	r0, r0, #1
      d0:	ee051c23 	cdp	12, 0, cr1, cr5, cr3, {1}
      d4:	01000000 	mrseq	r0, (UNDEF: 0)
      d8:	00010d52 	andeq	r0, r1, r2, asr sp
      dc:	20230200 	eorcs	r0, r3, r0, lsl #4
      e0:	00013805 	andeq	r3, r1, r5, lsl #16
      e4:	0d530100 	ldfeqe	f0, [r3, #-0]
      e8:	02000001 	andeq	r0, r0, #1
      ec:	41052423 	tstmi	r5, r3, lsr #8
      f0:	01000001 	tsteq	r0, r1
      f4:	0000fd54 	andeq	pc, r0, r4, asr sp	; <UNPREDICTABLE>
      f8:	28230200 	stmdacs	r3!, {r9}
      fc:	002c0600 	eoreq	r0, ip, r0, lsl #12
     100:	010d0000 	mrseq	r0, (UNDEF: 13)
     104:	48070000 	stmdami	r7, {}	; <UNPREDICTABLE>
     108:	07000000 	streq	r0, [r0, -r0]
     10c:	002c0600 	eoreq	r0, ip, r0, lsl #12
     110:	011d0000 	tsteq	sp, r0
     114:	48070000 	stmdami	r7, {}	; <UNPREDICTABLE>
     118:	03000000 	movweq	r0, #0
     11c:	01600800 	cmneq	r0, r0, lsl #16
     120:	55010000 	strpl	r0, [r1, #-0]
     124:	00000064 	andeq	r0, r0, r4, rrx
     128:	00015409 	andeq	r5, r1, r9, lsl #8
     12c:	3a240200 	bcc	900934 <__bss_end+0x8fe074>
     130:	01000001 	tsteq	r0, r1
     134:	00000305 	andeq	r0, r0, r5, lsl #6
     138:	1d0a0000 	stcne	0, cr0, [sl, #-0]
     13c:	00000001 	andeq	r0, r0, r1
     140:	00000080 	andeq	r0, r0, r0, lsl #1
     144:	007f0002 	rsbseq	r0, pc, r2
     148:	01040000 	mrseq	r0, (UNDEF: 4)
     14c:	00000098 	muleq	r0, r8, r0
     150:	00000030 	andeq	r0, r0, r0, lsr r0
     154:	000000d0 	ldrdeq	r0, [r0], -r0	; <UNPREDICTABLE>
     158:	68637261 	stmdavs	r3!, {r0, r5, r6, r9, ip, sp, lr}^
     15c:	6d72612f 	ldfvse	f6, [r2, #-188]!	; 0xffffff44
     160:	63616d2f 	cmnvs	r1, #3008	; 0xbc0
     164:	75732d68 	ldrbvc	r2, [r3, #-3432]!	; 0xd68
     168:	2f69786e 	svccs	0x0069786e
     16c:	732f6d70 	teqvc	pc, #7168	; 0x1c00
     170:	646e6174 	strbtvs	r6, [lr], #-372	; 0x174
     174:	732f7962 	teqvc	pc, #1605632	; 0x188000
     178:	72657075 	rsbvc	r7, r5, #117	; 0x75
     17c:	7365722f 	cmnvc	r5, #-268435454	; 0xf0000002
     180:	2f656d75 	svccs	0x00656d75
     184:	75736572 	ldrbvc	r6, [r3, #-1394]!	; 0x572
     188:	2e31656d 	cdpcs	5, 3, cr6, cr1, cr13, {3}
     18c:	722f0053 	eorvc	r0, pc, #83	; 0x53
     190:	2f746f6f 	svccs	0x00746f6f
     194:	6b726f77 	blvs	1c9bf78 <__bss_end+0x1c996b8>
     198:	6e69732f 	cdpvs	3, 6, cr7, cr9, cr15, {1}
     19c:	786e696c 	stmdavc	lr!, {r2, r3, r5, r6, r8, fp, sp, lr}^
     1a0:	3333612f 	teqcc	r3, #-1073741813	; 0xc000000b
     1a4:	63696c2f 	cmnvs	r9, #12032	; 0x2f00
     1a8:	2f656568 	svccs	0x00656568
     1ac:	756e696c 	strbvc	r6, [lr, #-2412]!	; 0x96c
     1b0:	2e332d78 	mrccs	13, 1, r2, cr3, cr8, {3}
     1b4:	4e470034 	mcrmi	0, 2, r0, cr7, cr4, {1}
     1b8:	53412055 	movtpl	r2, #4181	; 0x1055
     1bc:	322e3220 	eorcc	r3, lr, #2
     1c0:	80010032 	andhi	r0, r1, r2, lsr r0
     1c4:	000000c5 	andeq	r0, r0, r5, asr #1
     1c8:	00930002 	addseq	r0, r3, r2
     1cc:	01040000 	mrseq	r0, (UNDEF: 4)
     1d0:	00000116 	andeq	r0, r0, r6, lsl r1
     1d4:	00017301 	andeq	r7, r1, r1, lsl #6
     1d8:	00009300 	andeq	r9, r0, r0, lsl #6
     1dc:	0000d000 	andeq	sp, r0, r0
     1e0:	0000f800 	andeq	pc, r0, r0, lsl #16
     1e4:	00012700 	andeq	r2, r1, r0, lsl #14
     1e8:	06010200 	streq	r0, [r1], -r0, lsl #4
     1ec:	000000d1 	ldrdeq	r0, [r0], -r1
     1f0:	cf080102 	svcgt	0x00080102
     1f4:	02000000 	andeq	r0, r0, #0
     1f8:	014a0502 	cmpeq	sl, r2, lsl #10
     1fc:	02020000 	andeq	r0, r2, #0
     200:	00010307 	andeq	r0, r1, r7, lsl #6
     204:	05040300 	streq	r0, [r4, #-768]	; 0x300
     208:	00746e69 	rsbseq	r6, r4, r9, ror #28
     20c:	4c070402 	cfstrsmi	mvf0, [r7], {2}
     210:	02000000 	andeq	r0, r0, #0
     214:	00000508 	andeq	r0, r0, r8, lsl #10
     218:	08020000 	stmdaeq	r2, {}	; <UNPREDICTABLE>
     21c:	00004207 	andeq	r4, r0, r7, lsl #4
     220:	07040200 	streq	r0, [r4, -r0, lsl #4]
     224:	00000047 	andeq	r0, r0, r7, asr #32
     228:	00480404 	subeq	r0, r8, r4, lsl #8
     22c:	04050000 	streq	r0, [r5], #-0
     230:	01b10106 			; <UNDEFINED> instruction: 0x01b10106
     234:	23010000 	movwcs	r0, #4096	; 0x1000
     238:	0000d001 	andeq	sp, r0, r1
     23c:	0000f800 	andeq	pc, r0, r0, lsl #16
     240:	007d0200 	rsbseq	r0, sp, r0, lsl #4
     244:	00153607 	andseq	r3, r5, r7, lsl #12
     248:	6a230100 	bvs	8c0650 <__bss_end+0x8bdd90>
     24c:	00000000 	andeq	r0, r0, r0
     250:	08000000 	stmdaeq	r0, {}	; <UNPREDICTABLE>
     254:	00637273 	rsbeq	r7, r3, r3, ror r2
     258:	006a2301 	rsbeq	r2, sl, r1, lsl #6
     25c:	00130000 	andseq	r0, r3, r0
     260:	6e080000 	cdpvs	0, 0, cr0, cr8, cr0, {0}
     264:	41230100 	teqmi	r3, r0, lsl #2
     268:	26000000 	strcs	r0, [r0], -r0
     26c:	09000000 	stmdbeq	r0, {}	; <UNPREDICTABLE>
     270:	000001a9 	andeq	r0, r0, r9, lsr #3
     274:	00642501 	rsbeq	r2, r4, r1, lsl #10
     278:	00510000 	subseq	r0, r1, r0
     27c:	a10a0000 	mrsge	r0, (UNDEF: 10)
     280:	01000001 	tsteq	r0, r1
     284:	00006426 	andeq	r6, r0, r6, lsr #8
     288:	00500100 	subseq	r0, r0, r0, lsl #2
     28c:	00006100 	andeq	r6, r0, r0, lsl #2
     290:	1e000200 	cdpne	2, 0, cr0, cr0, cr0, {0}
     294:	04000001 	streq	r0, [r0], #-1
     298:	00011601 	andeq	r1, r1, r1, lsl #12
     29c:	01bc0100 			; <UNDEFINED> instruction: 0x01bc0100
     2a0:	00930000 	addseq	r0, r3, r0
     2a4:	00f80000 	rscseq	r0, r8, r0
     2a8:	00f80000 	rscseq	r0, r8, r0
     2ac:	019d0000 	orrseq	r0, sp, r0
     2b0:	01020000 	mrseq	r0, (UNDEF: 2)
     2b4:	0000d106 	andeq	sp, r0, r6, lsl #2
     2b8:	08010200 	stmdaeq	r1, {r9}
     2bc:	000000cf 	andeq	r0, r0, pc, asr #1
     2c0:	4a050202 	bmi	140ad0 <__bss_end+0x13e210>
     2c4:	02000001 	andeq	r0, r0, #1
     2c8:	01030702 	tsteq	r3, r2, lsl #14
     2cc:	04030000 	streq	r0, [r3], #-0
     2d0:	746e6905 	strbtvc	r6, [lr], #-2309	; 0x905
     2d4:	07040200 	streq	r0, [r4, -r0, lsl #4]
     2d8:	0000004c 	andeq	r0, r0, ip, asr #32
     2dc:	00050802 	andeq	r0, r5, r2, lsl #16
     2e0:	02000000 	andeq	r0, r0, #0
     2e4:	00420708 	subeq	r0, r2, r8, lsl #14
     2e8:	04020000 	streq	r0, [r2], #-0
     2ec:	00004707 	andeq	r4, r0, r7, lsl #14
     2f0:	007d0000 	rsbseq	r0, sp, r0
     2f4:	00020000 	andeq	r0, r2, r0
     2f8:	00000148 	andeq	r0, r0, r8, asr #2
     2fc:	01ba0104 			; <UNDEFINED> instruction: 0x01ba0104
     300:	00f80000 	rscseq	r0, r8, r0
     304:	01200000 	teqeq	r0, r0
     308:	72610000 	rsbvc	r0, r1, #0
     30c:	612f6863 	teqvs	pc, r3, ror #16
     310:	6d2f6d72 	stcvs	13, cr6, [pc, #-456]!	; 150 <resume1_c_part+0x30>
     314:	2d686361 	stclcs	3, cr6, [r8, #-388]!	; 0xfffffe7c
     318:	786e7573 	stmdavc	lr!, {r0, r1, r4, r5, r6, r8, sl, ip, sp, lr}^
     31c:	6d702f69 	ldclvs	15, cr2, [r0, #-420]!	; 0xfffffe5c
     320:	6174732f 	cmnvs	r4, pc, lsr #6
     324:	7962646e 	stmdbvc	r2!, {r1, r2, r3, r5, r6, sl, sp, lr}^
     328:	7075732f 	rsbsvc	r7, r5, pc, lsr #6
     32c:	732f7265 	teqvc	pc, #1342177286	; 0x50000006
     330:	72657075 	rsbvc	r7, r5, #117	; 0x75
     334:	6c65645f 	cfstrdvs	mvd6, [r5], #-380	; 0xfffffe84
     338:	532e7961 	teqpl	lr, #1589248	; 0x184000
     33c:	6f722f00 	svcvs	0x00722f00
     340:	772f746f 	strvc	r7, [pc, -pc, ror #8]!
     344:	2f6b726f 	svccs	0x006b726f
     348:	6c6e6973 	stclvs	9, cr6, [lr], #-460	; 0xfffffe34
     34c:	2f786e69 	svccs	0x00786e69
     350:	2f333361 	svccs	0x00333361
     354:	6863696c 	stmdavs	r3!, {r2, r3, r5, r6, r8, fp, sp, lr}^
     358:	6c2f6565 	cfstr32vs	mvfx6, [pc], #-404	; 1cc <resume1_c_part+0xac>
     35c:	78756e69 	ldmdavc	r5!, {r0, r3, r5, r6, r9, sl, fp, sp, lr}^
     360:	342e332d 	strtcc	r3, [lr], #-813	; 0x32d
     364:	554e4700 	strbpl	r4, [lr, #-1792]	; 0x700
     368:	20534120 	subscs	r4, r3, r0, lsr #2
     36c:	32322e32 	eorscc	r2, r2, #800	; 0x320
     370:	61800100 	orrvs	r0, r0, r0, lsl #2
     374:	02000000 	andeq	r0, r0, #0
     378:	00015c00 	andeq	r5, r1, r0, lsl #24
     37c:	16010400 	strne	r0, [r1], -r0, lsl #8
     380:	01000001 	tsteq	r0, r1
     384:	000001ed 	andeq	r0, r0, sp, ror #3
     388:	00000093 	muleq	r0, r3, r0
     38c:	00000120 	andeq	r0, r0, r0, lsr #2
     390:	00000120 	andeq	r0, r0, r0, lsr #2
     394:	00000225 	andeq	r0, r0, r5, lsr #4
     398:	d1060102 	tstle	r6, r2, lsl #2
     39c:	02000000 	andeq	r0, r0, #0
     3a0:	00cf0801 	sbceq	r0, pc, r1, lsl #16
     3a4:	02020000 	andeq	r0, r2, #0
     3a8:	00014a05 	andeq	r4, r1, r5, lsl #20
     3ac:	07020200 	streq	r0, [r2, -r0, lsl #4]
     3b0:	00000103 	andeq	r0, r0, r3, lsl #2
     3b4:	69050403 	stmdbvs	r5, {r0, r1, sl}
     3b8:	0200746e 	andeq	r7, r0, #1845493760	; 0x6e000000
     3bc:	004c0704 	subeq	r0, ip, r4, lsl #14
     3c0:	08020000 	stmdaeq	r2, {}	; <UNPREDICTABLE>
     3c4:	00000005 	andeq	r0, r0, r5
     3c8:	07080200 	streq	r0, [r8, -r0, lsl #4]
     3cc:	00000042 	andeq	r0, r0, r2, asr #32
     3d0:	47070402 	strmi	r0, [r7, -r2, lsl #8]
     3d4:	00000000 	andeq	r0, r0, r0
     3d8:	00000061 	andeq	r0, r0, r1, rrx
     3dc:	01860002 	orreq	r0, r6, r2
     3e0:	01040000 	mrseq	r0, (UNDEF: 4)
     3e4:	00000116 	andeq	r0, r0, r6, lsl r1
     3e8:	00022001 	andeq	r2, r2, r1
     3ec:	00009300 	andeq	r9, r0, r0, lsl #6
     3f0:	00012000 	andeq	r2, r1, r0
     3f4:	00012000 	andeq	r2, r1, r0
     3f8:	00024200 	andeq	r4, r2, r0, lsl #4
     3fc:	06010200 	streq	r0, [r1], -r0, lsl #4
     400:	000000d1 	ldrdeq	r0, [r0], -r1
     404:	cf080102 	svcgt	0x00080102
     408:	02000000 	andeq	r0, r0, #0
     40c:	014a0502 	cmpeq	sl, r2, lsl #10
     410:	02020000 	andeq	r0, r2, #0
     414:	00010307 	andeq	r0, r1, r7, lsl #6
     418:	05040300 	streq	r0, [r4, #-768]	; 0x300
     41c:	00746e69 	rsbseq	r6, r4, r9, ror #28
     420:	4c070402 	cfstrsmi	mvf0, [r7], {2}
     424:	02000000 	andeq	r0, r0, #0
     428:	00000508 	andeq	r0, r0, r8, lsl #10
     42c:	08020000 	stmdaeq	r2, {}	; <UNPREDICTABLE>
     430:	00004207 	andeq	r4, r0, r7, lsl #4
     434:	07040200 	streq	r0, [r4, -r0, lsl #4]
     438:	00000047 	andeq	r0, r0, r7, asr #32
     43c:	00006100 	andeq	r6, r0, r0, lsl #2
     440:	b0000200 	andlt	r0, r0, r0, lsl #4
     444:	04000001 	streq	r0, [r0], #-1
     448:	00011601 	andeq	r1, r1, r1, lsl #12
     44c:	02530100 	subseq	r0, r3, #0
     450:	00930000 	addseq	r0, r3, r0
     454:	01200000 	teqeq	r0, r0
     458:	01200000 	teqeq	r0, r0
     45c:	025f0000 	subseq	r0, pc, #0
     460:	01020000 	mrseq	r0, (UNDEF: 2)
     464:	0000d106 	andeq	sp, r0, r6, lsl #2
     468:	08010200 	stmdaeq	r1, {r9}
     46c:	000000cf 	andeq	r0, r0, pc, asr #1
     470:	4a050202 	bmi	140c80 <__bss_end+0x13e3c0>
     474:	02000001 	andeq	r0, r0, #1
     478:	01030702 	tsteq	r3, r2, lsl #14
     47c:	04030000 	streq	r0, [r3], #-0
     480:	746e6905 	strbtvc	r6, [lr], #-2309	; 0x905
     484:	07040200 	streq	r0, [r4, -r0, lsl #4]
     488:	0000004c 	andeq	r0, r0, ip, asr #32
     48c:	00050802 	andeq	r0, r5, r2, lsl #16
     490:	02000000 	andeq	r0, r0, #0
     494:	00420708 	subeq	r0, r2, r8, lsl #14
     498:	04020000 	streq	r0, [r2], #-0
     49c:	00004707 	andeq	r4, r0, r7, lsl #14
     4a0:	152e0000 	strne	r0, [lr, #-0]!
     4a4:	00020000 	andeq	r0, r2, r0
     4a8:	000001da 	ldrdeq	r0, [r0], -sl
     4ac:	01160104 	tsteq	r6, r4, lsl #2
     4b0:	7d010000 	stcvc	0, cr0, [r1, #-0]
     4b4:	93000006 	movwls	r0, #6
     4b8:	20000000 	andcs	r0, r0, r0
     4bc:	1c000001 	stcne	0, cr0, [r0], {1}
     4c0:	7c000003 	stcvc	0, cr0, [r0], {3}
     4c4:	02000002 	andeq	r0, r0, #2
     4c8:	00d10601 	sbcseq	r0, r1, r1, lsl #12
     4cc:	d3030000 	movwle	r0, #12288	; 0x3000
     4d0:	0200000a 	andeq	r0, r0, #10
     4d4:	0000370f 	andeq	r3, r0, pc, lsl #14
     4d8:	08010200 	stmdaeq	r1, {r9}
     4dc:	000000cf 	andeq	r0, r0, pc, asr #1
     4e0:	4a050202 	bmi	140cf0 <__bss_end+0x13e430>
     4e4:	02000001 	andeq	r0, r0, #1
     4e8:	01030702 	tsteq	r3, r2, lsl #14
     4ec:	04040000 	streq	r0, [r4], #-0
     4f0:	746e6905 	strbtvc	r6, [lr], #-2309	; 0x905
     4f4:	07b80300 	ldreq	r0, [r8, r0, lsl #6]!
     4f8:	13020000 	movwne	r0, #8192	; 0x2000
     4fc:	0000005e 	andeq	r0, r0, lr, asr r0
     500:	4c070402 	cfstrsmi	mvf0, [r7], {2}
     504:	02000000 	andeq	r0, r0, #0
     508:	00000508 	andeq	r0, r0, r8, lsl #10
     50c:	08020000 	stmdaeq	r2, {}	; <UNPREDICTABLE>
     510:	00004207 	andeq	r4, r0, r7, lsl #4
     514:	03040500 	movweq	r0, #17664	; 0x4500
     518:	0001591a 	andeq	r5, r1, sl, lsl r9
     51c:	05160600 	ldreq	r0, [r6, #-1536]	; 0x600
     520:	1c030000 	stcne	0, cr0, [r3], {-0}
     524:	00000053 	andeq	r0, r0, r3, asr r0
     528:	021e0204 	andseq	r0, lr, #1073741824	; 0x40000000
     52c:	2d060023 	stccs	0, cr0, [r6, #-140]	; 0xffffff74
     530:	0300000a 	movweq	r0, #10
     534:	0000531d 	andeq	r5, r0, sp, lsl r3
     538:	1c020400 	cfstrsne	mvf0, [r2], {-0}
     53c:	06002302 	streq	r2, [r0], -r2, lsl #6
     540:	0000050e 	andeq	r0, r0, lr, lsl #10
     544:	00531e03 	subseq	r1, r3, r3, lsl #28
     548:	02040000 	andeq	r0, r4, #0
     54c:	0023021a 	eoreq	r0, r3, sl, lsl r2
     550:	000a3706 	andeq	r3, sl, r6, lsl #14
     554:	531f0300 	tstpl	pc, #0
     558:	04000000 	streq	r0, [r0], #-0
     55c:	23021802 	movwcs	r1, #10242	; 0x2802
     560:	051e0600 	ldreq	r0, [lr, #-1536]	; 0x600
     564:	20030000 	andcs	r0, r3, r0
     568:	00000053 	andeq	r0, r0, r3, asr r0
     56c:	02130504 	andseq	r0, r3, #16777216	; 0x1000000
     570:	41060023 	tstmi	r6, r3, lsr #32
     574:	0300000a 	movweq	r0, #10
     578:	00005321 	andeq	r5, r0, r1, lsr #6
     57c:	10030400 	andne	r0, r3, r0, lsl #8
     580:	06002302 	streq	r2, [r0], -r2, lsl #6
     584:	0000052e 	andeq	r0, r0, lr, lsr #10
     588:	00532203 	subseq	r2, r3, r3, lsl #4
     58c:	02040000 	andeq	r0, r4, #0
     590:	0023020e 	eoreq	r0, r3, lr, lsl #4
     594:	000a4b06 	andeq	r4, sl, r6, lsl #22
     598:	53230300 	teqpl	r3, #0
     59c:	04000000 	streq	r0, [r0], #-0
     5a0:	23020806 	movwcs	r0, #10246	; 0x2806
     5a4:	07970600 	ldreq	r0, [r7, r0, lsl #12]
     5a8:	24030000 	strcs	r0, [r3], #-0
     5ac:	00000053 	andeq	r0, r0, r3, asr r0
     5b0:	02070104 	andeq	r0, r7, #1
     5b4:	55060023 	strpl	r0, [r6, #-35]	; 0x23
     5b8:	0300000a 	movweq	r0, #10
     5bc:	00005325 	andeq	r5, r0, r5, lsr #6
     5c0:	04030400 	streq	r0, [r3], #-1024	; 0x400
     5c4:	06002302 	streq	r2, [r0], -r2, lsl #6
     5c8:	0000091d 	andeq	r0, r0, sp, lsl r9
     5cc:	00532603 	subseq	r2, r3, r3, lsl #12
     5d0:	01040000 	mrseq	r0, (UNDEF: 4)
     5d4:	00230203 	eoreq	r0, r3, r3, lsl #4
     5d8:	000a5f06 	andeq	r5, sl, r6, lsl #30
     5dc:	53270300 	teqpl	r7, #0
     5e0:	04000000 	streq	r0, [r0], #-0
     5e4:	23020102 	movwcs	r0, #8450	; 0x2102
     5e8:	09cc0600 	stmibeq	ip, {r9, sl}^
     5ec:	28030000 	stmdacs	r3, {}	; <UNPREDICTABLE>
     5f0:	00000053 	andeq	r0, r0, r3, asr r0
     5f4:	02000104 	andeq	r0, r0, #1
     5f8:	07000023 	streq	r0, [r0, -r3, lsr #32]
     5fc:	78180304 	ldmdavc	r8, {r2, r8, r9}
     600:	08000001 	stmdaeq	r0, {r0}
     604:	0000030f 	andeq	r0, r0, pc, lsl #6
     608:	00531903 	subseq	r1, r3, r3, lsl #18
     60c:	f9080000 			; <UNDEFINED> instruction: 0xf9080000
     610:	03000007 	movweq	r0, #7
     614:	0000732a 	andeq	r7, r0, sl, lsr #6
     618:	d2030000 	andle	r0, r3, #0
     61c:	03000009 	movweq	r0, #9
     620:	0001592b 	andeq	r5, r1, fp, lsr #18
     624:	09f30900 	ldmibeq	r3!, {r8, fp}^
     628:	03040000 	movweq	r0, #16384	; 0x4000
     62c:	00024b2e 	andeq	r4, r2, lr, lsr #22
     630:	05160600 	ldreq	r0, [r6, #-1536]	; 0x600
     634:	30030000 	andcc	r0, r3, r0
     638:	00000053 	andeq	r0, r0, r3, asr r0
     63c:	021b0504 	andseq	r0, fp, #16777216	; 0x1000000
     640:	2d060023 	stccs	0, cr0, [r6, #-140]	; 0xffffff74
     644:	0300000a 	movweq	r0, #10
     648:	00005331 	andeq	r5, r0, r1, lsr r3
     64c:	18030400 	stmdane	r3, {sl}
     650:	06002302 	streq	r2, [r0], -r2, lsl #6
     654:	0000051e 	andeq	r0, r0, lr, lsl r5
     658:	00533203 	subseq	r3, r3, r3, lsl #4
     65c:	07040000 	streq	r0, [r4, -r0]
     660:	00230211 	eoreq	r0, r3, r1, lsl r2
     664:	000a3706 	andeq	r3, sl, r6, lsl #14
     668:	53330300 	teqpl	r3, #0
     66c:	04000000 	streq	r0, [r0], #-0
     670:	23021001 	movwcs	r1, #8193	; 0x2001
     674:	052e0600 	streq	r0, [lr, #-1536]!	; 0x600
     678:	34030000 	strcc	r0, [r3], #-0
     67c:	00000053 	andeq	r0, r0, r3, asr r0
     680:	020c0404 	andeq	r0, ip, #67108864	; 0x4000000
     684:	41060023 	tstmi	r6, r3, lsr #32
     688:	0300000a 	movweq	r0, #10
     68c:	00005335 	andeq	r5, r0, r5, lsr r3
     690:	08040400 	stmdaeq	r4, {sl}
     694:	06002302 	streq	r2, [r0], -r2, lsl #6
     698:	000008f2 	strdeq	r0, [r0], -r2
     69c:	00533603 	subseq	r3, r3, r3, lsl #12
     6a0:	01040000 	mrseq	r0, (UNDEF: 4)
     6a4:	00230207 	eoreq	r0, r3, r7, lsl #4
     6a8:	000a4b06 	andeq	r4, sl, r6, lsl #22
     6ac:	53370300 	teqpl	r7, #0
     6b0:	04000000 	streq	r0, [r0], #-0
     6b4:	23020403 	movwcs	r0, #9219	; 0x2403
     6b8:	091d0600 	ldmdbeq	sp, {r9, sl}
     6bc:	38030000 	stmdacc	r3, {}	; <UNPREDICTABLE>
     6c0:	00000053 	andeq	r0, r0, r3, asr r0
     6c4:	02030104 	andeq	r0, r3, #1
     6c8:	55060023 	strpl	r0, [r6, #-35]	; 0x23
     6cc:	0300000a 	movweq	r0, #10
     6d0:	00005339 	andeq	r5, r0, r9, lsr r3
     6d4:	01020400 	tsteq	r2, r0, lsl #8
     6d8:	06002302 	streq	r2, [r0], -r2, lsl #6
     6dc:	000009cc 	andeq	r0, r0, ip, asr #19
     6e0:	00533a03 	subseq	r3, r3, r3, lsl #20
     6e4:	01040000 	mrseq	r0, (UNDEF: 4)
     6e8:	00230200 	eoreq	r0, r3, r0, lsl #4
     6ec:	09450300 	stmdbeq	r5, {r8, r9}^
     6f0:	3b030000 	blcc	c06f8 <__bss_end+0xbde38>
     6f4:	00000183 	andeq	r0, r0, r3, lsl #3
     6f8:	0009b209 	andeq	fp, r9, r9, lsl #4
     6fc:	50030400 	andpl	r0, r3, r0, lsl #8
     700:	00000340 	andeq	r0, r0, r0, asr #6
     704:	00051606 	andeq	r1, r5, r6, lsl #12
     708:	53520300 	cmppl	r2, #0
     70c:	04000000 	streq	r0, [r0], #-0
     710:	23021e02 	movwcs	r1, #11778	; 0x2e02
     714:	0a2d0600 	beq	b41f1c <__bss_end+0xb3f65c>
     718:	53030000 	movwpl	r0, #12288	; 0x3000
     71c:	00000053 	andeq	r0, r0, r3, asr r0
     720:	021c0204 	andseq	r0, ip, #1073741824	; 0x40000000
     724:	0e060023 	cdpeq	0, 0, cr0, cr6, cr3, {1}
     728:	03000005 	movweq	r0, #5
     72c:	00005354 	andeq	r5, r0, r4, asr r3
     730:	1a020400 	bne	81738 <__bss_end+0x7ee78>
     734:	06002302 	streq	r2, [r0], -r2, lsl #6
     738:	00000a37 	andeq	r0, r0, r7, lsr sl
     73c:	00535503 	subseq	r5, r3, r3, lsl #10
     740:	02040000 	andeq	r0, r4, #0
     744:	00230218 	eoreq	r0, r3, r8, lsl r2
     748:	00051e06 	andeq	r1, r5, r6, lsl #28
     74c:	53560300 	cmppl	r6, #0
     750:	04000000 	streq	r0, [r0], #-0
     754:	23021305 	movwcs	r1, #8965	; 0x2305
     758:	0a410600 	beq	1041f60 <__bss_end+0x103f6a0>
     75c:	57030000 	strpl	r0, [r3, -r0]
     760:	00000053 	andeq	r0, r0, r3, asr r0
     764:	020c0704 	andeq	r0, ip, #1048576	; 0x100000
     768:	73060023 	movwvc	r0, #24611	; 0x6023
     76c:	03000004 	movweq	r0, #4
     770:	00005358 	andeq	r5, r0, r8, asr r3
     774:	0b010400 	bleq	4177c <__bss_end+0x3eebc>
     778:	06002302 	streq	r2, [r0], -r2, lsl #6
     77c:	00000a4b 	andeq	r0, r0, fp, asr #20
     780:	00535903 	subseq	r5, r3, r3, lsl #18
     784:	03040000 	movweq	r0, #16384	; 0x4000
     788:	00230208 	eoreq	r0, r3, r8, lsl #4
     78c:	00079f06 	andeq	r9, r7, r6, lsl #30
     790:	535a0300 	cmppl	sl, #0
     794:	04000000 	streq	r0, [r0], #-0
     798:	23020701 	movwcs	r0, #9985	; 0x2701
     79c:	0a550600 	beq	1541fa4 <__bss_end+0x153f6e4>
     7a0:	5b030000 	blpl	c07a8 <__bss_end+0xbdee8>
     7a4:	00000053 	andeq	r0, r0, r3, asr r0
     7a8:	02040304 	andeq	r0, r4, #268435456	; 0x10000000
     7ac:	1d060023 	stcne	0, cr0, [r6, #-140]	; 0xffffff74
     7b0:	03000009 	movweq	r0, #9
     7b4:	0000535c 	andeq	r5, r0, ip, asr r3
     7b8:	03010400 	movweq	r0, #5120	; 0x1400
     7bc:	06002302 	streq	r2, [r0], -r2, lsl #6
     7c0:	00000a5f 	andeq	r0, r0, pc, asr sl
     7c4:	00535d03 	subseq	r5, r3, r3, lsl #26
     7c8:	02040000 	andeq	r0, r4, #0
     7cc:	00230201 	eoreq	r0, r3, r1, lsl #4
     7d0:	0009cc06 	andeq	ip, r9, r6, lsl #24
     7d4:	535e0300 	cmppl	lr, #0
     7d8:	04000000 	streq	r0, [r0], #-0
     7dc:	23020001 	movwcs	r0, #8193	; 0x2001
     7e0:	9a030000 	bls	c07e8 <__bss_end+0xbdf28>
     7e4:	03000004 	movweq	r0, #4
     7e8:	0002565f 	andeq	r5, r2, pc, asr r6
     7ec:	0d680900 	stcleq	9, cr0, [r8, #-0]
     7f0:	03040000 	movweq	r0, #16384	; 0x4000
     7f4:	00045762 	andeq	r5, r4, r2, ror #14
     7f8:	05160600 	ldreq	r0, [r6, #-1536]	; 0x600
     7fc:	64030000 	strvs	r0, [r3], #-0
     800:	00000053 	andeq	r0, r0, r3, asr r0
     804:	021e0204 	andseq	r0, lr, #1073741824	; 0x40000000
     808:	2d060023 	stccs	0, cr0, [r6, #-140]	; 0xffffff74
     80c:	0300000a 	movweq	r0, #10
     810:	00005365 	andeq	r5, r0, r5, ror #6
     814:	1c020400 	cfstrsne	mvf0, [r2], {-0}
     818:	06002302 	streq	r2, [r0], -r2, lsl #6
     81c:	0000050e 	andeq	r0, r0, lr, lsl #10
     820:	00536603 	subseq	r6, r3, r3, lsl #12
     824:	02040000 	andeq	r0, r4, #0
     828:	0023021a 	eoreq	r0, r3, sl, lsl r2
     82c:	000a3706 	andeq	r3, sl, r6, lsl #14
     830:	53670300 	cmnpl	r7, #0
     834:	04000000 	streq	r0, [r0], #-0
     838:	23021802 	movwcs	r1, #10242	; 0x2802
     83c:	051e0600 	ldreq	r0, [lr, #-1536]	; 0x600
     840:	68030000 	stmdavs	r3, {}	; <UNPREDICTABLE>
     844:	00000053 	andeq	r0, r0, r3, asr r0
     848:	02130504 	andseq	r0, r3, #16777216	; 0x1000000
     84c:	41060023 	tstmi	r6, r3, lsr #32
     850:	0300000a 	movweq	r0, #10
     854:	00005369 	andeq	r5, r0, r9, ror #6
     858:	10030400 	andne	r0, r3, r0, lsl #8
     85c:	06002302 	streq	r2, [r0], -r2, lsl #6
     860:	00000bc2 	andeq	r0, r0, r2, asr #23
     864:	00536a03 	subseq	r6, r3, r3, lsl #20
     868:	02040000 	andeq	r0, r4, #0
     86c:	0023020e 	eoreq	r0, r3, lr, lsl #4
     870:	00028506 	andeq	r8, r2, r6, lsl #10
     874:	536b0300 	cmnpl	fp, #0
     878:	04000000 	streq	r0, [r0], #-0
     87c:	23020d01 	movwcs	r0, #11521	; 0x2d01
     880:	0a4b0600 	beq	12c2088 <__bss_end+0x12bf7c8>
     884:	6c030000 	stcvs	0, cr0, [r3], {-0}
     888:	00000053 	andeq	r0, r0, r3, asr r0
     88c:	02080504 	andeq	r0, r8, #16777216	; 0x1000000
     890:	86060023 	strhi	r0, [r6], -r3, lsr #32
     894:	03000008 	movweq	r0, #8
     898:	0000536d 	andeq	r5, r0, sp, ror #6
     89c:	07010400 	streq	r0, [r1, -r0, lsl #8]
     8a0:	06002302 	streq	r2, [r0], -r2, lsl #6
     8a4:	00000831 	andeq	r0, r0, r1, lsr r8
     8a8:	00536e03 	subseq	r6, r3, r3, lsl #28
     8ac:	01040000 	mrseq	r0, (UNDEF: 4)
     8b0:	00230206 	eoreq	r0, r3, r6, lsl #4
     8b4:	000a5506 	andeq	r5, sl, r6, lsl #10
     8b8:	536f0300 	cmnpl	pc, #0
     8bc:	04000000 	streq	r0, [r0], #-0
     8c0:	23020402 	movwcs	r0, #9218	; 0x2402
     8c4:	091d0600 	ldmdbeq	sp, {r9, sl}
     8c8:	70030000 	andvc	r0, r3, r0
     8cc:	00000053 	andeq	r0, r0, r3, asr r0
     8d0:	02030104 	andeq	r0, r3, #1
     8d4:	5f060023 	svcpl	0x00060023
     8d8:	0300000a 	movweq	r0, #10
     8dc:	00005371 	andeq	r5, r0, r1, ror r3
     8e0:	01020400 	tsteq	r2, r0, lsl #8
     8e4:	06002302 	streq	r2, [r0], -r2, lsl #6
     8e8:	000009cc 	andeq	r0, r0, ip, asr #19
     8ec:	00537203 	subseq	r7, r3, r3, lsl #4
     8f0:	01040000 	mrseq	r0, (UNDEF: 4)
     8f4:	00230200 	eoreq	r0, r3, r0, lsl #4
     8f8:	03c20300 	biceq	r0, r2, #0
     8fc:	73030000 	movwvc	r0, #12288	; 0x3000
     900:	0000034b 	andeq	r0, r0, fp, asr #6
     904:	00063209 	andeq	r3, r6, r9, lsl #4
     908:	75030400 	strvc	r0, [r3, #-1024]	; 0x400
     90c:	0000053b 	andeq	r0, r0, fp, lsr r5
     910:	00051606 	andeq	r1, r5, r6, lsl #12
     914:	53770300 	cmnpl	r7, #0
     918:	04000000 	streq	r0, [r0], #-0
     91c:	23021c04 	movwcs	r1, #11268	; 0x2c04
     920:	0a2d0600 	beq	b42128 <__bss_end+0xb3f868>
     924:	78030000 	stmdavc	r3, {}	; <UNPREDICTABLE>
     928:	00000053 	andeq	r0, r0, r3, asr r0
     92c:	02180404 	andseq	r0, r8, #67108864	; 0x4000000
     930:	1e060023 	cdpne	0, 0, cr0, cr6, cr3, {1}
     934:	03000005 	movweq	r0, #5
     938:	00005379 	andeq	r5, r0, r9, ror r3
     93c:	11070400 	tstne	r7, r0, lsl #8
     940:	06002302 	streq	r2, [r0], -r2, lsl #6
     944:	00000a37 	andeq	r0, r0, r7, lsr sl
     948:	00537a03 	subseq	r7, r3, r3, lsl #20
     94c:	05040000 	streq	r0, [r4, #-0]
     950:	0023020c 	eoreq	r0, r3, ip, lsl #4
     954:	0008f206 	andeq	pc, r8, r6, lsl #4
     958:	537b0300 	cmnpl	fp, #0
     95c:	04000000 	streq	r0, [r0], #-0
     960:	23020b01 	movwcs	r0, #11009	; 0x2b01
     964:	0a410600 	beq	104216c <__bss_end+0x103f8ac>
     968:	7c030000 	stcvc	0, cr0, [r3], {-0}
     96c:	00000053 	andeq	r0, r0, r3, asr r0
     970:	02080304 	andeq	r0, r8, #268435456	; 0x10000000
     974:	81060023 	tsthi	r6, r3, lsr #32
     978:	03000009 	movweq	r0, #9
     97c:	0000537d 	andeq	r5, r0, sp, ror r3
     980:	07010400 	streq	r0, [r1, -r0, lsl #8]
     984:	06002302 	streq	r2, [r0], -r2, lsl #6
     988:	00000aaf 	andeq	r0, r0, pc, lsr #21
     98c:	00537e03 	subseq	r7, r3, r3, lsl #28
     990:	01040000 	mrseq	r0, (UNDEF: 4)
     994:	00230206 	eoreq	r0, r3, r6, lsl #4
     998:	000a4b06 	andeq	r4, sl, r6, lsl #22
     99c:	537f0300 	cmnpl	pc, #0
     9a0:	04000000 	streq	r0, [r0], #-0
     9a4:	23020402 	movwcs	r0, #9218	; 0x2402
     9a8:	091d0600 	ldmdbeq	sp, {r9, sl}
     9ac:	80030000 	andhi	r0, r3, r0
     9b0:	00000053 	andeq	r0, r0, r3, asr r0
     9b4:	02030104 	andeq	r0, r3, #1
     9b8:	55060023 	strpl	r0, [r6, #-35]	; 0x23
     9bc:	0300000a 	movweq	r0, #10
     9c0:	00005381 	andeq	r5, r0, r1, lsl #7
     9c4:	01020400 	tsteq	r2, r0, lsl #8
     9c8:	06002302 	streq	r2, [r0], -r2, lsl #6
     9cc:	000009cc 	andeq	r0, r0, ip, asr #19
     9d0:	00538203 	subseq	r8, r3, r3, lsl #4
     9d4:	01040000 	mrseq	r0, (UNDEF: 4)
     9d8:	00230200 	eoreq	r0, r3, r0, lsl #4
     9dc:	06f80300 	ldrbteq	r0, [r8], r0, lsl #6
     9e0:	83030000 	movwhi	r0, #12288	; 0x3000
     9e4:	00000462 	andeq	r0, r0, r2, ror #8
     9e8:	00090109 	andeq	r0, r9, r9, lsl #2
     9ec:	86030400 	strhi	r0, [r3], -r0, lsl #8
     9f0:	00000696 	muleq	r0, r6, r6
     9f4:	00051606 	andeq	r1, r5, r6, lsl #12
     9f8:	53880300 	orrpl	r0, r8, #0
     9fc:	04000000 	streq	r0, [r0], #-0
     a00:	23021c04 	movwcs	r1, #11268	; 0x2c04
     a04:	050e0600 	streq	r0, [lr, #-1536]	; 0x600
     a08:	89030000 	stmdbhi	r3, {}	; <UNPREDICTABLE>
     a0c:	00000053 	andeq	r0, r0, r3, asr r0
     a10:	021a0204 	andseq	r0, sl, #1073741824	; 0x40000000
     a14:	2d060023 	stccs	0, cr0, [r6, #-140]	; 0xffffff74
     a18:	0300000a 	movweq	r0, #10
     a1c:	0000538a 	andeq	r5, r0, sl, lsl #7
     a20:	18020400 	stmdane	r2, {sl}
     a24:	06002302 	streq	r2, [r0], -r2, lsl #6
     a28:	0000051e 	andeq	r0, r0, lr, lsl r5
     a2c:	00538b03 	subseq	r8, r3, r3, lsl #22
     a30:	04040000 	streq	r0, [r4], #-0
     a34:	00230214 	eoreq	r0, r3, r4, lsl r2
     a38:	000a3706 	andeq	r3, sl, r6, lsl #14
     a3c:	538c0300 	orrpl	r0, ip, #0
     a40:	04000000 	streq	r0, [r0], #-0
     a44:	23021004 	movwcs	r1, #8196	; 0x2004
     a48:	04be0600 	ldrteq	r0, [lr], #1536	; 0x600
     a4c:	8d030000 	stchi	0, cr0, [r3, #-0]
     a50:	00000053 	andeq	r0, r0, r3, asr r0
     a54:	020f0104 	andeq	r0, pc, #1
     a58:	89060023 	stmdbhi	r6, {r0, r1, r5}
     a5c:	03000009 	movweq	r0, #9
     a60:	0000538f 	andeq	r5, r0, pc, lsl #7
     a64:	0e010400 	cfcpyseq	mvf0, mvf1
     a68:	06002302 	streq	r2, [r0], -r2, lsl #6
     a6c:	00000a41 	andeq	r0, r0, r1, asr #20
     a70:	00539003 	subseq	r9, r3, r3
     a74:	02040000 	andeq	r0, r4, #0
     a78:	0023020c 	eoreq	r0, r3, ip, lsl #4
     a7c:	0008f206 	andeq	pc, r8, r6, lsl #4
     a80:	53910300 	orrspl	r0, r1, #0
     a84:	04000000 	streq	r0, [r0], #-0
     a88:	23020b01 	movwcs	r0, #11009	; 0x2b01
     a8c:	03790600 	cmneq	r9, #0
     a90:	92030000 	andls	r0, r3, #0
     a94:	00000053 	andeq	r0, r0, r3, asr r0
     a98:	020a0104 	andeq	r0, sl, #1
     a9c:	fe060023 	cdp2	0, 0, cr0, cr6, cr3, {1}
     aa0:	03000003 	movweq	r0, #3
     aa4:	00005393 	muleq	r0, r3, r3
     aa8:	09010400 	stmdbeq	r1, {sl}
     aac:	06002302 	streq	r2, [r0], -r2, lsl #6
     ab0:	00000a26 	andeq	r0, r0, r6, lsr #20
     ab4:	00539403 	subseq	r9, r3, r3, lsl #8
     ab8:	01040000 	mrseq	r0, (UNDEF: 4)
     abc:	00230208 	eoreq	r0, r3, r8, lsl #4
     ac0:	000a4b06 	andeq	r4, sl, r6, lsl #22
     ac4:	53950300 	orrspl	r0, r5, #0
     ac8:	04000000 	streq	r0, [r0], #-0
     acc:	23020701 	movwcs	r0, #9985	; 0x2701
     ad0:	09390600 	ldmdbeq	r9!, {r9, sl}
     ad4:	96030000 	strls	r0, [r3], -r0
     ad8:	00000053 	andeq	r0, r0, r3, asr r0
     adc:	02060104 	andeq	r0, r6, #1
     ae0:	c6060023 	strgt	r0, [r6], -r3, lsr #32
     ae4:	03000009 	movweq	r0, #9
     ae8:	00005397 	muleq	r0, r7, r3
     aec:	05010400 	streq	r0, [r1, #-1024]	; 0x400
     af0:	06002302 	streq	r2, [r0], -r2, lsl #6
     af4:	00000b5e 	andeq	r0, r0, lr, asr fp
     af8:	00539803 	subseq	r9, r3, r3, lsl #16
     afc:	01040000 	mrseq	r0, (UNDEF: 4)
     b00:	00230204 	eoreq	r0, r3, r4, lsl #4
     b04:	00091d06 	andeq	r1, r9, r6, lsl #26
     b08:	53990300 	orrspl	r0, r9, #0
     b0c:	04000000 	streq	r0, [r0], #-0
     b10:	23020301 	movwcs	r0, #8961	; 0x2301
     b14:	0a550600 	beq	154231c <__bss_end+0x153fa5c>
     b18:	9a030000 	bls	c0b20 <__bss_end+0xbe260>
     b1c:	00000053 	andeq	r0, r0, r3, asr r0
     b20:	02010204 	andeq	r0, r1, #1073741824	; 0x40000000
     b24:	cc060023 	stcgt	0, cr0, [r6], {35}	; 0x23
     b28:	03000009 	movweq	r0, #9
     b2c:	0000539b 	muleq	r0, fp, r3
     b30:	00010400 	andeq	r0, r1, r0, lsl #8
     b34:	00002302 	andeq	r2, r0, r2, lsl #6
     b38:	0002d103 	andeq	sp, r2, r3, lsl #2
     b3c:	469c0300 	ldrmi	r0, [ip], r0, lsl #6
     b40:	05000005 	streq	r0, [r0, #-5]
     b44:	10a40304 	adcne	r0, r4, r4, lsl #6
     b48:	06000007 	streq	r0, [r0], -r7
     b4c:	00000cc1 	andeq	r0, r0, r1, asr #25
     b50:	0053a603 	subseq	sl, r3, r3, lsl #12
     b54:	02040000 	andeq	r0, r4, #0
     b58:	0023021e 	eoreq	r0, r3, lr, lsl r2
     b5c:	000a2d06 	andeq	r2, sl, r6, lsl #26
     b60:	53a70300 			; <UNDEFINED> instruction: 0x53a70300
     b64:	04000000 	streq	r0, [r0], #-0
     b68:	23021806 	movwcs	r1, #10246	; 0x2806
     b6c:	0a070600 	beq	1c2374 <__bss_end+0x1bfab4>
     b70:	a8030000 	stmdage	r3, {}	; <UNPREDICTABLE>
     b74:	00000053 	andeq	r0, r0, r3, asr r0
     b78:	02160204 	andseq	r0, r6, #1073741824	; 0x40000000
     b7c:	37060023 	strcc	r0, [r6, -r3, lsr #32]
     b80:	0300000a 	movweq	r0, #10
     b84:	000053a9 	andeq	r5, r0, r9, lsr #7
     b88:	10060400 	andne	r0, r6, r0, lsl #8
     b8c:	06002302 	streq	r2, [r0], -r2, lsl #6
     b90:	00000656 	andeq	r0, r0, r6, asr r6
     b94:	0053aa03 	subseq	sl, r3, r3, lsl #20
     b98:	02040000 	andeq	r0, r4, #0
     b9c:	0023020e 	eoreq	r0, r3, lr, lsl #4
     ba0:	000a4106 	andeq	r4, sl, r6, lsl #2
     ba4:	53ab0300 			; <UNDEFINED> instruction: 0x53ab0300
     ba8:	04000000 	streq	r0, [r0], #-0
     bac:	2302000e 	movwcs	r0, #8206	; 0x200e
     bb0:	04070000 	streq	r0, [r7], #-0
     bb4:	072fa203 	streq	sl, [pc, -r3, lsl #4]!
     bb8:	0f080000 	svceq	0x00080000
     bbc:	03000003 	movweq	r0, #3
     bc0:	000053a3 	andeq	r5, r0, r3, lsr #7
     bc4:	07f90800 	ldrbeq	r0, [r9, r0, lsl #16]!
     bc8:	ac030000 	stcge	0, cr0, [r3], {-0}
     bcc:	000006a1 	andeq	r0, r0, r1, lsr #13
     bd0:	03e00300 	mvneq	r0, #0
     bd4:	ad030000 	stcge	0, cr0, [r3, #-0]
     bd8:	00000710 	andeq	r0, r0, r0, lsl r7
     bdc:	0002a109 	andeq	sl, r2, r9, lsl #2
     be0:	b4030400 	strlt	r0, [r3], #-1024	; 0x400
     be4:	000007be 			; <UNDEFINED> instruction: 0x000007be
     be8:	000a2d06 	andeq	r2, sl, r6, lsl #26
     bec:	53b60300 			; <UNDEFINED> instruction: 0x53b60300
     bf0:	04000000 	streq	r0, [r0], #-0
     bf4:	23021c04 	movwcs	r1, #11268	; 0x2c04
     bf8:	084a0600 	stmdaeq	sl, {r9, sl}^
     bfc:	b7030000 	strlt	r0, [r3, -r0]
     c00:	00000053 	andeq	r0, r0, r3, asr r0
     c04:	021a0204 	andseq	r0, sl, #1073741824	; 0x40000000
     c08:	84060023 	strhi	r0, [r6], #-35	; 0x23
     c0c:	0300000c 	movweq	r0, #12
     c10:	000053b8 			; <UNDEFINED> instruction: 0x000053b8
     c14:	18020400 	stmdane	r2, {sl}
     c18:	06002302 	streq	r2, [r0], -r2, lsl #6
     c1c:	00000979 	andeq	r0, r0, r9, ror r9
     c20:	0053b903 	subseq	fp, r3, r3, lsl #18
     c24:	02040000 	andeq	r0, r4, #0
     c28:	00230216 	eoreq	r0, r3, r6, lsl r2
     c2c:	000a3706 	andeq	r3, sl, r6, lsl #14
     c30:	53ba0300 			; <UNDEFINED> instruction: 0x53ba0300
     c34:	04000000 	streq	r0, [r0], #-0
     c38:	23021402 	movwcs	r1, #9218	; 0x2402
     c3c:	09640600 	stmdbeq	r4!, {r9, sl}^
     c40:	bb030000 	bllt	c0c48 <__bss_end+0xbe388>
     c44:	00000053 	andeq	r0, r0, r3, asr r0
     c48:	02120204 	andseq	r0, r2, #1073741824	; 0x40000000
     c4c:	41060023 	tstmi	r6, r3, lsr #32
     c50:	0300000a 	movweq	r0, #10
     c54:	000053bc 			; <UNDEFINED> instruction: 0x000053bc
     c58:	00120400 	andseq	r0, r2, r0, lsl #8
     c5c:	00002302 	andeq	r2, r0, r2, lsl #6
     c60:	000bd503 	andeq	sp, fp, r3, lsl #10
     c64:	3abd0300 	bcc	fef4186c <__bss_end+0xfef3efac>
     c68:	09000007 	stmdbeq	r0, {r0, r1, r2}
     c6c:	00000c2d 	andeq	r0, r0, sp, lsr #24
     c70:	3cc30304 	stclcc	3, cr0, [r3], {4}
     c74:	06000008 	streq	r0, [r0], -r8
     c78:	000005a9 	andeq	r0, r0, r9, lsr #11
     c7c:	0053c503 	subseq	ip, r3, r3, lsl #10
     c80:	05040000 	streq	r0, [r4, #-0]
     c84:	0023021b 	eoreq	r0, r3, fp, lsl r2
     c88:	000cb806 	andeq	fp, ip, r6, lsl #16
     c8c:	53c60300 	bicpl	r0, r6, #0
     c90:	04000000 	streq	r0, [r0], #-0
     c94:	2302100b 	movwcs	r1, #8203	; 0x200b
     c98:	05ae0600 	streq	r0, [lr, #1536]!	; 0x600
     c9c:	c7030000 	strgt	r0, [r3, -r0]
     ca0:	00000053 	andeq	r0, r0, r3, asr r0
     ca4:	020e0204 	andeq	r0, lr, #1073741824	; 0x40000000
     ca8:	37060023 	strcc	r0, [r6, -r3, lsr #32]
     cac:	0300000a 	movweq	r0, #10
     cb0:	000053c8 	andeq	r5, r0, r8, asr #7
     cb4:	08060400 	stmdaeq	r6, {sl}
     cb8:	06002302 	streq	r2, [r0], -r2, lsl #6
     cbc:	00000968 	andeq	r0, r0, r8, ror #18
     cc0:	0053c903 	subseq	ip, r3, r3, lsl #18
     cc4:	02040000 	andeq	r0, r4, #0
     cc8:	00230206 	eoreq	r0, r3, r6, lsl #4
     ccc:	000a4106 	andeq	r4, sl, r6, lsl #2
     cd0:	53ca0300 	bicpl	r0, sl, #0
     cd4:	04000000 	streq	r0, [r0], #-0
     cd8:	23020006 	movwcs	r0, #8198	; 0x2006
     cdc:	92030000 	andls	r0, r3, #0
     ce0:	03000008 	movweq	r0, #8
     ce4:	0007c9cb 	andeq	ip, r7, fp, asr #19
     ce8:	07210900 	streq	r0, [r1, -r0, lsl #18]!
     cec:	03040000 	movweq	r0, #16384	; 0x4000
     cf0:	000876cd 	andeq	r7, r8, sp, asr #13
     cf4:	0c7b0600 	ldcleq	6, cr0, [fp], #-0
     cf8:	cf030000 	svcgt	0x00030000
     cfc:	00000053 	andeq	r0, r0, r3, asr r0
     d00:	02101004 	andseq	r1, r0, #4
     d04:	b8060023 	stmdalt	r6, {r0, r1, r5}
     d08:	0300000c 	movweq	r0, #12
     d0c:	000053d0 	ldrdeq	r5, [r0], -r0
     d10:	00100400 	andseq	r0, r0, r0, lsl #8
     d14:	00002302 	andeq	r2, r0, r2, lsl #6
     d18:	000b1b03 	andeq	r1, fp, r3, lsl #22
     d1c:	47d10300 	ldrbmi	r0, [r1, r0, lsl #6]
     d20:	0a000008 	beq	d48 <__save_processor_state+0x108>
     d24:	00000d2e 	andeq	r0, r0, lr, lsr #26
     d28:	d30302dc 	movwle	r0, #13020	; 0x32dc
     d2c:	00001065 	andeq	r1, r0, r5, rrx
     d30:	0006eb0b 	andeq	lr, r6, fp, lsl #22
     d34:	65d50300 	ldrbvs	r0, [r5, #768]	; 0x300
     d38:	02000010 	andeq	r0, r0, #16
     d3c:	2d0b0023 	stccs	0, cr0, [fp, #-140]	; 0xffffff74
     d40:	0300000a 	movweq	r0, #10
     d44:	00106ad6 			; <UNDEFINED> instruction: 0x00106ad6
     d48:	04230200 	strteq	r0, [r3], #-512	; 0x200
     d4c:	000d260b 	andeq	r2, sp, fp, lsl #12
     d50:	6fd70300 	svcvs	0x00d70300
     d54:	02000010 	andeq	r0, r0, #16
     d58:	370b0823 	strcc	r0, [fp, -r3, lsr #16]
     d5c:	0300000a 	movweq	r0, #10
     d60:	00106ad8 			; <UNDEFINED> instruction: 0x00106ad8
     d64:	0c230200 	sfmeq	f0, 4, [r3], #-0
     d68:	0008740b 	andeq	r7, r8, fp, lsl #8
     d6c:	6ad90300 	bvs	ff641974 <__bss_end+0xff63f0b4>
     d70:	02000010 	andeq	r0, r0, #16
     d74:	410b1023 	tstmi	fp, r3, lsr #32
     d78:	0300000a 	movweq	r0, #10
     d7c:	00106ada 			; <UNDEFINED> instruction: 0x00106ada
     d80:	14230200 	strtne	r0, [r3], #-512	; 0x200
     d84:	0003a30b 	andeq	sl, r3, fp, lsl #6
     d88:	6adb0300 	bvs	ff6c1990 <__bss_end+0xff6bf0d0>
     d8c:	02000010 	andeq	r0, r0, #16
     d90:	4b0b1823 	blmi	2c6e24 <__bss_end+0x2c4564>
     d94:	0300000a 	movweq	r0, #10
     d98:	00106adc 			; <UNDEFINED> instruction: 0x00106adc
     d9c:	1c230200 	sfmne	f0, 4, [r3], #-0
     da0:	0009a00b 	andeq	sl, r9, fp
     da4:	74dd0300 	ldrbvc	r0, [sp], #768	; 0x300
     da8:	02000010 	andeq	r0, r0, #16
     dac:	550b2023 	strpl	r2, [fp, #-35]	; 0x23
     db0:	0300000a 	movweq	r0, #10
     db4:	00106ade 			; <UNDEFINED> instruction: 0x00106ade
     db8:	24230200 	strtcs	r0, [r3], #-512	; 0x200
     dbc:	0003470b 	andeq	r4, r3, fp, lsl #14
     dc0:	79df0300 	ldmibvc	pc, {r8, r9}^	; <UNPREDICTABLE>
     dc4:	02000010 	andeq	r0, r0, #16
     dc8:	5f0b2823 	svcpl	0x000b2823
     dcc:	0300000a 	movweq	r0, #10
     dd0:	00106ae0 	andseq	r6, r0, r0, ror #21
     dd4:	2c230200 	sfmcs	f0, 4, [r3], #-0
     dd8:	0009950b 	andeq	r9, r9, fp, lsl #10
     ddc:	6ae10300 	bvs	ff8419e4 <__bss_end+0xff83f124>
     de0:	02000010 	andeq	r0, r0, #16
     de4:	690b3023 	stmdbvs	fp, {r0, r1, r5, ip, sp}
     de8:	0300000a 	movweq	r0, #10
     dec:	00106ae2 	andseq	r6, r0, r2, ror #21
     df0:	34230200 	strtcc	r0, [r3], #-512	; 0x200
     df4:	00070e0b 	andeq	r0, r7, fp, lsl #28
     df8:	7ee30300 	cdpvc	3, 14, cr0, cr3, cr0, {0}
     dfc:	02000010 	andeq	r0, r0, #16
     e00:	730b3823 	movwvc	r3, #47139	; 0xb823
     e04:	0300000a 	movweq	r0, #10
     e08:	00106ae4 	andseq	r6, r0, r4, ror #21
     e0c:	3c230200 	sfmcc	f0, 4, [r3], #-0
     e10:	0005030b 	andeq	r0, r5, fp, lsl #6
     e14:	83e50300 	mvnhi	r0, #0
     e18:	02000010 	andeq	r0, r0, #16
     e1c:	7c0b4023 	stcvc	0, cr4, [fp], {35}	; 0x23
     e20:	0300000d 	movweq	r0, #13
     e24:	00106ae6 	andseq	r6, r0, r6, ror #21
     e28:	44230200 	strtmi	r0, [r3], #-512	; 0x200
     e2c:	00039a0b 	andeq	r9, r3, fp, lsl #20
     e30:	6ae70300 	bvs	ff9c1a38 <__bss_end+0xff9bf178>
     e34:	02000010 	andeq	r0, r0, #16
     e38:	e80b4823 	stmda	fp, {r0, r1, r5, fp, lr}
     e3c:	03000009 	movweq	r0, #9
     e40:	00106ae8 	andseq	r6, r0, r8, ror #21
     e44:	4c230200 	sfmmi	f0, 4, [r3], #-0
     e48:	00087c0b 	andeq	r7, r8, fp, lsl #24
     e4c:	88e90300 	stmiahi	r9!, {r8, r9}^
     e50:	02000010 	andeq	r0, r0, #16
     e54:	4a0b5023 	bmi	2d4ee8 <__bss_end+0x2d2628>
     e58:	03000008 	movweq	r0, #8
     e5c:	00108dea 	andseq	r8, r0, sl, ror #27
     e60:	54230200 	strtpl	r0, [r3], #-512	; 0x200
     e64:	0005260b 	andeq	r2, r5, fp, lsl #12
     e68:	92eb0300 	rscls	r0, fp, #0
     e6c:	02000010 	andeq	r0, r0, #16
     e70:	020b5823 	andeq	r5, fp, #2293760	; 0x230000
     e74:	0300000c 	movweq	r0, #12
     e78:	00106aec 	andseq	r6, r0, ip, ror #21
     e7c:	5c230200 	sfmpl	f0, 4, [r3], #-0
     e80:	000afe0b 	andeq	pc, sl, fp, lsl #28
     e84:	6aed0300 	bvs	ffb41a8c <__bss_end+0xffb3f1cc>
     e88:	02000010 	andeq	r0, r0, #16
     e8c:	ba0b6023 	blt	2d8f20 <__bss_end+0x2d6660>
     e90:	03000006 	movweq	r0, #6
     e94:	00106aee 	andseq	r6, r0, lr, ror #21
     e98:	64230200 	strtvs	r0, [r3], #-512	; 0x200
     e9c:	000ccb0b 	andeq	ip, ip, fp, lsl #22
     ea0:	6aef0300 	bvs	ffbc1aa8 <__bss_end+0xffbbf1e8>
     ea4:	02000010 	andeq	r0, r0, #16
     ea8:	f80b6823 			; <UNDEFINED> instruction: 0xf80b6823
     eac:	03000008 	movweq	r0, #8
     eb0:	00106af0 			; <UNDEFINED> instruction: 0x00106af0
     eb4:	6c230200 	sfmvs	f0, 4, [r3], #-0
     eb8:	000a7d0b 	andeq	r7, sl, fp, lsl #26
     ebc:	a7f10300 	ldrbge	r0, [r1, r0, lsl #6]!
     ec0:	02000010 	andeq	r0, r0, #16
     ec4:	560b7023 	strpl	r7, [fp], -r3, lsr #32
     ec8:	0300000d 	movweq	r0, #13
     ecc:	00106af2 			; <UNDEFINED> instruction: 0x00106af2
     ed0:	80230300 	eorhi	r0, r3, r0, lsl #6
     ed4:	0cd40b01 	fldmiaxeq	r4, {d16-d15}	;@ Deprecated
     ed8:	f3030000 	vhadd.u8	d0, d3, d0
     edc:	0000106a 	andeq	r1, r0, sl, rrx
     ee0:	01842303 	orreq	r2, r4, r3, lsl #6
     ee4:	3064530c 	rsbcc	r5, r4, ip, lsl #6
     ee8:	6af40300 	bvs	ffd01af0 <__bss_end+0xffcff230>
     eec:	03000010 	movweq	r0, #16
     ef0:	0c018823 	stceq	8, cr8, [r1], {35}	; 0x23
     ef4:	00316453 	eorseq	r6, r1, r3, asr r4
     ef8:	106af503 	rsbne	pc, sl, r3, lsl #10
     efc:	23030000 	movwcs	r0, #12288	; 0x3000
     f00:	530c018c 	movwpl	r0, #49548	; 0xc18c
     f04:	03003264 	movweq	r3, #612	; 0x264
     f08:	00106af6 			; <UNDEFINED> instruction: 0x00106af6
     f0c:	90230300 	eorls	r0, r3, r0, lsl #6
     f10:	0cdf0b01 	fldmiaxeq	pc, {d16-d15}	;@ Deprecated
     f14:	f7030000 			; <UNDEFINED> instruction: 0xf7030000
     f18:	000010bc 	strheq	r1, [r0], -ip
     f1c:	01942303 	orrseq	r2, r4, r3, lsl #6
     f20:	0073530c 	rsbseq	r5, r3, ip, lsl #6
     f24:	106af803 	rsbne	pc, sl, r3, lsl #16
     f28:	23030000 	movwcs	r0, #12288	; 0x3000
     f2c:	f40b019c 	vst4.32	{d0,d2,d4,d6}, [fp :64], ip
     f30:	0300000a 	movweq	r0, #10
     f34:	00106af9 			; <UNDEFINED> instruction: 0x00106af9
     f38:	a0230300 	eorge	r0, r3, r0, lsl #6
     f3c:	0af90b01 	beq	ffe43b48 <__bss_end+0xffe41288>
     f40:	fa030000 	blx	c0f48 <__bss_end+0xbe688>
     f44:	0000106a 	andeq	r1, r0, sl, rrx
     f48:	01a42303 			; <UNDEFINED> instruction: 0x01a42303
     f4c:	000cea0b 	andeq	lr, ip, fp, lsl #20
     f50:	c1fb0300 	mvnsgt	r0, r0, lsl #6
     f54:	03000010 	movweq	r0, #16
     f58:	0b01a823 	bleq	6afec <__bss_end+0x6872c>
     f5c:	00000390 	muleq	r0, r0, r3
     f60:	106afc03 	rsbne	pc, sl, r3, lsl #24
     f64:	23030000 	movwcs	r0, #12288	; 0x3000
     f68:	950b01b0 	strls	r0, [fp, #-432]	; 0x1b0
     f6c:	03000003 	movweq	r0, #3
     f70:	00106afd 			; <UNDEFINED> instruction: 0x00106afd
     f74:	b4230300 	strtlt	r0, [r3], #-768	; 0x300
     f78:	07160b01 	ldreq	r0, [r6, -r1, lsl #22]
     f7c:	fe030000 	cdp2	0, 0, cr0, cr3, cr0, {0}
     f80:	000010c6 	andeq	r1, r0, r6, asr #1
     f84:	01b82303 			; <UNDEFINED> instruction: 0x01b82303
     f88:	000b520b 	andeq	r5, fp, fp, lsl #4
     f8c:	6aff0300 	bvs	fffc1b94 <__bss_end+0xfffbf2d4>
     f90:	03000010 	movweq	r0, #16
     f94:	0d01c023 	stceq	0, cr12, [r1, #-140]	; 0xffffff74
     f98:	00000826 	andeq	r0, r0, r6, lsr #16
     f9c:	cb010003 	blgt	40fb0 <__bss_end+0x3e6f0>
     fa0:	03000010 	movweq	r0, #16
     fa4:	0e01c423 	cdpeq	4, 0, cr12, cr1, cr3, {1}
     fa8:	00627355 	rsbeq	r7, r2, r5, asr r3
     fac:	6a010103 	bvs	413c0 <__bss_end+0x3eb00>
     fb0:	03000010 	movweq	r0, #16
     fb4:	0d01cc23 	stceq	12, cr12, [r1, #-140]	; 0xffffff74
     fb8:	0000059d 	muleq	r0, sp, r5
     fbc:	6a010203 	bvs	417d0 <__bss_end+0x3ef10>
     fc0:	03000010 	movweq	r0, #16
     fc4:	0d01d023 	stceq	0, cr13, [r1, #-140]	; 0xffffff74
     fc8:	00000738 	andeq	r0, r0, r8, lsr r7
     fcc:	e0010303 	and	r0, r1, r3, lsl #6
     fd0:	03000010 	movweq	r0, #16
     fd4:	0d01d423 	cfstrseq	mvf13, [r1, #-140]	; 0xffffff74
     fd8:	00000d1a 	andeq	r0, r0, sl, lsl sp
     fdc:	6a010403 	bvs	41ff0 <__bss_end+0x3f730>
     fe0:	03000010 	movweq	r0, #16
     fe4:	0d01f023 	stceq	0, cr15, [r1, #-140]	; 0xffffff74
     fe8:	00000bcd 	andeq	r0, r0, sp, asr #23
     fec:	6a010503 	bvs	42400 <__bss_end+0x3fb40>
     ff0:	03000010 	movweq	r0, #16
     ff4:	0d01f423 	cfstrseq	mvf15, [r1, #-140]	; 0xffffff74
     ff8:	00000775 	andeq	r0, r0, r5, ror r7
     ffc:	6a010603 	bvs	42810 <__bss_end+0x3ff50>
    1000:	03000010 	movweq	r0, #16
    1004:	0d01f823 	stceq	8, cr15, [r1, #-140]	; 0xffffff74
    1008:	000008ae 	andeq	r0, r0, lr, lsr #17
    100c:	6a010703 	bvs	42c20 <__bss_end+0x40360>
    1010:	03000010 	movweq	r0, #16
    1014:	0d01fc23 	stceq	12, cr15, [r1, #-140]	; 0xffffff74
    1018:	0000095b 	andeq	r0, r0, fp, asr r9
    101c:	6a010803 	bvs	43030 <__bss_end+0x40770>
    1020:	03000010 	movweq	r0, #16
    1024:	0e028023 	cdpeq	0, 0, cr8, cr2, cr3, {1}
    1028:	00306542 	eorseq	r6, r0, r2, asr #10
    102c:	6a010903 	bvs	43440 <__bss_end+0x40b80>
    1030:	03000010 	movweq	r0, #16
    1034:	0d028423 	cfstrseq	mvf8, [r2, #-140]	; 0xffffff74
    1038:	00000868 	andeq	r0, r0, r8, ror #16
    103c:	6a010a03 	bvs	43850 <__bss_end+0x40f90>
    1040:	03000010 	movweq	r0, #16
    1044:	0e028823 	cdpeq	8, 0, cr8, cr2, cr3, {1}
    1048:	00306546 	eorseq	r6, r0, r6, asr #10
    104c:	6a010b03 	bvs	43c60 <__bss_end+0x413a0>
    1050:	03000010 	movweq	r0, #16
    1054:	0d028c23 	stceq	12, cr8, [r2, #-140]	; 0xffffff74
    1058:	000002eb 	andeq	r0, r0, fp, ror #5
    105c:	6a010c03 	bvs	44070 <__bss_end+0x417b0>
    1060:	03000010 	movweq	r0, #16
    1064:	0d029023 	stceq	0, cr9, [r2, #-140]	; 0xffffff74
    1068:	000002f7 	strdeq	r0, [r0], -r7
    106c:	6a010d03 	bvs	44480 <__bss_end+0x41bc0>
    1070:	03000010 	movweq	r0, #16
    1074:	0d029423 	cfstrseq	mvf9, [r2, #-140]	; 0xffffff74
    1078:	0000032f 	andeq	r0, r0, pc, lsr #6
    107c:	6a010e03 	bvs	44890 <__bss_end+0x41fd0>
    1080:	03000010 	movweq	r0, #16
    1084:	0d029823 	stceq	8, cr9, [r2, #-140]	; 0xffffff74
    1088:	00000303 	andeq	r0, r0, r3, lsl #6
    108c:	6a010f03 	bvs	44ca0 <__bss_end+0x423e0>
    1090:	03000010 	movweq	r0, #16
    1094:	0d029c23 	stceq	12, cr9, [r2, #-140]	; 0xffffff74
    1098:	00000749 	andeq	r0, r0, r9, asr #14
    109c:	f5011003 			; <UNDEFINED> instruction: 0xf5011003
    10a0:	03000010 	movweq	r0, #16
    10a4:	0d02a023 	stceq	0, cr10, [r2, #-140]	; 0xffffff74
    10a8:	00000337 	andeq	r0, r0, r7, lsr r3
    10ac:	6a011103 	bvs	454c0 <__bss_end+0x42c00>
    10b0:	03000010 	movweq	r0, #16
    10b4:	0d02ac23 	stceq	12, cr10, [r2, #-140]	; 0xffffff74
    10b8:	0000034f 	andeq	r0, r0, pc, asr #6
    10bc:	6a011203 	bvs	458d0 <__bss_end+0x43010>
    10c0:	03000010 	movweq	r0, #16
    10c4:	0d02b023 	stceq	0, cr11, [r2, #-140]	; 0xffffff74
    10c8:	00000aa1 	andeq	r0, r0, r1, lsr #21
    10cc:	6a011303 	bvs	45ce0 <__bss_end+0x43420>
    10d0:	03000010 	movweq	r0, #16
    10d4:	0d02b423 	cfstrseq	mvf11, [r2, #-140]	; 0xffffff74
    10d8:	0000035b 	andeq	r0, r0, fp, asr r3
    10dc:	6a011403 	bvs	460f0 <__bss_end+0x43830>
    10e0:	03000010 	movweq	r0, #16
    10e4:	0e02b823 	cdpeq	8, 0, cr11, cr2, cr3, {1}
    10e8:	03006556 	movweq	r6, #1366	; 0x556
    10ec:	106a0115 	rsbne	r0, sl, r5, lsl r1
    10f0:	23030000 	movwcs	r0, #12288	; 0x3000
    10f4:	f30d02bc 	vqsub.u8	d0, d29, d28
    10f8:	03000006 	movweq	r0, #6
    10fc:	106a0116 	rsbne	r0, sl, r6, lsl r1
    1100:	23030000 	movwcs	r0, #12288	; 0x3000
    1104:	410e02c0 	smlabtmi	lr, r0, r2, r0
    1108:	03007376 	movweq	r7, #886	; 0x376
    110c:	106a0117 	rsbne	r0, sl, r7, lsl r1
    1110:	23030000 	movwcs	r0, #12288	; 0x3000
    1114:	670d02c4 	strvs	r0, [sp, -r4, asr #5]
    1118:	03000003 	movweq	r0, #3
    111c:	106a0118 	rsbne	r0, sl, r8, lsl r1
    1120:	23030000 	movwcs	r0, #12288	; 0x3000
    1124:	540d02c8 	strpl	r0, [sp], #-712	; 0x2c8
    1128:	03000007 	movweq	r0, #7
    112c:	106a0119 	rsbne	r0, sl, r9, lsl r1
    1130:	23030000 	movwcs	r0, #12288	; 0x3000
    1134:	2a0d02cc 	bcs	341c6c <__bss_end+0x33f3ac>
    1138:	03000004 	movweq	r0, #4
    113c:	106a011a 	rsbne	r0, sl, sl, lsl r1
    1140:	23030000 	movwcs	r0, #12288	; 0x3000
    1144:	360d02d0 			; <UNDEFINED> instruction: 0x360d02d0
    1148:	03000004 	movweq	r0, #4
    114c:	106a011b 	rsbne	r0, sl, fp, lsl r1
    1150:	23030000 	movwcs	r0, #12288	; 0x3000
    1154:	420d02d4 	andmi	r0, sp, #1073741837	; 0x4000000d
    1158:	03000004 	movweq	r0, #4
    115c:	106a011c 	rsbne	r0, sl, ip, lsl r1
    1160:	23030000 	movwcs	r0, #12288	; 0x3000
    1164:	b80d02d8 	stmdalt	sp, {r3, r4, r6, r7, r9}
    1168:	03000004 	movweq	r0, #4
    116c:	106a011d 	rsbne	r0, sl, sp, lsl r1
    1170:	23030000 	movwcs	r0, #12288	; 0x3000
    1174:	4e0d02dc 	mcrmi	2, 0, r0, cr13, cr12, {6}
    1178:	03000004 	movweq	r0, #4
    117c:	106a011e 	rsbne	r0, sl, lr, lsl r1
    1180:	23030000 	movwcs	r0, #12288	; 0x3000
    1184:	5f0d02e0 	svcpl	0x000d02e0
    1188:	03000007 	movweq	r0, #7
    118c:	106a011f 	rsbne	r0, sl, pc, lsl r1
    1190:	23030000 	movwcs	r0, #12288	; 0x3000
    1194:	d80d02e4 	stmdale	sp, {r2, r5, r6, r7, r9}
    1198:	03000003 	movweq	r0, #3
    119c:	106a0120 	rsbne	r0, sl, r0, lsr #2
    11a0:	23030000 	movwcs	r0, #12288	; 0x3000
    11a4:	6f0d02e8 	svcvs	0x000d02e8
    11a8:	0300000c 	movweq	r0, #12
    11ac:	106a0121 	rsbne	r0, sl, r1, lsr #2
    11b0:	23030000 	movwcs	r0, #12288	; 0x3000
    11b4:	6a0d02ec 	bvs	341d6c <__bss_end+0x33f4ac>
    11b8:	03000007 	movweq	r0, #7
    11bc:	10fa0122 	rscsne	r0, sl, r2, lsr #2
    11c0:	23030000 	movwcs	r0, #12288	; 0x3000
    11c4:	4e0d02f0 	mcrmi	2, 0, r0, cr13, cr0, {7}
    11c8:	03000006 	movweq	r0, #6
    11cc:	106a0123 	rsbne	r0, sl, r3, lsr #2
    11d0:	23030000 	movwcs	r0, #12288	; 0x3000
    11d4:	fd0d0380 	stc2	3, cr0, [sp, #-512]	; 0xfffffe00
    11d8:	03000005 	movweq	r0, #5
    11dc:	106a0124 	rsbne	r0, sl, r4, lsr #2
    11e0:	23030000 	movwcs	r0, #12288	; 0x3000
    11e4:	090d0384 	stmdbeq	sp, {r2, r7, r8, r9}
    11e8:	03000006 	movweq	r0, #6
    11ec:	106a0125 	rsbne	r0, sl, r5, lsr #2
    11f0:	23030000 	movwcs	r0, #12288	; 0x3000
    11f4:	150d0388 	strne	r0, [sp, #-904]	; 0x388
    11f8:	03000006 	movweq	r0, #6
    11fc:	106a0126 	rsbne	r0, sl, r6, lsr #2
    1200:	23030000 	movwcs	r0, #12288	; 0x3000
    1204:	520d038c 	andpl	r0, sp, #805306370	; 0x30000002
    1208:	03000008 	movweq	r0, #8
    120c:	10ff0127 	rscsne	r0, pc, r7, lsr #2
    1210:	23030000 	movwcs	r0, #12288	; 0x3000
    1214:	460d0390 			; <UNDEFINED> instruction: 0x460d0390
    1218:	03000006 	movweq	r0, #6
    121c:	106a0128 	rsbne	r0, sl, r8, lsr #2
    1220:	23030000 	movwcs	r0, #12288	; 0x3000
    1224:	8e0d03a0 	cdphi	3, 0, cr0, cr13, cr0, {5}
    1228:	03000005 	movweq	r0, #5
    122c:	106a0129 	rsbne	r0, sl, r9, lsr #2
    1230:	23030000 	movwcs	r0, #12288	; 0x3000
    1234:	bb0d03a4 	bllt	3420cc <__bss_end+0x33f80c>
    1238:	03000008 	movweq	r0, #8
    123c:	106a012a 	rsbne	r0, sl, sl, lsr #2
    1240:	23030000 	movwcs	r0, #12288	; 0x3000
    1244:	710d03a8 	smlatbvc	sp, r8, r3, r0
    1248:	03000006 	movweq	r0, #6
    124c:	106a012b 	rsbne	r0, sl, fp, lsr #2
    1250:	23030000 	movwcs	r0, #12288	; 0x3000
    1254:	410e03ac 	smlatbmi	lr, ip, r3, r0
    1258:	03007374 	movweq	r7, #884	; 0x374
    125c:	106a012c 	rsbne	r0, sl, ip, lsr #2
    1260:	23030000 	movwcs	r0, #12288	; 0x3000
    1264:	5d0d03b0 	stcpl	3, cr0, [sp, #-704]	; 0xfffffd40
    1268:	03000008 	movweq	r0, #8
    126c:	1114012d 	tstne	r4, sp, lsr #2
    1270:	23030000 	movwcs	r0, #12288	; 0x3000
    1274:	210d03b4 			; <UNDEFINED> instruction: 0x210d03b4
    1278:	03000006 	movweq	r0, #6
    127c:	1119012e 	tstne	r9, lr, lsr #2
    1280:	23030000 	movwcs	r0, #12288	; 0x3000
    1284:	190d0480 	stmdbne	sp, {r7, sl}
    1288:	03000009 	movweq	r0, #9
    128c:	106a012f 	rsbne	r0, sl, pc, lsr #2
    1290:	23030000 	movwcs	r0, #12288	; 0x3000
    1294:	ac0d0484 	cfstrsge	mvf0, [sp], {132}	; 0x84
    1298:	0300000c 	movweq	r0, #12
    129c:	112e0130 	teqne	lr, r0, lsr r1
    12a0:	23030000 	movwcs	r0, #12288	; 0x3000
    12a4:	cd0d0488 	cfstrsgt	mvf0, [sp, #-544]	; 0xfffffde0
    12a8:	03000007 	movweq	r0, #7
    12ac:	11430131 	cmpne	r3, r1, lsr r1
    12b0:	23030000 	movwcs	r0, #12288	; 0x3000
    12b4:	050d04a0 	streq	r0, [sp, #-1184]	; 0x4a0
    12b8:	03000004 	movweq	r0, #4
    12bc:	106a0132 	rsbne	r0, sl, r2, lsr r1
    12c0:	23030000 	movwcs	r0, #12288	; 0x3000
    12c4:	de0d04a4 	cdple	4, 0, cr0, cr13, cr4, {5}
    12c8:	03000006 	movweq	r0, #6
    12cc:	106a0133 	rsbne	r0, sl, r3, lsr r1
    12d0:	23030000 	movwcs	r0, #12288	; 0x3000
    12d4:	140d04a8 	strne	r0, [sp], #-1192	; 0x4a8
    12d8:	03000008 	movweq	r0, #8
    12dc:	106a0134 	rsbne	r0, sl, r4, lsr r1
    12e0:	23030000 	movwcs	r0, #12288	; 0x3000
    12e4:	220d04ac 	andcs	r0, sp, #-1409286144	; 0xac000000
    12e8:	03000009 	movweq	r0, #9
    12ec:	106a0135 	rsbne	r0, sl, r5, lsr r1
    12f0:	23030000 	movwcs	r0, #12288	; 0x3000
    12f4:	340d04b0 	strcc	r0, [sp], #-1200	; 0x4b0
    12f8:	0300000b 	movweq	r0, #11
    12fc:	106a0136 	rsbne	r0, sl, r6, lsr r1
    1300:	23030000 	movwcs	r0, #12288	; 0x3000
    1304:	360d04b4 			; <UNDEFINED> instruction: 0x360d04b4
    1308:	03000005 	movweq	r0, #5
    130c:	106a0137 	rsbne	r0, sl, r7, lsr r1
    1310:	23030000 	movwcs	r0, #12288	; 0x3000
    1314:	720d04b8 	andvc	r0, sp, #-1207959552	; 0xb8000000
    1318:	03000005 	movweq	r0, #5
    131c:	106a0138 	rsbne	r0, sl, r8, lsr r1
    1320:	23030000 	movwcs	r0, #12288	; 0x3000
    1324:	d60d04bc 			; <UNDEFINED> instruction: 0xd60d04bc
    1328:	03000007 	movweq	r0, #7
    132c:	106a0139 	rsbne	r0, sl, r9, lsr r1
    1330:	23030000 	movwcs	r0, #12288	; 0x3000
    1334:	8e0d04c0 	cfcvt64shi	mvf0, mvdx13
    1338:	03000004 	movweq	r0, #4
    133c:	106a013a 	rsbne	r0, sl, sl, lsr r1
    1340:	23030000 	movwcs	r0, #12288	; 0x3000
    1344:	6f0d04c4 	svcvs	0x000d04c4
    1348:	03000009 	movweq	r0, #9
    134c:	106a013b 	rsbne	r0, sl, fp, lsr r1
    1350:	23030000 	movwcs	r0, #12288	; 0x3000
    1354:	9e0d04c8 	cdpls	4, 0, cr0, cr13, cr8, {6}
    1358:	0300000b 	movweq	r0, #11
    135c:	106a013c 	rsbne	r0, sl, ip, lsr r1
    1360:	23030000 	movwcs	r0, #12288	; 0x3000
    1364:	b00d04cc 	andlt	r0, sp, ip, asr #9
    1368:	03000004 	movweq	r0, #4
    136c:	106a013d 	rsbne	r0, sl, sp, lsr r1
    1370:	23030000 	movwcs	r0, #12288	; 0x3000
    1374:	420d04d0 	andmi	r0, sp, #-805306368	; 0xd0000000
    1378:	03000005 	movweq	r0, #5
    137c:	1148013e 	cmpne	r8, lr, lsr r1
    1380:	23030000 	movwcs	r0, #12288	; 0x3000
    1384:	1e0d04d4 	mcrne	4, 0, r0, cr13, cr4, {6}
    1388:	03000008 	movweq	r0, #8
    138c:	106a013f 	rsbne	r0, sl, pc, lsr r1
    1390:	23030000 	movwcs	r0, #12288	; 0x3000
    1394:	4e0d04e0 	cfcvt64dmi	mvd0, mvdx13
    1398:	03000005 	movweq	r0, #5
    139c:	114d0140 	cmpne	sp, r0, asr #2
    13a0:	23030000 	movwcs	r0, #12288	; 0x3000
    13a4:	ee0d04e4 	cdp	4, 0, cr0, cr13, cr4, {7}
    13a8:	03000007 	movweq	r0, #7
    13ac:	106a0141 	rsbne	r0, sl, r1, asr #2
    13b0:	23030000 	movwcs	r0, #12288	; 0x3000
    13b4:	5a0d04f0 	bpl	34277c <__bss_end+0x33febc>
    13b8:	03000005 	movweq	r0, #5
    13bc:	11520142 	cmpne	r2, r2, asr #2
    13c0:	23030000 	movwcs	r0, #12288	; 0x3000
    13c4:	e20d04f4 	and	r0, sp, #-201326592	; 0xf4000000
    13c8:	03000007 	movweq	r0, #7
    13cc:	106a0143 	rsbne	r0, sl, r3, asr #2
    13d0:	23030000 	movwcs	r0, #12288	; 0x3000
    13d4:	dd0d0580 	cfstr32le	mvfx0, [sp, #-512]	; 0xfffffe00
    13d8:	0300000a 	movweq	r0, #10
    13dc:	106a0144 	rsbne	r0, sl, r4, asr #2
    13e0:	23030000 	movwcs	r0, #12288	; 0x3000
    13e4:	8f0d0584 	svchi	0x000d0584
    13e8:	0300000c 	movweq	r0, #12
    13ec:	106a0145 	rsbne	r0, sl, r5, asr #2
    13f0:	23030000 	movwcs	r0, #12288	; 0x3000
    13f4:	9f0d0588 	svcls	0x000d0588
    13f8:	0300000c 	movweq	r0, #12
    13fc:	106a0146 	rsbne	r0, sl, r6, asr #2
    1400:	23030000 	movwcs	r0, #12288	; 0x3000
    1404:	910d058c 	smlabbls	sp, ip, r5, r0
    1408:	03000002 	movweq	r0, #2
    140c:	106a0147 	rsbne	r0, sl, r7, asr #2
    1410:	23030000 	movwcs	r0, #12288	; 0x3000
    1414:	070d0590 			; <UNDEFINED> instruction: 0x070d0590
    1418:	0300000b 	movweq	r0, #11
    141c:	11570148 	cmpne	r7, r8, asr #2
    1420:	23030000 	movwcs	r0, #12288	; 0x3000
    1424:	800d0594 	mulhi	sp, r4, r5
    1428:	03000004 	movweq	r0, #4
    142c:	106a0149 	rsbne	r0, sl, r9, asr #2
    1430:	23030000 	movwcs	r0, #12288	; 0x3000
    1434:	880d059c 	stmdahi	sp, {r2, r3, r4, r7, r8, sl}
    1438:	03000007 	movweq	r0, #7
    143c:	106a014a 	rsbne	r0, sl, sl, asr #2
    1440:	23030000 	movwcs	r0, #12288	; 0x3000
    1444:	5a0d05a0 	bpl	342acc <__bss_end+0x34020c>
    1448:	03000004 	movweq	r0, #4
    144c:	106a014b 	rsbne	r0, sl, fp, asr #2
    1450:	23030000 	movwcs	r0, #12288	; 0x3000
    1454:	870d05a4 	strhi	r0, [sp, -r4, lsr #11]
    1458:	0300000a 	movweq	r0, #10
    145c:	106a014c 	rsbne	r0, sl, ip, asr #2
    1460:	23030000 	movwcs	r0, #12288	; 0x3000
    1464:	470d05a8 	strmi	r0, [sp, -r8, lsr #11]
    1468:	0300000c 	movweq	r0, #12
    146c:	106a014d 	rsbne	r0, sl, sp, asr #2
    1470:	23030000 	movwcs	r0, #12288	; 0x3000
    1474:	5b0d05ac 	blpl	342b2c <__bss_end+0x34026c>
    1478:	0300000c 	movweq	r0, #12
    147c:	106a014e 	rsbne	r0, sl, lr, asr #2
    1480:	23030000 	movwcs	r0, #12288	; 0x3000
    1484:	660d05b0 			; <UNDEFINED> instruction: 0x660d05b0
    1488:	03000005 	movweq	r0, #5
    148c:	115c014f 	cmpne	ip, pc, asr #2
    1490:	23030000 	movwcs	r0, #12288	; 0x3000
    1494:	c90d05b4 	stmdbgt	sp, {r2, r4, r5, r7, r8, sl}
    1498:	03000008 	movweq	r0, #8
    149c:	106a0150 	rsbne	r0, sl, r0, asr r1
    14a0:	23030000 	movwcs	r0, #12288	; 0x3000
    14a4:	d30d05c0 	movwle	r0, #54720	; 0xd5c0
    14a8:	03000008 	movweq	r0, #8
    14ac:	106a0151 	rsbne	r0, sl, r1, asr r1
    14b0:	23030000 	movwcs	r0, #12288	; 0x3000
    14b4:	dd0d05c4 	cfstr32le	mvfx0, [sp, #-784]	; 0xfffffcf0
    14b8:	03000008 	movweq	r0, #8
    14bc:	106a0152 	rsbne	r0, sl, r2, asr r1
    14c0:	23030000 	movwcs	r0, #12288	; 0x3000
    14c4:	fe0d05c8 	cdp2	5, 0, cr0, cr13, cr8, {6}
    14c8:	03000007 	movweq	r0, #7
    14cc:	106a0153 	rsbne	r0, sl, r3, asr r1
    14d0:	23030000 	movwcs	r0, #12288	; 0x3000
    14d4:	1c0d05cc 	cfstr32ne	mvfx0, [sp], {204}	; 0xcc
    14d8:	0300000a 	movweq	r0, #10
    14dc:	106a0154 	rsbne	r0, sl, r4, asr r1
    14e0:	23030000 	movwcs	r0, #12288	; 0x3000
    14e4:	090d05d0 	stmdbeq	sp, {r4, r6, r7, r8, sl}
    14e8:	03000008 	movweq	r0, #8
    14ec:	106a0155 	rsbne	r0, sl, r5, asr r1
    14f0:	23030000 	movwcs	r0, #12288	; 0x3000
    14f4:	cc0d05d4 	cfstr32gt	mvfx0, [sp], {212}	; 0xd4
    14f8:	03000005 	movweq	r0, #5
    14fc:	106a0156 	rsbne	r0, sl, r6, asr r1
    1500:	23030000 	movwcs	r0, #12288	; 0x3000
    1504:	0f0005d8 	svceq	0x000005d8
    1508:	00000178 	andeq	r0, r0, r8, ror r1
    150c:	0000530f 	andeq	r5, r0, pc, lsl #6
    1510:	024b0f00 	subeq	r0, fp, #0
    1514:	400f0000 	andmi	r0, pc, r0
    1518:	0f000003 	svceq	0x00000003
    151c:	00000457 	andeq	r0, r0, r7, asr r4
    1520:	00053b0f 	andeq	r3, r5, pc, lsl #22
    1524:	06960f00 	ldreq	r0, [r6], r0, lsl #30
    1528:	2f0f0000 	svccs	0x000f0000
    152c:	0f000007 	svceq	0x00000007
    1530:	000007be 			; <UNDEFINED> instruction: 0x000007be
    1534:	00083c0f 	andeq	r3, r8, pc, lsl #24
    1538:	00531000 	subseq	r1, r3, r0
    153c:	10a70000 	adcne	r0, r7, r0
    1540:	5e110000 	cdppl	0, 1, cr0, cr1, cr0, {0}
    1544:	03000000 	movweq	r0, #0
    1548:	10970f00 	addsne	r0, r7, r0, lsl #30
    154c:	53100000 	tstpl	r0, #0
    1550:	bc000000 	stclt	0, cr0, [r0], {-0}
    1554:	11000010 	tstne	r0, r0, lsl r0
    1558:	0000005e 	andeq	r0, r0, lr, asr r0
    155c:	ac0f0001 	stcge	0, cr0, [pc], {1}
    1560:	0f000010 	svceq	0x00000010
    1564:	000010ac 	andeq	r1, r0, ip, lsr #1
    1568:	0010ac0f 	andseq	sl, r0, pc, lsl #24
    156c:	10ac0f00 	adcne	r0, ip, r0, lsl #30
    1570:	53100000 	tstpl	r0, #0
    1574:	e0000000 	and	r0, r0, r0
    1578:	11000010 	tstne	r0, r0, lsl r0
    157c:	0000005e 	andeq	r0, r0, lr, asr r0
    1580:	d00f0006 	andle	r0, pc, r6
    1584:	10000010 	andne	r0, r0, r0, lsl r0
    1588:	00000053 	andeq	r0, r0, r3, asr r0
    158c:	000010f5 	strdeq	r1, [r0], -r5
    1590:	00005e11 	andeq	r5, r0, r1, lsl lr
    1594:	0f000200 	svceq	0x00000200
    1598:	000010e5 	andeq	r1, r0, r5, ror #1
    159c:	0010970f 	andseq	r9, r0, pc, lsl #14
    15a0:	10970f00 	addsne	r0, r7, r0, lsl #30
    15a4:	53100000 	tstpl	r0, #0
    15a8:	14000000 	strne	r0, [r0], #-0
    15ac:	11000011 	tstne	r0, r1, lsl r0
    15b0:	0000005e 	andeq	r0, r0, lr, asr r0
    15b4:	040f0012 	streq	r0, [pc], #-18	; 15bc <itoa.constprop.0+0xd0>
    15b8:	0f000011 	svceq	0x00000011
    15bc:	00000876 	andeq	r0, r0, r6, ror r8
    15c0:	00005310 	andeq	r5, r0, r0, lsl r3
    15c4:	00112e00 	andseq	r2, r1, r0, lsl #28
    15c8:	005e1100 	subseq	r1, lr, r0, lsl #2
    15cc:	00050000 	andeq	r0, r5, r0
    15d0:	00111e0f 	andseq	r1, r1, pc, lsl #28
    15d4:	00531000 	subseq	r1, r3, r0
    15d8:	11430000 	mrsne	r0, (UNDEF: 67)
    15dc:	5e110000 	cdppl	0, 1, cr0, cr1, cr0, {0}
    15e0:	00000000 	andeq	r0, r0, r0
    15e4:	11330f00 	teqne	r3, r0, lsl #30
    15e8:	e50f0000 	str	r0, [pc, #-0]	; 15f0 <printk+0x1c>
    15ec:	0f000010 	svceq	0x00000010
    15f0:	000010e5 	andeq	r1, r0, r5, ror #1
    15f4:	0010e50f 	andseq	lr, r0, pc, lsl #10
    15f8:	10ac0f00 	adcne	r0, ip, r0, lsl #30
    15fc:	e50f0000 	str	r0, [pc, #-0]	; 1604 <printk+0x30>
    1600:	12000010 	andne	r0, r0, #16
    1604:	00000b81 	andeq	r0, r0, r1, lsl #23
    1608:	81015703 	tsthi	r1, r3, lsl #14
    160c:	13000008 	movwne	r0, #8
    1610:	00116104 	andseq	r6, r1, r4, lsl #2
    1614:	09a80900 	stmibeq	r8!, {r8, fp}
    1618:	04080000 	streq	r0, [r8], #-0
    161c:	00119c18 	andseq	r9, r1, r8, lsl ip
    1620:	033f0b00 	teqeq	pc, #0
    1624:	19040000 	stmdbne	r4, {}	; <UNPREDICTABLE>
    1628:	00000053 	andeq	r0, r0, r3, asr r0
    162c:	0b002302 	bleq	a23c <__bss_end+0x797c>
    1630:	000005d6 	ldrdeq	r0, [r0], -r6
    1634:	00531a04 	subseq	r1, r3, r4, lsl #20
    1638:	23020000 	movwcs	r0, #8192	; 0x2000
    163c:	93090004 	movwls	r0, #36868	; 0x9004
    1640:	2400000b 	strcs	r0, [r0], #-11
    1644:	12271d04 	eorne	r1, r7, #256	; 0x100
    1648:	f10b0000 			; <UNDEFINED> instruction: 0xf10b0000
    164c:	0400000b 	streq	r0, [r0], #-11
    1650:	0000531e 	andeq	r5, r0, lr, lsl r3
    1654:	00230200 	eoreq	r0, r3, r0, lsl #4
    1658:	000bb80b 	andeq	fp, fp, fp, lsl #16
    165c:	531f0400 	tstpl	pc, #0
    1660:	02000000 	andeq	r0, r0, #0
    1664:	290b0423 	stmdbcs	fp, {r0, r1, r5, sl}
    1668:	04000006 	streq	r0, [r0], #-6
    166c:	00005320 	andeq	r5, r0, r0, lsr #6
    1670:	08230200 	stmdaeq	r3!, {r9}
    1674:	0008740b 	andeq	r7, r8, fp, lsl #8
    1678:	53220400 	teqpl	r2, #0
    167c:	02000000 	andeq	r0, r0, #0
    1680:	a30b0c23 	movwge	r0, #48163	; 0xbc23
    1684:	04000003 	streq	r0, [r0], #-3
    1688:	00005323 	andeq	r5, r0, r3, lsr #6
    168c:	10230200 	eorne	r0, r3, r0, lsl #4
    1690:	0006de0b 	andeq	sp, r6, fp, lsl #28
    1694:	53240400 	teqpl	r4, #0
    1698:	02000000 	andeq	r0, r0, #0
    169c:	140b1423 	strne	r1, [fp], #-1059	; 0x423
    16a0:	04000008 	streq	r0, [r0], #-8
    16a4:	00005325 	andeq	r5, r0, r5, lsr #6
    16a8:	18230200 	stmdane	r3!, {r9}
    16ac:	000c8f0b 	andeq	r8, ip, fp, lsl #30
    16b0:	53260400 	teqpl	r6, #0
    16b4:	02000000 	andeq	r0, r0, #0
    16b8:	9f0b1c23 	svcls	0x000b1c23
    16bc:	0400000c 	streq	r0, [r0], #-12
    16c0:	00005327 	andeq	r5, r0, r7, lsr #6
    16c4:	20230200 	eorcs	r0, r3, r0, lsl #4
    16c8:	041d0900 	ldreq	r0, [sp], #-2304	; 0x900
    16cc:	04080000 	streq	r0, [r8], #-0
    16d0:	00127a32 	andseq	r7, r2, r2, lsr sl
    16d4:	051e0b00 	ldreq	r0, [lr, #-2816]	; 0xb00
    16d8:	33040000 	movwcc	r0, #16384	; 0x4000
    16dc:	0000002c 	andeq	r0, r0, ip, lsr #32
    16e0:	0b002302 	bleq	a2f0 <__bss_end+0x7a30>
    16e4:	0000050e 	andeq	r0, r0, lr, lsl #10
    16e8:	002c3404 	eoreq	r3, ip, r4, lsl #8
    16ec:	23020000 	movwcs	r0, #8192	; 0x2000
    16f0:	05160b01 	ldreq	r0, [r6, #-2817]	; 0xb01
    16f4:	35040000 	strcc	r0, [r4, #-0]
    16f8:	0000002c 	andeq	r0, r0, ip, lsr #32
    16fc:	0b022302 	bleq	8a30c <__bss_end+0x87a4c>
    1700:	0000052e 	andeq	r0, r0, lr, lsr #10
    1704:	002c3604 	eoreq	r3, ip, r4, lsl #12
    1708:	23020000 	movwcs	r0, #8192	; 0x2000
    170c:	6c500c03 	mrrcvs	12, 0, r0, r0, cr3	; <UNPREDICTABLE>
    1710:	3704006c 	strcc	r0, [r4, -ip, rrx]
    1714:	00000053 	andeq	r0, r0, r3, asr r0
    1718:	00042302 	andeq	r2, r4, r2, lsl #6
    171c:	47070402 	strmi	r0, [r7, -r2, lsl #8]
    1720:	13000000 	movwne	r0, #0
    1724:	00005e04 	andeq	r5, r0, r4, lsl #28
    1728:	05041400 	streq	r1, [r4, #-1024]	; 0x400
    172c:	0012d724 	andseq	sp, r2, r4, lsr #14
    1730:	05b31500 	ldreq	r1, [r3, #1280]!	; 0x500
    1734:	15010000 	strne	r0, [r1, #-0]
    1738:	00000d3e 	andeq	r0, r0, lr, lsr sp
    173c:	05e21502 	strbeq	r1, [r2, #1282]!	; 0x502
    1740:	15040000 	strne	r0, [r4, #-0]
    1744:	00000c0d 	andeq	r0, r0, sp, lsl #24
    1748:	04c51508 	strbeq	r1, [r5], #1288	; 0x508
    174c:	15100000 	ldrne	r0, [r0, #-0]
    1750:	00000cfa 	strdeq	r0, [r0], -sl
    1754:	04e11520 	strbteq	r1, [r1], #1312	; 0x520
    1758:	00c00000 	sbceq	r0, r0, r0
    175c:	0003ab15 	andeq	sl, r3, r5, lsl fp
    1760:	15018000 	strne	r8, [r1, #-0]
    1764:	00000ab7 			; <UNDEFINED> instruction: 0x00000ab7
    1768:	c3150280 	tstgt	r5, #8
    176c:	80000006 	andhi	r0, r0, r6
    1770:	0b421504 	bleq	1086b88 <__bss_end+0x10842c8>
    1774:	08800000 	stmeq	r0, {}	; <UNPREDICTABLE>
    1778:	03860900 	orreq	r0, r6, #0
    177c:	05240000 	streq	r0, [r4, #-0]!
    1780:	00136135 	andseq	r6, r3, r5, lsr r1
    1784:	0cf50b00 	vldmiaeq	r5!, {d16-d15}
    1788:	37050000 	strcc	r0, [r5, -r0]
    178c:	00000053 	andeq	r0, r0, r3, asr r0
    1790:	0c002302 	stceq	3, cr2, [r0], {2}
    1794:	05007263 	streq	r7, [r0, #-611]	; 0x263
    1798:	00005339 	andeq	r5, r0, r9, lsr r3
    179c:	04230200 	strteq	r0, [r3], #-512	; 0x200
    17a0:	000a940b 	andeq	r9, sl, fp, lsl #8
    17a4:	533a0500 	teqpl	sl, #0
    17a8:	02000000 	andeq	r0, r0, #0
    17ac:	ed0b0823 	stc	8, cr0, [fp, #-140]	; 0xffffff74
    17b0:	0500000a 	streq	r0, [r0, #-10]
    17b4:	0000533c 	andeq	r5, r0, ip, lsr r3
    17b8:	0c230200 	sfmeq	f0, 4, [r3], #-0
    17bc:	000bfb0b 	andeq	pc, fp, fp, lsl #22
    17c0:	533d0500 	teqpl	sp, #0
    17c4:	02000000 	andeq	r0, r0, #0
    17c8:	b20b1023 	andlt	r1, fp, #35	; 0x23
    17cc:	05000007 	streq	r0, [r0, #-7]
    17d0:	0000533e 	andeq	r5, r0, lr, lsr r3
    17d4:	14230200 	strtne	r0, [r3], #-512	; 0x200
    17d8:	00066c0b 	andeq	r6, r6, fp, lsl #24
    17dc:	53410500 	movtpl	r0, #5376	; 0x1500
    17e0:	02000000 	andeq	r0, r0, #0
    17e4:	d80b1823 	stmdale	fp, {r0, r1, r5, fp, ip}
    17e8:	0500000a 	streq	r0, [r0, #-10]
    17ec:	00005344 	andeq	r5, r0, r4, asr #6
    17f0:	1c230200 	sfmne	f0, 4, [r3], #-0
    17f4:	000b670b 	andeq	r6, fp, fp, lsl #14
    17f8:	53450500 	movtpl	r0, #21760	; 0x5500
    17fc:	02000000 	andeq	r0, r0, #0
    1800:	09002023 	stmdbeq	r0, {r0, r1, r5, sp}
    1804:	00000d5c 	andeq	r0, r0, ip, asr sp
    1808:	094b05a8 	stmdbeq	fp, {r3, r5, r7, r8, sl}^
    180c:	0b000014 	bleq	1864 <printk+0x290>
    1810:	0000083b 	andeq	r0, r0, fp, lsr r8
    1814:	14094c05 	strne	r4, [r9], #-3077	; 0xc05
    1818:	23020000 	movwcs	r0, #8192	; 0x2000
    181c:	0eb90b00 	vmoveq.f64	d0, #144	; 0x90
    1820:	4d050000 	stcmi	0, cr0, [r5, #-0]
    1824:	0000106a 	andeq	r1, r0, sl, rrx
    1828:	0b042302 	bleq	10a438 <__bss_end+0x107b78>
    182c:	0000092f 	andeq	r0, r0, pc, lsr #18
    1830:	00534e05 	subseq	r4, r3, r5, lsl #28
    1834:	23020000 	movwcs	r0, #8192	; 0x2000
    1838:	0bae0b08 	bleq	feb84460 <__bss_end+0xfeb81ba0>
    183c:	4f050000 	svcmi	0x00050000
    1840:	00000053 	andeq	r0, r0, r3, asr r0
    1844:	0b0c2302 	bleq	30a454 <__bss_end+0x307b94>
    1848:	000002c6 	andeq	r0, r0, r6, asr #5
    184c:	00535005 	subseq	r5, r3, r5
    1850:	23020000 	movwcs	r0, #8192	; 0x2000
    1854:	057d0b10 	ldrbeq	r0, [sp, #-2832]!	; 0xb10
    1858:	51050000 	mrspl	r0, (UNDEF: 5)
    185c:	00000053 	andeq	r0, r0, r3, asr r0
    1860:	0b142302 	bleq	50a470 <__bss_end+0x507bb0>
    1864:	00000315 	andeq	r0, r0, r5, lsl r3
    1868:	14115205 	ldrne	r5, [r1], #-517	; 0x205
    186c:	23020000 	movwcs	r0, #8192	; 0x2000
    1870:	05950b18 	ldreq	r0, [r5, #2840]	; 0xb18
    1874:	53050000 	movwpl	r0, #20480	; 0x5000
    1878:	00001173 	andeq	r1, r0, r3, ror r1
    187c:	0b502302 	bleq	140a48c <__bss_end+0x1407bcc>
    1880:	0000077f 	andeq	r0, r0, pc, ror r7
    1884:	119c5405 	orrsne	r5, ip, r5, lsl #8
    1888:	23020000 	movwcs	r0, #8192	; 0x2000
    188c:	1aa10b58 	bne	fe8445f4 <__bss_end+0xfe841d34>
    1890:	55050000 	strpl	r0, [r5, #-0]
    1894:	00001227 	andeq	r1, r0, r7, lsr #4
    1898:	0b7c2302 	bleq	1f0a4a8 <__bss_end+0x1f07be8>
    189c:	00000380 	andeq	r0, r0, r0, lsl #7
    18a0:	12d75605 	sbcsne	r5, r7, #5242880	; 0x500000
    18a4:	23030000 	movwcs	r0, #12288	; 0x3000
    18a8:	13000184 	movwne	r0, #388	; 0x184
    18ac:	00140f04 	andseq	r0, r4, r4, lsl #30
    18b0:	10041600 	andne	r1, r4, r0, lsl #12
    18b4:	00000053 	andeq	r0, r0, r3, asr r0
    18b8:	00001421 	andeq	r1, r0, r1, lsr #8
    18bc:	00005e11 	andeq	r5, r0, r1, lsl lr
    18c0:	17000d00 	strne	r0, [r0, -r0, lsl #26]
    18c4:	0007be01 	andeq	fp, r7, r1, lsl #28
    18c8:	012e0100 	teqeq	lr, r0, lsl #2
    18cc:	0000004c 	andeq	r0, r0, ip, asr #32
    18d0:	00000120 	andeq	r0, r0, r0, lsr #2
    18d4:	00000208 	andeq	r0, r0, r8, lsl #4
    18d8:	00000064 	andeq	r0, r0, r4, rrx
    18dc:	0a140118 	beq	501d44 <__bss_end+0x4ff484>
    18e0:	76010000 	strvc	r0, [r1], -r0
    18e4:	00020801 	andeq	r0, r2, r1, lsl #16
    18e8:	00031c00 	andeq	r1, r3, r0, lsl #24
    18ec:	00008400 	andeq	r8, r0, r0, lsl #8
    18f0:	0014ba00 	andseq	fp, r4, r0, lsl #20
    18f4:	0b141900 	bleq	507cfc <__bss_end+0x50543c>
    18f8:	78010000 	stmdavc	r1, {}	; <UNPREDICTABLE>
    18fc:	0000116d 	andeq	r1, r0, sp, ror #2
    1900:	000000a4 	andeq	r0, r0, r4, lsr #1
    1904:	0008c219 	andeq	ip, r8, r9, lsl r2
    1908:	5e790100 	rpwple	f0, f1, f0
    190c:	cd000000 	stcgt	0, cr0, [r0, #-0]
    1910:	1a000000 	bne	1918 <printk_nommu+0x74>
    1914:	000002bb 			; <UNDEFINED> instruction: 0x000002bb
    1918:	005e7a01 	subseq	r7, lr, r1, lsl #20
    191c:	1a000000 	bne	1924 <printk_nommu+0x80>
    1920:	000008e7 	andeq	r0, r0, r7, ror #17
    1924:	005e7b01 	subseq	r7, lr, r1, lsl #22
    1928:	1a000000 	bne	1930 <printk_nommu+0x8c>
    192c:	00000412 	andeq	r0, r0, r2, lsl r4
    1930:	005e7c01 	subseq	r7, lr, r1, lsl #24
    1934:	1a000000 	bne	193c <printk_nommu+0x98>
    1938:	00000a99 	muleq	r0, r9, sl
    193c:	005e7d01 	subseq	r7, lr, r1, lsl #26
    1940:	1a000000 	bne	1948 <printk_nommu+0xa4>
    1944:	00000aa6 	andeq	r0, r0, r6, lsr #21
    1948:	005e7e01 	subseq	r7, lr, r1, lsl #28
    194c:	1a000000 	bne	1954 <printk_nommu+0xb0>
    1950:	00000373 	andeq	r0, r0, r3, ror r3
    1954:	005e7f01 	subseq	r7, lr, r1, lsl #30
    1958:	00000000 	andeq	r0, r0, r0
    195c:	0007431b 	andeq	r4, r7, fp, lsl r3
    1960:	4c0a0100 	stfmis	f0, [sl], {-0}
    1964:	1b000000 	blne	196c <printk_nommu+0xc8>
    1968:	000007ac 	andeq	r0, r0, ip, lsr #15
    196c:	004c0a01 	subeq	r0, ip, r1, lsl #20
    1970:	841b0000 	ldrhi	r0, [fp], #-0
    1974:	0100000d 	tsteq	r0, sp
    1978:	00005e0b 	andeq	r5, r0, fp, lsl #28
    197c:	0b6c1c00 	bleq	1b08984 <__bss_end+0x1b060c4>
    1980:	0c010000 	stceq	0, cr0, [r1], {-0}
    1984:	00001281 	andeq	r1, r0, r1, lsl #5
    1988:	25140305 	ldrcs	r0, [r4, #-773]	; 0x305
    198c:	bd1a0000 	ldclt	0, cr0, [sl, #-0]
    1990:	0100000d 	tsteq	r0, sp
    1994:	00005e0d 	andeq	r5, r0, sp, lsl #28
    1998:	731d0000 	tstvc	sp, #0
    199c:	0100000b 	tsteq	r0, fp
    19a0:	00136106 	andseq	r6, r3, r6, lsl #2
    19a4:	03050100 	movweq	r0, #20736	; 0x5100
    19a8:	00002700 	andeq	r2, r0, r0, lsl #14
    19ac:	0006601e 	andeq	r6, r6, lr, lsl r0
    19b0:	17080100 	strne	r0, [r8, -r0, lsl #2]
    19b4:	01000015 	tsteq	r0, r5, lsl r0
    19b8:	1d041301 	stcne	3, cr1, [r4, #-4]
    19bc:	02000015 	andeq	r0, r0, #21
    19c0:	00d80801 	sbcseq	r0, r8, r1, lsl #16
    19c4:	691e0000 	ldmdbvs	lr, {}	; <UNPREDICTABLE>
    19c8:	01000004 	tsteq	r0, r4
    19cc:	00151709 	andseq	r1, r5, r9, lsl #14
    19d0:	00010100 	andeq	r0, r1, r0, lsl #2
    19d4:	0000028b 	andeq	r0, r0, fp, lsl #5
    19d8:	037d0002 	cmneq	sp, #2
    19dc:	01040000 	mrseq	r0, (UNDEF: 4)
    19e0:	00000116 	andeq	r0, r0, r6, lsl r1
    19e4:	000e2a01 	andeq	r2, lr, r1, lsl #20
    19e8:	00009300 	andeq	r9, r0, r0, lsl #6
    19ec:	00031c00 	andeq	r1, r3, r0, lsl #24
    19f0:	00049400 	andeq	r9, r4, r0, lsl #8
    19f4:	0003c500 	andeq	ip, r3, r0, lsl #10
    19f8:	06010200 	streq	r0, [r1], -r0, lsl #4
    19fc:	000000d1 	ldrdeq	r0, [r0], -r1
    1a00:	cf080102 	svcgt	0x00080102
    1a04:	02000000 	andeq	r0, r0, #0
    1a08:	014a0502 	cmpeq	sl, r2, lsl #10
    1a0c:	02020000 	andeq	r0, r2, #0
    1a10:	00010307 	andeq	r0, r1, r7, lsl #6
    1a14:	05040300 	streq	r0, [r4, #-768]	; 0x300
    1a18:	00746e69 	rsbseq	r6, r4, r9, ror #28
    1a1c:	0007b804 	andeq	fp, r7, r4, lsl #16
    1a20:	53130200 	tstpl	r3, #0
    1a24:	02000000 	andeq	r0, r0, #0
    1a28:	004c0704 	subeq	r0, ip, r4, lsl #14
    1a2c:	08020000 	stmdaeq	r2, {}	; <UNPREDICTABLE>
    1a30:	00000005 	andeq	r0, r0, r5
    1a34:	07080200 	streq	r0, [r8, -r0, lsl #4]
    1a38:	00000042 	andeq	r0, r0, r2, asr #32
    1a3c:	00004805 	andeq	r4, r0, r5, lsl #16
    1a40:	07040200 	streq	r0, [r4, -r0, lsl #4]
    1a44:	00000047 	andeq	r0, r0, r7, asr #32
    1a48:	0d980106 	ldfeqs	f0, [r8, #24]
    1a4c:	0b010000 	bleq	41a54 <__bss_end+0x3f194>
    1a50:	00031c01 	andeq	r1, r3, r1, lsl #24
    1a54:	00033c00 	andeq	r3, r3, r0, lsl #24
    1a58:	00013200 	andeq	r3, r1, r0, lsl #4
    1a5c:	00009c00 	andeq	r9, r0, r0, lsl #24
    1a60:	0d8e0700 	stceq	7, cr0, [lr]
    1a64:	0e010000 	cdpeq	0, 0, cr0, cr1, cr0, {0}
    1a68:	00000068 	andeq	r0, r0, r8, rrx
    1a6c:	00749102 	rsbseq	r9, r4, r2, lsl #2
    1a70:	0eb40108 	frdeqs	f0, f4, #0.0
    1a74:	19010000 	stmdbne	r1, {}	; <UNPREDICTABLE>
    1a78:	00033c01 	andeq	r3, r3, r1, lsl #24
    1a7c:	00034000 	andeq	r4, r3, r0
    1a80:	007d0200 	rsbseq	r0, sp, r0, lsl #4
    1a84:	0da50108 	stfeqs	f0, [r5, #32]!
    1a88:	29010000 	stmdbcs	r1, {}	; <UNPREDICTABLE>
    1a8c:	00034001 	andeq	r4, r3, r1
    1a90:	00034400 	andeq	r4, r3, r0, lsl #8
    1a94:	007d0200 	rsbseq	r0, sp, r0, lsl #4
    1a98:	0e8d0108 	rmfeqe	f0, f5, #0.0
    1a9c:	ad010000 	stcge	0, cr0, [r1, #-0]
    1aa0:	00034401 	andeq	r4, r3, r1, lsl #8
    1aa4:	00034800 	andeq	r4, r3, r0, lsl #16
    1aa8:	007d0200 	rsbseq	r0, sp, r0, lsl #4
    1aac:	0dc90108 	stfeqe	f0, [r9, #32]
    1ab0:	b2010000 	andlt	r0, r1, #0
    1ab4:	00034801 	andeq	r4, r3, r1, lsl #16
    1ab8:	00034c00 	andeq	r4, r3, r0, lsl #24
    1abc:	007d0200 	rsbseq	r0, sp, r0, lsl #4
    1ac0:	0e7c0109 	rpweqe	f0, f4, #1.0
    1ac4:	b7010000 	strlt	r0, [r1, -r0]
    1ac8:	00034c01 	andeq	r4, r3, r1, lsl #24
    1acc:	00036c00 	andeq	r6, r3, r0, lsl #24
    1ad0:	007d0200 	rsbseq	r0, sp, r0, lsl #4
    1ad4:	00000112 	andeq	r0, r0, r2, lsl r1
    1ad8:	0100690a 	tsteq	r0, sl, lsl #18
    1adc:	000041b9 			; <UNDEFINED> instruction: 0x000041b9
    1ae0:	00015200 	andeq	r5, r1, r0, lsl #4
    1ae4:	01080000 	mrseq	r0, (UNDEF: 8)
    1ae8:	00000e12 	andeq	r0, r0, r2, lsl lr
    1aec:	6c01c301 	stcvs	3, cr12, [r1], {1}
    1af0:	70000003 	andvc	r0, r0, r3
    1af4:	02000003 	andeq	r0, r0, #3
    1af8:	0106007d 	tsteq	r6, sp, ror r0
    1afc:	00000db4 			; <UNDEFINED> instruction: 0x00000db4
    1b00:	7001c801 	andvc	ip, r1, r1, lsl #16
    1b04:	98000003 	stmdals	r0, {r0, r1}
    1b08:	96000003 	strls	r0, [r0], -r3
    1b0c:	4d000001 	stcmi	0, cr0, [r0, #-4]
    1b10:	0b000001 	bleq	1b1c <printk_nommu+0x278>
    1b14:	006c6176 	rsbeq	r6, ip, r6, ror r1
    1b18:	0068c801 	rsbeq	ip, r8, r1, lsl #16
    1b1c:	50010000 	andpl	r0, r1, r0
    1b20:	6d010c00 	stcvs	12, cr0, [r1, #-0]
    1b24:	0100000e 	tsteq	r0, lr
    1b28:	004801d0 	ldrdeq	r0, [r8], #-16
    1b2c:	03980000 	orrseq	r0, r8, #0
    1b30:	03a80000 			; <UNDEFINED> instruction: 0x03a80000
    1b34:	7d020000 	stcvc	0, cr0, [r2, #-0]
    1b38:	df010600 	svcle	0x00010600
    1b3c:	0100000d 	tsteq	r0, sp
    1b40:	03a801d5 			; <UNDEFINED> instruction: 0x03a801d5
    1b44:	03e00000 	mvneq	r0, #0
    1b48:	01b60000 			; <UNDEFINED> instruction: 0x01b60000
    1b4c:	018c0000 	orreq	r0, ip, r0
    1b50:	690a0000 	stmdbvs	sl, {}	; <UNPREDICTABLE>
    1b54:	41d70100 	bicsmi	r0, r7, r0, lsl #2
    1b58:	d6000000 	strle	r0, [r0], -r0
    1b5c:	00000001 	andeq	r0, r0, r1
    1b60:	0e570106 	rdfeqs	f0, f7, f6
    1b64:	e0010000 	and	r0, r1, r0
    1b68:	0003e001 	andeq	lr, r3, r1
    1b6c:	0003fc00 	andeq	pc, r3, r0, lsl #24
    1b70:	0001ea00 	andeq	lr, r1, r0, lsl #20
    1b74:	0001b300 	andeq	fp, r1, r0, lsl #6
    1b78:	61760b00 	cmnvs	r6, r0, lsl #22
    1b7c:	e001006c 	and	r0, r1, ip, rrx
    1b80:	00000068 	andeq	r0, r0, r8, rrx
    1b84:	06005001 	streq	r5, [r0], -r1
    1b88:	000df701 	andeq	pc, sp, r1, lsl #14
    1b8c:	01e60100 	mvneq	r0, r0, lsl #2
    1b90:	000003fc 	strdeq	r0, [r0], -ip
    1b94:	00000418 	andeq	r0, r0, r8, lsl r4
    1b98:	0000020a 	andeq	r0, r0, sl, lsl #4
    1b9c:	000001da 	ldrdeq	r0, [r0], -sl
    1ba0:	6c61760b 	stclvs	6, cr7, [r1], #-44	; 0xffffffd4
    1ba4:	68e60100 	stmiavs	r6!, {r8}^
    1ba8:	01000000 	mrseq	r0, (UNDEF: 0)
    1bac:	01080050 	qaddeq	r0, r0, r8
    1bb0:	00000e22 	andeq	r0, r0, r2, lsr #28
    1bb4:	1801f201 	stmdane	r1, {r0, r9, ip, sp, lr, pc}
    1bb8:	30000004 	andcc	r0, r0, r4
    1bbc:	02000004 	andeq	r0, r0, #4
    1bc0:	0109007d 	tsteq	r9, sp, ror r0
    1bc4:	00000ec2 	andeq	r0, r0, r2, asr #29
    1bc8:	3001fa01 	andcc	pc, r1, r1, lsl #20
    1bcc:	48000004 	stmdami	r0, {r2}
    1bd0:	02000004 	andeq	r0, r0, #4
    1bd4:	0214007d 	andseq	r0, r4, #125	; 0x7d
    1bd8:	c4070000 	strgt	r0, [r7], #-0
    1bdc:	0100000d 	tsteq	r0, sp
    1be0:	000048fc 	strdeq	r4, [r0], -ip
    1be4:	00520100 	subseq	r0, r2, r0, lsl #2
    1be8:	0ea8010d 	fdveqe	f0, f0, #5.0
    1bec:	06010000 	streq	r0, [r1], -r0
    1bf0:	04480101 	strbeq	r0, [r8], #-257	; 0x101
    1bf4:	04600000 	strbteq	r0, [r0], #-0
    1bf8:	7d020000 	stcvc	0, cr0, [r2, #-0]
    1bfc:	00023c00 	andeq	r3, r2, r0, lsl #24
    1c00:	0dc40e00 	stcleq	14, cr0, [r4]
    1c04:	08010000 	stmdaeq	r1, {}	; <UNPREDICTABLE>
    1c08:	00004801 	andeq	r4, r0, r1, lsl #16
    1c0c:	00520100 	subseq	r0, r2, r0, lsl #2
    1c10:	0def010f 	stfeqe	f0, [pc, #60]!	; 1c54 <__aeabi_idiv>
    1c14:	15010000 	strne	r0, [r1, #-0]
    1c18:	04600101 	strbteq	r0, [r0], #-257	; 0x101
    1c1c:	04940000 	ldreq	r0, [r4], #0
    1c20:	022a0000 	eoreq	r0, sl, #0
    1c24:	02770000 	rsbseq	r0, r7, #0
    1c28:	6e100000 	cdpvs	0, 1, cr0, cr0, cr0, {0}
    1c2c:	01006d75 	tsteq	r0, r5, ror sp
    1c30:	00410115 	subeq	r0, r1, r5, lsl r1
    1c34:	024a0000 	subeq	r0, sl, #0
    1c38:	c4110000 	ldrgt	r0, [r1], #-0
    1c3c:	0100000d 	tsteq	r0, sp
    1c40:	00480117 	subeq	r0, r8, r7, lsl r1
    1c44:	025d0000 	subseq	r0, sp, #0
    1c48:	12000000 	andne	r0, r0, #0
    1c4c:	00000e9d 	muleq	r0, sp, lr
    1c50:	02890901 	addeq	r0, r9, #16384	; 0x4000
    1c54:	05010000 	streq	r0, [r1, #-0]
    1c58:	00251803 	eoreq	r1, r5, r3, lsl #16
    1c5c:	00410500 	subeq	r0, r1, r0, lsl #10
    1c60:	6d000000 	stcvs	0, cr0, [r0, #-0]
    1c64:	02000004 	andeq	r0, r0, #4
    1c68:	0004ae00 	andeq	sl, r4, r0, lsl #28
    1c6c:	16010400 	strne	r0, [r1], -r0, lsl #8
    1c70:	01000001 	tsteq	r0, r1
    1c74:	00000ecf 	andeq	r0, r0, pc, asr #29
    1c78:	00000093 	muleq	r0, r3, r0
    1c7c:	00000494 	muleq	r0, r4, r4
    1c80:	00000650 	andeq	r0, r0, r0, asr r6
    1c84:	0000047c 	andeq	r0, r0, ip, ror r4
    1c88:	d1060102 	tstle	r6, r2, lsl #2
    1c8c:	02000000 	andeq	r0, r0, #0
    1c90:	00cf0801 	sbceq	r0, pc, r1, lsl #16
    1c94:	02020000 	andeq	r0, r2, #0
    1c98:	00014a05 	andeq	r4, r1, r5, lsl #20
    1c9c:	07020200 	streq	r0, [r2, -r0, lsl #4]
    1ca0:	00000103 	andeq	r0, r0, r3, lsl #2
    1ca4:	000f7f03 	andeq	r7, pc, r3, lsl #30
    1ca8:	4c120200 	lfmmi	f0, 4, [r2], {-0}
    1cac:	04000000 	streq	r0, [r0], #-0
    1cb0:	6e690504 	cdpvs	5, 6, cr0, cr9, cr4, {0}
    1cb4:	b8030074 	stmdalt	r3, {r2, r4, r5, r6}
    1cb8:	02000007 	andeq	r0, r0, #7
    1cbc:	00005e13 	andeq	r5, r0, r3, lsl lr
    1cc0:	07040200 	streq	r0, [r4, -r0, lsl #4]
    1cc4:	0000004c 	andeq	r0, r0, ip, asr #32
    1cc8:	00050802 	andeq	r0, r5, r2, lsl #16
    1ccc:	02000000 	andeq	r0, r0, #0
    1cd0:	00420708 	subeq	r0, r2, r8, lsl #14
    1cd4:	80050000 	andhi	r0, r5, r0
    1cd8:	04000010 	streq	r0, [r0], #-16
    1cdc:	00981403 	addseq	r1, r8, r3, lsl #8
    1ce0:	fe060000 	cdp2	0, 0, cr0, cr6, cr0, {0}
    1ce4:	0100000e 	tsteq	r0, lr
    1ce8:	000f3406 	andeq	r3, pc, r6, lsl #8
    1cec:	25060200 	strcs	r0, [r6, #-512]	; 0x200
    1cf0:	03000010 	movweq	r0, #16
    1cf4:	00103206 	andseq	r3, r0, r6, lsl #4
    1cf8:	02000500 	andeq	r0, r0, #0
    1cfc:	00470704 	subeq	r0, r7, r4, lsl #14
    1d00:	01070000 	mrseq	r0, (UNDEF: 7)
    1d04:	00000fdc 	ldrdeq	r0, [r0], -ip
    1d08:	53013e01 	movwpl	r3, #7681	; 0x1e01
    1d0c:	01000000 	mrseq	r0, (UNDEF: 0)
    1d10:	000000bd 	strheq	r0, [r0], -sp
    1d14:	0012d308 	andseq	sp, r2, r8, lsl #6
    1d18:	53400100 	movtpl	r0, #256	; 0x100
    1d1c:	00000000 	andeq	r0, r0, r0
    1d20:	0f8c0109 	svceq	0x008c0109
    1d24:	0b010000 	bleq	41d2c <__bss_end+0x3f46c>
    1d28:	00ed0101 	rsceq	r0, sp, r1, lsl #2
    1d2c:	f00a0000 			; <UNDEFINED> instruction: 0xf00a0000
    1d30:	0100000f 	tsteq	r0, pc
    1d34:	0000530b 	andeq	r5, r0, fp, lsl #6
    1d38:	0fb10a00 	svceq	0x00b10a00
    1d3c:	0b010000 	bleq	41d44 <__bss_end+0x3f484>
    1d40:	00000053 	andeq	r0, r0, r3, asr r0
    1d44:	0012d308 	andseq	sp, r2, r8, lsl #6
    1d48:	530e0100 	movwpl	r0, #57600	; 0xe100
    1d4c:	00000000 	andeq	r0, r0, r0
    1d50:	0010110b 	andseq	r1, r0, fp, lsl #2
    1d54:	01a90100 			; <UNDEFINED> instruction: 0x01a90100
    1d58:	00000053 	andeq	r0, r0, r3, asr r0
    1d5c:	00011501 	andeq	r1, r1, r1, lsl #10
    1d60:	0feb0a00 	svceq	0x00eb0a00
    1d64:	a9010000 	stmdbge	r1, {}	; <UNPREDICTABLE>
    1d68:	00000073 	andeq	r0, r0, r3, ror r0
    1d6c:	000ff908 	andeq	pc, pc, r8, lsl #18
    1d70:	4cab0100 	stfmis	f0, [fp]
    1d74:	00000000 	andeq	r0, r0, r0
    1d78:	0000bd0c 	andeq	fp, r0, ip, lsl #26
    1d7c:	00049400 	andeq	r9, r4, r0, lsl #8
    1d80:	0004c000 	andeq	ip, r4, r0
    1d84:	007d0200 	rsbseq	r0, sp, r0, lsl #4
    1d88:	00000143 	andeq	r0, r0, r3, asr #2
    1d8c:	0000cb0d 	andeq	ip, r0, sp, lsl #22
    1d90:	00027b00 	andeq	r7, r2, r0, lsl #22
    1d94:	00d60e00 	sbcseq	r0, r6, r0, lsl #28
    1d98:	51010000 	mrspl	r0, (UNDEF: 1)
    1d9c:	0000e10f 	andeq	lr, r0, pc, lsl #2
    1da0:	00028e00 	andeq	r8, r2, r0, lsl #28
    1da4:	01100000 	tsteq	r0, r0
    1da8:	00000f63 	andeq	r0, r0, r3, ror #30
    1dac:	c0012901 	andgt	r2, r1, r1, lsl #18
    1db0:	dc000004 	stcle	0, cr0, [r0], {4}
    1db4:	02000004 	andeq	r0, r0, #4
    1db8:	0110007d 	tsteq	r0, sp, ror r0
    1dbc:	0000105a 	andeq	r1, r0, sl, asr r0
    1dc0:	dc013301 	stcle	3, cr3, [r1], {1}
    1dc4:	00000004 	andeq	r0, r0, r4
    1dc8:	02000005 	andeq	r0, r0, #5
    1dcc:	9f0c007d 	svcls	0x000c007d
    1dd0:	00000000 	andeq	r0, r0, r0
    1dd4:	08000005 	stmdaeq	r0, {r0, r2}
    1dd8:	02000005 	andeq	r0, r0, #5
    1ddc:	0187007d 	orreq	r0, r7, sp, ror r0
    1de0:	b1110000 	tstlt	r1, r0
    1de4:	01000000 	mrseq	r0, (UNDEF: 0)
    1de8:	01120050 	tsteq	r2, r0, asr r0
    1dec:	00000f55 	andeq	r0, r0, r5, asr pc
    1df0:	08014601 	stmdaeq	r1, {r0, r9, sl, lr}
    1df4:	18000005 	stmdane	r0, {r0, r2}
    1df8:	02000005 	andeq	r0, r0, #5
    1dfc:	01af007d 			; <UNDEFINED> instruction: 0x01af007d
    1e00:	d3130000 	tstle	r3, #0
    1e04:	01000012 	tsteq	r0, r2, lsl r0
    1e08:	00005348 	andeq	r5, r0, r8, asr #6
    1e0c:	0002d700 	andeq	sp, r2, r0, lsl #14
    1e10:	01140000 	tsteq	r4, r0
    1e14:	00000fc0 	andeq	r0, r0, r0, asr #31
    1e18:	18015101 	stmdane	r1, {r0, r8, ip, lr}
    1e1c:	40000005 	andmi	r0, r0, r5
    1e20:	05000005 	streq	r0, [r0, #-5]
    1e24:	22000003 	andcs	r0, r0, #3
    1e28:	13000002 	movwne	r0, #2
    1e2c:	00000666 	andeq	r0, r0, r6, ror #12
    1e30:	00535301 	subseq	r5, r3, r1, lsl #6
    1e34:	03250000 	teqeq	r5, #0
    1e38:	9f150000 	svcls	0x00150000
    1e3c:	1c000000 	stcne	0, cr0, [r0], {-0}
    1e40:	20000005 	andcs	r0, r0, r5
    1e44:	01000005 	tsteq	r0, r5
    1e48:	0001fe58 	andeq	pc, r1, r8, asr lr	; <UNPREDICTABLE>
    1e4c:	051c1600 	ldreq	r1, [ip, #-1536]	; 0x600
    1e50:	05200000 	streq	r0, [r0, #-0]!
    1e54:	b10f0000 	mrslt	r0, CPSR
    1e58:	39000000 	stmdbcc	r0, {}	; <UNPREDICTABLE>
    1e5c:	00000003 	andeq	r0, r0, r3
    1e60:	009f1700 	addseq	r1, pc, r0, lsl #14
    1e64:	05200000 	streq	r0, [r0, #-0]!
    1e68:	05240000 	streq	r0, [r4, #-0]!
    1e6c:	59010000 	stmdbpl	r1, {}	; <UNPREDICTABLE>
    1e70:	00052016 	andeq	r2, r5, r6, lsl r0
    1e74:	00052400 	andeq	r2, r5, r0, lsl #8
    1e78:	00b10f00 	adcseq	r0, r1, r0, lsl #30
    1e7c:	034c0000 	movteq	r0, #49152	; 0xc000
    1e80:	00000000 	andeq	r0, r0, r0
    1e84:	76011400 	strvc	r1, [r1], -r0, lsl #8
    1e88:	0100000f 	tsteq	r0, pc
    1e8c:	05400161 	strbeq	r0, [r0, #-353]	; 0x161
    1e90:	05c00000 	strbeq	r0, [r0]
    1e94:	035f0000 	cmpeq	pc, #0
    1e98:	03120000 	tsteq	r2, #0
    1e9c:	75180000 	ldrvc	r0, [r8, #-0]
    1ea0:	61010073 	tstvs	r1, r3, ror r0
    1ea4:	00000053 	andeq	r0, r0, r3, asr r0
    1ea8:	0000037f 	andeq	r0, r0, pc, ror r3
    1eac:	000f8513 	andeq	r8, pc, r3, lsl r5	; <UNPREDICTABLE>
    1eb0:	53630100 	cmnpl	r3, #0
    1eb4:	a8000000 	stmdage	r0, {}	; <UNPREDICTABLE>
    1eb8:	19000003 	stmdbne	r0, {r0, r1}
    1ebc:	00727563 	rsbseq	r7, r2, r3, ror #10
    1ec0:	00536401 	subseq	r6, r3, r1, lsl #8
    1ec4:	03d80000 	bicseq	r0, r8, #0
    1ec8:	4e130000 	cdpmi	0, 1, cr0, cr3, cr0, {0}
    1ecc:	0100000f 	tsteq	r0, pc
    1ed0:	00005365 	andeq	r5, r0, r5, ror #6
    1ed4:	00040e00 	andeq	r0, r4, r0, lsl #28
    1ed8:	0f3f1300 	svceq	0x003f1300
    1edc:	66010000 	strvs	r0, [r1], -r0
    1ee0:	00000053 	andeq	r0, r0, r3, asr r0
    1ee4:	00000439 	andeq	r0, r0, r9, lsr r4
    1ee8:	74756f1a 	ldrbtvc	r6, [r5], #-3866	; 0xf1a
    1eec:	589a0100 	ldmpl	sl, {r8}
    1ef0:	15000005 	strne	r0, [r0, #-5]
    1ef4:	0000009f 	muleq	r0, pc, r0	; <UNPREDICTABLE>
    1ef8:	0000056c 	andeq	r0, r0, ip, ror #10
    1efc:	00000570 	andeq	r0, r0, r0, ror r5
    1f00:	02b57101 	adcseq	r7, r5, #1073741824	; 0x40000000
    1f04:	6c160000 	ldcvs	0, cr0, [r6], {-0}
    1f08:	70000005 	andvc	r0, r0, r5
    1f0c:	11000005 	tstne	r0, r5
    1f10:	000000b1 	strheq	r0, [r0], -r1
    1f14:	00005301 	andeq	r5, r0, r1, lsl #6
    1f18:	0000bd15 	andeq	fp, r0, r5, lsl sp
    1f1c:	00059000 	andeq	r9, r5, r0
    1f20:	0005a800 	andeq	sl, r5, r0, lsl #16
    1f24:	ee770100 	rpws	f0, f7, f0
    1f28:	0d000002 	stceq	0, cr0, [r0, #-8]
    1f2c:	000000d6 	ldrdeq	r0, [r0], -r6
    1f30:	00000464 	andeq	r0, r0, r4, ror #8
    1f34:	0000cb0d 	andeq	ip, r0, sp, lsl #22
    1f38:	00047800 	andeq	r7, r4, r0, lsl #16
    1f3c:	05901600 	ldreq	r1, [r0, #1536]	; 0x600
    1f40:	05a80000 	streq	r0, [r8, #0]!
    1f44:	e10f0000 	mrs	r0, CPSR
    1f48:	8c000000 	stchi	0, cr0, [r0], {-0}
    1f4c:	00000004 	andeq	r0, r0, r4
    1f50:	009f1700 	addseq	r1, pc, r0, lsl #14
    1f54:	05a80000 	streq	r0, [r8, #0]!
    1f58:	05ac0000 	streq	r0, [ip, #0]!
    1f5c:	7b010000 	blvc	41f64 <__bss_end+0x3f6a4>
    1f60:	0005a816 	andeq	sl, r5, r6, lsl r8
    1f64:	0005ac00 	andeq	sl, r5, r0, lsl #24
    1f68:	00b10f00 	adcseq	r0, r1, r0, lsl #30
    1f6c:	04b00000 	ldrteq	r0, [r0], #0
    1f70:	00000000 	andeq	r0, r0, r0
    1f74:	85011200 	strhi	r1, [r1, #-512]	; 0x200
    1f78:	01000005 	tsteq	r0, r5
    1f7c:	05c001a1 	strbeq	r0, [r0, #417]	; 0x1a1
    1f80:	05cc0000 	strbeq	r0, [ip]
    1f84:	7d020000 	stcvc	0, cr0, [r2, #-0]
    1f88:	00033900 	andeq	r3, r3, r0, lsl #18
    1f8c:	736d1800 	cmnvc	sp, #0
    1f90:	53a10100 			; <UNDEFINED> instruction: 0x53a10100
    1f94:	c3000000 	movwgt	r0, #0
    1f98:	00000004 	andeq	r0, r0, r4
    1f9c:	0f9e0112 	svceq	0x009e0112
    1fa0:	c3010000 	movwgt	r0, #4096	; 0x1000
    1fa4:	0005cc01 	andeq	ip, r5, r1, lsl #24
    1fa8:	0005f800 	andeq	pc, r5, r0, lsl #16
    1fac:	007d0200 	rsbseq	r0, sp, r0, lsl #4
    1fb0:	0000037d 	andeq	r0, r0, sp, ror r3
    1fb4:	000ff01b 	andeq	pc, pc, fp, lsl r0	; <UNPREDICTABLE>
    1fb8:	53c30100 	bicpl	r0, r3, #0
    1fbc:	d6000000 	strle	r0, [r0], -r0
    1fc0:	1c000004 	stcne	0, cr0, [r0], {4}
    1fc4:	00000fb1 			; <UNDEFINED> instruction: 0x00000fb1
    1fc8:	0053c301 	subseq	ip, r3, r1, lsl #6
    1fcc:	51010000 	mrspl	r0, (UNDEF: 1)
    1fd0:	0012d313 	andseq	sp, r2, r3, lsl r3
    1fd4:	53c60100 	bicpl	r0, r6, #0
    1fd8:	e9000000 	stmdb	r0, {}	; <UNPREDICTABLE>
    1fdc:	00000004 	andeq	r0, r0, r4
    1fe0:	0fff0112 	svceq	0x00ff0112
    1fe4:	e1010000 	mrs	r0, (UNDEF: 1)
    1fe8:	0005f801 	andeq	pc, r5, r1, lsl #16
    1fec:	00062400 	andeq	r2, r6, r0, lsl #8
    1ff0:	007d0200 	rsbseq	r0, sp, r0, lsl #4
    1ff4:	000003c9 	andeq	r0, r0, r9, asr #7
    1ff8:	000feb1c 	andeq	lr, pc, ip, lsl fp	; <UNPREDICTABLE>
    1ffc:	73e10100 	mvnvc	r0, #0
    2000:	01000000 	mrseq	r0, (UNDEF: 0)
    2004:	0ff91350 	svceq	0x00f91350
    2008:	e4010000 	str	r0, [r1], #-0
    200c:	00000053 	andeq	r0, r0, r3, asr r0
    2010:	00000532 	andeq	r0, r0, r2, lsr r5
    2014:	0000ed17 	andeq	lr, r0, r7, lsl sp
    2018:	0005f800 	andeq	pc, r5, r0, lsl #16
    201c:	00060c00 	andeq	r0, r6, r0, lsl #24
    2020:	0ee50100 	cdpeq	1, 14, cr0, cr5, cr0, {0}
    2024:	000000fe 	strdeq	r0, [r0], -lr
    2028:	00005001 	andeq	r5, r0, r1
    202c:	106e011d 	rsbne	r0, lr, sp, lsl r1
    2030:	f4010000 	vst4.8	{d0-d3}, [r1], r0
    2034:	00004c01 	andeq	r4, r0, r1, lsl #24
    2038:	00062400 	andeq	r2, r6, r0, lsl #8
    203c:	00065000 	andeq	r5, r6, r0
    2040:	007d0200 	rsbseq	r0, sp, r0, lsl #4
    2044:	0000042c 	andeq	r0, r0, ip, lsr #8
    2048:	000feb1b 	andeq	lr, pc, fp, lsl fp	; <UNPREDICTABLE>
    204c:	73f40100 	mvnsvc	r0, #0
    2050:	46000000 	strmi	r0, [r0], -r0
    2054:	13000005 	movwne	r0, #5
    2058:	00000ff9 	strdeq	r0, [r0], -r9
    205c:	004cf601 	subeq	pc, ip, r1, lsl #12
    2060:	05660000 	strbeq	r0, [r6, #-0]!
    2064:	0b130000 	bleq	4c206c <__bss_end+0x4bf7ac>
    2068:	0100000f 	tsteq	r0, pc
    206c:	00004cf7 	strdeq	r4, [r0], -r7
    2070:	00058500 	andeq	r8, r5, r0, lsl #10
    2074:	00ed1700 	rsceq	r1, sp, r0, lsl #14
    2078:	06240000 	strteq	r0, [r4], -r0
    207c:	06380000 	ldrteq	r0, [r8], -r0
    2080:	f8010000 			; <UNDEFINED> instruction: 0xf8010000
    2084:	0000fe0d 	andeq	pc, r0, sp, lsl #28
    2088:	00054600 	andeq	r4, r5, r0, lsl #12
    208c:	1e000000 	cdpne	0, 0, cr0, cr0, cr0, {0}
    2090:	00001a4c 	andeq	r1, r0, ip, asr #20
    2094:	00530401 	subseq	r0, r3, r1, lsl #8
    2098:	03050000 	movweq	r0, #20480	; 0x5000
    209c:	00002528 	andeq	r2, r0, r8, lsr #10
    20a0:	000fd31e 	andeq	sp, pc, lr, lsl r3	; <UNPREDICTABLE>
    20a4:	53050100 	movwpl	r0, #20736	; 0x5100
    20a8:	05000000 	streq	r0, [r0, #-0]
    20ac:	00252403 	eoreq	r2, r5, r3, lsl #8
    20b0:	103d1e00 	eorsne	r1, sp, r0, lsl #28
    20b4:	06010000 	streq	r0, [r1], -r0
    20b8:	00000053 	andeq	r0, r0, r3, asr r0
    20bc:	251c0305 	ldrcs	r0, [ip, #-773]	; 0x305
    20c0:	151e0000 	ldrne	r0, [lr, #-0]
    20c4:	0100000f 	tsteq	r0, pc
    20c8:	00005307 	andeq	r5, r0, r7, lsl #6
    20cc:	20030500 	andcs	r0, r3, r0, lsl #10
    20d0:	00000025 	andeq	r0, r0, r5, lsr #32
    20d4:	00000144 	andeq	r0, r0, r4, asr #2
    20d8:	06710002 	ldrbteq	r0, [r1], -r2
    20dc:	01040000 	mrseq	r0, (UNDEF: 4)
    20e0:	00000116 	andeq	r0, r0, r6, lsl r1
    20e4:	00108f01 	andseq	r8, r0, r1, lsl #30
    20e8:	00009300 	andeq	r9, r0, r0, lsl #6
    20ec:	00066000 	andeq	r6, r6, r0
    20f0:	00070000 	andeq	r0, r7, r0
    20f4:	00057f00 	andeq	r7, r5, r0, lsl #30
    20f8:	05040200 	streq	r0, [r4, #-512]	; 0x200
    20fc:	00746e69 	rsbseq	r6, r4, r9, ror #28
    2100:	47070403 	strmi	r0, [r7, -r3, lsl #8]
    2104:	03000000 	movweq	r0, #0
    2108:	004c0704 	subeq	r0, ip, r4, lsl #14
    210c:	01030000 	mrseq	r0, (UNDEF: 3)
    2110:	0000cf08 	andeq	ip, r0, r8, lsl #30
    2114:	06010300 	streq	r0, [r1], -r0, lsl #6
    2118:	000000d1 	ldrdeq	r0, [r0], -r1
    211c:	4a050203 	bmi	142930 <__bss_end+0x140070>
    2120:	03000001 	movweq	r0, #1
    2124:	01030702 	tsteq	r3, r2, lsl #14
    2128:	b8040000 	stmdalt	r4, {}	; <UNPREDICTABLE>
    212c:	03000007 	movweq	r0, #7
    2130:	00003313 	andeq	r3, r0, r3, lsl r3
    2134:	05080300 	streq	r0, [r8, #-768]	; 0x300
    2138:	00000000 	andeq	r0, r0, r0
    213c:	42070803 	andmi	r0, r7, #196608	; 0x30000
    2140:	05000000 	streq	r0, [r0, #-0]
    2144:	00000386 	andeq	r0, r0, r6, lsl #7
    2148:	f9350224 			; <UNDEFINED> instruction: 0xf9350224
    214c:	06000000 	streq	r0, [r0], -r0
    2150:	00000cf5 	strdeq	r0, [r0], -r5
    2154:	00563702 	subseq	r3, r6, r2, lsl #14
    2158:	23020000 	movwcs	r0, #8192	; 0x2000
    215c:	72630700 	rsbvc	r0, r3, #0
    2160:	56390200 	ldrtpl	r0, [r9], -r0, lsl #4
    2164:	02000000 	andeq	r0, r0, #0
    2168:	94060423 	strls	r0, [r6], #-1059	; 0x423
    216c:	0200000a 	andeq	r0, r0, #10
    2170:	0000563a 	andeq	r5, r0, sl, lsr r6
    2174:	08230200 	stmdaeq	r3!, {r9}
    2178:	000aed06 	andeq	lr, sl, r6, lsl #26
    217c:	563c0200 	ldrtpl	r0, [ip], -r0, lsl #4
    2180:	02000000 	andeq	r0, r0, #0
    2184:	fb060c23 	blx	18521a <__bss_end+0x18295a>
    2188:	0200000b 	andeq	r0, r0, #11
    218c:	0000563d 	andeq	r5, r0, sp, lsr r6
    2190:	10230200 	eorne	r0, r3, r0, lsl #4
    2194:	0007b206 	andeq	fp, r7, r6, lsl #4
    2198:	563e0200 	ldrtpl	r0, [lr], -r0, lsl #4
    219c:	02000000 	andeq	r0, r0, #0
    21a0:	6c061423 	cfstrsvs	mvf1, [r6], {35}	; 0x23
    21a4:	02000006 	andeq	r0, r0, #6
    21a8:	00005641 	andeq	r5, r0, r1, asr #12
    21ac:	18230200 	stmdane	r3!, {r9}
    21b0:	000ad806 	andeq	sp, sl, r6, lsl #16
    21b4:	56440200 	strbpl	r0, [r4], -r0, lsl #4
    21b8:	02000000 	andeq	r0, r0, #0
    21bc:	67061c23 	strvs	r1, [r6, -r3, lsr #24]
    21c0:	0200000b 	andeq	r0, r0, #11
    21c4:	00005645 	andeq	r5, r0, r5, asr #12
    21c8:	20230200 	eorcs	r0, r3, r0, lsl #4
    21cc:	d0010800 	andle	r0, r1, r0, lsl #16
    21d0:	01000010 	tsteq	r0, r0, lsl r0
    21d4:	06600107 	strbteq	r0, [r0], -r7, lsl #2
    21d8:	069c0000 	ldreq	r0, [ip], r0
    21dc:	7d020000 	stcvc	0, cr0, [r2, #-0]
    21e0:	00011f00 	andeq	r1, r1, r0, lsl #30
    21e4:	03800900 	orreq	r0, r0, #0
    21e8:	07010000 	streq	r0, [r1, -r0]
    21ec:	0000011f 	andeq	r0, r0, pc, lsl r1
    21f0:	0a005001 	beq	161fc <__bss_end+0x1393c>
    21f4:	00006f04 	andeq	r6, r0, r4, lsl #30
    21f8:	be010b00 	vmlalt.f64	d0, d1, d0
    21fc:	01000010 	tsteq	r0, r0, lsl r0
    2200:	069c011e 			; <UNDEFINED> instruction: 0x069c011e
    2204:	07000000 	streq	r0, [r0, -r0]
    2208:	7d020000 	stcvc	0, cr0, [r2, #-0]
    220c:	03800900 	orreq	r0, r0, #0
    2210:	1e010000 	cdpne	0, 0, cr0, cr1, cr0, {0}
    2214:	0000011f 	andeq	r0, r0, pc, lsl r1
    2218:	00005001 	andeq	r5, r0, r1
    221c:	0000007d 	andeq	r0, r0, sp, ror r0
    2220:	07190002 	ldreq	r0, [r9, -r2]
    2224:	01040000 	mrseq	r0, (UNDEF: 4)
    2228:	0000062f 	andeq	r0, r0, pc, lsr #12
    222c:	00000700 	andeq	r0, r0, r0, lsl #14
    2230:	00000c30 	andeq	r0, r0, r0, lsr ip
    2234:	68637261 	stmdavs	r3!, {r0, r5, r6, r9, ip, sp, lr}^
    2238:	6d72612f 	ldfvse	f6, [r2, #-188]!	; 0xffffff44
    223c:	63616d2f 	cmnvs	r1, #3008	; 0xbc0
    2240:	75732d68 	ldrbvc	r2, [r3, #-3432]!	; 0xd68
    2244:	2f69786e 	svccs	0x0069786e
    2248:	732f6d70 	teqvc	pc, #7168	; 0x1c00
    224c:	646e6174 	strbtvs	r6, [lr], #-372	; 0x174
    2250:	2e2f7962 	cdpcs	9, 2, cr7, cr15, cr2, {3}
    2254:	656d2f2e 	strbvs	r2, [sp, #-3886]!	; 0xf2e
    2258:	6d6d5f6d 	stclvs	15, cr5, [sp, #-436]!	; 0xfffffe4c
    225c:	63705f75 	cmnvs	r0, #468	; 0x1d4
    2260:	6d73615f 	ldfvse	f6, [r3, #-380]!	; 0xfffffe84
    2264:	2f00532e 	svccs	0x0000532e
    2268:	746f6f72 	strbtvc	r6, [pc], #-3954	; 2270 <mem_clk_set_pll_factor+0x44>
    226c:	726f772f 	rsbvc	r7, pc, #12320768	; 0xbc0000
    2270:	69732f6b 	ldmdbvs	r3!, {r0, r1, r3, r5, r6, r8, r9, sl, fp, sp}^
    2274:	6e696c6e 	cdpvs	12, 6, cr6, cr9, cr14, {3}
    2278:	33612f78 	cmncc	r1, #480	; 0x1e0
    227c:	696c2f33 	stmdbvs	ip!, {r0, r1, r4, r5, r8, r9, sl, fp, sp}^
    2280:	65656863 	strbvs	r6, [r5, #-2147]!	; 0x863
    2284:	6e696c2f 	cdpvs	12, 6, cr6, cr9, cr15, {1}
    2288:	332d7875 	teqcc	sp, #7667712	; 0x750000
    228c:	4700342e 	strmi	r3, [r0, -lr, lsr #8]
    2290:	4120554e 	teqmi	r0, lr, asr #10
    2294:	2e322053 	mrccs	0, 1, r2, cr2, cr3, {2}
    2298:	01003232 	tsteq	r0, r2, lsr r2
    229c:	00051c80 	andeq	r1, r5, r0, lsl #25
    22a0:	2d000200 	sfmcs	f0, 4, [r0, #-0]
    22a4:	04000007 	streq	r0, [r0], #-7
    22a8:	00011601 	andeq	r1, r1, r1, lsl #12
    22ac:	122d0100 	eorne	r0, sp, #0
    22b0:	00930000 	addseq	r0, r3, r0
    22b4:	0c400000 	mareq	acc0, r0, r0
    22b8:	0f1c0000 	svceq	0x001c0000
    22bc:	07e00000 	strbeq	r0, [r0, r0]!
    22c0:	01020000 	mrseq	r0, (UNDEF: 2)
    22c4:	0000d106 	andeq	sp, r0, r6, lsl #2
    22c8:	08010200 	stmdaeq	r1, {r9}
    22cc:	000000cf 	andeq	r0, r0, pc, asr #1
    22d0:	4a050202 	bmi	142ae0 <__bss_end+0x140220>
    22d4:	02000001 	andeq	r0, r0, #1
    22d8:	01030702 	tsteq	r3, r2, lsl #14
    22dc:	04030000 	streq	r0, [r3], #-0
    22e0:	746e6905 	strbtvc	r6, [lr], #-2309	; 0x905
    22e4:	07b80400 	ldreq	r0, [r8, r0, lsl #8]!
    22e8:	13030000 	movwne	r0, #12288	; 0x3000
    22ec:	00000053 	andeq	r0, r0, r3, asr r0
    22f0:	4c070402 	cfstrsmi	mvf0, [r7], {2}
    22f4:	02000000 	andeq	r0, r0, #0
    22f8:	00000508 	andeq	r0, r0, r8, lsl #10
    22fc:	08020000 	stmdaeq	r2, {}	; <UNPREDICTABLE>
    2300:	00004207 	andeq	r4, r0, r7, lsl #4
    2304:	11f30500 	mvnsne	r0, r0, lsl #10
    2308:	02a00000 	adceq	r0, r0, #0
    230c:	0002ac12 	andeq	sl, r2, r2, lsl ip
    2310:	0cf50600 	ldcleq	6, cr0, [r5]
    2314:	17020000 	strne	r0, [r2, -r0]
    2318:	00000048 	andeq	r0, r0, r8, asr #32
    231c:	07002302 	streq	r2, [r0, -r2, lsl #6]
    2320:	02007263 	andeq	r7, r0, #805306374	; 0x30000006
    2324:	00004827 	andeq	r4, r0, r7, lsr #16
    2328:	04230200 	strteq	r0, [r3], #-512	; 0x200
    232c:	72636107 	rsbvc	r6, r3, #-1073741823	; 0xc0000001
    2330:	48280200 	stmdami	r8!, {r9}
    2334:	02000000 	andeq	r0, r0, #0
    2338:	94060823 	strls	r0, [r6], #-2083	; 0x823
    233c:	0200000a 	andeq	r0, r0, #10
    2340:	00004829 	andeq	r4, r0, r9, lsr #16
    2344:	0c230200 	sfmeq	f0, 4, [r3], #-0
    2348:	0010ec06 	andseq	lr, r0, r6, lsl #24
    234c:	482a0200 	stmdami	sl!, {r9}
    2350:	02000000 	andeq	r0, r0, #0
    2354:	2e061023 	cdpcs	0, 0, cr1, cr6, cr3, {1}
    2358:	02000011 	andeq	r0, r0, #17
    235c:	0000482b 	andeq	r4, r0, fp, lsr #16
    2360:	14230200 	strtne	r0, [r3], #-512	; 0x200
    2364:	00120906 	andseq	r0, r2, r6, lsl #18
    2368:	482c0200 	stmdami	ip!, {r9}
    236c:	02000000 	andeq	r0, r0, #0
    2370:	ed061823 	stc	8, cr1, [r6, #-140]	; 0xffffff74
    2374:	0200000a 	andeq	r0, r0, #10
    2378:	00004830 	andeq	r4, r0, r0, lsr r8
    237c:	1c230200 	sfmne	f0, 4, [r3], #-0
    2380:	000bfb06 	andeq	pc, fp, r6, lsl #22
    2384:	48310200 	ldmdami	r1!, {r9}
    2388:	02000000 	andeq	r0, r0, #0
    238c:	b2062023 	andlt	r2, r6, #35	; 0x23
    2390:	02000007 	andeq	r0, r0, #7
    2394:	00004832 	andeq	r4, r0, r2, lsr r8
    2398:	24230200 	strtcs	r0, [r3], #-512	; 0x200
    239c:	00066c06 	andeq	r6, r6, r6, lsl #24
    23a0:	48340200 	ldmdami	r4!, {r9}
    23a4:	02000000 	andeq	r0, r0, #0
    23a8:	0a062823 	beq	18c43c <__bss_end+0x189b7c>
    23ac:	02000011 	andeq	r0, r0, #17
    23b0:	00004836 	andeq	r4, r0, r6, lsr r8
    23b4:	2c230200 	sfmcs	f0, 4, [r3], #-0
    23b8:	0012d906 	andseq	sp, r2, r6, lsl #18
    23bc:	48370200 	ldmdami	r7!, {r9}
    23c0:	02000000 	andeq	r0, r0, #0
    23c4:	ec063023 	stc	0, cr3, [r6], {35}	; 0x23
    23c8:	02000011 	andeq	r0, r0, #17
    23cc:	00004838 	andeq	r4, r0, r8, lsr r8
    23d0:	34230200 	strtcc	r0, [r3], #-512	; 0x200
    23d4:	0012f406 	andseq	pc, r2, r6, lsl #8
    23d8:	48390200 	ldmdami	r9!, {r9}
    23dc:	02000000 	andeq	r0, r0, #0
    23e0:	df063823 	svcle	0x00063823
    23e4:	02000012 	andeq	r0, r0, #18
    23e8:	0000483b 	andeq	r4, r0, fp, lsr r8
    23ec:	3c230200 	sfmcc	f0, 4, [r3], #-0
    23f0:	0010e606 	andseq	lr, r0, r6, lsl #12
    23f4:	483c0200 	ldmdami	ip!, {r9}
    23f8:	02000000 	andeq	r0, r0, #0
    23fc:	70074023 	andvc	r4, r7, r3, lsr #32
    2400:	02007261 	andeq	r7, r0, #268435462	; 0x10000006
    2404:	0000483e 	andeq	r4, r0, lr, lsr r8
    2408:	44230200 	strtmi	r0, [r3], #-512	; 0x200
    240c:	0012b506 	andseq	fp, r2, r6, lsl #10
    2410:	48400200 	stmdami	r0, {r9}^
    2414:	02000000 	andeq	r0, r0, #0
    2418:	c0064823 	andgt	r4, r6, r3, lsr #16
    241c:	02000012 	andeq	r0, r0, #18
    2420:	00004841 	andeq	r4, r0, r1, asr #16
    2424:	4c230200 	sfmmi	f0, 4, [r3], #-0
    2428:	00121606 	andseq	r1, r2, r6, lsl #12
    242c:	48420200 	stmdami	r2, {r9}^
    2430:	02000000 	andeq	r0, r0, #0
    2434:	b0065023 	andlt	r5, r6, r3, lsr #32
    2438:	02000012 	andeq	r0, r0, #18
    243c:	00004843 	andeq	r4, r0, r3, asr #16
    2440:	54230200 	strtpl	r0, [r3], #-512	; 0x200
    2444:	72697307 	rsbvc	r7, r9, #469762048	; 0x1c000000
    2448:	48470200 	stmdami	r7, {r9}^
    244c:	02000000 	andeq	r0, r0, #0
    2450:	d3065823 	movwle	r5, #26659	; 0x6823
    2454:	02000011 	andeq	r0, r0, #17
    2458:	00004849 	andeq	r4, r0, r9, asr #16
    245c:	5c230200 	sfmpl	f0, 4, [r3], #-0
    2460:	72636307 	rsbvc	r6, r3, #469762048	; 0x1c000000
    2464:	484a0200 	stmdami	sl, {r9}^
    2468:	02000000 	andeq	r0, r0, #0
    246c:	65076023 	strvs	r6, [r7, #-35]	; 0x23
    2470:	02007273 	andeq	r7, r0, #805306375	; 0x30000007
    2474:	0000484b 	andeq	r4, r0, fp, asr #16
    2478:	64230200 	strtvs	r0, [r3], #-512	; 0x200
    247c:	0012eb06 	andseq	lr, r2, r6, lsl #22
    2480:	484c0200 	stmdami	ip, {r9}^
    2484:	02000000 	andeq	r0, r0, #0
    2488:	75076823 	strvc	r6, [r7, #-2083]	; 0x823
    248c:	02007265 	andeq	r7, r0, #1342177286	; 0x50000006
    2490:	0000484d 	andeq	r4, r0, sp, asr #16
    2494:	6c230200 	sfmvs	f0, 4, [r3], #-0
    2498:	0011bf06 	andseq	fp, r1, r6, lsl #30
    249c:	484e0200 	stmdami	lr, {r9}^
    24a0:	02000000 	andeq	r0, r0, #0
    24a4:	05067023 	streq	r7, [r6, #-35]	; 0x23
    24a8:	02000011 	andeq	r0, r0, #17
    24ac:	0000484f 	andeq	r4, r0, pc, asr #16
    24b0:	74230200 	strtvc	r0, [r3], #-512	; 0x200
    24b4:	000ad806 	andeq	sp, sl, r6, lsl #16
    24b8:	485d0200 	ldmdami	sp, {r9}^
    24bc:	02000000 	andeq	r0, r0, #0
    24c0:	67067823 	strvs	r7, [r6, -r3, lsr #16]
    24c4:	0200000b 	andeq	r0, r0, #11
    24c8:	0000485e 	andeq	r4, r0, lr, asr r8
    24cc:	7c230200 	sfmvc	f0, 4, [r3], #-0
    24d0:	0012e606 	andseq	lr, r2, r6, lsl #12
    24d4:	48740200 	ldmdami	r4!, {r9}^
    24d8:	03000000 	movweq	r0, #0
    24dc:	06018023 	streq	r8, [r1], -r3, lsr #32
    24e0:	000012e5 	andeq	r1, r0, r5, ror #5
    24e4:	00487502 	subeq	r7, r8, r2, lsl #10
    24e8:	23030000 	movwcs	r0, #12288	; 0x3000
    24ec:	69070184 	stmdbvs	r7, {r2, r7, r8}
    24f0:	02007273 	andeq	r7, r0, #805306375	; 0x30000007
    24f4:	00004876 	andeq	r4, r0, r6, ror r8
    24f8:	88230300 	stmdahi	r3!, {r8, r9}
    24fc:	12700601 	rsbsne	r0, r0, #1048576	; 0x100000
    2500:	7a020000 	bvc	82508 <__bss_end+0x7fc48>
    2504:	00000048 	andeq	r0, r0, r8, asr #32
    2508:	018c2303 	orreq	r2, ip, r3, lsl #6
    250c:	64696307 	strbtvs	r6, [r9], #-775	; 0x307
    2510:	487b0200 	ldmdami	fp!, {r9}^
    2514:	03000000 	movweq	r0, #0
    2518:	06019023 	streq	r9, [r1], -r3, lsr #32
    251c:	00001201 	andeq	r1, r0, r1, lsl #4
    2520:	00487c02 	subeq	r7, r8, r2, lsl #24
    2524:	23030000 	movwcs	r0, #12288	; 0x3000
    2528:	25060194 	strcs	r0, [r6, #-404]	; 0x194
    252c:	02000012 	andeq	r0, r0, #18
    2530:	0000487d 	andeq	r4, r0, sp, ror r8
    2534:	98230300 	stmdals	r3!, {r8, r9}
    2538:	10df0601 	sbcsne	r0, pc, r1, lsl #12
    253c:	7e020000 	cdpvc	0, 0, cr0, cr2, cr0, {0}
    2540:	00000048 	andeq	r0, r0, r8, asr #32
    2544:	019c2303 	orrseq	r2, ip, r3, lsl #6
    2548:	07040200 	streq	r0, [r4, -r0, lsl #4]
    254c:	00000047 	andeq	r0, r0, r7, asr #32
    2550:	12590108 	subsne	r0, r9, #2
    2554:	89010000 	stmdbhi	r1, {}	; <UNPREDICTABLE>
    2558:	000c4001 	andeq	r4, ip, r1
    255c:	000d4c00 	andeq	r4, sp, r0, lsl #24
    2560:	007d0200 	rsbseq	r0, sp, r0, lsl #4
    2564:	000002d9 	ldrdeq	r0, [r0], -r9
    2568:	0011d809 	andseq	sp, r1, r9, lsl #16
    256c:	d9890100 	stmible	r9, {r8}
    2570:	01000002 	tsteq	r0, r2
    2574:	040a0050 	streq	r0, [sl], #-80	; 0x50
    2578:	00000068 	andeq	r0, r0, r8, rrx
    257c:	11a5010b 			; <UNDEFINED> instruction: 0x11a5010b
    2580:	16010000 	strne	r0, [r1], -r0
    2584:	0d4c0101 	stfeqe	f0, [ip, #-4]
    2588:	0e200000 	cdpeq	0, 2, cr0, cr0, cr0, {0}
    258c:	7d020000 	stcvc	0, cr0, [r2, #-0]
    2590:	00030700 	andeq	r0, r3, r0, lsl #14
    2594:	11d80c00 	bicsne	r0, r8, r0, lsl #24
    2598:	16010000 	strne	r0, [r1], -r0
    259c:	0002d901 	andeq	sp, r2, r1, lsl #18
    25a0:	00500100 	subseq	r0, r0, r0, lsl #2
    25a4:	118c010b 	orrne	r0, ip, fp, lsl #2
    25a8:	78010000 	stmdavc	r1, {}	; <UNPREDICTABLE>
    25ac:	0e200101 	sufeqs	f0, f0, f1
    25b0:	0e380000 	cdpeq	0, 3, cr0, cr8, cr0, {0}
    25b4:	7d020000 	stcvc	0, cr0, [r2, #-0]
    25b8:	00033100 	andeq	r3, r3, r0, lsl #2
    25bc:	61760d00 	cmnvs	r6, r0, lsl #26
    25c0:	7b01006c 	blvc	42778 <__bss_end+0x3feb8>
    25c4:	00004801 	andeq	r4, r0, r1, lsl #16
    25c8:	0005a400 	andeq	sl, r5, r0, lsl #8
    25cc:	010b0000 	mrseq	r0, (UNDEF: 11)
    25d0:	000010f3 	strdeq	r1, [r0], -r3
    25d4:	01018601 	tsteq	r1, r1, lsl #12
    25d8:	00000e38 	andeq	r0, r0, r8, lsr lr
    25dc:	00000ee0 	andeq	r0, r0, r0, ror #29
    25e0:	57007d02 	strpl	r7, [r0, -r2, lsl #26]
    25e4:	0e000003 	cdpeq	0, 0, cr0, cr0, cr3, {0}
    25e8:	000011d8 	ldrdeq	r1, [r0], -r8
    25ec:	d9018801 	stmdble	r1, {r0, fp, pc}
    25f0:	00000002 	andeq	r0, r0, r2
    25f4:	125b010f 	subsne	r0, fp, #-1073741821	; 0xc0000003
    25f8:	e5010000 	str	r0, [r1, #-0]
    25fc:	0ee00101 	cdpeq	1, 14, cr0, cr0, cr1, {0}
    2600:	0eec0000 	cdpeq	0, 14, cr0, cr12, cr0, {0}
    2604:	7d020000 	stcvc	0, cr0, [r2, #-0]
    2608:	a7010f00 	strge	r0, [r1, -r0, lsl #30]
    260c:	01000011 	tsteq	r0, r1, lsl r0
    2610:	ec0101eb 	stfs	f0, [r1], {235}	; 0xeb
    2614:	f800000e 			; <UNDEFINED> instruction: 0xf800000e
    2618:	0200000e 	andeq	r0, r0, #14
    261c:	010f007d 	tsteq	pc, sp, ror r0	; <UNPREDICTABLE>
    2620:	00001165 	andeq	r1, r0, r5, ror #2
    2624:	0101f001 	tsteq	r1, r1
    2628:	00000ef8 	strdeq	r0, [r0], -r8
    262c:	00000f0c 	andeq	r0, r0, ip, lsl #30
    2630:	0b007d02 	bleq	21a40 <__bss_end+0x1f180>
    2634:	00121b01 	andseq	r1, r2, r1, lsl #22
    2638:	01f60100 	mvnseq	r0, r0, lsl #2
    263c:	000f0c01 	andeq	r0, pc, r1, lsl #24
    2640:	000f1c00 	andeq	r1, pc, r0, lsl #24
    2644:	007d0200 	rsbseq	r0, sp, r0, lsl #4
    2648:	000003c0 	andeq	r0, r0, r0, asr #7
    264c:	6274740d 	rsbsvs	r7, r4, #218103808	; 0xd000000
    2650:	01f80100 	mvnseq	r0, r0, lsl #2
    2654:	00000048 	andeq	r0, r0, r8, asr #32
    2658:	000005c7 	andeq	r0, r0, r7, asr #11
    265c:	11f31000 	mvnsne	r1, r0
    2660:	1f010000 	svcne	0x00010000
    2664:	00000068 	andeq	r0, r0, r8, rrx
    2668:	252c0305 	strcs	r0, [ip, #-773]!	; 0x305
    266c:	c5110000 	ldrgt	r0, [r1, #-0]
    2670:	01000012 	tsteq	r0, r2, lsl r0
    2674:	0003dc21 	andeq	sp, r3, r1, lsr #24
    2678:	00681200 	rsbeq	r1, r8, r0, lsl #4
    267c:	ac130000 	ldcge	0, cr0, [r3], {-0}
    2680:	f1000002 	cps	#2
    2684:	14000003 	strne	r0, [r0], #-3
    2688:	00000053 	andeq	r0, r0, r3, asr r0
    268c:	38150001 	ldmdacc	r5, {r0}
    2690:	01000013 	tsteq	r0, r3, lsl r0
    2694:	0003e10f 	andeq	lr, r3, pc, lsl #2
    2698:	03050100 	movweq	r0, #20736	; 0x5100
    269c:	000028a0 	andeq	r2, r0, r0, lsr #17
    26a0:	0012a115 	andseq	sl, r2, r5, lsl r1
    26a4:	ac100100 	ldfges	f0, [r0], {-0}
    26a8:	01000002 	tsteq	r0, r2
    26ac:	289c0305 	ldmcs	ip, {r0, r2, r8, r9}
    26b0:	8b150000 	blhi	5426b8 <__bss_end+0x53fdf8>
    26b4:	01000012 	tsteq	r0, r2, lsl r0
    26b8:	0003e111 	andeq	lr, r3, r1, lsl r1
    26bc:	03050100 	movweq	r0, #20736	; 0x5100
    26c0:	000027b0 			; <UNDEFINED> instruction: 0x000027b0
    26c4:	00117d15 	andseq	r7, r1, r5, lsl sp
    26c8:	ac120100 	ldfges	f0, [r2], {-0}
    26cc:	01000002 	tsteq	r0, r2
    26d0:	28b40305 	ldmcs	r4!, {r0, r2, r8, r9}
    26d4:	ac130000 	ldcge	0, cr0, [r3], {-0}
    26d8:	49000002 	stmdbmi	r0, {r1}
    26dc:	14000004 	strne	r0, [r0], #-4
    26e0:	00000053 	andeq	r0, r0, r3, asr r0
    26e4:	39150006 	ldmdbcc	r5, {r1, r2}
    26e8:	01000011 	tsteq	r0, r1, lsl r0
    26ec:	00043913 	andeq	r3, r4, r3, lsl r9
    26f0:	03050100 	movweq	r0, #20736	; 0x5100
    26f4:	00002880 	andeq	r2, r0, r0, lsl #17
    26f8:	0011c415 	andseq	ip, r1, r5, lsl r4
    26fc:	ac140100 	ldfges	f0, [r4], {-0}
    2700:	01000002 	tsteq	r0, r2
    2704:	27b80305 	ldrcs	r0, [r8, r5, lsl #6]!
    2708:	0a150000 	beq	542710 <__bss_end+0x53fe50>
    270c:	01000013 	tsteq	r0, r3, lsl r0
    2710:	0003e115 	andeq	lr, r3, r5, lsl r1
    2714:	03050100 	movweq	r0, #20736	; 0x5100
    2718:	000027c4 	andeq	r2, r0, r4, asr #15
    271c:	00111015 	andseq	r1, r1, r5, lsl r0
    2720:	ac160100 	ldfges	f0, [r6], {-0}
    2724:	01000002 	tsteq	r0, r2
    2728:	28a80305 	stmiacs	r8!, {r0, r2, r8, r9}
    272c:	4f150000 	svcmi	0x00150000
    2730:	01000011 	tsteq	r0, r1, lsl r0
    2734:	0003e117 	andeq	lr, r3, r7, lsl r1
    2738:	03050100 	movweq	r0, #20736	; 0x5100
    273c:	000027a8 	andeq	r2, r0, r8, lsr #15
    2740:	0011dd15 	andseq	sp, r1, r5, lsl sp
    2744:	ac180100 	ldfges	f0, [r8], {-0}
    2748:	01000002 	tsteq	r0, r2
    274c:	27c00305 	strbcs	r0, [r0, r5, lsl #6]
    2750:	75150000 	ldrvc	r0, [r5, #-0]
    2754:	01000012 	tsteq	r0, r2, lsl r0
    2758:	0003e119 	andeq	lr, r3, r9, lsl r1
    275c:	03050100 	movweq	r0, #20736	; 0x5100
    2760:	000028b8 			; <UNDEFINED> instruction: 0x000028b8
    2764:	0012fb15 	andseq	pc, r2, r5, lsl fp	; <UNPREDICTABLE>
    2768:	ac1a0100 	ldfges	f0, [sl], {-0}
    276c:	01000002 	tsteq	r0, r2
    2770:	27bc0305 	ldrcs	r0, [ip, r5, lsl #6]!
    2774:	4e150000 	cdpmi	0, 1, cr0, cr5, cr0, {0}
    2778:	01000013 	tsteq	r0, r3, lsl r0
    277c:	0003e11b 	andeq	lr, r3, fp, lsl r1
    2780:	03050100 	movweq	r0, #20736	; 0x5100
    2784:	000028ac 	andeq	r2, r0, ip, lsr #17
    2788:	00111f15 	andseq	r1, r1, r5, lsl pc
    278c:	ac1c0100 	ldfges	f0, [ip], {-0}
    2790:	01000002 	tsteq	r0, r2
    2794:	27cc0305 	strbcs	r0, [ip, r5, lsl #6]
    2798:	ac130000 	ldcge	0, cr0, [r3], {-0}
    279c:	0d000002 	stceq	0, cr0, [r0, #-8]
    27a0:	14000005 	strne	r0, [r0], #-5
    27a4:	00000053 	andeq	r0, r0, r3, asr r0
    27a8:	2015002b 	andscs	r0, r5, fp, lsr #32
    27ac:	01000013 	tsteq	r0, r3, lsl r0
    27b0:	0004fd1d 	andeq	pc, r4, sp, lsl sp	; <UNPREDICTABLE>
    27b4:	03050100 	movweq	r0, #20736	; 0x5100
    27b8:	000027d0 	ldrdeq	r2, [r0], -r0
    27bc:	00162f00 	andseq	r2, r6, r0, lsl #30
    27c0:	5d000200 	sfmpl	f0, 4, [r0, #-0]
    27c4:	04000008 	streq	r0, [r0], #-8
    27c8:	00011601 	andeq	r1, r1, r1, lsl #12
    27cc:	145c0100 	ldrbne	r0, [ip], #-256	; 0x100
    27d0:	00930000 	addseq	r0, r3, r0
    27d4:	0f1c0000 	svceq	0x001c0000
    27d8:	13880000 	orrne	r0, r8, #0
    27dc:	09050000 	stmdbeq	r5, {}	; <UNPREDICTABLE>
    27e0:	01020000 	mrseq	r0, (UNDEF: 2)
    27e4:	0000d106 	andeq	sp, r0, r6, lsl #2
    27e8:	08010200 	stmdaeq	r1, {r9}
    27ec:	000000cf 	andeq	r0, r0, pc, asr #1
    27f0:	4a050202 	bmi	143000 <__bss_end+0x140740>
    27f4:	02000001 	andeq	r0, r0, #1
    27f8:	01030702 	tsteq	r3, r2, lsl #14
    27fc:	7f030000 	svcvc	0x00030000
    2800:	0200000f 	andeq	r0, r0, #15
    2804:	00004c12 	andeq	r4, r0, r2, lsl ip
    2808:	05040400 	streq	r0, [r4, #-1024]	; 0x400
    280c:	00746e69 	rsbseq	r6, r4, r9, ror #28
    2810:	0007b803 	andeq	fp, r7, r3, lsl #16
    2814:	5e130200 	cdppl	2, 1, cr0, cr3, cr0, {0}
    2818:	02000000 	andeq	r0, r0, #0
    281c:	004c0704 	subeq	r0, ip, r4, lsl #14
    2820:	08020000 	stmdaeq	r2, {}	; <UNPREDICTABLE>
    2824:	00000005 	andeq	r0, r0, r5
    2828:	07080200 	streq	r0, [r8, -r0, lsl #4]
    282c:	00000042 	andeq	r0, r0, r2, asr #32
    2830:	1a030405 	bne	c384c <__bss_end+0xc0f8c>
    2834:	00000159 	andeq	r0, r0, r9, asr r1
    2838:	00051606 	andeq	r1, r5, r6, lsl #12
    283c:	531c0300 	tstpl	ip, #0
    2840:	04000000 	streq	r0, [r0], #-0
    2844:	23021e02 	movwcs	r1, #11778	; 0x2e02
    2848:	0a2d0600 	beq	b44050 <__bss_end+0xb41790>
    284c:	1d030000 	stcne	0, cr0, [r3, #-0]
    2850:	00000053 	andeq	r0, r0, r3, asr r0
    2854:	021c0204 	andseq	r0, ip, #1073741824	; 0x40000000
    2858:	0e060023 	cdpeq	0, 0, cr0, cr6, cr3, {1}
    285c:	03000005 	movweq	r0, #5
    2860:	0000531e 	andeq	r5, r0, lr, lsl r3
    2864:	1a020400 	bne	8386c <__bss_end+0x80fac>
    2868:	06002302 	streq	r2, [r0], -r2, lsl #6
    286c:	00000a37 	andeq	r0, r0, r7, lsr sl
    2870:	00531f03 	subseq	r1, r3, r3, lsl #30
    2874:	02040000 	andeq	r0, r4, #0
    2878:	00230218 	eoreq	r0, r3, r8, lsl r2
    287c:	00051e06 	andeq	r1, r5, r6, lsl #28
    2880:	53200300 	teqpl	r0, #0
    2884:	04000000 	streq	r0, [r0], #-0
    2888:	23021305 	movwcs	r1, #8965	; 0x2305
    288c:	0a410600 	beq	1044094 <__bss_end+0x10417d4>
    2890:	21030000 	mrscs	r0, (UNDEF: 3)
    2894:	00000053 	andeq	r0, r0, r3, asr r0
    2898:	02100304 	andseq	r0, r0, #268435456	; 0x10000000
    289c:	2e060023 	cdpcs	0, 0, cr0, cr6, cr3, {1}
    28a0:	03000005 	movweq	r0, #5
    28a4:	00005322 	andeq	r5, r0, r2, lsr #6
    28a8:	0e020400 	cfcpyseq	mvf0, mvf2
    28ac:	06002302 	streq	r2, [r0], -r2, lsl #6
    28b0:	00000a4b 	andeq	r0, r0, fp, asr #20
    28b4:	00532303 	subseq	r2, r3, r3, lsl #6
    28b8:	06040000 	streq	r0, [r4], -r0
    28bc:	00230208 	eoreq	r0, r3, r8, lsl #4
    28c0:	00079706 	andeq	r9, r7, r6, lsl #14
    28c4:	53240300 	teqpl	r4, #0
    28c8:	04000000 	streq	r0, [r0], #-0
    28cc:	23020701 	movwcs	r0, #9985	; 0x2701
    28d0:	0a550600 	beq	15440d8 <__bss_end+0x1541818>
    28d4:	25030000 	strcs	r0, [r3, #-0]
    28d8:	00000053 	andeq	r0, r0, r3, asr r0
    28dc:	02040304 	andeq	r0, r4, #268435456	; 0x10000000
    28e0:	1d060023 	stcne	0, cr0, [r6, #-140]	; 0xffffff74
    28e4:	03000009 	movweq	r0, #9
    28e8:	00005326 	andeq	r5, r0, r6, lsr #6
    28ec:	03010400 	movweq	r0, #5120	; 0x1400
    28f0:	06002302 	streq	r2, [r0], -r2, lsl #6
    28f4:	00000a5f 	andeq	r0, r0, pc, asr sl
    28f8:	00532703 	subseq	r2, r3, r3, lsl #14
    28fc:	02040000 	andeq	r0, r4, #0
    2900:	00230201 	eoreq	r0, r3, r1, lsl #4
    2904:	0009cc06 	andeq	ip, r9, r6, lsl #24
    2908:	53280300 	teqpl	r8, #0
    290c:	04000000 	streq	r0, [r0], #-0
    2910:	23020001 	movwcs	r0, #8193	; 0x2001
    2914:	04070000 	streq	r0, [r7], #-0
    2918:	01781803 	cmneq	r8, r3, lsl #16
    291c:	0f080000 	svceq	0x00080000
    2920:	03000003 	movweq	r0, #3
    2924:	00005319 	andeq	r5, r0, r9, lsl r3
    2928:	07f90800 	ldrbeq	r0, [r9, r0, lsl #16]!
    292c:	2a030000 	bcs	c2934 <__bss_end+0xc0074>
    2930:	00000073 	andeq	r0, r0, r3, ror r0
    2934:	09d20300 	ldmibeq	r2, {r8, r9}^
    2938:	2b030000 	blcs	c2940 <__bss_end+0xc0080>
    293c:	00000159 	andeq	r0, r0, r9, asr r1
    2940:	0009f309 	andeq	pc, r9, r9, lsl #6
    2944:	2e030400 	cfcpyscs	mvf0, mvf3
    2948:	0000024b 	andeq	r0, r0, fp, asr #4
    294c:	00051606 	andeq	r1, r5, r6, lsl #12
    2950:	53300300 	teqpl	r0, #0
    2954:	04000000 	streq	r0, [r0], #-0
    2958:	23021b05 	movwcs	r1, #11013	; 0x2b05
    295c:	0a2d0600 	beq	b44164 <__bss_end+0xb418a4>
    2960:	31030000 	mrscc	r0, (UNDEF: 3)
    2964:	00000053 	andeq	r0, r0, r3, asr r0
    2968:	02180304 	andseq	r0, r8, #268435456	; 0x10000000
    296c:	1e060023 	cdpne	0, 0, cr0, cr6, cr3, {1}
    2970:	03000005 	movweq	r0, #5
    2974:	00005332 	andeq	r5, r0, r2, lsr r3
    2978:	11070400 	tstne	r7, r0, lsl #8
    297c:	06002302 	streq	r2, [r0], -r2, lsl #6
    2980:	00000a37 	andeq	r0, r0, r7, lsr sl
    2984:	00533303 	subseq	r3, r3, r3, lsl #6
    2988:	01040000 	mrseq	r0, (UNDEF: 4)
    298c:	00230210 	eoreq	r0, r3, r0, lsl r2
    2990:	00052e06 	andeq	r2, r5, r6, lsl #28
    2994:	53340300 	teqpl	r4, #0
    2998:	04000000 	streq	r0, [r0], #-0
    299c:	23020c04 	movwcs	r0, #11268	; 0x2c04
    29a0:	0a410600 	beq	10441a8 <__bss_end+0x10418e8>
    29a4:	35030000 	strcc	r0, [r3, #-0]
    29a8:	00000053 	andeq	r0, r0, r3, asr r0
    29ac:	02080404 	andeq	r0, r8, #67108864	; 0x4000000
    29b0:	f2060023 	vhadd.s8	d0, d6, d19
    29b4:	03000008 	movweq	r0, #8
    29b8:	00005336 	andeq	r5, r0, r6, lsr r3
    29bc:	07010400 	streq	r0, [r1, -r0, lsl #8]
    29c0:	06002302 	streq	r2, [r0], -r2, lsl #6
    29c4:	00000a4b 	andeq	r0, r0, fp, asr #20
    29c8:	00533703 	subseq	r3, r3, r3, lsl #14
    29cc:	03040000 	movweq	r0, #16384	; 0x4000
    29d0:	00230204 	eoreq	r0, r3, r4, lsl #4
    29d4:	00091d06 	andeq	r1, r9, r6, lsl #26
    29d8:	53380300 	teqpl	r8, #0
    29dc:	04000000 	streq	r0, [r0], #-0
    29e0:	23020301 	movwcs	r0, #8961	; 0x2301
    29e4:	0a550600 	beq	15441ec <__bss_end+0x154192c>
    29e8:	39030000 	stmdbcc	r3, {}	; <UNPREDICTABLE>
    29ec:	00000053 	andeq	r0, r0, r3, asr r0
    29f0:	02010204 	andeq	r0, r1, #1073741824	; 0x40000000
    29f4:	cc060023 	stcgt	0, cr0, [r6], {35}	; 0x23
    29f8:	03000009 	movweq	r0, #9
    29fc:	0000533a 	andeq	r5, r0, sl, lsr r3
    2a00:	00010400 	andeq	r0, r1, r0, lsl #8
    2a04:	00002302 	andeq	r2, r0, r2, lsl #6
    2a08:	00094503 	andeq	r4, r9, r3, lsl #10
    2a0c:	833b0300 	teqhi	fp, #0
    2a10:	09000001 	stmdbeq	r0, {r0}
    2a14:	000009b2 			; <UNDEFINED> instruction: 0x000009b2
    2a18:	40500304 	subsmi	r0, r0, r4, lsl #6
    2a1c:	06000003 	streq	r0, [r0], -r3
    2a20:	00000516 	andeq	r0, r0, r6, lsl r5
    2a24:	00535203 	subseq	r5, r3, r3, lsl #4
    2a28:	02040000 	andeq	r0, r4, #0
    2a2c:	0023021e 	eoreq	r0, r3, lr, lsl r2
    2a30:	000a2d06 	andeq	r2, sl, r6, lsl #26
    2a34:	53530300 	cmppl	r3, #0
    2a38:	04000000 	streq	r0, [r0], #-0
    2a3c:	23021c02 	movwcs	r1, #11266	; 0x2c02
    2a40:	050e0600 	streq	r0, [lr, #-1536]	; 0x600
    2a44:	54030000 	strpl	r0, [r3], #-0
    2a48:	00000053 	andeq	r0, r0, r3, asr r0
    2a4c:	021a0204 	andseq	r0, sl, #1073741824	; 0x40000000
    2a50:	37060023 	strcc	r0, [r6, -r3, lsr #32]
    2a54:	0300000a 	movweq	r0, #10
    2a58:	00005355 	andeq	r5, r0, r5, asr r3
    2a5c:	18020400 	stmdane	r2, {sl}
    2a60:	06002302 	streq	r2, [r0], -r2, lsl #6
    2a64:	0000051e 	andeq	r0, r0, lr, lsl r5
    2a68:	00535603 	subseq	r5, r3, r3, lsl #12
    2a6c:	05040000 	streq	r0, [r4, #-0]
    2a70:	00230213 	eoreq	r0, r3, r3, lsl r2
    2a74:	000a4106 	andeq	r4, sl, r6, lsl #2
    2a78:	53570300 	cmppl	r7, #0
    2a7c:	04000000 	streq	r0, [r0], #-0
    2a80:	23020c07 	movwcs	r0, #11271	; 0x2c07
    2a84:	04730600 	ldrbteq	r0, [r3], #-1536	; 0x600
    2a88:	58030000 	stmdapl	r3, {}	; <UNPREDICTABLE>
    2a8c:	00000053 	andeq	r0, r0, r3, asr r0
    2a90:	020b0104 	andeq	r0, fp, #1
    2a94:	4b060023 	blmi	182b28 <__bss_end+0x180268>
    2a98:	0300000a 	movweq	r0, #10
    2a9c:	00005359 	andeq	r5, r0, r9, asr r3
    2aa0:	08030400 	stmdaeq	r3, {sl}
    2aa4:	06002302 	streq	r2, [r0], -r2, lsl #6
    2aa8:	0000079f 	muleq	r0, pc, r7	; <UNPREDICTABLE>
    2aac:	00535a03 	subseq	r5, r3, r3, lsl #20
    2ab0:	01040000 	mrseq	r0, (UNDEF: 4)
    2ab4:	00230207 	eoreq	r0, r3, r7, lsl #4
    2ab8:	000a5506 	andeq	r5, sl, r6, lsl #10
    2abc:	535b0300 	cmppl	fp, #0
    2ac0:	04000000 	streq	r0, [r0], #-0
    2ac4:	23020403 	movwcs	r0, #9219	; 0x2403
    2ac8:	091d0600 	ldmdbeq	sp, {r9, sl}
    2acc:	5c030000 	stcpl	0, cr0, [r3], {-0}
    2ad0:	00000053 	andeq	r0, r0, r3, asr r0
    2ad4:	02030104 	andeq	r0, r3, #1
    2ad8:	5f060023 	svcpl	0x00060023
    2adc:	0300000a 	movweq	r0, #10
    2ae0:	0000535d 	andeq	r5, r0, sp, asr r3
    2ae4:	01020400 	tsteq	r2, r0, lsl #8
    2ae8:	06002302 	streq	r2, [r0], -r2, lsl #6
    2aec:	000009cc 	andeq	r0, r0, ip, asr #19
    2af0:	00535e03 	subseq	r5, r3, r3, lsl #28
    2af4:	01040000 	mrseq	r0, (UNDEF: 4)
    2af8:	00230200 	eoreq	r0, r3, r0, lsl #4
    2afc:	049a0300 	ldreq	r0, [sl], #768	; 0x300
    2b00:	5f030000 	svcpl	0x00030000
    2b04:	00000256 	andeq	r0, r0, r6, asr r2
    2b08:	000d6809 	andeq	r6, sp, r9, lsl #16
    2b0c:	62030400 	andvs	r0, r3, #0
    2b10:	00000457 	andeq	r0, r0, r7, asr r4
    2b14:	00051606 	andeq	r1, r5, r6, lsl #12
    2b18:	53640300 	cmnpl	r4, #0
    2b1c:	04000000 	streq	r0, [r0], #-0
    2b20:	23021e02 	movwcs	r1, #11778	; 0x2e02
    2b24:	0a2d0600 	beq	b4432c <__bss_end+0xb41a6c>
    2b28:	65030000 	strvs	r0, [r3, #-0]
    2b2c:	00000053 	andeq	r0, r0, r3, asr r0
    2b30:	021c0204 	andseq	r0, ip, #1073741824	; 0x40000000
    2b34:	0e060023 	cdpeq	0, 0, cr0, cr6, cr3, {1}
    2b38:	03000005 	movweq	r0, #5
    2b3c:	00005366 	andeq	r5, r0, r6, ror #6
    2b40:	1a020400 	bne	83b48 <__bss_end+0x81288>
    2b44:	06002302 	streq	r2, [r0], -r2, lsl #6
    2b48:	00000a37 	andeq	r0, r0, r7, lsr sl
    2b4c:	00536703 	subseq	r6, r3, r3, lsl #14
    2b50:	02040000 	andeq	r0, r4, #0
    2b54:	00230218 	eoreq	r0, r3, r8, lsl r2
    2b58:	00051e06 	andeq	r1, r5, r6, lsl #28
    2b5c:	53680300 	cmnpl	r8, #0
    2b60:	04000000 	streq	r0, [r0], #-0
    2b64:	23021305 	movwcs	r1, #8965	; 0x2305
    2b68:	0a410600 	beq	1044370 <__bss_end+0x1041ab0>
    2b6c:	69030000 	stmdbvs	r3, {}	; <UNPREDICTABLE>
    2b70:	00000053 	andeq	r0, r0, r3, asr r0
    2b74:	02100304 	andseq	r0, r0, #268435456	; 0x10000000
    2b78:	c2060023 	andgt	r0, r6, #35	; 0x23
    2b7c:	0300000b 	movweq	r0, #11
    2b80:	0000536a 	andeq	r5, r0, sl, ror #6
    2b84:	0e020400 	cfcpyseq	mvf0, mvf2
    2b88:	06002302 	streq	r2, [r0], -r2, lsl #6
    2b8c:	00000285 	andeq	r0, r0, r5, lsl #5
    2b90:	00536b03 	subseq	r6, r3, r3, lsl #22
    2b94:	01040000 	mrseq	r0, (UNDEF: 4)
    2b98:	0023020d 	eoreq	r0, r3, sp, lsl #4
    2b9c:	000a4b06 	andeq	r4, sl, r6, lsl #22
    2ba0:	536c0300 	cmnpl	ip, #0
    2ba4:	04000000 	streq	r0, [r0], #-0
    2ba8:	23020805 	movwcs	r0, #10245	; 0x2805
    2bac:	08860600 	stmeq	r6, {r9, sl}
    2bb0:	6d030000 	stcvs	0, cr0, [r3, #-0]
    2bb4:	00000053 	andeq	r0, r0, r3, asr r0
    2bb8:	02070104 	andeq	r0, r7, #1
    2bbc:	31060023 	tstcc	r6, r3, lsr #32
    2bc0:	03000008 	movweq	r0, #8
    2bc4:	0000536e 	andeq	r5, r0, lr, ror #6
    2bc8:	06010400 	streq	r0, [r1], -r0, lsl #8
    2bcc:	06002302 	streq	r2, [r0], -r2, lsl #6
    2bd0:	00000a55 	andeq	r0, r0, r5, asr sl
    2bd4:	00536f03 	subseq	r6, r3, r3, lsl #30
    2bd8:	02040000 	andeq	r0, r4, #0
    2bdc:	00230204 	eoreq	r0, r3, r4, lsl #4
    2be0:	00091d06 	andeq	r1, r9, r6, lsl #26
    2be4:	53700300 	cmnpl	r0, #0
    2be8:	04000000 	streq	r0, [r0], #-0
    2bec:	23020301 	movwcs	r0, #8961	; 0x2301
    2bf0:	0a5f0600 	beq	17c43f8 <__bss_end+0x17c1b38>
    2bf4:	71030000 	mrsvc	r0, (UNDEF: 3)
    2bf8:	00000053 	andeq	r0, r0, r3, asr r0
    2bfc:	02010204 	andeq	r0, r1, #1073741824	; 0x40000000
    2c00:	cc060023 	stcgt	0, cr0, [r6], {35}	; 0x23
    2c04:	03000009 	movweq	r0, #9
    2c08:	00005372 	andeq	r5, r0, r2, ror r3
    2c0c:	00010400 	andeq	r0, r1, r0, lsl #8
    2c10:	00002302 	andeq	r2, r0, r2, lsl #6
    2c14:	0003c203 	andeq	ip, r3, r3, lsl #4
    2c18:	4b730300 	blmi	1cc3820 <__bss_end+0x1cc0f60>
    2c1c:	09000003 	stmdbeq	r0, {r0, r1}
    2c20:	00000632 	andeq	r0, r0, r2, lsr r6
    2c24:	3b750304 	blcc	1d4383c <__bss_end+0x1d40f7c>
    2c28:	06000005 	streq	r0, [r0], -r5
    2c2c:	00000516 	andeq	r0, r0, r6, lsl r5
    2c30:	00537703 	subseq	r7, r3, r3, lsl #14
    2c34:	04040000 	streq	r0, [r4], #-0
    2c38:	0023021c 	eoreq	r0, r3, ip, lsl r2
    2c3c:	000a2d06 	andeq	r2, sl, r6, lsl #26
    2c40:	53780300 	cmnpl	r8, #0
    2c44:	04000000 	streq	r0, [r0], #-0
    2c48:	23021804 	movwcs	r1, #10244	; 0x2804
    2c4c:	051e0600 	ldreq	r0, [lr, #-1536]	; 0x600
    2c50:	79030000 	stmdbvc	r3, {}	; <UNPREDICTABLE>
    2c54:	00000053 	andeq	r0, r0, r3, asr r0
    2c58:	02110704 	andseq	r0, r1, #1048576	; 0x100000
    2c5c:	37060023 	strcc	r0, [r6, -r3, lsr #32]
    2c60:	0300000a 	movweq	r0, #10
    2c64:	0000537a 	andeq	r5, r0, sl, ror r3
    2c68:	0c050400 	cfstrseq	mvf0, [r5], {-0}
    2c6c:	06002302 	streq	r2, [r0], -r2, lsl #6
    2c70:	000008f2 	strdeq	r0, [r0], -r2
    2c74:	00537b03 	subseq	r7, r3, r3, lsl #22
    2c78:	01040000 	mrseq	r0, (UNDEF: 4)
    2c7c:	0023020b 	eoreq	r0, r3, fp, lsl #4
    2c80:	000a4106 	andeq	r4, sl, r6, lsl #2
    2c84:	537c0300 	cmnpl	ip, #0
    2c88:	04000000 	streq	r0, [r0], #-0
    2c8c:	23020803 	movwcs	r0, #10243	; 0x2803
    2c90:	09810600 	stmibeq	r1, {r9, sl}
    2c94:	7d030000 	stcvc	0, cr0, [r3, #-0]
    2c98:	00000053 	andeq	r0, r0, r3, asr r0
    2c9c:	02070104 	andeq	r0, r7, #1
    2ca0:	af060023 	svcge	0x00060023
    2ca4:	0300000a 	movweq	r0, #10
    2ca8:	0000537e 	andeq	r5, r0, lr, ror r3
    2cac:	06010400 	streq	r0, [r1], -r0, lsl #8
    2cb0:	06002302 	streq	r2, [r0], -r2, lsl #6
    2cb4:	00000a4b 	andeq	r0, r0, fp, asr #20
    2cb8:	00537f03 	subseq	r7, r3, r3, lsl #30
    2cbc:	02040000 	andeq	r0, r4, #0
    2cc0:	00230204 	eoreq	r0, r3, r4, lsl #4
    2cc4:	00091d06 	andeq	r1, r9, r6, lsl #26
    2cc8:	53800300 	orrpl	r0, r0, #0
    2ccc:	04000000 	streq	r0, [r0], #-0
    2cd0:	23020301 	movwcs	r0, #8961	; 0x2301
    2cd4:	0a550600 	beq	15444dc <__bss_end+0x1541c1c>
    2cd8:	81030000 	mrshi	r0, (UNDEF: 3)
    2cdc:	00000053 	andeq	r0, r0, r3, asr r0
    2ce0:	02010204 	andeq	r0, r1, #1073741824	; 0x40000000
    2ce4:	cc060023 	stcgt	0, cr0, [r6], {35}	; 0x23
    2ce8:	03000009 	movweq	r0, #9
    2cec:	00005382 	andeq	r5, r0, r2, lsl #7
    2cf0:	00010400 	andeq	r0, r1, r0, lsl #8
    2cf4:	00002302 	andeq	r2, r0, r2, lsl #6
    2cf8:	0006f803 	andeq	pc, r6, r3, lsl #16
    2cfc:	62830300 	addvs	r0, r3, #0
    2d00:	09000004 	stmdbeq	r0, {r2}
    2d04:	00000901 	andeq	r0, r0, r1, lsl #18
    2d08:	96860304 	strls	r0, [r6], r4, lsl #6
    2d0c:	06000006 	streq	r0, [r0], -r6
    2d10:	00000516 	andeq	r0, r0, r6, lsl r5
    2d14:	00538803 	subseq	r8, r3, r3, lsl #16
    2d18:	04040000 	streq	r0, [r4], #-0
    2d1c:	0023021c 	eoreq	r0, r3, ip, lsl r2
    2d20:	00050e06 	andeq	r0, r5, r6, lsl #28
    2d24:	53890300 	orrpl	r0, r9, #0
    2d28:	04000000 	streq	r0, [r0], #-0
    2d2c:	23021a02 	movwcs	r1, #10754	; 0x2a02
    2d30:	0a2d0600 	beq	b44538 <__bss_end+0xb41c78>
    2d34:	8a030000 	bhi	c2d3c <__bss_end+0xc047c>
    2d38:	00000053 	andeq	r0, r0, r3, asr r0
    2d3c:	02180204 	andseq	r0, r8, #1073741824	; 0x40000000
    2d40:	1e060023 	cdpne	0, 0, cr0, cr6, cr3, {1}
    2d44:	03000005 	movweq	r0, #5
    2d48:	0000538b 	andeq	r5, r0, fp, lsl #7
    2d4c:	14040400 	strne	r0, [r4], #-1024	; 0x400
    2d50:	06002302 	streq	r2, [r0], -r2, lsl #6
    2d54:	00000a37 	andeq	r0, r0, r7, lsr sl
    2d58:	00538c03 	subseq	r8, r3, r3, lsl #24
    2d5c:	04040000 	streq	r0, [r4], #-0
    2d60:	00230210 	eoreq	r0, r3, r0, lsl r2
    2d64:	0004be06 	andeq	fp, r4, r6, lsl #28
    2d68:	538d0300 	orrpl	r0, sp, #0
    2d6c:	04000000 	streq	r0, [r0], #-0
    2d70:	23020f01 	movwcs	r0, #12033	; 0x2f01
    2d74:	09890600 	stmibeq	r9, {r9, sl}
    2d78:	8f030000 	svchi	0x00030000
    2d7c:	00000053 	andeq	r0, r0, r3, asr r0
    2d80:	020e0104 	andeq	r0, lr, #1
    2d84:	41060023 	tstmi	r6, r3, lsr #32
    2d88:	0300000a 	movweq	r0, #10
    2d8c:	00005390 	muleq	r0, r0, r3
    2d90:	0c020400 	cfstrseq	mvf0, [r2], {-0}
    2d94:	06002302 	streq	r2, [r0], -r2, lsl #6
    2d98:	000008f2 	strdeq	r0, [r0], -r2
    2d9c:	00539103 	subseq	r9, r3, r3, lsl #2
    2da0:	01040000 	mrseq	r0, (UNDEF: 4)
    2da4:	0023020b 	eoreq	r0, r3, fp, lsl #4
    2da8:	00037906 	andeq	r7, r3, r6, lsl #18
    2dac:	53920300 	orrspl	r0, r2, #0
    2db0:	04000000 	streq	r0, [r0], #-0
    2db4:	23020a01 	movwcs	r0, #10753	; 0x2a01
    2db8:	03fe0600 	mvnseq	r0, #0
    2dbc:	93030000 	movwls	r0, #12288	; 0x3000
    2dc0:	00000053 	andeq	r0, r0, r3, asr r0
    2dc4:	02090104 	andeq	r0, r9, #1
    2dc8:	26060023 	strcs	r0, [r6], -r3, lsr #32
    2dcc:	0300000a 	movweq	r0, #10
    2dd0:	00005394 	muleq	r0, r4, r3
    2dd4:	08010400 	stmdaeq	r1, {sl}
    2dd8:	06002302 	streq	r2, [r0], -r2, lsl #6
    2ddc:	00000a4b 	andeq	r0, r0, fp, asr #20
    2de0:	00539503 	subseq	r9, r3, r3, lsl #10
    2de4:	01040000 	mrseq	r0, (UNDEF: 4)
    2de8:	00230207 	eoreq	r0, r3, r7, lsl #4
    2dec:	00093906 	andeq	r3, r9, r6, lsl #18
    2df0:	53960300 	orrspl	r0, r6, #0
    2df4:	04000000 	streq	r0, [r0], #-0
    2df8:	23020601 	movwcs	r0, #9729	; 0x2601
    2dfc:	09c60600 	stmibeq	r6, {r9, sl}^
    2e00:	97030000 	strls	r0, [r3, -r0]
    2e04:	00000053 	andeq	r0, r0, r3, asr r0
    2e08:	02050104 	andeq	r0, r5, #1
    2e0c:	5e060023 	cdppl	0, 0, cr0, cr6, cr3, {1}
    2e10:	0300000b 	movweq	r0, #11
    2e14:	00005398 	muleq	r0, r8, r3
    2e18:	04010400 	streq	r0, [r1], #-1024	; 0x400
    2e1c:	06002302 	streq	r2, [r0], -r2, lsl #6
    2e20:	0000091d 	andeq	r0, r0, sp, lsl r9
    2e24:	00539903 	subseq	r9, r3, r3, lsl #18
    2e28:	01040000 	mrseq	r0, (UNDEF: 4)
    2e2c:	00230203 	eoreq	r0, r3, r3, lsl #4
    2e30:	000a5506 	andeq	r5, sl, r6, lsl #10
    2e34:	539a0300 	orrspl	r0, sl, #0
    2e38:	04000000 	streq	r0, [r0], #-0
    2e3c:	23020102 	movwcs	r0, #8450	; 0x2102
    2e40:	09cc0600 	stmibeq	ip, {r9, sl}^
    2e44:	9b030000 	blls	c2e4c <__bss_end+0xc058c>
    2e48:	00000053 	andeq	r0, r0, r3, asr r0
    2e4c:	02000104 	andeq	r0, r0, #1
    2e50:	03000023 	movweq	r0, #35	; 0x23
    2e54:	000002d1 	ldrdeq	r0, [r0], -r1
    2e58:	05469c03 	strbeq	r9, [r6, #-3075]	; 0xc03
    2e5c:	04050000 	streq	r0, [r5], #-0
    2e60:	0710a403 	ldreq	sl, [r0, -r3, lsl #8]
    2e64:	c1060000 	mrsgt	r0, (UNDEF: 6)
    2e68:	0300000c 	movweq	r0, #12
    2e6c:	000053a6 	andeq	r5, r0, r6, lsr #7
    2e70:	1e020400 	cfcpysne	mvf0, mvf2
    2e74:	06002302 	streq	r2, [r0], -r2, lsl #6
    2e78:	00000a2d 	andeq	r0, r0, sp, lsr #20
    2e7c:	0053a703 	subseq	sl, r3, r3, lsl #14
    2e80:	06040000 	streq	r0, [r4], -r0
    2e84:	00230218 	eoreq	r0, r3, r8, lsl r2
    2e88:	000a0706 	andeq	r0, sl, r6, lsl #14
    2e8c:	53a80300 			; <UNDEFINED> instruction: 0x53a80300
    2e90:	04000000 	streq	r0, [r0], #-0
    2e94:	23021602 	movwcs	r1, #9730	; 0x2602
    2e98:	0a370600 	beq	dc46a0 <__bss_end+0xdc1de0>
    2e9c:	a9030000 	stmdbge	r3, {}	; <UNPREDICTABLE>
    2ea0:	00000053 	andeq	r0, r0, r3, asr r0
    2ea4:	02100604 	andseq	r0, r0, #4194304	; 0x400000
    2ea8:	56060023 	strpl	r0, [r6], -r3, lsr #32
    2eac:	03000006 	movweq	r0, #6
    2eb0:	000053aa 	andeq	r5, r0, sl, lsr #7
    2eb4:	0e020400 	cfcpyseq	mvf0, mvf2
    2eb8:	06002302 	streq	r2, [r0], -r2, lsl #6
    2ebc:	00000a41 	andeq	r0, r0, r1, asr #20
    2ec0:	0053ab03 	subseq	sl, r3, r3, lsl #22
    2ec4:	0e040000 	cdpeq	0, 0, cr0, cr4, cr0, {0}
    2ec8:	00230200 	eoreq	r0, r3, r0, lsl #4
    2ecc:	03040700 	movweq	r0, #18176	; 0x4700
    2ed0:	00072fa2 	andeq	r2, r7, r2, lsr #31
    2ed4:	030f0800 	movweq	r0, #63488	; 0xf800
    2ed8:	a3030000 	movwge	r0, #12288	; 0x3000
    2edc:	00000053 	andeq	r0, r0, r3, asr r0
    2ee0:	0007f908 	andeq	pc, r7, r8, lsl #18
    2ee4:	a1ac0300 			; <UNDEFINED> instruction: 0xa1ac0300
    2ee8:	00000006 	andeq	r0, r0, r6
    2eec:	0003e003 	andeq	lr, r3, r3
    2ef0:	10ad0300 	adcne	r0, sp, r0, lsl #6
    2ef4:	09000007 	stmdbeq	r0, {r0, r1, r2}
    2ef8:	000002a1 	andeq	r0, r0, r1, lsr #5
    2efc:	beb40304 	cdplt	3, 11, cr0, cr4, cr4, {0}
    2f00:	06000007 	streq	r0, [r0], -r7
    2f04:	00000a2d 	andeq	r0, r0, sp, lsr #20
    2f08:	0053b603 	subseq	fp, r3, r3, lsl #12
    2f0c:	04040000 	streq	r0, [r4], #-0
    2f10:	0023021c 	eoreq	r0, r3, ip, lsl r2
    2f14:	00084a06 	andeq	r4, r8, r6, lsl #20
    2f18:	53b70300 			; <UNDEFINED> instruction: 0x53b70300
    2f1c:	04000000 	streq	r0, [r0], #-0
    2f20:	23021a02 	movwcs	r1, #10754	; 0x2a02
    2f24:	0c840600 	stceq	6, cr0, [r4], {0}
    2f28:	b8030000 	stmdalt	r3, {}	; <UNPREDICTABLE>
    2f2c:	00000053 	andeq	r0, r0, r3, asr r0
    2f30:	02180204 	andseq	r0, r8, #1073741824	; 0x40000000
    2f34:	79060023 	stmdbvc	r6, {r0, r1, r5}
    2f38:	03000009 	movweq	r0, #9
    2f3c:	000053b9 			; <UNDEFINED> instruction: 0x000053b9
    2f40:	16020400 	strne	r0, [r2], -r0, lsl #8
    2f44:	06002302 	streq	r2, [r0], -r2, lsl #6
    2f48:	00000a37 	andeq	r0, r0, r7, lsr sl
    2f4c:	0053ba03 	subseq	fp, r3, r3, lsl #20
    2f50:	02040000 	andeq	r0, r4, #0
    2f54:	00230214 	eoreq	r0, r3, r4, lsl r2
    2f58:	00096406 	andeq	r6, r9, r6, lsl #8
    2f5c:	53bb0300 			; <UNDEFINED> instruction: 0x53bb0300
    2f60:	04000000 	streq	r0, [r0], #-0
    2f64:	23021202 	movwcs	r1, #8706	; 0x2202
    2f68:	0a410600 	beq	1044770 <__bss_end+0x1041eb0>
    2f6c:	bc030000 	stclt	0, cr0, [r3], {-0}
    2f70:	00000053 	andeq	r0, r0, r3, asr r0
    2f74:	02001204 	andeq	r1, r0, #1073741824	; 0x40000000
    2f78:	03000023 	movweq	r0, #35	; 0x23
    2f7c:	00000bd5 	ldrdeq	r0, [r0], -r5
    2f80:	073abd03 	ldreq	fp, [sl, -r3, lsl #26]!
    2f84:	2d090000 	stccs	0, cr0, [r9, #-0]
    2f88:	0400000c 	streq	r0, [r0], #-12
    2f8c:	083cc303 	ldmdaeq	ip!, {r0, r1, r8, r9, lr, pc}
    2f90:	a9060000 	stmdbge	r6, {}	; <UNPREDICTABLE>
    2f94:	03000005 	movweq	r0, #5
    2f98:	000053c5 	andeq	r5, r0, r5, asr #7
    2f9c:	1b050400 	blne	143fa4 <__bss_end+0x1416e4>
    2fa0:	06002302 	streq	r2, [r0], -r2, lsl #6
    2fa4:	00000cb8 			; <UNDEFINED> instruction: 0x00000cb8
    2fa8:	0053c603 	subseq	ip, r3, r3, lsl #12
    2fac:	0b040000 	bleq	102fb4 <__bss_end+0x1006f4>
    2fb0:	00230210 	eoreq	r0, r3, r0, lsl r2
    2fb4:	0005ae06 	andeq	sl, r5, r6, lsl #28
    2fb8:	53c70300 	bicpl	r0, r7, #0
    2fbc:	04000000 	streq	r0, [r0], #-0
    2fc0:	23020e02 	movwcs	r0, #11778	; 0x2e02
    2fc4:	0a370600 	beq	dc47cc <__bss_end+0xdc1f0c>
    2fc8:	c8030000 	stmdagt	r3, {}	; <UNPREDICTABLE>
    2fcc:	00000053 	andeq	r0, r0, r3, asr r0
    2fd0:	02080604 	andeq	r0, r8, #4194304	; 0x400000
    2fd4:	68060023 	stmdavs	r6, {r0, r1, r5}
    2fd8:	03000009 	movweq	r0, #9
    2fdc:	000053c9 	andeq	r5, r0, r9, asr #7
    2fe0:	06020400 	streq	r0, [r2], -r0, lsl #8
    2fe4:	06002302 	streq	r2, [r0], -r2, lsl #6
    2fe8:	00000a41 	andeq	r0, r0, r1, asr #20
    2fec:	0053ca03 	subseq	ip, r3, r3, lsl #20
    2ff0:	06040000 	streq	r0, [r4], -r0
    2ff4:	00230200 	eoreq	r0, r3, r0, lsl #4
    2ff8:	08920300 	ldmeq	r2, {r8, r9}
    2ffc:	cb030000 	blgt	c3004 <__bss_end+0xc0744>
    3000:	000007c9 	andeq	r0, r0, r9, asr #15
    3004:	00072109 	andeq	r2, r7, r9, lsl #2
    3008:	cd030400 	cfstrsgt	mvf0, [r3, #-0]
    300c:	00000876 	andeq	r0, r0, r6, ror r8
    3010:	000c7b06 	andeq	r7, ip, r6, lsl #22
    3014:	53cf0300 	bicpl	r0, pc, #0
    3018:	04000000 	streq	r0, [r0], #-0
    301c:	23021010 	movwcs	r1, #8208	; 0x2010
    3020:	0cb80600 	ldceq	6, cr0, [r8]
    3024:	d0030000 	andle	r0, r3, r0
    3028:	00000053 	andeq	r0, r0, r3, asr r0
    302c:	02001004 	andeq	r1, r0, #4
    3030:	03000023 	movweq	r0, #35	; 0x23
    3034:	00000b1b 	andeq	r0, r0, fp, lsl fp
    3038:	0847d103 	stmdaeq	r7, {r0, r1, r8, ip, lr, pc}^
    303c:	2e0a0000 	cdpcs	0, 0, cr0, cr10, cr0, {0}
    3040:	dc00000d 	stcle	0, cr0, [r0], {13}
    3044:	65d30302 	ldrbvs	r0, [r3, #770]	; 0x302
    3048:	0b000010 	bleq	3090 <__bss_end+0x7d0>
    304c:	000006eb 	andeq	r0, r0, fp, ror #13
    3050:	1065d503 	rsbne	sp, r5, r3, lsl #10
    3054:	23020000 	movwcs	r0, #8192	; 0x2000
    3058:	0a2d0b00 	beq	b45c60 <__bss_end+0xb433a0>
    305c:	d6030000 	strle	r0, [r3], -r0
    3060:	0000106a 	andeq	r1, r0, sl, rrx
    3064:	0b042302 	bleq	10bc74 <__bss_end+0x1093b4>
    3068:	00000d26 	andeq	r0, r0, r6, lsr #26
    306c:	106fd703 	rsbne	sp, pc, r3, lsl #14
    3070:	23020000 	movwcs	r0, #8192	; 0x2000
    3074:	0a370b08 	beq	dc5c9c <__bss_end+0xdc33dc>
    3078:	d8030000 	stmdale	r3, {}	; <UNPREDICTABLE>
    307c:	0000106a 	andeq	r1, r0, sl, rrx
    3080:	0b0c2302 	bleq	30bc90 <__bss_end+0x3093d0>
    3084:	00000874 	andeq	r0, r0, r4, ror r8
    3088:	106ad903 	rsbne	sp, sl, r3, lsl #18
    308c:	23020000 	movwcs	r0, #8192	; 0x2000
    3090:	0a410b10 	beq	1045cd8 <__bss_end+0x1043418>
    3094:	da030000 	ble	c309c <__bss_end+0xc07dc>
    3098:	0000106a 	andeq	r1, r0, sl, rrx
    309c:	0b142302 	bleq	50bcac <__bss_end+0x5093ec>
    30a0:	000003a3 	andeq	r0, r0, r3, lsr #7
    30a4:	106adb03 	rsbne	sp, sl, r3, lsl #22
    30a8:	23020000 	movwcs	r0, #8192	; 0x2000
    30ac:	0a4b0b18 	beq	12c5d14 <__bss_end+0x12c3454>
    30b0:	dc030000 	stcle	0, cr0, [r3], {-0}
    30b4:	0000106a 	andeq	r1, r0, sl, rrx
    30b8:	0b1c2302 	bleq	70bcc8 <__bss_end+0x709408>
    30bc:	000009a0 	andeq	r0, r0, r0, lsr #19
    30c0:	1074dd03 	rsbsne	sp, r4, r3, lsl #26
    30c4:	23020000 	movwcs	r0, #8192	; 0x2000
    30c8:	0a550b20 	beq	1545d50 <__bss_end+0x1543490>
    30cc:	de030000 	cdple	0, 0, cr0, cr3, cr0, {0}
    30d0:	0000106a 	andeq	r1, r0, sl, rrx
    30d4:	0b242302 	bleq	90bce4 <__bss_end+0x909424>
    30d8:	00000347 	andeq	r0, r0, r7, asr #6
    30dc:	1079df03 	rsbsne	sp, r9, r3, lsl #30
    30e0:	23020000 	movwcs	r0, #8192	; 0x2000
    30e4:	0a5f0b28 	beq	17c5d8c <__bss_end+0x17c34cc>
    30e8:	e0030000 	and	r0, r3, r0
    30ec:	0000106a 	andeq	r1, r0, sl, rrx
    30f0:	0b2c2302 	bleq	b0bd00 <__bss_end+0xb09440>
    30f4:	00000995 	muleq	r0, r5, r9
    30f8:	106ae103 	rsbne	lr, sl, r3, lsl #2
    30fc:	23020000 	movwcs	r0, #8192	; 0x2000
    3100:	0a690b30 	beq	1a45dc8 <__bss_end+0x1a43508>
    3104:	e2030000 	and	r0, r3, #0
    3108:	0000106a 	andeq	r1, r0, sl, rrx
    310c:	0b342302 	bleq	d0bd1c <__bss_end+0xd0945c>
    3110:	0000070e 	andeq	r0, r0, lr, lsl #14
    3114:	107ee303 	rsbsne	lr, lr, r3, lsl #6
    3118:	23020000 	movwcs	r0, #8192	; 0x2000
    311c:	0a730b38 	beq	1cc5e04 <__bss_end+0x1cc3544>
    3120:	e4030000 	str	r0, [r3], #-0
    3124:	0000106a 	andeq	r1, r0, sl, rrx
    3128:	0b3c2302 	bleq	f0bd38 <__bss_end+0xf09478>
    312c:	00000503 	andeq	r0, r0, r3, lsl #10
    3130:	1083e503 	addne	lr, r3, r3, lsl #10
    3134:	23020000 	movwcs	r0, #8192	; 0x2000
    3138:	0d7c0b40 	vldmdbeq	ip!, {d16-<overflow reg d47>}
    313c:	e6030000 	str	r0, [r3], -r0
    3140:	0000106a 	andeq	r1, r0, sl, rrx
    3144:	0b442302 	bleq	110bd54 <__bss_end+0x1109494>
    3148:	0000039a 	muleq	r0, sl, r3
    314c:	106ae703 	rsbne	lr, sl, r3, lsl #14
    3150:	23020000 	movwcs	r0, #8192	; 0x2000
    3154:	09e80b48 	stmibeq	r8!, {r3, r6, r8, r9, fp}^
    3158:	e8030000 	stmda	r3, {}	; <UNPREDICTABLE>
    315c:	0000106a 	andeq	r1, r0, sl, rrx
    3160:	0b4c2302 	bleq	130bd70 <__bss_end+0x13094b0>
    3164:	0000087c 	andeq	r0, r0, ip, ror r8
    3168:	1088e903 	addne	lr, r8, r3, lsl #18
    316c:	23020000 	movwcs	r0, #8192	; 0x2000
    3170:	084a0b50 	stmdaeq	sl, {r4, r6, r8, r9, fp}^
    3174:	ea030000 	b	c317c <__bss_end+0xc08bc>
    3178:	0000108d 	andeq	r1, r0, sp, lsl #1
    317c:	0b542302 	bleq	150bd8c <__bss_end+0x15094cc>
    3180:	00000526 	andeq	r0, r0, r6, lsr #10
    3184:	1092eb03 	addsne	lr, r2, r3, lsl #22
    3188:	23020000 	movwcs	r0, #8192	; 0x2000
    318c:	0c020b58 	stceq	11, cr0, [r2], {88}	; 0x58
    3190:	ec030000 	stc	0, cr0, [r3], {-0}
    3194:	0000106a 	andeq	r1, r0, sl, rrx
    3198:	0b5c2302 	bleq	170bda8 <__bss_end+0x17094e8>
    319c:	00000afe 	strdeq	r0, [r0], -lr
    31a0:	106aed03 	rsbne	lr, sl, r3, lsl #26
    31a4:	23020000 	movwcs	r0, #8192	; 0x2000
    31a8:	06ba0b60 	ldrteq	r0, [sl], r0, ror #22
    31ac:	ee030000 	cdp	0, 0, cr0, cr3, cr0, {0}
    31b0:	0000106a 	andeq	r1, r0, sl, rrx
    31b4:	0b642302 	bleq	190bdc4 <__bss_end+0x1909504>
    31b8:	00000ccb 	andeq	r0, r0, fp, asr #25
    31bc:	106aef03 	rsbne	lr, sl, r3, lsl #30
    31c0:	23020000 	movwcs	r0, #8192	; 0x2000
    31c4:	08f80b68 	ldmeq	r8!, {r3, r5, r6, r8, r9, fp}^
    31c8:	f0030000 			; <UNDEFINED> instruction: 0xf0030000
    31cc:	0000106a 	andeq	r1, r0, sl, rrx
    31d0:	0b6c2302 	bleq	1b0bde0 <__bss_end+0x1b09520>
    31d4:	00000a7d 	andeq	r0, r0, sp, ror sl
    31d8:	10a7f103 	adcne	pc, r7, r3, lsl #2
    31dc:	23020000 	movwcs	r0, #8192	; 0x2000
    31e0:	0d560b70 	vldreq	d16, [r6, #-448]	; 0xfffffe40
    31e4:	f2030000 	vhadd.s8	d0, d3, d0
    31e8:	0000106a 	andeq	r1, r0, sl, rrx
    31ec:	01802303 	orreq	r2, r0, r3, lsl #6
    31f0:	000cd40b 	andeq	sp, ip, fp, lsl #8
    31f4:	6af30300 	bvs	ffcc3dfc <__bss_end+0xffcc153c>
    31f8:	03000010 	movweq	r0, #16
    31fc:	0c018423 	cfstrseq	mvf8, [r1], {35}	; 0x23
    3200:	00306453 	eorseq	r6, r0, r3, asr r4
    3204:	106af403 	rsbne	pc, sl, r3, lsl #8
    3208:	23030000 	movwcs	r0, #12288	; 0x3000
    320c:	530c0188 	movwpl	r0, #49544	; 0xc188
    3210:	03003164 	movweq	r3, #356	; 0x164
    3214:	00106af5 			; <UNDEFINED> instruction: 0x00106af5
    3218:	8c230300 	stchi	3, cr0, [r3], #-0
    321c:	64530c01 	ldrbvs	r0, [r3], #-3073	; 0xc01
    3220:	f6030032 			; <UNDEFINED> instruction: 0xf6030032
    3224:	0000106a 	andeq	r1, r0, sl, rrx
    3228:	01902303 	orrseq	r2, r0, r3, lsl #6
    322c:	000cdf0b 	andeq	sp, ip, fp, lsl #30
    3230:	bcf70300 	ldcllt	3, cr0, [r7]
    3234:	03000010 	movweq	r0, #16
    3238:	0c019423 	cfstrseq	mvf9, [r1], {35}	; 0x23
    323c:	03007353 	movweq	r7, #851	; 0x353
    3240:	00106af8 			; <UNDEFINED> instruction: 0x00106af8
    3244:	9c230300 	stcls	3, cr0, [r3], #-0
    3248:	0af40b01 	beq	ffd05e54 <__bss_end+0xffd03594>
    324c:	f9030000 			; <UNDEFINED> instruction: 0xf9030000
    3250:	0000106a 	andeq	r1, r0, sl, rrx
    3254:	01a02303 	lsleq	r2, r3, #6
    3258:	000af90b 	andeq	pc, sl, fp, lsl #18
    325c:	6afa0300 	bvs	ffe83e64 <__bss_end+0xffe815a4>
    3260:	03000010 	movweq	r0, #16
    3264:	0b01a423 	bleq	6c2f8 <__bss_end+0x69a38>
    3268:	00000cea 	andeq	r0, r0, sl, ror #25
    326c:	10c1fb03 	sbcne	pc, r1, r3, lsl #22
    3270:	23030000 	movwcs	r0, #12288	; 0x3000
    3274:	900b01a8 	andls	r0, fp, r8, lsr #3
    3278:	03000003 	movweq	r0, #3
    327c:	00106afc 			; <UNDEFINED> instruction: 0x00106afc
    3280:	b0230300 	eorlt	r0, r3, r0, lsl #6
    3284:	03950b01 	orrseq	r0, r5, #1024	; 0x400
    3288:	fd030000 	stc2	0, cr0, [r3, #-0]
    328c:	0000106a 	andeq	r1, r0, sl, rrx
    3290:	01b42303 			; <UNDEFINED> instruction: 0x01b42303
    3294:	0007160b 	andeq	r1, r7, fp, lsl #12
    3298:	c6fe0300 	ldrbtgt	r0, [lr], r0, lsl #6
    329c:	03000010 	movweq	r0, #16
    32a0:	0b01b823 	bleq	71334 <__bss_end+0x6ea74>
    32a4:	00000b52 	andeq	r0, r0, r2, asr fp
    32a8:	106aff03 	rsbne	pc, sl, r3, lsl #30
    32ac:	23030000 	movwcs	r0, #12288	; 0x3000
    32b0:	260d01c0 	strcs	r0, [sp], -r0, asr #3
    32b4:	03000008 	movweq	r0, #8
    32b8:	10cb0100 	sbcne	r0, fp, r0, lsl #2
    32bc:	23030000 	movwcs	r0, #12288	; 0x3000
    32c0:	550e01c4 	strpl	r0, [lr, #-452]	; 0x1c4
    32c4:	03006273 	movweq	r6, #627	; 0x273
    32c8:	106a0101 	rsbne	r0, sl, r1, lsl #2
    32cc:	23030000 	movwcs	r0, #12288	; 0x3000
    32d0:	9d0d01cc 	stflss	f0, [sp, #-816]	; 0xfffffcd0
    32d4:	03000005 	movweq	r0, #5
    32d8:	106a0102 	rsbne	r0, sl, r2, lsl #2
    32dc:	23030000 	movwcs	r0, #12288	; 0x3000
    32e0:	380d01d0 	stmdacc	sp, {r4, r6, r7, r8}
    32e4:	03000007 	movweq	r0, #7
    32e8:	10e00103 	rscne	r0, r0, r3, lsl #2
    32ec:	23030000 	movwcs	r0, #12288	; 0x3000
    32f0:	1a0d01d4 	bne	343a48 <__bss_end+0x341188>
    32f4:	0300000d 	movweq	r0, #13
    32f8:	106a0104 	rsbne	r0, sl, r4, lsl #2
    32fc:	23030000 	movwcs	r0, #12288	; 0x3000
    3300:	cd0d01f0 	stfgts	f0, [sp, #-960]	; 0xfffffc40
    3304:	0300000b 	movweq	r0, #11
    3308:	106a0105 	rsbne	r0, sl, r5, lsl #2
    330c:	23030000 	movwcs	r0, #12288	; 0x3000
    3310:	750d01f4 	strvc	r0, [sp, #-500]	; 0x1f4
    3314:	03000007 	movweq	r0, #7
    3318:	106a0106 	rsbne	r0, sl, r6, lsl #2
    331c:	23030000 	movwcs	r0, #12288	; 0x3000
    3320:	ae0d01f8 	mcrge	1, 0, r0, cr13, cr8, {7}
    3324:	03000008 	movweq	r0, #8
    3328:	106a0107 	rsbne	r0, sl, r7, lsl #2
    332c:	23030000 	movwcs	r0, #12288	; 0x3000
    3330:	5b0d01fc 	blpl	343b28 <__bss_end+0x341268>
    3334:	03000009 	movweq	r0, #9
    3338:	106a0108 	rsbne	r0, sl, r8, lsl #2
    333c:	23030000 	movwcs	r0, #12288	; 0x3000
    3340:	420e0280 	andmi	r0, lr, #8
    3344:	03003065 	movweq	r3, #101	; 0x65
    3348:	106a0109 	rsbne	r0, sl, r9, lsl #2
    334c:	23030000 	movwcs	r0, #12288	; 0x3000
    3350:	680d0284 	stmdavs	sp, {r2, r7, r9}
    3354:	03000008 	movweq	r0, #8
    3358:	106a010a 	rsbne	r0, sl, sl, lsl #2
    335c:	23030000 	movwcs	r0, #12288	; 0x3000
    3360:	460e0288 	strmi	r0, [lr], -r8, lsl #5
    3364:	03003065 	movweq	r3, #101	; 0x65
    3368:	106a010b 	rsbne	r0, sl, fp, lsl #2
    336c:	23030000 	movwcs	r0, #12288	; 0x3000
    3370:	eb0d028c 	bl	343da8 <__bss_end+0x3414e8>
    3374:	03000002 	movweq	r0, #2
    3378:	106a010c 	rsbne	r0, sl, ip, lsl #2
    337c:	23030000 	movwcs	r0, #12288	; 0x3000
    3380:	f70d0290 			; <UNDEFINED> instruction: 0xf70d0290
    3384:	03000002 	movweq	r0, #2
    3388:	106a010d 	rsbne	r0, sl, sp, lsl #2
    338c:	23030000 	movwcs	r0, #12288	; 0x3000
    3390:	2f0d0294 	svccs	0x000d0294
    3394:	03000003 	movweq	r0, #3
    3398:	106a010e 	rsbne	r0, sl, lr, lsl #2
    339c:	23030000 	movwcs	r0, #12288	; 0x3000
    33a0:	030d0298 	movweq	r0, #53912	; 0xd298
    33a4:	03000003 	movweq	r0, #3
    33a8:	106a010f 	rsbne	r0, sl, pc, lsl #2
    33ac:	23030000 	movwcs	r0, #12288	; 0x3000
    33b0:	490d029c 	stmdbmi	sp, {r2, r3, r4, r7, r9}
    33b4:	03000007 	movweq	r0, #7
    33b8:	10f50110 	rscsne	r0, r5, r0, lsl r1
    33bc:	23030000 	movwcs	r0, #12288	; 0x3000
    33c0:	370d02a0 	strcc	r0, [sp, -r0, lsr #5]
    33c4:	03000003 	movweq	r0, #3
    33c8:	106a0111 	rsbne	r0, sl, r1, lsl r1
    33cc:	23030000 	movwcs	r0, #12288	; 0x3000
    33d0:	4f0d02ac 	svcmi	0x000d02ac
    33d4:	03000003 	movweq	r0, #3
    33d8:	106a0112 	rsbne	r0, sl, r2, lsl r1
    33dc:	23030000 	movwcs	r0, #12288	; 0x3000
    33e0:	a10d02b0 			; <UNDEFINED> instruction: 0xa10d02b0
    33e4:	0300000a 	movweq	r0, #10
    33e8:	106a0113 	rsbne	r0, sl, r3, lsl r1
    33ec:	23030000 	movwcs	r0, #12288	; 0x3000
    33f0:	5b0d02b4 	blpl	343ec8 <__bss_end+0x341608>
    33f4:	03000003 	movweq	r0, #3
    33f8:	106a0114 	rsbne	r0, sl, r4, lsl r1
    33fc:	23030000 	movwcs	r0, #12288	; 0x3000
    3400:	560e02b8 			; <UNDEFINED> instruction: 0x560e02b8
    3404:	15030065 	strne	r0, [r3, #-101]	; 0x65
    3408:	00106a01 	andseq	r6, r0, r1, lsl #20
    340c:	bc230300 	stclt	3, cr0, [r3], #-0
    3410:	06f30d02 	ldrbteq	r0, [r3], r2, lsl #26
    3414:	16030000 	strne	r0, [r3], -r0
    3418:	00106a01 	andseq	r6, r0, r1, lsl #20
    341c:	c0230300 	eorgt	r0, r3, r0, lsl #6
    3420:	76410e02 	strbvc	r0, [r1], -r2, lsl #28
    3424:	17030073 	smlsdxne	r3, r3, r0, r0
    3428:	00106a01 	andseq	r6, r0, r1, lsl #20
    342c:	c4230300 	strtgt	r0, [r3], #-768	; 0x300
    3430:	03670d02 	cmneq	r7, #128	; 0x80
    3434:	18030000 	stmdane	r3, {}	; <UNPREDICTABLE>
    3438:	00106a01 	andseq	r6, r0, r1, lsl #20
    343c:	c8230300 	stmdagt	r3!, {r8, r9}
    3440:	07540d02 	ldrbeq	r0, [r4, -r2, lsl #26]
    3444:	19030000 	stmdbne	r3, {}	; <UNPREDICTABLE>
    3448:	00106a01 	andseq	r6, r0, r1, lsl #20
    344c:	cc230300 	stcgt	3, cr0, [r3], #-0
    3450:	042a0d02 	strteq	r0, [sl], #-3330	; 0xd02
    3454:	1a030000 	bne	c345c <__bss_end+0xc0b9c>
    3458:	00106a01 	andseq	r6, r0, r1, lsl #20
    345c:	d0230300 	eorle	r0, r3, r0, lsl #6
    3460:	04360d02 	ldrteq	r0, [r6], #-3330	; 0xd02
    3464:	1b030000 	blne	c346c <__bss_end+0xc0bac>
    3468:	00106a01 	andseq	r6, r0, r1, lsl #20
    346c:	d4230300 	strtle	r0, [r3], #-768	; 0x300
    3470:	04420d02 	strbeq	r0, [r2], #-3330	; 0xd02
    3474:	1c030000 	stcne	0, cr0, [r3], {-0}
    3478:	00106a01 	andseq	r6, r0, r1, lsl #20
    347c:	d8230300 	stmdale	r3!, {r8, r9}
    3480:	04b80d02 	ldrteq	r0, [r8], #3330	; 0xd02
    3484:	1d030000 	stcne	0, cr0, [r3, #-0]
    3488:	00106a01 	andseq	r6, r0, r1, lsl #20
    348c:	dc230300 	stcle	3, cr0, [r3], #-0
    3490:	044e0d02 	strbeq	r0, [lr], #-3330	; 0xd02
    3494:	1e030000 	cdpne	0, 0, cr0, cr3, cr0, {0}
    3498:	00106a01 	andseq	r6, r0, r1, lsl #20
    349c:	e0230300 	eor	r0, r3, r0, lsl #6
    34a0:	075f0d02 	ldrbeq	r0, [pc, -r2, lsl #26]
    34a4:	1f030000 	svcne	0x00030000
    34a8:	00106a01 	andseq	r6, r0, r1, lsl #20
    34ac:	e4230300 	strt	r0, [r3], #-768	; 0x300
    34b0:	03d80d02 	bicseq	r0, r8, #128	; 0x80
    34b4:	20030000 	andcs	r0, r3, r0
    34b8:	00106a01 	andseq	r6, r0, r1, lsl #20
    34bc:	e8230300 	stmda	r3!, {r8, r9}
    34c0:	0c6f0d02 	stcleq	13, cr0, [pc], #-8	; 34c0 <__bss_end+0xc00>
    34c4:	21030000 	mrscs	r0, (UNDEF: 3)
    34c8:	00106a01 	andseq	r6, r0, r1, lsl #20
    34cc:	ec230300 	stc	3, cr0, [r3], #-0
    34d0:	076a0d02 	strbeq	r0, [sl, -r2, lsl #26]!
    34d4:	22030000 	andcs	r0, r3, #0
    34d8:	0010fa01 	andseq	pc, r0, r1, lsl #20
    34dc:	f0230300 			; <UNDEFINED> instruction: 0xf0230300
    34e0:	064e0d02 	strbeq	r0, [lr], -r2, lsl #26
    34e4:	23030000 	movwcs	r0, #12288	; 0x3000
    34e8:	00106a01 	andseq	r6, r0, r1, lsl #20
    34ec:	80230300 	eorhi	r0, r3, r0, lsl #6
    34f0:	05fd0d03 	ldrbeq	r0, [sp, #3331]!	; 0xd03
    34f4:	24030000 	strcs	r0, [r3], #-0
    34f8:	00106a01 	andseq	r6, r0, r1, lsl #20
    34fc:	84230300 	strthi	r0, [r3], #-768	; 0x300
    3500:	06090d03 	streq	r0, [r9], -r3, lsl #26
    3504:	25030000 	strcs	r0, [r3, #-0]
    3508:	00106a01 	andseq	r6, r0, r1, lsl #20
    350c:	88230300 	stmdahi	r3!, {r8, r9}
    3510:	06150d03 	ldreq	r0, [r5], -r3, lsl #26
    3514:	26030000 	strcs	r0, [r3], -r0
    3518:	00106a01 	andseq	r6, r0, r1, lsl #20
    351c:	8c230300 	stchi	3, cr0, [r3], #-0
    3520:	08520d03 	ldmdaeq	r2, {r0, r1, r8, sl, fp}^
    3524:	27030000 	strcs	r0, [r3, -r0]
    3528:	0010ff01 	andseq	pc, r0, r1, lsl #30
    352c:	90230300 	eorls	r0, r3, r0, lsl #6
    3530:	06460d03 	strbeq	r0, [r6], -r3, lsl #26
    3534:	28030000 	stmdacs	r3, {}	; <UNPREDICTABLE>
    3538:	00106a01 	andseq	r6, r0, r1, lsl #20
    353c:	a0230300 	eorge	r0, r3, r0, lsl #6
    3540:	058e0d03 	streq	r0, [lr, #3331]	; 0xd03
    3544:	29030000 	stmdbcs	r3, {}	; <UNPREDICTABLE>
    3548:	00106a01 	andseq	r6, r0, r1, lsl #20
    354c:	a4230300 	strtge	r0, [r3], #-768	; 0x300
    3550:	08bb0d03 	ldmeq	fp!, {r0, r1, r8, sl, fp}
    3554:	2a030000 	bcs	c355c <__bss_end+0xc0c9c>
    3558:	00106a01 	andseq	r6, r0, r1, lsl #20
    355c:	a8230300 	stmdage	r3!, {r8, r9}
    3560:	06710d03 	ldrbteq	r0, [r1], -r3, lsl #26
    3564:	2b030000 	blcs	c356c <__bss_end+0xc0cac>
    3568:	00106a01 	andseq	r6, r0, r1, lsl #20
    356c:	ac230300 	stcge	3, cr0, [r3], #-0
    3570:	74410e03 	strbvc	r0, [r1], #-3587	; 0xe03
    3574:	2c030073 	stccs	0, cr0, [r3], {115}	; 0x73
    3578:	00106a01 	andseq	r6, r0, r1, lsl #20
    357c:	b0230300 	eorlt	r0, r3, r0, lsl #6
    3580:	085d0d03 	ldmdaeq	sp, {r0, r1, r8, sl, fp}^
    3584:	2d030000 	stccs	0, cr0, [r3, #-0]
    3588:	00111401 	andseq	r1, r1, r1, lsl #8
    358c:	b4230300 	strtlt	r0, [r3], #-768	; 0x300
    3590:	06210d03 	strteq	r0, [r1], -r3, lsl #26
    3594:	2e030000 	cdpcs	0, 0, cr0, cr3, cr0, {0}
    3598:	00111901 	andseq	r1, r1, r1, lsl #18
    359c:	80230300 	eorhi	r0, r3, r0, lsl #6
    35a0:	09190d04 	ldmdbeq	r9, {r2, r8, sl, fp}
    35a4:	2f030000 	svccs	0x00030000
    35a8:	00106a01 	andseq	r6, r0, r1, lsl #20
    35ac:	84230300 	strthi	r0, [r3], #-768	; 0x300
    35b0:	0cac0d04 	stceq	13, cr0, [ip], #16
    35b4:	30030000 	andcc	r0, r3, r0
    35b8:	00112e01 	andseq	r2, r1, r1, lsl #28
    35bc:	88230300 	stmdahi	r3!, {r8, r9}
    35c0:	07cd0d04 	strbeq	r0, [sp, r4, lsl #26]
    35c4:	31030000 	mrscc	r0, (UNDEF: 3)
    35c8:	00114301 	andseq	r4, r1, r1, lsl #6
    35cc:	a0230300 	eorge	r0, r3, r0, lsl #6
    35d0:	04050d04 	streq	r0, [r5], #-3332	; 0xd04
    35d4:	32030000 	andcc	r0, r3, #0
    35d8:	00106a01 	andseq	r6, r0, r1, lsl #20
    35dc:	a4230300 	strtge	r0, [r3], #-768	; 0x300
    35e0:	06de0d04 	ldrbeq	r0, [lr], r4, lsl #26
    35e4:	33030000 	movwcc	r0, #12288	; 0x3000
    35e8:	00106a01 	andseq	r6, r0, r1, lsl #20
    35ec:	a8230300 	stmdage	r3!, {r8, r9}
    35f0:	08140d04 	ldmdaeq	r4, {r2, r8, sl, fp}
    35f4:	34030000 	strcc	r0, [r3], #-0
    35f8:	00106a01 	andseq	r6, r0, r1, lsl #20
    35fc:	ac230300 	stcge	3, cr0, [r3], #-0
    3600:	09220d04 	stmdbeq	r2!, {r2, r8, sl, fp}
    3604:	35030000 	strcc	r0, [r3, #-0]
    3608:	00106a01 	andseq	r6, r0, r1, lsl #20
    360c:	b0230300 	eorlt	r0, r3, r0, lsl #6
    3610:	0b340d04 	bleq	d06a28 <__bss_end+0xd04168>
    3614:	36030000 	strcc	r0, [r3], -r0
    3618:	00106a01 	andseq	r6, r0, r1, lsl #20
    361c:	b4230300 	strtlt	r0, [r3], #-768	; 0x300
    3620:	05360d04 	ldreq	r0, [r6, #-3332]!	; 0xd04
    3624:	37030000 	strcc	r0, [r3, -r0]
    3628:	00106a01 	andseq	r6, r0, r1, lsl #20
    362c:	b8230300 	stmdalt	r3!, {r8, r9}
    3630:	05720d04 	ldrbeq	r0, [r2, #-3332]!	; 0xd04
    3634:	38030000 	stmdacc	r3, {}	; <UNPREDICTABLE>
    3638:	00106a01 	andseq	r6, r0, r1, lsl #20
    363c:	bc230300 	stclt	3, cr0, [r3], #-0
    3640:	07d60d04 	ldrbeq	r0, [r6, r4, lsl #26]
    3644:	39030000 	stmdbcc	r3, {}	; <UNPREDICTABLE>
    3648:	00106a01 	andseq	r6, r0, r1, lsl #20
    364c:	c0230300 	eorgt	r0, r3, r0, lsl #6
    3650:	048e0d04 	streq	r0, [lr], #3332	; 0xd04
    3654:	3a030000 	bcc	c365c <__bss_end+0xc0d9c>
    3658:	00106a01 	andseq	r6, r0, r1, lsl #20
    365c:	c4230300 	strtgt	r0, [r3], #-768	; 0x300
    3660:	096f0d04 	stmdbeq	pc!, {r2, r8, sl, fp}^	; <UNPREDICTABLE>
    3664:	3b030000 	blcc	c366c <__bss_end+0xc0dac>
    3668:	00106a01 	andseq	r6, r0, r1, lsl #20
    366c:	c8230300 	stmdagt	r3!, {r8, r9}
    3670:	0b9e0d04 	bleq	fe786a88 <__bss_end+0xfe7841c8>
    3674:	3c030000 	stccc	0, cr0, [r3], {-0}
    3678:	00106a01 	andseq	r6, r0, r1, lsl #20
    367c:	cc230300 	stcgt	3, cr0, [r3], #-0
    3680:	04b00d04 	ldrteq	r0, [r0], #3332	; 0xd04
    3684:	3d030000 	stccc	0, cr0, [r3, #-0]
    3688:	00106a01 	andseq	r6, r0, r1, lsl #20
    368c:	d0230300 	eorle	r0, r3, r0, lsl #6
    3690:	05420d04 	strbeq	r0, [r2, #-3332]	; 0xd04
    3694:	3e030000 	cdpcc	0, 0, cr0, cr3, cr0, {0}
    3698:	00114801 	andseq	r4, r1, r1, lsl #16
    369c:	d4230300 	strtle	r0, [r3], #-768	; 0x300
    36a0:	081e0d04 	ldmdaeq	lr, {r2, r8, sl, fp}
    36a4:	3f030000 	svccc	0x00030000
    36a8:	00106a01 	andseq	r6, r0, r1, lsl #20
    36ac:	e0230300 	eor	r0, r3, r0, lsl #6
    36b0:	054e0d04 	strbeq	r0, [lr, #-3332]	; 0xd04
    36b4:	40030000 	andmi	r0, r3, r0
    36b8:	00114d01 	andseq	r4, r1, r1, lsl #26
    36bc:	e4230300 	strt	r0, [r3], #-768	; 0x300
    36c0:	07ee0d04 	strbeq	r0, [lr, r4, lsl #26]!
    36c4:	41030000 	mrsmi	r0, (UNDEF: 3)
    36c8:	00106a01 	andseq	r6, r0, r1, lsl #20
    36cc:	f0230300 			; <UNDEFINED> instruction: 0xf0230300
    36d0:	055a0d04 	ldrbeq	r0, [sl, #-3332]	; 0xd04
    36d4:	42030000 	andmi	r0, r3, #0
    36d8:	00115201 	andseq	r5, r1, r1, lsl #4
    36dc:	f4230300 	vld2.8	{d0-d3}, [r3], r0
    36e0:	07e20d04 	strbeq	r0, [r2, r4, lsl #26]!
    36e4:	43030000 	movwmi	r0, #12288	; 0x3000
    36e8:	00106a01 	andseq	r6, r0, r1, lsl #20
    36ec:	80230300 	eorhi	r0, r3, r0, lsl #6
    36f0:	0add0d05 	beq	ff746b0c <__bss_end+0xff74424c>
    36f4:	44030000 	strmi	r0, [r3], #-0
    36f8:	00106a01 	andseq	r6, r0, r1, lsl #20
    36fc:	84230300 	strthi	r0, [r3], #-768	; 0x300
    3700:	0c8f0d05 	stceq	13, cr0, [pc], {5}
    3704:	45030000 	strmi	r0, [r3, #-0]
    3708:	00106a01 	andseq	r6, r0, r1, lsl #20
    370c:	88230300 	stmdahi	r3!, {r8, r9}
    3710:	0c9f0d05 	ldceq	13, cr0, [pc], {5}
    3714:	46030000 	strmi	r0, [r3], -r0
    3718:	00106a01 	andseq	r6, r0, r1, lsl #20
    371c:	8c230300 	stchi	3, cr0, [r3], #-0
    3720:	02910d05 	addseq	r0, r1, #320	; 0x140
    3724:	47030000 	strmi	r0, [r3, -r0]
    3728:	00106a01 	andseq	r6, r0, r1, lsl #20
    372c:	90230300 	eorls	r0, r3, r0, lsl #6
    3730:	0b070d05 	bleq	1c6b4c <__bss_end+0x1c428c>
    3734:	48030000 	stmdami	r3, {}	; <UNPREDICTABLE>
    3738:	00115701 	andseq	r5, r1, r1, lsl #14
    373c:	94230300 	strtls	r0, [r3], #-768	; 0x300
    3740:	04800d05 	streq	r0, [r0], #3333	; 0xd05
    3744:	49030000 	stmdbmi	r3, {}	; <UNPREDICTABLE>
    3748:	00106a01 	andseq	r6, r0, r1, lsl #20
    374c:	9c230300 	stcls	3, cr0, [r3], #-0
    3750:	07880d05 	streq	r0, [r8, r5, lsl #26]
    3754:	4a030000 	bmi	c375c <__bss_end+0xc0e9c>
    3758:	00106a01 	andseq	r6, r0, r1, lsl #20
    375c:	a0230300 	eorge	r0, r3, r0, lsl #6
    3760:	045a0d05 	ldrbeq	r0, [sl], #-3333	; 0xd05
    3764:	4b030000 	blmi	c376c <__bss_end+0xc0eac>
    3768:	00106a01 	andseq	r6, r0, r1, lsl #20
    376c:	a4230300 	strtge	r0, [r3], #-768	; 0x300
    3770:	0a870d05 	beq	fe1c6b8c <__bss_end+0xfe1c42cc>
    3774:	4c030000 	stcmi	0, cr0, [r3], {-0}
    3778:	00106a01 	andseq	r6, r0, r1, lsl #20
    377c:	a8230300 	stmdage	r3!, {r8, r9}
    3780:	0c470d05 	mcrreq	13, 0, r0, r7, cr5
    3784:	4d030000 	stcmi	0, cr0, [r3, #-0]
    3788:	00106a01 	andseq	r6, r0, r1, lsl #20
    378c:	ac230300 	stcge	3, cr0, [r3], #-0
    3790:	0c5b0d05 	mrrceq	13, 0, r0, fp, cr5
    3794:	4e030000 	cdpmi	0, 0, cr0, cr3, cr0, {0}
    3798:	00106a01 	andseq	r6, r0, r1, lsl #20
    379c:	b0230300 	eorlt	r0, r3, r0, lsl #6
    37a0:	05660d05 	strbeq	r0, [r6, #-3333]!	; 0xd05
    37a4:	4f030000 	svcmi	0x00030000
    37a8:	00115c01 	andseq	r5, r1, r1, lsl #24
    37ac:	b4230300 	strtlt	r0, [r3], #-768	; 0x300
    37b0:	08c90d05 	stmiaeq	r9, {r0, r2, r8, sl, fp}^
    37b4:	50030000 	andpl	r0, r3, r0
    37b8:	00106a01 	andseq	r6, r0, r1, lsl #20
    37bc:	c0230300 	eorgt	r0, r3, r0, lsl #6
    37c0:	08d30d05 	ldmeq	r3, {r0, r2, r8, sl, fp}^
    37c4:	51030000 	mrspl	r0, (UNDEF: 3)
    37c8:	00106a01 	andseq	r6, r0, r1, lsl #20
    37cc:	c4230300 	strtgt	r0, [r3], #-768	; 0x300
    37d0:	08dd0d05 	ldmeq	sp, {r0, r2, r8, sl, fp}^
    37d4:	52030000 	andpl	r0, r3, #0
    37d8:	00106a01 	andseq	r6, r0, r1, lsl #20
    37dc:	c8230300 	stmdagt	r3!, {r8, r9}
    37e0:	07fe0d05 	ldrbeq	r0, [lr, r5, lsl #26]!
    37e4:	53030000 	movwpl	r0, #12288	; 0x3000
    37e8:	00106a01 	andseq	r6, r0, r1, lsl #20
    37ec:	cc230300 	stcgt	3, cr0, [r3], #-0
    37f0:	0a1c0d05 	beq	706c0c <__bss_end+0x70434c>
    37f4:	54030000 	strpl	r0, [r3], #-0
    37f8:	00106a01 	andseq	r6, r0, r1, lsl #20
    37fc:	d0230300 	eorle	r0, r3, r0, lsl #6
    3800:	08090d05 	stmdaeq	r9, {r0, r2, r8, sl, fp}
    3804:	55030000 	strpl	r0, [r3, #-0]
    3808:	00106a01 	andseq	r6, r0, r1, lsl #20
    380c:	d4230300 	strtle	r0, [r3], #-768	; 0x300
    3810:	05cc0d05 	strbeq	r0, [ip, #3333]	; 0xd05
    3814:	56030000 	strpl	r0, [r3], -r0
    3818:	00106a01 	andseq	r6, r0, r1, lsl #20
    381c:	d8230300 	stmdale	r3!, {r8, r9}
    3820:	780f0005 	stmdavc	pc, {r0, r2}	; <UNPREDICTABLE>
    3824:	0f000001 	svceq	0x00000001
    3828:	00000053 	andeq	r0, r0, r3, asr r0
    382c:	00024b0f 	andeq	r4, r2, pc, lsl #22
    3830:	03400f00 	movteq	r0, #3840	; 0xf00
    3834:	570f0000 	strpl	r0, [pc, -r0]
    3838:	0f000004 	svceq	0x00000004
    383c:	0000053b 	andeq	r0, r0, fp, lsr r5
    3840:	0006960f 	andeq	r9, r6, pc, lsl #12
    3844:	072f0f00 	streq	r0, [pc, -r0, lsl #30]!
    3848:	be0f0000 	cdplt	0, 0, cr0, cr15, cr0, {0}
    384c:	0f000007 	svceq	0x00000007
    3850:	0000083c 	andeq	r0, r0, ip, lsr r8
    3854:	00005310 	andeq	r5, r0, r0, lsl r3
    3858:	0010a700 	andseq	sl, r0, r0, lsl #14
    385c:	005e1100 	subseq	r1, lr, r0, lsl #2
    3860:	00030000 	andeq	r0, r3, r0
    3864:	0010970f 	andseq	r9, r0, pc, lsl #14
    3868:	00531000 	subseq	r1, r3, r0
    386c:	10bc0000 	adcsne	r0, ip, r0
    3870:	5e110000 	cdppl	0, 1, cr0, cr1, cr0, {0}
    3874:	01000000 	mrseq	r0, (UNDEF: 0)
    3878:	10ac0f00 	adcne	r0, ip, r0, lsl #30
    387c:	ac0f0000 	stcge	0, cr0, [pc], {-0}
    3880:	0f000010 	svceq	0x00000010
    3884:	000010ac 	andeq	r1, r0, ip, lsr #1
    3888:	0010ac0f 	andseq	sl, r0, pc, lsl #24
    388c:	00531000 	subseq	r1, r3, r0
    3890:	10e00000 	rscne	r0, r0, r0
    3894:	5e110000 	cdppl	0, 1, cr0, cr1, cr0, {0}
    3898:	06000000 	streq	r0, [r0], -r0
    389c:	10d00f00 	sbcsne	r0, r0, r0, lsl #30
    38a0:	53100000 	tstpl	r0, #0
    38a4:	f5000000 			; <UNDEFINED> instruction: 0xf5000000
    38a8:	11000010 	tstne	r0, r0, lsl r0
    38ac:	0000005e 	andeq	r0, r0, lr, asr r0
    38b0:	e50f0002 	str	r0, [pc, #-2]	; 38b6 <__bss_end+0xff6>
    38b4:	0f000010 	svceq	0x00000010
    38b8:	00001097 	muleq	r0, r7, r0
    38bc:	0010970f 	andseq	r9, r0, pc, lsl #14
    38c0:	00531000 	subseq	r1, r3, r0
    38c4:	11140000 	tstne	r4, r0
    38c8:	5e110000 	cdppl	0, 1, cr0, cr1, cr0, {0}
    38cc:	12000000 	andne	r0, r0, #0
    38d0:	11040f00 	tstne	r4, r0, lsl #30
    38d4:	760f0000 	strvc	r0, [pc], -r0
    38d8:	10000008 	andne	r0, r0, r8
    38dc:	00000053 	andeq	r0, r0, r3, asr r0
    38e0:	0000112e 	andeq	r1, r0, lr, lsr #2
    38e4:	00005e11 	andeq	r5, r0, r1, lsl lr
    38e8:	0f000500 	svceq	0x00000500
    38ec:	0000111e 	andeq	r1, r0, lr, lsl r1
    38f0:	00005310 	andeq	r5, r0, r0, lsl r3
    38f4:	00114300 	andseq	r4, r1, r0, lsl #6
    38f8:	005e1100 	subseq	r1, lr, r0, lsl #2
    38fc:	00000000 	andeq	r0, r0, r0
    3900:	0011330f 	andseq	r3, r1, pc, lsl #6
    3904:	10e50f00 	rscne	r0, r5, r0, lsl #30
    3908:	e50f0000 	str	r0, [pc, #-0]	; 3910 <__bss_end+0x1050>
    390c:	0f000010 	svceq	0x00000010
    3910:	000010e5 	andeq	r1, r0, r5, ror #1
    3914:	0010ac0f 	andseq	sl, r0, pc, lsl #24
    3918:	10e50f00 	rscne	r0, r5, r0, lsl #30
    391c:	81120000 	tsthi	r2, r0
    3920:	0300000b 	movweq	r0, #11
    3924:	08810157 	stmeq	r1, {r0, r1, r2, r4, r6, r8}
    3928:	04130000 	ldreq	r0, [r3], #-0
    392c:	00001161 	andeq	r1, r0, r1, ror #2
    3930:	47070402 	strmi	r0, [r7, -r2, lsl #8]
    3934:	14000000 	strne	r0, [r0], #-0
    3938:	00001376 	andeq	r1, r0, r6, ror r3
    393c:	53011f01 	movwpl	r1, #7937	; 0x1f01
    3940:	01000000 	mrseq	r0, (UNDEF: 0)
    3944:	000011d7 	ldrdeq	r1, [r0], -r7
    3948:	00141f15 	andseq	r1, r4, r5, lsl pc
    394c:	531f0100 	tstpl	pc, #0
    3950:	16000000 	strne	r0, [r0], -r0
    3954:	000013e5 	andeq	r1, r0, r5, ror #7
    3958:	00532101 	subseq	r2, r3, r1, lsl #2
    395c:	fe160000 	cdp2	0, 1, cr0, cr6, cr0, {0}
    3960:	01000013 	tsteq	r0, r3, lsl r0
    3964:	00005322 	andeq	r5, r0, r2, lsr #6
    3968:	65721700 	ldrbvs	r1, [r2, #-1792]!	; 0x700
    396c:	23010067 	movwcs	r0, #4199	; 0x1067
    3970:	000011d7 	ldrdeq	r1, [r0], -r7
    3974:	00141716 	andseq	r1, r4, r6, lsl r7
    3978:	6d240100 	stfvss	f0, [r4, #-0]
    397c:	16000011 			; <UNDEFINED> instruction: 0x16000011
    3980:	000014b7 			; <UNDEFINED> instruction: 0x000014b7
    3984:	00532501 	subseq	r2, r3, r1, lsl #10
    3988:	69170000 	ldmdbvs	r7, {}	; <UNPREDICTABLE>
    398c:	53260100 	teqpl	r6, #0
    3990:	00000000 	andeq	r0, r0, r0
    3994:	11dd0413 	bicsne	r0, sp, r3, lsl r4
    3998:	5e0f0000 	cdppl	0, 0, cr0, cr15, cr0, {0}
    399c:	18000000 	stmdane	r0, {}	; <UNPREDICTABLE>
    39a0:	00001385 	andeq	r1, r0, r5, lsl #7
    39a4:	0101e701 	tsteq	r1, r1, lsl #14
    39a8:	0000121a 	andeq	r1, r0, sl, lsl r2
    39ac:	00141f15 	andseq	r1, r4, r5, lsl pc
    39b0:	53e70100 	mvnpl	r0, #0
    39b4:	16000000 	strne	r0, [r0], -r0
    39b8:	000014b7 			; <UNDEFINED> instruction: 0x000014b7
    39bc:	0053e901 	subseq	lr, r3, r1, lsl #18
    39c0:	69170000 	ldmdbvs	r7, {}	; <UNPREDICTABLE>
    39c4:	53ea0100 	mvnpl	r0, #0
    39c8:	17000000 	strne	r0, [r0, -r0]
    39cc:	00676572 	rsbeq	r6, r7, r2, ror r5
    39d0:	11d7eb01 	bicsne	lr, r7, r1, lsl #22
    39d4:	19000000 	stmdbne	r0, {}	; <UNPREDICTABLE>
    39d8:	0000148b 	andeq	r1, r0, fp, lsl #9
    39dc:	01011c01 	tsteq	r1, r1, lsl #24
    39e0:	00123301 	andseq	r3, r2, r1, lsl #6
    39e4:	00631a00 	rsbeq	r1, r3, r0, lsl #20
    39e8:	33011c01 	movwcc	r1, #7169	; 0x1c01
    39ec:	00000012 	andeq	r0, r0, r2, lsl r0
    39f0:	d8080102 	stmdale	r8, {r1, r8}
    39f4:	1b000000 	blne	39fc <__bss_end+0x113c>
    39f8:	000014a1 	andeq	r1, r0, r1, lsr #9
    39fc:	01012401 	tsteq	r1, r1, lsl #8
    3a00:	00001233 	andeq	r1, r0, r3, lsr r2
    3a04:	00125901 	andseq	r5, r2, r1, lsl #18
    3a08:	13ad1c00 			; <UNDEFINED> instruction: 0x13ad1c00
    3a0c:	26010000 	strcs	r0, [r1], -r0
    3a10:	00005301 	andeq	r5, r0, r1, lsl #6
    3a14:	ee190000 	cdp	0, 1, cr0, cr9, cr0, {0}
    3a18:	01000013 	tsteq	r0, r3, lsl r0
    3a1c:	01010182 	smlabbeq	r1, r2, r1, r0
    3a20:	00001272 	andeq	r1, r0, r2, ror r2
    3a24:	0100631a 	tsteq	r0, sl, lsl r3
    3a28:	12330182 	eorsne	r0, r3, #-2147483616	; 0x80000020
    3a2c:	1b000000 	blne	3a34 <__bss_end+0x1174>
    3a30:	000013c3 	andeq	r1, r0, r3, asr #7
    3a34:	01018a01 	tsteq	r1, r1, lsl #20
    3a38:	00001233 	andeq	r1, r0, r3, lsr r2
    3a3c:	00129101 	andseq	r9, r2, r1, lsl #2
    3a40:	13ad1c00 			; <UNDEFINED> instruction: 0x13ad1c00
    3a44:	8c010000 	stchi	0, cr0, [r1], {-0}
    3a48:	00005301 	andeq	r5, r0, r1, lsl #6
    3a4c:	7a1d0000 	bvc	743a54 <__bss_end+0x741194>
    3a50:	1c000011 	stcne	0, cr0, [r0], {17}
    3a54:	dc00000f 	stcle	0, cr0, [r0], {15}
    3a58:	e600000f 	str	r0, [r0], -pc
    3a5c:	20000005 	andcs	r0, r0, r5
    3a60:	1e000013 	mcrne	0, 0, r0, cr0, cr3, {0}
    3a64:	0000118b 	andeq	r1, r0, fp, lsl #3
    3a68:	00000606 	andeq	r0, r0, r6, lsl #12
    3a6c:	0011961f 	andseq	r9, r1, pc, lsl r6
    3a70:	00062400 	andeq	r2, r6, r0, lsl #8
    3a74:	11a11f00 			; <UNDEFINED> instruction: 0x11a11f00
    3a78:	06430000 	strbeq	r0, [r3], -r0
    3a7c:	ac1f0000 	ldcge	0, cr0, [pc], {-0}
    3a80:	61000011 	tstvs	r0, r1, lsl r0
    3a84:	1f000006 	svcne	0x00000006
    3a88:	000011b7 			; <UNDEFINED> instruction: 0x000011b7
    3a8c:	00000689 	andeq	r0, r0, r9, lsl #13
    3a90:	0011c220 	andseq	ip, r1, r0, lsr #4
    3a94:	cd200000 	stcgt	0, cr0, [r0, #-0]
    3a98:	00000011 	andeq	r0, r0, r1, lsl r0
    3a9c:	00117a21 	andseq	r7, r1, r1, lsr #20
    3aa0:	000f6400 	andeq	r6, pc, r0, lsl #8
    3aa4:	00000000 	andeq	r0, r0, r0
    3aa8:	221f0100 	andscs	r0, pc, #0
    3aac:	00000018 	andeq	r0, r0, r8, lsl r0
    3ab0:	00119623 	andseq	r9, r1, r3, lsr #12
    3ab4:	11a12300 			; <UNDEFINED> instruction: 0x11a12300
    3ab8:	ac240000 	stcge	0, cr0, [r4], #-0
    3abc:	d8000011 	stmdale	r0, {r0, r4}
    3ac0:	7f8e8885 	svcvc	0x008e8885
    3ac4:	0011b723 	andseq	fp, r1, r3, lsr #14
    3ac8:	118b2500 	orrne	r2, fp, r0, lsl #10
    3acc:	c2200000 	eorgt	r0, r0, #0
    3ad0:	00000011 	andeq	r0, r0, r1, lsl r0
    3ad4:	0011cd20 	andseq	ip, r1, r0, lsr #26
    3ad8:	00000000 	andeq	r0, r0, r0
    3adc:	d3012600 	movwle	r2, #5632	; 0x1600
    3ae0:	01000013 	tsteq	r0, r3, lsl r0
    3ae4:	0fdc01fe 	svceq	0x00dc01fe
    3ae8:	107c0000 	rsbsne	r0, ip, r0
    3aec:	06a70000 	strteq	r0, [r7], r0
    3af0:	139b0000 	orrsne	r0, fp, #0
    3af4:	64270000 	strtvs	r0, [r7], #-0
    3af8:	00010066 	andeq	r0, r1, r6, rrx
    3afc:	00005301 	andeq	r5, r0, r1, lsl #6
    3b00:	0006c700 	andeq	ip, r6, r0, lsl #14
    3b04:	636c2700 	cmnvs	ip, #0
    3b08:	01010072 	tsteq	r1, r2, ror r0
    3b0c:	00005301 	andeq	r5, r0, r1, lsl #6
    3b10:	0006de00 	andeq	sp, r6, r0, lsl #28
    3b14:	13fe2800 	mvnsne	r2, #0
    3b18:	02010000 	andeq	r0, r1, #0
    3b1c:	00005301 	andeq	r5, r0, r1, lsl #6
    3b20:	0006f100 	andeq	pc, r6, r0, lsl #2
    3b24:	11e22900 	mvnne	r2, r0, lsl #18
    3b28:	0fe00000 	svceq	0x00e00000
    3b2c:	00300000 	eorseq	r0, r0, r0
    3b30:	04010000 	streq	r0, [r1], #-0
    3b34:	11ef2a01 	mvnne	r2, r1, lsl #20
    3b38:	22000000 	andcs	r0, r0, #0
    3b3c:	00000048 	andeq	r0, r0, r8, asr #32
    3b40:	00120e2b 	andseq	r0, r2, fp, lsr #28
    3b44:	c208b400 	andgt	fp, r8, #0
    3b48:	11fa2001 	mvnsne	r2, r1
    3b4c:	20000000 	andcs	r0, r0, r0
    3b50:	00001205 	andeq	r1, r0, r5, lsl #4
    3b54:	00000000 	andeq	r0, r0, r0
    3b58:	1364012c 	cmnne	r4, #11
    3b5c:	2d010000 	stccs	0, cr0, [r1, #-0]
    3b60:	00410101 	subeq	r0, r1, r1, lsl #2
    3b64:	107c0000 	rsbsne	r0, ip, r0
    3b68:	110c0000 	mrsne	r0, (UNDEF: 12)
    3b6c:	07130000 	ldreq	r0, [r3, -r0]
    3b70:	13fe0000 	mvnsne	r0, #0
    3b74:	ef2d0000 	svc	0x002d0000
    3b78:	01000014 	tsteq	r0, r4, lsl r0
    3b7c:	13fe012d 	mvnsne	r0, #1073741835	; 0x4000000b
    3b80:	07330000 	ldreq	r0, [r3, -r0]!
    3b84:	1a2e0000 	bne	b83b8c <__bss_end+0xb812cc>
    3b88:	a0000012 	andge	r0, r0, r2, lsl r0
    3b8c:	60000010 	andvs	r0, r0, r0, lsl r0
    3b90:	01000000 	mrseq	r0, (UNDEF: 0)
    3b94:	13e3013b 	mvnne	r0, #-1073741810	; 0xc000000e
    3b98:	28250000 	stmdacs	r5!, {}	; <UNPREDICTABLE>
    3b9c:	00000012 	andeq	r0, r0, r2, lsl r0
    3ba0:	00121a2f 	andseq	r1, r2, pc, lsr #20
    3ba4:	0010bc00 	andseq	fp, r0, r0, lsl #24
    3ba8:	0010d400 	andseq	sp, r0, r0, lsl #8
    3bac:	013d0100 	teqeq	sp, r0, lsl #2
    3bb0:	0012281e 	andseq	r2, r2, lr, lsl r8
    3bb4:	00075e00 	andeq	r5, r7, r0, lsl #28
    3bb8:	13000000 	movwne	r0, #0
    3bbc:	00140404 	andseq	r0, r4, r4, lsl #8
    3bc0:	12333000 	eorsne	r3, r3, #0
    3bc4:	012c0000 	teqeq	ip, r0
    3bc8:	00001428 	andeq	r1, r0, r8, lsr #8
    3bcc:	01014301 	tsteq	r1, r1, lsl #6
    3bd0:	00000053 	andeq	r0, r0, r3, asr r0
    3bd4:	0000110c 	andeq	r1, r0, ip, lsl #2
    3bd8:	00001198 	muleq	r0, r8, r1
    3bdc:	00000771 	andeq	r0, r0, r1, ror r7
    3be0:	0000147e 	andeq	r1, r0, lr, ror r4
    3be4:	66756231 			; <UNDEFINED> instruction: 0x66756231
    3be8:	01430100 	mrseq	r0, (UNDEF: 83)
    3bec:	0000147e 	andeq	r1, r0, lr, ror r4
    3bf0:	00000791 	muleq	r0, r1, r7
    3bf4:	01006e32 	tsteq	r0, r2, lsr lr
    3bf8:	00530143 	subseq	r0, r3, r3, asr #2
    3bfc:	51010000 	mrspl	r0, (UNDEF: 1)
    3c00:	01006927 	tsteq	r0, r7, lsr #18
    3c04:	00530145 	subseq	r0, r3, r5, asr #2
    3c08:	07a40000 	streq	r0, [r4, r0]!
    3c0c:	63330000 	teqvs	r3, #0
    3c10:	01460100 	mrseq	r0, (UNDEF: 86)
    3c14:	00001233 	andeq	r1, r0, r3, lsr r2
    3c18:	3a295301 	bcc	a58824 <__bss_end+0xa55f64>
    3c1c:	38000012 	stmdacc	r0, {r1, r4}
    3c20:	80000011 	andhi	r0, r0, r1, lsl r0
    3c24:	01000000 	mrseq	r0, (UNDEF: 0)
    3c28:	a822014d 	stmdage	r2!, {r0, r2, r3, r6, r8}
    3c2c:	1f000000 	svcne	0x00000000
    3c30:	0000124c 	andeq	r1, r0, ip, asr #4
    3c34:	000007c3 	andeq	r0, r0, r3, asr #15
    3c38:	13000000 	movwne	r0, #0
    3c3c:	00123304 	andseq	r3, r2, r4, lsl #6
    3c40:	a1013400 	tstge	r1, r0, lsl #8
    3c44:	01000013 	tsteq	r0, r3, lsl r0
    3c48:	98010155 	stmdals	r1, {r0, r2, r4, r6, r8}
    3c4c:	38000011 	stmdacc	r0, {r0, r4}
    3c50:	ee000012 	mcr	0, 0, r0, cr0, cr2, {0}
    3c54:	01000007 	tsteq	r0, r7
    3c58:	28000015 	stmdacs	r0, {r0, r2, r4}
    3c5c:	000013fe 	strdeq	r1, [r0], -lr
    3c60:	53015801 	movwpl	r5, #6145	; 0x1801
    3c64:	0e000000 	cdpeq	0, 0, cr0, cr0, cr0, {0}
    3c68:	27000008 	strcs	r0, [r0, -r8]
    3c6c:	01006664 	tsteq	r0, r4, ror #12
    3c70:	00530159 	subseq	r0, r3, r9, asr r1
    3c74:	08300000 	ldmdaeq	r0!, {}	; <UNPREDICTABLE>
    3c78:	6c270000 	stcvs	0, cr0, [r7], #-0
    3c7c:	01007263 	tsteq	r0, r3, ror #4
    3c80:	0053015a 	subseq	r0, r3, sl, asr r1
    3c84:	08470000 	stmdaeq	r7, {}^	; <UNPREDICTABLE>
    3c88:	e2290000 	eor	r0, r9, #0
    3c8c:	9c000011 	stcls	0, cr0, [r0], {17}
    3c90:	d0000011 	andle	r0, r0, r1, lsl r0
    3c94:	01000000 	mrseq	r0, (UNDEF: 0)
    3c98:	ef2a015c 	svc	0x002a015c
    3c9c:	01000011 	tsteq	r0, r1, lsl r0
    3ca0:	0000e822 	andeq	lr, r0, r2, lsr #16
    3ca4:	120e2400 	andne	r2, lr, #0
    3ca8:	91b40000 			; <UNDEFINED> instruction: 0x91b40000
    3cac:	207f8e88 	rsbscs	r8, pc, r8, lsl #29
    3cb0:	000011fa 	strdeq	r1, [r0], -sl
    3cb4:	12052000 	andne	r2, r5, #0
    3cb8:	00000000 	andeq	r0, r0, r0
    3cbc:	01350000 	teqeq	r5, r0
    3cc0:	000014bc 			; <UNDEFINED> instruction: 0x000014bc
    3cc4:	01017301 	tsteq	r1, r1, lsl #6
    3cc8:	00001238 	andeq	r1, r0, r8, lsr r2
    3ccc:	0000126c 	andeq	r1, r0, ip, ror #4
    3cd0:	2c007d02 	stccs	13, cr7, [r0], {2}
    3cd4:	00145001 	andseq	r5, r4, r1
    3cd8:	019f0100 	orrseq	r0, pc, r0, lsl #2
    3cdc:	00004101 	andeq	r4, r0, r1, lsl #2
    3ce0:	00126c00 	andseq	r6, r2, r0, lsl #24
    3ce4:	0012fc00 	andseq	pc, r2, r0, lsl #24
    3ce8:	00085a00 	andeq	r5, r8, r0, lsl #20
    3cec:	00157900 	andseq	r7, r5, r0, lsl #18
    3cf0:	14ef2d00 	strbtne	r2, [pc], #3328	; 3cf8 <__bss_end+0x1438>
    3cf4:	9f010000 	svcls	0x00010000
    3cf8:	0013fe01 	andseq	pc, r3, r1, lsl #28
    3cfc:	00087a00 	andeq	r7, r8, r0, lsl #20
    3d00:	12592e00 	subsne	r2, r9, #0
    3d04:	12900000 	addsne	r0, r0, #0
    3d08:	01000000 	mrseq	r0, (UNDEF: 0)
    3d0c:	ad010000 	stcge	0, cr0, [r1, #-0]
    3d10:	00155e01 	andseq	r5, r5, r1, lsl #28
    3d14:	12672500 	rsbne	r2, r7, #0
    3d18:	2f000000 	svccs	0x00000000
    3d1c:	00001259 	andeq	r1, r0, r9, asr r2
    3d20:	000012ac 	andeq	r1, r0, ip, lsr #5
    3d24:	000012c4 	andeq	r1, r0, r4, asr #5
    3d28:	1e01af01 	cdpne	15, 0, cr10, cr1, cr1, {0}
    3d2c:	00001267 	andeq	r1, r0, r7, ror #4
    3d30:	000008a5 	andeq	r0, r0, r5, lsr #17
    3d34:	012c0000 	teqeq	ip, r0
    3d38:	00001395 	muleq	r0, r5, r3
    3d3c:	0101b601 	tsteq	r1, r1, lsl #12
    3d40:	00000053 	andeq	r0, r0, r3, asr r0
    3d44:	000012fc 	strdeq	r1, [r0], -ip
    3d48:	00001388 	andeq	r1, r0, r8, lsl #7
    3d4c:	000008b8 			; <UNDEFINED> instruction: 0x000008b8
    3d50:	000015ee 	andeq	r1, r0, lr, ror #11
    3d54:	66756231 			; <UNDEFINED> instruction: 0x66756231
    3d58:	01b60100 			; <UNDEFINED> instruction: 0x01b60100
    3d5c:	0000147e 	andeq	r1, r0, lr, ror r4
    3d60:	000008d8 	ldrdeq	r0, [r0], -r8
    3d64:	01006e32 	tsteq	r0, r2, lsr lr
    3d68:	005301b6 	ldrheq	r0, [r3], #-22	; 0xffffffea
    3d6c:	51010000 	mrspl	r0, (UNDEF: 1)
    3d70:	01006927 	tsteq	r0, r7, lsr #18
    3d74:	005301b8 	ldrheq	r0, [r3], #-24	; 0xffffffe8
    3d78:	08eb0000 	stmiaeq	fp!, {}^	; <UNPREDICTABLE>
    3d7c:	63330000 	teqvs	r3, #0
    3d80:	01b90100 			; <UNDEFINED> instruction: 0x01b90100
    3d84:	00001233 	andeq	r1, r0, r3, lsr r2
    3d88:	72295301 	eorvc	r5, r9, #67108864	; 0x4000000
    3d8c:	28000012 	stmdacs	r0, {r1, r4}
    3d90:	20000013 	andcs	r0, r0, r3, lsl r0
    3d94:	01000001 	tsteq	r0, r1
    3d98:	482201c0 	stmdami	r2!, {r6, r7, r8}
    3d9c:	1f000001 	svcne	0x00000001
    3da0:	00001284 	andeq	r1, r0, r4, lsl #5
    3da4:	0000090a 	andeq	r0, r0, sl, lsl #18
    3da8:	36000000 	strcc	r0, [r0], -r0
    3dac:	000014c8 	andeq	r1, r0, r8, asr #9
    3db0:	00531a01 	subseq	r1, r3, r1, lsl #20
    3db4:	03050000 	movweq	r0, #20480	; 0x5000
    3db8:	000025cc 	andeq	r2, r0, ip, asr #11
    3dbc:	00143a36 	andseq	r3, r4, r6, lsr sl
    3dc0:	531b0100 	tstpl	fp, #0
    3dc4:	05000000 	streq	r0, [r0, #-0]
    3dc8:	0025d003 	eoreq	sp, r5, r3
    3dcc:	13b23600 			; <UNDEFINED> instruction: 0x13b23600
    3dd0:	1c010000 	stcne	0, cr0, [r1], {-0}
    3dd4:	00000053 	andeq	r0, r0, r3, asr r0
    3dd8:	25d40305 	ldrbcs	r0, [r4, #773]	; 0x305
    3ddc:	04360000 	ldrteq	r0, [r6], #-0
    3de0:	01000014 	tsteq	r0, r4, lsl r0
    3de4:	0000531d 	andeq	r5, r0, sp, lsl r3
    3de8:	d8030500 	stmdale	r3, {r8, sl}
    3dec:	00000025 	andeq	r0, r0, r5, lsr #32
    3df0:	000007d3 	ldrdeq	r0, [r0], -r3
    3df4:	0b460002 	bleq	1183e04 <__bss_end+0x1181544>
    3df8:	01040000 	mrseq	r0, (UNDEF: 4)
    3dfc:	00000116 	andeq	r0, r0, r6, lsl r1
    3e00:	0014f601 	andseq	pc, r4, r1, lsl #12
    3e04:	00009300 	andeq	r9, r0, r0, lsl #6
    3e08:	00138800 	andseq	r8, r3, r0, lsl #16
    3e0c:	001b7400 	andseq	r7, fp, r0, lsl #8
    3e10:	000ab200 	andeq	fp, sl, r0, lsl #4
    3e14:	06010200 	streq	r0, [r1], -r0, lsl #4
    3e18:	000000d1 	ldrdeq	r0, [r0], -r1
    3e1c:	cf080102 	svcgt	0x00080102
    3e20:	02000000 	andeq	r0, r0, #0
    3e24:	014a0502 	cmpeq	sl, r2, lsl #10
    3e28:	02020000 	andeq	r0, r2, #0
    3e2c:	00010307 	andeq	r0, r1, r7, lsl #6
    3e30:	0f7f0300 	svceq	0x007f0300
    3e34:	12020000 	andne	r0, r2, #0
    3e38:	0000004c 	andeq	r0, r0, ip, asr #32
    3e3c:	69050404 	stmdbvs	r5, {r2, sl}
    3e40:	0200746e 	andeq	r7, r0, #1845493760	; 0x6e000000
    3e44:	004c0704 	subeq	r0, ip, r4, lsl #14
    3e48:	08020000 	stmdaeq	r2, {}	; <UNPREDICTABLE>
    3e4c:	00000005 	andeq	r0, r0, r5
    3e50:	07080200 	streq	r0, [r8, -r0, lsl #4]
    3e54:	00000042 	andeq	r0, r0, r2, asr #32
    3e58:	0014dd03 	andseq	sp, r4, r3, lsl #26
    3e5c:	53180200 	tstpl	r8, #0
    3e60:	02000000 	andeq	r0, r0, #0
    3e64:	00470704 	subeq	r0, r7, r4, lsl #14
    3e68:	04050000 	streq	r0, [r5], #-0
    3e6c:	00154103 	andseq	r4, r5, r3, lsl #2
    3e70:	87280300 	strhi	r0, [r8, -r0, lsl #6]!
    3e74:	06000000 	streq	r0, [r0], -r0
    3e78:	00001550 	andeq	r1, r0, r0, asr r5
    3e7c:	a1000404 	tstge	r0, r4, lsl #8
    3e80:	07000000 	streq	r0, [r0, -r0]
    3e84:	00001588 	andeq	r1, r0, r8, lsl #11
    3e88:	0000007a 	andeq	r0, r0, sl, ror r0
    3e8c:	01002302 	tsteq	r0, r2, lsl #6
    3e90:	15520300 	ldrbne	r0, [r2, #-768]	; 0x300
    3e94:	66030000 	strvs	r0, [r3], -r0
    3e98:	0000007c 	andeq	r0, r0, ip, ror r0
    3e9c:	00157208 	andseq	r7, r5, r8, lsl #4
    3ea0:	015b0100 	cmpeq	fp, r0, lsl #2
    3ea4:	000000ea 	andeq	r0, r0, sl, ror #1
    3ea8:	0000ea01 	andeq	lr, r0, r1, lsl #20
    3eac:	15360900 	ldrne	r0, [r6, #-2304]!	; 0x900
    3eb0:	5b010000 	blpl	43eb8 <__bss_end+0x415f8>
    3eb4:	000000ea 	andeq	r0, r0, sl, ror #1
    3eb8:	6372730a 	cmnvs	r2, #671088640	; 0x28000000
    3ebc:	f75b0100 			; <UNDEFINED> instruction: 0xf75b0100
    3ec0:	09000000 	stmdbeq	r0, {}	; <UNPREDICTABLE>
    3ec4:	00000fe5 	andeq	r0, r0, r5, ror #31
    3ec8:	00685b01 	rsbeq	r5, r8, r1, lsl #22
    3ecc:	740b0000 	strvc	r0, [fp], #-0
    3ed0:	0100706d 	tsteq	r0, sp, rrx
    3ed4:	0000ea5d 	andeq	lr, r0, sp, asr sl
    3ed8:	040c0000 	streq	r0, [ip], #-0
    3edc:	000000f0 	strdeq	r0, [r0], -r0	; <UNPREDICTABLE>
    3ee0:	d8080102 	stmdale	r8, {r1, r8}
    3ee4:	0c000000 	stceq	0, cr0, [r0], {-0}
    3ee8:	0000fd04 	andeq	pc, r0, r4, lsl #26
    3eec:	00f00d00 	rscseq	r0, r0, r0, lsl #26
    3ef0:	81080000 	mrshi	r0, (UNDEF: 8)
    3ef4:	01000015 	tsteq	r0, r5, lsl r0
    3ef8:	0068011d 	rsbeq	r0, r8, sp, lsl r1
    3efc:	27010000 	strcs	r0, [r1, -r0]
    3f00:	0a000001 	beq	3f0c <__bss_end+0x164c>
    3f04:	1d010073 	stcne	0, cr0, [r1, #-460]	; 0xfffffe34
    3f08:	000000f7 	strdeq	r0, [r0], -r7
    3f0c:	0063730b 	rsbeq	r7, r3, fp, lsl #6
    3f10:	00f71f01 	rscseq	r1, r7, r1, lsl #30
    3f14:	08000000 	stmdaeq	r0, {}	; <UNPREDICTABLE>
    3f18:	00001566 	andeq	r1, r0, r6, ror #10
    3f1c:	ea012e01 	b	4f728 <__bss_end+0x4ce68>
    3f20:	01000000 	mrseq	r0, (UNDEF: 0)
    3f24:	0000015a 	andeq	r0, r0, sl, asr r1
    3f28:	00153609 	andseq	r3, r5, r9, lsl #12
    3f2c:	ea2e0100 	b	b84334 <__bss_end+0xb81a74>
    3f30:	0a000000 	beq	3f38 <__bss_end+0x1678>
    3f34:	00637273 	rsbeq	r7, r3, r3, ror r2
    3f38:	00f72e01 	rscseq	r2, r7, r1, lsl #28
    3f3c:	740b0000 	strvc	r0, [fp], #-0
    3f40:	0100706d 	tsteq	r0, sp, rrx
    3f44:	0000ea30 	andeq	lr, r0, r0, lsr sl
    3f48:	6d080000 	stcvs	0, cr0, [r8, #-0]
    3f4c:	01000015 	tsteq	r0, r5, lsl r0
    3f50:	00ea019f 	smlaleq	r0, sl, pc, r1	; <UNPREDICTABLE>
    3f54:	c0010000 	andgt	r0, r1, r0
    3f58:	09000001 	stmdbeq	r0, {r0}
    3f5c:	000012d3 	ldrdeq	r1, [r0], -r3
    3f60:	004c9f01 	subeq	r9, ip, r1, lsl #30
    3f64:	ef090000 	svc	0x00090000
    3f68:	01000014 	tsteq	r0, r4, lsl r0
    3f6c:	0000ea9f 	muleq	r0, pc, sl	; <UNPREDICTABLE>
    3f70:	15a10900 	strne	r0, [r1, #2304]!	; 0x900
    3f74:	9f010000 	svcls	0x00010000
    3f78:	0000004c 	andeq	r0, r0, ip, asr #32
    3f7c:	00153b0e 	andseq	r3, r5, lr, lsl #22
    3f80:	c0a10100 	adcgt	r0, r1, r0, lsl #2
    3f84:	0e000001 	cdpeq	0, 0, cr0, cr0, cr1, {0}
    3f88:	000015b4 			; <UNDEFINED> instruction: 0x000015b4
    3f8c:	004ca201 	subeq	sl, ip, r1, lsl #4
    3f90:	690b0000 	stmdbvs	fp, {}	; <UNPREDICTABLE>
    3f94:	4ca30100 	stfmis	f0, [r3]
    3f98:	0b000000 	bleq	3fa0 <__bss_end+0x16e0>
    3f9c:	a401006a 	strge	r0, [r1], #-106	; 0x6a
    3fa0:	0000004c 	andeq	r0, r0, ip, asr #32
    3fa4:	0014e90e 	andseq	lr, r4, lr, lsl #18
    3fa8:	d0a50100 	adcle	r0, r5, r0, lsl #2
    3fac:	00000001 	andeq	r0, r0, r1
    3fb0:	0000f00f 	andeq	pc, r0, pc
    3fb4:	0001d000 	andeq	sp, r1, r0
    3fb8:	00531000 	subseq	r1, r3, r0
    3fbc:	000f0000 	andeq	r0, pc, r0
    3fc0:	0000f00f 	andeq	pc, r0, pc
    3fc4:	0001e000 	andeq	lr, r1, r0
    3fc8:	00531000 	subseq	r1, r3, r0
    3fcc:	00100000 	andseq	r0, r0, r0
    3fd0:	00159511 	andseq	r9, r5, r1, lsl r5
    3fd4:	01ce0100 	biceq	r0, lr, r0, lsl #2
    3fd8:	000000ea 	andeq	r0, r0, sl, ror #1
    3fdc:	00001388 	andeq	r1, r0, r8, lsl #7
    3fe0:	00001444 	andeq	r1, r0, r4, asr #8
    3fe4:	00000935 	andeq	r0, r0, r5, lsr r9
    3fe8:	00000261 	andeq	r0, r0, r1, ror #4
    3fec:	0012d312 	andseq	sp, r2, r2, lsl r3
    3ff0:	53ce0100 	bicpl	r0, lr, #0
    3ff4:	62000000 	andvs	r0, r0, #0
    3ff8:	12000009 	andne	r0, r0, #9
    3ffc:	000014ef 	andeq	r1, r0, pc, ror #9
    4000:	00eace01 	rsceq	ip, sl, r1, lsl #28
    4004:	09960000 	ldmibeq	r6, {}	; <UNPREDICTABLE>
    4008:	a1120000 	tstge	r2, r0
    400c:	01000015 	tsteq	r0, r5, lsl r0
    4010:	00004cce 	andeq	r4, r0, lr, asr #25
    4014:	0009b400 	andeq	fp, r9, r0, lsl #8
    4018:	153b1300 	ldrne	r1, [fp, #-768]!	; 0x300
    401c:	d0010000 	andle	r0, r1, r0
    4020:	000001c0 	andeq	r0, r0, r0, asr #3
    4024:	14509102 	ldrbne	r9, [r0], #-258	; 0x102
    4028:	d1010069 	tstle	r1, r9, rrx
    402c:	0000004c 	andeq	r0, r0, ip, asr #32
    4030:	000009d2 	ldrdeq	r0, [r0], -r2
    4034:	01006a14 	tsteq	r0, r4, lsl sl
    4038:	00004cd2 	ldrdeq	r4, [r0], -r2
    403c:	0009fb00 	andeq	pc, r9, r0, lsl #22
    4040:	14e91300 	strbtne	r1, [r9], #768	; 0x300
    4044:	d3010000 	movwle	r0, #4096	; 0x1000
    4048:	000001d0 	ldrdeq	r0, [r0], -r0	; <UNPREDICTABLE>
    404c:	7fbc9103 	svcvc	0x00bc9103
    4050:	155a1500 	ldrbne	r1, [sl, #-1280]	; 0x500
    4054:	6a010000 	bvs	4405c <__bss_end+0x4179c>
    4058:	00410101 	subeq	r0, r1, r1, lsl #2
    405c:	14440000 	strbne	r0, [r4], #-0
    4060:	14ec0000 	strbtne	r0, [ip], #0
    4064:	0a0f0000 	beq	3c406c <__bss_end+0x3c17ac>
    4068:	02f90000 	rscseq	r0, r9, #0
    406c:	ef160000 	svc	0x00160000
    4070:	01000014 	tsteq	r0, r4, lsl r0
    4074:	00ea016a 	rsceq	r0, sl, sl, ror #2
    4078:	0a3b0000 	beq	ec4080 <__bss_end+0xec17c0>
    407c:	6c170000 	ldcvs	0, cr0, [r7], {-0}
    4080:	01006e65 	tsteq	r0, r5, ror #28
    4084:	0041016a 	subeq	r0, r1, sl, ror #2
    4088:	0a590000 	beq	1644090 <__bss_end+0x16417d0>
    408c:	60160000 	andsvs	r0, r6, r0
    4090:	01000015 	tsteq	r0, r5, lsl r0
    4094:	0041016a 	subeq	r0, r1, sl, ror #2
    4098:	0a770000 	beq	1dc40a0 <__bss_end+0x1dc17e0>
    409c:	8d180000 	ldchi	0, cr0, [r8, #-0]
    40a0:	01000015 	tsteq	r0, r5, lsl r0
    40a4:	01d0016e 	bicseq	r0, r0, lr, ror #2
    40a8:	91020000 	mrsls	r0, (UNDEF: 2)
    40ac:	00ac195c 	adceq	r1, ip, ip, asr r9
    40b0:	14800000 	strne	r0, [r0], #0
    40b4:	01700000 	cmneq	r0, r0
    40b8:	72010000 	andvc	r0, r1, #0
    40bc:	00d31a01 	sbcseq	r1, r3, r1, lsl #20
    40c0:	0a950000 	beq	fe5440c8 <__bss_end+0xfe541808>
    40c4:	c81a0000 	ldmdagt	sl, {}	; <UNPREDICTABLE>
    40c8:	cb000000 	blgt	40d0 <__bss_end+0x1810>
    40cc:	1a00000a 	bne	40fc <__bss_end+0x183c>
    40d0:	000000bd 	strheq	r0, [r0], -sp
    40d4:	00000aed 	andeq	r0, r0, sp, ror #21
    40d8:	0001881b 	andeq	r8, r1, fp, lsl r8
    40dc:	00de1c00 	sbcseq	r1, lr, r0, lsl #24
    40e0:	0b4d0000 	bleq	13440e8 <__bss_end+0x1341828>
    40e4:	00000000 	andeq	r0, r0, r0
    40e8:	015a1d00 	cmpeq	sl, r0, lsl #26
    40ec:	14ec0000 	strbtne	r0, [ip], #0
    40f0:	15d40000 	ldrbne	r0, [r4]
    40f4:	0b600000 	bleq	18040fc <__bss_end+0x180183c>
    40f8:	03520000 	cmpeq	r2, #0
    40fc:	6b1a0000 	blvs	684104 <__bss_end+0x681844>
    4100:	8d000001 	stchi	0, cr0, [r0, #-4]
    4104:	1a00000b 	bne	4138 <__bss_end+0x1878>
    4108:	00000176 	andeq	r0, r0, r6, ror r1
    410c:	00000bc1 	andeq	r0, r0, r1, asr #23
    4110:	00018c1e 	andeq	r8, r1, lr, lsl ip
    4114:	58910200 	ldmpl	r1, {r9}
    4118:	0001971c 	andeq	r9, r1, ip, lsl r7
    411c:	000bdf00 	andeq	sp, fp, r0, lsl #30
    4120:	01a21c00 			; <UNDEFINED> instruction: 0x01a21c00
    4124:	0c0a0000 	stceq	0, cr0, [sl], {-0}
    4128:	ab1c0000 	blge	704130 <__bss_end+0x701870>
    412c:	3f000001 	svccc	0x00000001
    4130:	1e00000c 	cdpne	0, 0, cr0, cr0, cr12, {0}
    4134:	000001b4 			; <UNDEFINED> instruction: 0x000001b4
    4138:	1f449102 	svcne	0x00449102
    413c:	00000181 	andeq	r0, r0, r1, lsl #3
    4140:	0120000a 	teqeq	r0, sl
    4144:	0000159a 	muleq	r0, sl, r5
    4148:	01010401 	tsteq	r1, r1, lsl #8
    414c:	00000041 	andeq	r0, r0, r1, asr #32
    4150:	000015d4 	ldrdeq	r1, [r0], -r4
    4154:	000018a4 	andeq	r1, r0, r4, lsr #17
    4158:	00000c5e 	andeq	r0, r0, lr, asr ip
    415c:	00000583 	andeq	r0, r0, r3, lsl #11
    4160:	00157a16 	andseq	r7, r5, r6, lsl sl
    4164:	01040100 	mrseq	r0, (UNDEF: 20)
    4168:	000000f7 	strdeq	r0, [r0], -r7
    416c:	00000c97 	muleq	r0, r7, ip
    4170:	14e41821 	strbtne	r1, [r4], #2081	; 0x821
    4174:	06010000 	streq	r0, [r1], -r0
    4178:	0000a101 	andeq	sl, r0, r1, lsl #2
    417c:	4c910200 	lfmmi	f0, 4, [r1], {0}
    4180:	0014ef18 	andseq	lr, r4, r8, lsl pc
    4184:	01070100 	mrseq	r0, (UNDEF: 23)
    4188:	000001c0 	andeq	r0, r0, r0, asr #3
    418c:	7fbc9103 	svcvc	0x00bc9103
    4190:	00153522 	andseq	r3, r5, r2, lsr #10
    4194:	01080100 	mrseq	r0, (UNDEF: 24)
    4198:	000000ea 	andeq	r0, r0, sl, ror #1
    419c:	00000cda 	ldrdeq	r0, [r0], -sl
    41a0:	0014d822 	andseq	sp, r4, r2, lsr #16
    41a4:	01090100 	mrseq	r0, (UNDEF: 25)
    41a8:	000000ea 	andeq	r0, r0, sl, ror #1
    41ac:	00000d4c 	andeq	r0, r0, ip, asr #26
    41b0:	00156022 	andseq	r6, r5, r2, lsr #32
    41b4:	010a0100 	mrseq	r0, (UNDEF: 26)
    41b8:	00000041 	andeq	r0, r0, r1, asr #32
    41bc:	00000d62 	andeq	r0, r0, r2, ror #26
    41c0:	6e656c23 	cdpvs	12, 6, cr6, cr5, cr3, {1}
    41c4:	010b0100 	mrseq	r0, (UNDEF: 27)
    41c8:	00000041 	andeq	r0, r0, r1, asr #32
    41cc:	00000d80 	andeq	r0, r0, r0, lsl #27
    41d0:	00010224 	andeq	r0, r1, r4, lsr #4
    41d4:	0016f400 	andseq	pc, r6, r0, lsl #8
    41d8:	00171400 	andseq	r1, r7, r0, lsl #8
    41dc:	013c0100 	teqeq	ip, r0, lsl #2
    41e0:	00000411 	andeq	r0, r0, r1, lsl r4
    41e4:	0001131a 	andeq	r1, r1, sl, lsl r3
    41e8:	000dd600 	andeq	sp, sp, r0, lsl #12
    41ec:	16f42500 	ldrbtne	r2, [r4], r0, lsl #10
    41f0:	17140000 	ldrne	r0, [r4, -r0]
    41f4:	1c1c0000 	ldcne	0, cr0, [ip], {-0}
    41f8:	e9000001 	stmdb	r0, {r0}
    41fc:	0000000d 	andeq	r0, r0, sp
    4200:	01272400 	teqeq	r7, r0, lsl #8
    4204:	17300000 	ldrne	r0, [r0, -r0]!
    4208:	17400000 	strbne	r0, [r0, -r0]
    420c:	3e010000 	cdpcc	0, 0, cr0, cr1, cr0, {0}
    4210:	00044b01 	andeq	r4, r4, r1, lsl #22
    4214:	01431a00 	cmpeq	r3, r0, lsl #20
    4218:	0e140000 	cdpeq	0, 1, cr0, cr4, cr0, {0}
    421c:	381a0000 	ldmdacc	sl, {}	; <UNPREDICTABLE>
    4220:	27000001 	strcs	r0, [r0, -r1]
    4224:	2500000e 	strcs	r0, [r0, #-14]
    4228:	00001730 	andeq	r1, r0, r0, lsr r7
    422c:	00001740 	andeq	r1, r0, r0, asr #14
    4230:	00014e1c 	andeq	r4, r1, ip, lsl lr
    4234:	000e4500 	andeq	r4, lr, r0, lsl #10
    4238:	24000000 	strcs	r0, [r0], #-0
    423c:	00000127 	andeq	r0, r0, r7, lsr #2
    4240:	00001760 	andeq	r1, r0, r0, ror #14
    4244:	00001770 	andeq	r1, r0, r0, ror r7
    4248:	85014c01 	strhi	r4, [r1, #-3073]	; 0xc01
    424c:	1a000004 	bne	4264 <__bss_end+0x19a4>
    4250:	00000143 	andeq	r0, r0, r3, asr #2
    4254:	00000e58 	andeq	r0, r0, r8, asr lr
    4258:	0001381a 	andeq	r3, r1, sl, lsl r8
    425c:	000e6e00 	andeq	r6, lr, r0, lsl #28
    4260:	17602500 	strbne	r2, [r0, -r0, lsl #10]!
    4264:	17700000 	ldrbne	r0, [r0, -r0]!
    4268:	4e1c0000 	cdpmi	0, 1, cr0, cr12, cr0, {0}
    426c:	8c000001 	stchi	0, cr0, [r0], {1}
    4270:	0000000e 	andeq	r0, r0, lr
    4274:	01022400 	tsteq	r2, r0, lsl #8
    4278:	17700000 	ldrbne	r0, [r0, -r0]!
    427c:	17900000 	ldrne	r0, [r0, r0]
    4280:	4d010000 	stcmi	0, cr0, [r1, #-0]
    4284:	0004b201 	andeq	fp, r4, r1, lsl #4
    4288:	01132600 	tsteq	r3, r0, lsl #12
    428c:	70250000 	eorvc	r0, r5, r0
    4290:	90000017 	andls	r0, r0, r7, lsl r0
    4294:	1c000017 	stcne	0, cr0, [r0], {23}
    4298:	0000011c 	andeq	r0, r0, ip, lsl r1
    429c:	00000e9f 	muleq	r0, pc, lr	; <UNPREDICTABLE>
    42a0:	02240000 	eoreq	r0, r4, #0
    42a4:	b4000001 	strlt	r0, [r0], #-1
    42a8:	d4000017 	strle	r0, [r0], #-23
    42ac:	01000017 	tsteq	r0, r7, lsl r0
    42b0:	04e30132 	strbteq	r0, [r3], #306	; 0x132
    42b4:	131a0000 	tstne	sl, #0
    42b8:	cd000001 	stcgt	0, cr0, [r0, #-4]
    42bc:	2500000e 	strcs	r0, [r0, #-14]
    42c0:	000017b4 			; <UNDEFINED> instruction: 0x000017b4
    42c4:	000017d4 	ldrdeq	r1, [r0], -r4
    42c8:	00011c1c 	andeq	r1, r1, ip, lsl ip
    42cc:	000ee000 	andeq	lr, lr, r0
    42d0:	24000000 	strcs	r0, [r0], #-0
    42d4:	00000127 	andeq	r0, r0, r7, lsr #2
    42d8:	000017f0 	strdeq	r1, [r0], -r0
    42dc:	00001800 	andeq	r1, r0, r0, lsl #16
    42e0:	1d013401 	cfstrsne	mvf3, [r1, #-4]
    42e4:	1a000005 	bne	4300 <__bss_end+0x1a40>
    42e8:	00000143 	andeq	r0, r0, r3, asr #2
    42ec:	00000f0b 	andeq	r0, r0, fp, lsl #30
    42f0:	0001381a 	andeq	r3, r1, sl, lsl r8
    42f4:	000f1e00 	andeq	r1, pc, r0, lsl #28
    42f8:	17f02500 	ldrbne	r2, [r0, r0, lsl #10]!
    42fc:	18000000 	stmdane	r0, {}	; <UNPREDICTABLE>
    4300:	4e1c0000 	cdpmi	0, 1, cr0, cr12, cr0, {0}
    4304:	3c000001 	stccc	0, cr0, [r0], {1}
    4308:	0000000f 	andeq	r0, r0, pc
    430c:	01022400 	tsteq	r2, r0, lsl #8
    4310:	184c0000 	stmdane	ip, {}^	; <UNPREDICTABLE>
    4314:	186c0000 	stmdane	ip!, {}^	; <UNPREDICTABLE>
    4318:	27010000 	strcs	r0, [r1, -r0]
    431c:	00054c01 	andeq	r4, r5, r1, lsl #24
    4320:	01132700 	tsteq	r3, r0, lsl #14
    4324:	56010000 	strpl	r0, [r1], -r0
    4328:	00184c25 	andseq	r4, r8, r5, lsr #24
    432c:	00186c00 	andseq	r6, r8, r0, lsl #24
    4330:	011c1c00 	tsteq	ip, r0, lsl #24
    4334:	0f4f0000 	svceq	0x004f0000
    4338:	00000000 	andeq	r0, r0, r0
    433c:	00012728 	andeq	r2, r1, r8, lsr #14
    4340:	00188800 	andseq	r8, r8, r0, lsl #16
    4344:	00189800 	andseq	r9, r8, r0, lsl #16
    4348:	01290100 	teqeq	r9, r0, lsl #2
    434c:	0001431a 	andeq	r4, r1, sl, lsl r3
    4350:	000f7a00 	andeq	r7, pc, r0, lsl #20
    4354:	01381a00 	teqeq	r8, r0, lsl #20
    4358:	0f8d0000 	svceq	0x008d0000
    435c:	88250000 	stmdahi	r5!, {}	; <UNPREDICTABLE>
    4360:	98000018 	stmdals	r0, {r3, r4}
    4364:	1c000018 	stcne	0, cr0, [r0], {24}
    4368:	0000014e 	andeq	r0, r0, lr, asr #2
    436c:	00000fab 	andeq	r0, r0, fp, lsr #31
    4370:	20000000 	andcs	r0, r0, r0
    4374:	0015a701 	andseq	sl, r5, r1, lsl #14
    4378:	01790100 	cmneq	r9, r0, lsl #2
    437c:	00004101 	andeq	r4, r0, r1, lsl #2
    4380:	0018a400 	andseq	sl, r8, r0, lsl #8
    4384:	001b7400 	andseq	r7, fp, r0, lsl #8
    4388:	000fbe00 	andeq	fp, pc, r0, lsl #28
    438c:	0007b400 	andeq	fp, r7, r0, lsl #8
    4390:	157a1600 	ldrbne	r1, [sl, #-1536]!	; 0x600
    4394:	79010000 	stmdbvc	r1, {}	; <UNPREDICTABLE>
    4398:	0000f701 	andeq	pc, r0, r1, lsl #14
    439c:	000ff700 	andeq	pc, pc, r0, lsl #14
    43a0:	e4182100 	ldr	r2, [r8], #-256	; 0x100
    43a4:	01000014 	tsteq	r0, r4, lsl r0
    43a8:	00a1017b 	adceq	r0, r1, fp, ror r1
    43ac:	91020000 	mrsls	r0, (UNDEF: 2)
    43b0:	14ef184c 	strbtne	r1, [pc], #2124	; 43b8 <__bss_end+0x1af8>
    43b4:	7c010000 	stcvc	0, cr0, [r1], {-0}
    43b8:	0001c001 	andeq	ip, r1, r1
    43bc:	bc910300 	ldclt	3, cr0, [r1], {0}
    43c0:	1535227f 	ldrne	r2, [r5, #-639]!	; 0x27f
    43c4:	7d010000 	stcvc	0, cr0, [r1, #-0]
    43c8:	0000ea01 	andeq	lr, r0, r1, lsl #20
    43cc:	00103a00 	andseq	r3, r0, r0, lsl #20
    43d0:	14d82200 	ldrbne	r2, [r8], #512	; 0x200
    43d4:	7e010000 	cdpvc	0, 0, cr0, cr1, cr0, {0}
    43d8:	0000ea01 	andeq	lr, r0, r1, lsl #20
    43dc:	0010ac00 	andseq	sl, r0, r0, lsl #24
    43e0:	15602200 	strbne	r2, [r0, #-512]!	; 0x200
    43e4:	7f010000 	svcvc	0x00010000
    43e8:	00004101 	andeq	r4, r0, r1, lsl #2
    43ec:	0010c200 	andseq	ip, r0, r0, lsl #4
    43f0:	656c2300 	strbvs	r2, [ip, #-768]!	; 0x300
    43f4:	8001006e 	andhi	r0, r1, lr, rrx
    43f8:	00004101 	andeq	r4, r0, r1, lsl #2
    43fc:	0010e000 	andseq	lr, r0, r0
    4400:	01022400 	tsteq	r2, r0, lsl #8
    4404:	19c40000 	stmibne	r4, {}^	; <UNPREDICTABLE>
    4408:	19e40000 	stmibne	r4!, {}^	; <UNPREDICTABLE>
    440c:	b1010000 	mrslt	r0, (UNDEF: 1)
    4410:	00064201 	andeq	r4, r6, r1, lsl #4
    4414:	01131a00 	tsteq	r3, r0, lsl #20
    4418:	11360000 	teqne	r6, r0
    441c:	c4250000 	strtgt	r0, [r5], #-0
    4420:	e4000019 	str	r0, [r0], #-25
    4424:	1c000019 	stcne	0, cr0, [r0], {25}
    4428:	0000011c 	andeq	r0, r0, ip, lsl r1
    442c:	00001149 	andeq	r1, r0, r9, asr #2
    4430:	27240000 	strcs	r0, [r4, -r0]!
    4434:	00000001 	andeq	r0, r0, r1
    4438:	1000001a 	andne	r0, r0, sl, lsl r0
    443c:	0100001a 	tsteq	r0, sl, lsl r0
    4440:	067c01b3 			; <UNDEFINED> instruction: 0x067c01b3
    4444:	431a0000 	tstmi	sl, #0
    4448:	74000001 	strvc	r0, [r0], #-1
    444c:	1a000011 	bne	4498 <__bss_end+0x1bd8>
    4450:	00000138 	andeq	r0, r0, r8, lsr r1
    4454:	00001187 	andeq	r1, r0, r7, lsl #3
    4458:	001a0025 	andseq	r0, sl, r5, lsr #32
    445c:	001a1000 	andseq	r1, sl, r0
    4460:	014e1c00 	cmpeq	lr, r0, lsl #24
    4464:	11a50000 			; <UNDEFINED> instruction: 0x11a50000
    4468:	00000000 	andeq	r0, r0, r0
    446c:	00012724 	andeq	r2, r1, r4, lsr #14
    4470:	001a3000 	andseq	r3, sl, r0
    4474:	001a4000 	andseq	r4, sl, r0
    4478:	01c10100 	biceq	r0, r1, r0, lsl #2
    447c:	000006b6 			; <UNDEFINED> instruction: 0x000006b6
    4480:	0001431a 	andeq	r4, r1, sl, lsl r3
    4484:	0011b800 	andseq	fp, r1, r0, lsl #16
    4488:	01381a00 	teqeq	r8, r0, lsl #20
    448c:	11ce0000 	bicne	r0, lr, r0
    4490:	30250000 	eorcc	r0, r5, r0
    4494:	4000001a 	andmi	r0, r0, sl, lsl r0
    4498:	1c00001a 	stcne	0, cr0, [r0], {26}
    449c:	0000014e 	andeq	r0, r0, lr, asr #2
    44a0:	000011ec 	andeq	r1, r0, ip, ror #3
    44a4:	02240000 	eoreq	r0, r4, #0
    44a8:	40000001 	andmi	r0, r0, r1
    44ac:	6000001a 	andvs	r0, r0, sl, lsl r0
    44b0:	0100001a 	tsteq	r0, sl, lsl r0
    44b4:	06e301c2 	strbteq	r0, [r3], r2, asr #3
    44b8:	13260000 	teqne	r6, #0
    44bc:	25000001 	strcs	r0, [r0, #-1]
    44c0:	00001a40 	andeq	r1, r0, r0, asr #20
    44c4:	00001a60 	andeq	r1, r0, r0, ror #20
    44c8:	00011c1c 	andeq	r1, r1, ip, lsl ip
    44cc:	0011ff00 	andseq	pc, r1, r0, lsl #30
    44d0:	24000000 	strcs	r0, [r0], #-0
    44d4:	00000102 	andeq	r0, r0, r2, lsl #2
    44d8:	00001a84 	andeq	r1, r0, r4, lsl #21
    44dc:	00001aa4 	andeq	r1, r0, r4, lsr #21
    44e0:	1401a701 	strne	sl, [r1], #-1793	; 0x701
    44e4:	1a000007 	bne	4508 <__bss_end+0x1c48>
    44e8:	00000113 	andeq	r0, r0, r3, lsl r1
    44ec:	0000122d 	andeq	r1, r0, sp, lsr #4
    44f0:	001a8425 	andseq	r8, sl, r5, lsr #8
    44f4:	001aa400 	andseq	sl, sl, r0, lsl #8
    44f8:	011c1c00 	tsteq	ip, r0, lsl #24
    44fc:	12400000 	subne	r0, r0, #0
    4500:	00000000 	andeq	r0, r0, r0
    4504:	00012724 	andeq	r2, r1, r4, lsr #14
    4508:	001ac000 	andseq	ip, sl, r0
    450c:	001ad000 	andseq	sp, sl, r0
    4510:	01a90100 			; <UNDEFINED> instruction: 0x01a90100
    4514:	0000074e 	andeq	r0, r0, lr, asr #14
    4518:	0001431a 	andeq	r4, r1, sl, lsl r3
    451c:	00126b00 	andseq	r6, r2, r0, lsl #22
    4520:	01381a00 	teqeq	r8, r0, lsl #20
    4524:	127e0000 	rsbsne	r0, lr, #0
    4528:	c0250000 	eorgt	r0, r5, r0
    452c:	d000001a 	andle	r0, r0, sl, lsl r0
    4530:	1c00001a 	stcne	0, cr0, [r0], {26}
    4534:	0000014e 	andeq	r0, r0, lr, asr #2
    4538:	0000129c 	muleq	r0, ip, r2
    453c:	02240000 	eoreq	r0, r4, #0
    4540:	1c000001 	stcne	0, cr0, [r0], {1}
    4544:	3c00001b 	stccc	0, cr0, [r0], {27}
    4548:	0100001b 	tsteq	r0, fp, lsl r0
    454c:	077d019c 			; <UNDEFINED> instruction: 0x077d019c
    4550:	13270000 	teqne	r7, #0
    4554:	01000001 	tsteq	r0, r1
    4558:	1b1c2556 	blne	70dab8 <__bss_end+0x70b1f8>
    455c:	1b3c0000 	blne	f04564 <__bss_end+0xf01ca4>
    4560:	1c1c0000 	ldcne	0, cr0, [ip], {-0}
    4564:	af000001 	svcge	0x00000001
    4568:	00000012 	andeq	r0, r0, r2, lsl r0
    456c:	01272800 	teqeq	r7, r0, lsl #16
    4570:	1b580000 	blne	1604578 <__bss_end+0x1601cb8>
    4574:	1b680000 	blne	1a0457c <__bss_end+0x1a01cbc>
    4578:	9e010000 	cdpls	0, 0, cr0, cr1, cr0, {0}
    457c:	01431a01 	cmpeq	r3, r1, lsl #20
    4580:	12da0000 	sbcsne	r0, sl, #0
    4584:	381a0000 	ldmdacc	sl, {}	; <UNPREDICTABLE>
    4588:	ed000001 	stc	0, cr0, [r0, #-4]
    458c:	25000012 	strcs	r0, [r0, #-18]
    4590:	00001b58 	andeq	r1, r0, r8, asr fp
    4594:	00001b68 	andeq	r1, r0, r8, ror #22
    4598:	00014e1c 	andeq	r4, r1, ip, lsl lr
    459c:	00130b00 	andseq	r0, r3, r0, lsl #22
    45a0:	00000000 	andeq	r0, r0, r0
    45a4:	0000f00f 	andeq	pc, r0, pc
    45a8:	0007c400 	andeq	ip, r7, r0, lsl #8
    45ac:	00531000 	subseq	r1, r3, r0
    45b0:	00ff0000 	rscseq	r0, pc, r0
    45b4:	00152518 	andseq	r2, r5, r8, lsl r5
    45b8:	01030100 	mrseq	r0, (UNDEF: 19)
    45bc:	000007b4 			; <UNDEFINED> instruction: 0x000007b4
    45c0:	25dc0305 	ldrbcs	r0, [ip, #773]	; 0x305
    45c4:	79000000 	stmdbvc	r0, {}	; <UNPREDICTABLE>
    45c8:	02000000 	andeq	r0, r0, #0
    45cc:	000d4f00 	andeq	r4, sp, r0, lsl #30
    45d0:	dc010400 	cfstrsle	mvf0, [r1], {-0}
    45d4:	7400000d 	strvc	r0, [r0], #-13
    45d8:	5000001b 	andpl	r0, r0, fp, lsl r0
    45dc:	6100001d 	tstvs	r0, sp, lsl r0
    45e0:	2f686372 	svccs	0x00686372
    45e4:	2f6d7261 	svccs	0x006d7261
    45e8:	6863616d 	stmdavs	r3!, {r0, r2, r3, r5, r6, r8, sp, lr}^
    45ec:	6e75732d 	cdpvs	3, 7, cr7, cr5, cr13, {1}
    45f0:	702f6978 	eorvc	r6, pc, r8, ror r9	; <UNPREDICTABLE>
    45f4:	74732f6d 	ldrbtvc	r2, [r3], #-3949	; 0xf6d
    45f8:	62646e61 	rsbvs	r6, r4, #1552	; 0x610
    45fc:	2e2e2f79 	mcrcs	15, 1, r2, cr14, cr9, {3}
    4600:	6d656d2f 	stclvs	13, cr6, [r5, #-188]!	; 0xffffff44
    4604:	7669645f 			; <UNDEFINED> instruction: 0x7669645f
    4608:	2e62696c 	cdpcs	9, 6, cr6, cr2, cr12, {3}
    460c:	722f0053 	eorvc	r0, pc, #83	; 0x53
    4610:	2f746f6f 	svccs	0x00746f6f
    4614:	6b726f77 	blvs	1ca03f8 <__bss_end+0x1c9db38>
    4618:	6e69732f 	cdpvs	3, 6, cr7, cr9, cr15, {1}
    461c:	786e696c 	stmdavc	lr!, {r2, r3, r5, r6, r8, fp, sp, lr}^
    4620:	3333612f 	teqcc	r3, #-1073741813	; 0xc000000b
    4624:	63696c2f 	cmnvs	r9, #12032	; 0x2f00
    4628:	2f656568 	svccs	0x00656568
    462c:	756e696c 	strbvc	r6, [lr, #-2412]!	; 0x96c
    4630:	2e332d78 	mrccs	13, 1, r2, cr3, cr8, {3}
    4634:	4e470034 	mcrmi	0, 2, r0, cr7, cr4, {1}
    4638:	53412055 	movtpl	r2, #4181	; 0x1055
    463c:	322e3220 	eorcc	r3, lr, #2
    4640:	80010032 	andhi	r0, r1, r2, lsr r0
    4644:	000000ef 	andeq	r0, r0, pc, ror #1
    4648:	0d630002 	stcleq	0, cr0, [r3, #-8]!
    464c:	01040000 	mrseq	r0, (UNDEF: 4)
    4650:	00000116 	andeq	r0, r0, r6, lsl r1
    4654:	0015f601 	andseq	pc, r5, r1, lsl #12
    4658:	00009300 	andeq	r9, r0, r0, lsl #6
    465c:	001d5000 	andseq	r5, sp, r0
    4660:	001da800 	andseq	sl, sp, r0, lsl #16
    4664:	000e8900 	andeq	r8, lr, r0, lsl #18
    4668:	06010200 	streq	r0, [r1], -r0, lsl #4
    466c:	000000d1 	ldrdeq	r0, [r0], -r1
    4670:	cf080102 	svcgt	0x00080102
    4674:	02000000 	andeq	r0, r0, #0
    4678:	014a0502 	cmpeq	sl, r2, lsl #10
    467c:	02020000 	andeq	r0, r2, #0
    4680:	00010307 	andeq	r0, r1, r7, lsl #6
    4684:	0f7f0300 	svceq	0x007f0300
    4688:	12020000 	andne	r0, r2, #0
    468c:	0000004c 	andeq	r0, r0, ip, asr #32
    4690:	69050404 	stmdbvs	r5, {r2, sl}
    4694:	0300746e 	movweq	r7, #1134	; 0x46e
    4698:	000007b8 			; <UNDEFINED> instruction: 0x000007b8
    469c:	005e1302 	subseq	r1, lr, r2, lsl #6
    46a0:	04020000 	streq	r0, [r2], #-0
    46a4:	00004c07 	andeq	r4, r0, r7, lsl #24
    46a8:	05080200 	streq	r0, [r8, #-512]	; 0x200
    46ac:	00000000 	andeq	r0, r0, r0
    46b0:	42070802 	andmi	r0, r7, #131072	; 0x20000
    46b4:	02000000 	andeq	r0, r0, #0
    46b8:	00470704 	subeq	r0, r7, r4, lsl #14
    46bc:	01050000 	mrseq	r0, (UNDEF: 5)
    46c0:	000015bd 			; <UNDEFINED> instruction: 0x000015bd
    46c4:	50010301 	andpl	r0, r1, r1, lsl #6
    46c8:	5c00001d 	stcpl	0, cr0, [r0], {29}
    46cc:	0200001d 	andeq	r0, r0, #29
    46d0:	0106007d 	tsteq	r6, sp, ror r0
    46d4:	000015e2 	andeq	r1, r0, r2, ror #11
    46d8:	53010801 	movwpl	r0, #6145	; 0x1801
    46dc:	5c000000 	stcpl	0, cr0, [r0], {-0}
    46e0:	a800001d 	stmdage	r0, {r0, r2, r3, r4}
    46e4:	0200001d 	andeq	r0, r0, #29
    46e8:	d907007d 	stmdble	r7, {r0, r2, r3, r4, r5, r6}
    46ec:	01000015 	tsteq	r0, r5, lsl r0
    46f0:	00005308 	andeq	r5, r0, r8, lsl #6
    46f4:	00131e00 	andseq	r1, r3, r0, lsl #28
    46f8:	15d00700 	ldrbne	r0, [r0, #1792]	; 0x700
    46fc:	08010000 	stmdaeq	r1, {}	; <UNPREDICTABLE>
    4700:	00000053 	andeq	r0, r0, r3, asr r0
    4704:	00001331 	andeq	r1, r0, r1, lsr r3
    4708:	0015ef08 	andseq	lr, r5, r8, lsl #30
    470c:	530a0100 	movwpl	r0, #41216	; 0xa100
    4710:	44000000 	strmi	r0, [r0], #-0
    4714:	08000013 	stmdaeq	r0, {r0, r1, r4}
    4718:	000015c8 	andeq	r1, r0, r8, asr #11
    471c:	00530b01 	subseq	r0, r3, r1, lsl #22
    4720:	137c0000 	cmnne	ip, #0
    4724:	26080000 	strcs	r0, [r8], -r0
    4728:	01000016 	tsteq	r0, r6, lsl r0
    472c:	0000410c 	andeq	r4, r0, ip, lsl #2
    4730:	0013a600 	andseq	sl, r3, r0, lsl #12
    4734:	dc000000 	stcle	0, cr0, [r0], {-0}
    4738:	02000001 	andeq	r0, r0, #1
    473c:	000de400 	andeq	lr, sp, r0, lsl #8
    4740:	16010400 	strne	r0, [r1], -r0, lsl #8
    4744:	01000001 	tsteq	r0, r1
    4748:	0000165a 	andeq	r1, r0, sl, asr r6
    474c:	00000093 	muleq	r0, r3, r0
    4750:	00001da8 	andeq	r1, r0, r8, lsr #27
    4754:	00001f34 	andeq	r1, r0, r4, lsr pc
    4758:	00000f0f 	andeq	r0, r0, pc, lsl #30
    475c:	d1060102 	tstle	r6, r2, lsl #2
    4760:	02000000 	andeq	r0, r0, #0
    4764:	00cf0801 	sbceq	r0, pc, r1, lsl #16
    4768:	02020000 	andeq	r0, r2, #0
    476c:	00014a05 	andeq	r4, r1, r5, lsl #20
    4770:	07020200 	streq	r0, [r2, -r0, lsl #4]
    4774:	00000103 	andeq	r0, r0, r3, lsl #2
    4778:	000f7f03 	andeq	r7, pc, r3, lsl #30
    477c:	4c120200 	lfmmi	f0, 4, [r2], {-0}
    4780:	04000000 	streq	r0, [r0], #-0
    4784:	6e690504 	cdpvs	5, 6, cr0, cr9, cr4, {0}
    4788:	b8030074 	stmdalt	r3, {r2, r4, r5, r6}
    478c:	02000007 	andeq	r0, r0, #7
    4790:	00005e13 	andeq	r5, r0, r3, lsl lr
    4794:	07040200 	streq	r0, [r4, -r0, lsl #4]
    4798:	0000004c 	andeq	r0, r0, ip, asr #32
    479c:	00050802 	andeq	r0, r5, r2, lsl #16
    47a0:	02000000 	andeq	r0, r0, #0
    47a4:	00420708 	subeq	r0, r2, r8, lsl #14
    47a8:	53050000 	movwpl	r0, #20480	; 0x5000
    47ac:	06000000 	streq	r0, [r0], -r0
    47b0:	00001639 	andeq	r1, r0, r9, lsr r6
    47b4:	ab180304 	blge	6053cc <__bss_end+0x602b0c>
    47b8:	07000000 	streq	r0, [r0, -r0]
    47bc:	000016c3 	andeq	r1, r0, r3, asr #13
    47c0:	16d50732 			; <UNDEFINED> instruction: 0x16d50732
    47c4:	07330000 	ldreq	r0, [r3, -r0]!
    47c8:	00001686 	andeq	r1, r0, r6, lsl #13
    47cc:	170b0700 	strne	r0, [fp, -r0, lsl #14]
    47d0:	073e0000 	ldreq	r0, [lr, -r0]!
    47d4:	000016e7 	andeq	r1, r0, r7, ror #13
    47d8:	a30700c0 	movwge	r0, #28864	; 0x70c0
    47dc:	d1000016 	tstle	r0, r6, lsl r0
    47e0:	04020000 	streq	r0, [r2], #-0
    47e4:	00004707 	andeq	r4, r0, r7, lsl #14
    47e8:	09040800 	stmdbeq	r4, {fp}
    47ec:	0016b601 	andseq	fp, r6, r1, lsl #12
    47f0:	01220100 	teqeq	r2, r0, lsl #2
    47f4:	00000041 	andeq	r0, r0, r1, asr #32
    47f8:	00001da8 	andeq	r1, r0, r8, lsr #27
    47fc:	00001e38 	andeq	r1, r0, r8, lsr lr
    4800:	000013d0 	ldrdeq	r1, [r0], -r0
    4804:	000000df 	ldrdeq	r0, [r0], -pc	; <UNPREDICTABLE>
    4808:	0100690a 	tsteq	r0, sl, lsl #18
    480c:	00005324 	andeq	r5, r0, r4, lsr #6
    4810:	0013f000 	andseq	pc, r3, r0
    4814:	01090000 	mrseq	r0, (UNDEF: 9)
    4818:	0000162c 	andeq	r1, r0, ip, lsr #12
    481c:	41015701 	tstmi	r1, r1, lsl #14
    4820:	38000000 	stmdacc	r0, {}	; <UNPREDICTABLE>
    4824:	8c00001e 	stchi	0, cr0, [r0], {30}
    4828:	0f00001e 	svceq	0x0000001e
    482c:	19000014 	stmdbne	r0, {r2, r4}
    4830:	0a000001 	beq	483c <__bss_end+0x1f7c>
    4834:	59010069 	stmdbpl	r1, {r0, r3, r5, r6}
    4838:	0000004c 	andeq	r0, r0, ip, asr #32
    483c:	0000142f 	andeq	r1, r0, pc, lsr #8
    4840:	0016f90b 	andseq	pc, r6, fp, lsl #18
    4844:	735a0100 	cmpvc	sl, #0
    4848:	4e000000 	cdpmi	0, 0, cr0, cr0, cr0, {0}
    484c:	00000014 	andeq	r0, r0, r4, lsl r0
    4850:	172a0109 	strne	r0, [sl, -r9, lsl #2]!
    4854:	71010000 	mrsvc	r0, (UNDEF: 1)
    4858:	00004101 	andeq	r4, r0, r1, lsl #2
    485c:	001e8c00 	andseq	r8, lr, r0, lsl #24
    4860:	001ee400 	andseq	lr, lr, r0, lsl #8
    4864:	00147900 	andseq	r7, r4, r0, lsl #18
    4868:	00016400 	andeq	r6, r1, r0, lsl #8
    486c:	72730c00 	rsbsvc	r0, r3, #0
    4870:	71010063 	tstvc	r1, r3, rrx
    4874:	00000078 	andeq	r0, r0, r8, ror r0
    4878:	00001499 	muleq	r0, r9, r4
    487c:	00171c0b 	andseq	r1, r7, fp, lsl #24
    4880:	53730100 	cmnpl	r3, #0
    4884:	ac000000 	stcge	0, cr0, [r0], {-0}
    4888:	0b000014 	bleq	48e0 <__bss_end+0x2020>
    488c:	00001723 	andeq	r1, r0, r3, lsr #14
    4890:	00537401 	subseq	r7, r3, r1, lsl #8
    4894:	14c30000 	strbne	r0, [r3], #0
    4898:	0d000000 	stceq	0, cr0, [r0, #-0]
    489c:	00164c01 	andseq	r4, r6, r1, lsl #24
    48a0:	018f0100 	orreq	r0, pc, r0, lsl #2
    48a4:	00000041 	andeq	r0, r0, r1, asr #32
    48a8:	00001ee4 	andeq	r1, r0, r4, ror #29
    48ac:	00001f34 	andeq	r1, r0, r4, lsr pc
    48b0:	bd007d02 	stclt	13, cr7, [r0, #-8]
    48b4:	0c000001 	stceq	0, cr0, [r0], {1}
    48b8:	00637273 	rsbeq	r7, r3, r3, ror r2
    48bc:	00788f01 	rsbseq	r8, r8, r1, lsl #30
    48c0:	14e50000 	strbtne	r0, [r5], #0
    48c4:	040b0000 	streq	r0, [fp], #-0
    48c8:	01000017 	tsteq	r0, r7, lsl r0
    48cc:	00004191 	muleq	r0, r1, r1
    48d0:	0014f800 	andseq	pc, r4, r0, lsl #16
    48d4:	171c0b00 	ldrne	r0, [ip, -r0, lsl #22]
    48d8:	92010000 	andls	r0, r1, #0
    48dc:	00000053 	andeq	r0, r0, r3, asr r0
    48e0:	0000150c 	andeq	r1, r0, ip, lsl #10
    48e4:	0017230b 	andseq	r2, r7, fp, lsl #6
    48e8:	53930100 	orrspl	r0, r3, #0
    48ec:	23000000 	movwcs	r0, #0
    48f0:	00000015 	andeq	r0, r0, r5, lsl r0
    48f4:	0017390e 	andseq	r3, r7, lr, lsl #18
    48f8:	b2140100 	andslt	r0, r4, #0
    48fc:	05000000 	streq	r0, [r0, #-0]
    4900:	0026dc03 	eoreq	sp, r6, r3, lsl #24
    4904:	169a0e00 	ldrne	r0, [sl], r0, lsl #28
    4908:	15010000 	strne	r0, [r1, #-0]
    490c:	000000b2 	strheq	r0, [r0], -r2
    4910:	26e00305 	strbtcs	r0, [r0], r5, lsl #6
    4914:	e8000000 	stmda	r0, {}	; <UNPREDICTABLE>
    4918:	02000003 	andeq	r0, r0, #3
    491c:	000eaf00 	andeq	sl, lr, r0, lsl #30
    4920:	16010400 	strne	r0, [r1], -r0, lsl #8
    4924:	01000001 	tsteq	r0, r1
    4928:	000017dc 	ldrdeq	r1, [r0], -ip
    492c:	00000093 	muleq	r0, r3, r0
    4930:	00001f34 	andeq	r1, r0, r4, lsr pc
    4934:	000020cc 	andeq	r2, r0, ip, asr #1
    4938:	00001007 	andeq	r1, r0, r7
    493c:	d1060102 	tstle	r6, r2, lsl #2
    4940:	02000000 	andeq	r0, r0, #0
    4944:	00cf0801 	sbceq	r0, pc, r1, lsl #16
    4948:	02020000 	andeq	r0, r2, #0
    494c:	00014a05 	andeq	r4, r1, r5, lsl #20
    4950:	07020200 	streq	r0, [r2, -r0, lsl #4]
    4954:	00000103 	andeq	r0, r0, r3, lsl #2
    4958:	000f7f03 	andeq	r7, pc, r3, lsl #30
    495c:	4c120200 	lfmmi	f0, 4, [r2], {-0}
    4960:	04000000 	streq	r0, [r0], #-0
    4964:	6e690504 	cdpvs	5, 6, cr0, cr9, cr4, {0}
    4968:	b8030074 	stmdalt	r3, {r2, r4, r5, r6}
    496c:	02000007 	andeq	r0, r0, #7
    4970:	00005e13 	andeq	r5, r0, r3, lsl lr
    4974:	07040200 	streq	r0, [r4, -r0, lsl #4]
    4978:	0000004c 	andeq	r0, r0, ip, asr #32
    497c:	00050802 	andeq	r0, r5, r2, lsl #16
    4980:	02000000 	andeq	r0, r0, #0
    4984:	00420708 	subeq	r0, r2, r8, lsl #14
    4988:	53050000 	movwpl	r0, #20480	; 0x5000
    498c:	06000000 	streq	r0, [r0], -r0
    4990:	00000053 	andeq	r0, r0, r3, asr r0
    4994:	00000088 	andeq	r0, r0, r8, lsl #1
    4998:	00005e07 	andeq	r5, r0, r7, lsl #28
    499c:	06000300 	streq	r0, [r0], -r0, lsl #6
    49a0:	00000053 	andeq	r0, r0, r3, asr r0
    49a4:	00000098 	muleq	r0, r8, r0
    49a8:	00005e07 	andeq	r5, r0, r7, lsl #28
    49ac:	08000100 	stmdaeq	r0, {r8}
    49b0:	000018b0 			; <UNDEFINED> instruction: 0x000018b0
    49b4:	b61503bc 			; <UNDEFINED> instruction: 0xb61503bc
    49b8:	09000002 	stmdbeq	r0, {r1}
    49bc:	00001758 	andeq	r1, r0, r8, asr r7
    49c0:	00731803 	rsbseq	r1, r3, r3, lsl #16
    49c4:	23020000 	movwcs	r0, #8192	; 0x2000
    49c8:	19030900 	stmdbne	r3, {r8, fp}
    49cc:	19030000 	stmdbne	r3, {}	; <UNPREDICTABLE>
    49d0:	00000073 	andeq	r0, r0, r3, ror r0
    49d4:	09042302 	stmdbeq	r4, {r1, r8, r9, sp}
    49d8:	00000a2d 	andeq	r0, r0, sp, lsr #20
    49dc:	02b61a03 	adcseq	r1, r6, #12288	; 0x3000
    49e0:	23020000 	movwcs	r0, #8192	; 0x2000
    49e4:	19530908 	ldmdbne	r3, {r3, r8, fp}^
    49e8:	1c030000 	stcne	0, cr0, [r3], {-0}
    49ec:	00000073 	andeq	r0, r0, r3, ror r0
    49f0:	09102302 	ldmdbeq	r0, {r1, r8, r9, sp}
    49f4:	0000175f 	andeq	r1, r0, pc, asr r7
    49f8:	00731d03 	rsbseq	r1, r3, r3, lsl #26
    49fc:	23020000 	movwcs	r0, #8192	; 0x2000
    4a00:	17810914 	usada8ne	r1, r4, r9, r0
    4a04:	1e030000 	cdpne	0, 0, cr0, cr3, cr0, {0}
    4a08:	00000073 	andeq	r0, r0, r3, ror r0
    4a0c:	09182302 	ldmdbeq	r8, {r1, r8, r9, sp}
    4a10:	00000a37 	andeq	r0, r0, r7, lsr sl
    4a14:	00731f03 	rsbseq	r1, r3, r3, lsl #30
    4a18:	23020000 	movwcs	r0, #8192	; 0x2000
    4a1c:	1779091c 			; <UNDEFINED> instruction: 0x1779091c
    4a20:	21030000 	mrscs	r0, (UNDEF: 3)
    4a24:	00000073 	andeq	r0, r0, r3, ror r0
    4a28:	09202302 	stmdbeq	r0!, {r1, r8, r9, sp}
    4a2c:	000018d7 	ldrdeq	r1, [r0], -r7
    4a30:	00732203 	rsbseq	r2, r3, r3, lsl #4
    4a34:	23020000 	movwcs	r0, #8192	; 0x2000
    4a38:	190a0924 	stmdbne	sl, {r2, r5, r8, fp}
    4a3c:	23030000 	movwcs	r0, #12288	; 0x3000
    4a40:	00000073 	andeq	r0, r0, r3, ror r0
    4a44:	09282302 	stmdbeq	r8!, {r1, r8, r9, sp}
    4a48:	00000a41 	andeq	r0, r0, r1, asr #20
    4a4c:	00732403 	rsbseq	r2, r3, r3, lsl #8
    4a50:	23020000 	movwcs	r0, #8192	; 0x2000
    4a54:	1841092c 	stmdane	r1, {r2, r3, r5, r8, fp}^
    4a58:	26030000 	strcs	r0, [r3], -r0
    4a5c:	00000073 	andeq	r0, r0, r3, ror r0
    4a60:	09302302 	ldmdbeq	r0!, {r1, r8, r9, sp}
    4a64:	00001794 	muleq	r0, r4, r7
    4a68:	00732703 	rsbseq	r2, r3, r3, lsl #14
    4a6c:	23020000 	movwcs	r0, #8192	; 0x2000
    4a70:	17af0934 			; <UNDEFINED> instruction: 0x17af0934
    4a74:	28030000 	stmdacs	r3, {}	; <UNPREDICTABLE>
    4a78:	00000073 	andeq	r0, r0, r3, ror r0
    4a7c:	09382302 	ldmdbeq	r8!, {r1, r8, r9, sp}
    4a80:	00000a4b 	andeq	r0, r0, fp, asr #20
    4a84:	00732903 	rsbseq	r2, r3, r3, lsl #18
    4a88:	23020000 	movwcs	r0, #8192	; 0x2000
    4a8c:	18f4093c 	ldmne	r4!, {r2, r3, r4, r5, r8, fp}^
    4a90:	2b030000 	blcs	c4a98 <__bss_end+0xc21d8>
    4a94:	00000073 	andeq	r0, r0, r3, ror r0
    4a98:	09402302 	stmdbeq	r0, {r1, r8, r9, sp}^
    4a9c:	00001915 	andeq	r1, r0, r5, lsl r9
    4aa0:	00732c03 	rsbseq	r2, r3, r3, lsl #24
    4aa4:	23020000 	movwcs	r0, #8192	; 0x2000
    4aa8:	0a550944 	beq	1546fc0 <__bss_end+0x1544700>
    4aac:	2d030000 	stccs	0, cr0, [r3, #-0]
    4ab0:	000002bb 			; <UNDEFINED> instruction: 0x000002bb
    4ab4:	09482302 	stmdbeq	r8, {r1, r8, r9, sp}^
    4ab8:	0000195b 	andeq	r1, r0, fp, asr r9
    4abc:	00732f03 	rsbseq	r2, r3, r3, lsl #30
    4ac0:	23020000 	movwcs	r0, #8192	; 0x2000
    4ac4:	18080950 	stmdane	r8, {r4, r6, r8, fp}
    4ac8:	30030000 	andcc	r0, r3, r0
    4acc:	00000073 	andeq	r0, r0, r3, ror r0
    4ad0:	09542302 	ldmdbeq	r4, {r1, r8, r9, sp}^
    4ad4:	00001813 	andeq	r1, r0, r3, lsl r8
    4ad8:	00733103 	rsbseq	r3, r3, r3, lsl #2
    4adc:	23020000 	movwcs	r0, #8192	; 0x2000
    4ae0:	0a5f0958 	beq	17c7048 <__bss_end+0x17c4788>
    4ae4:	32030000 	andcc	r0, r3, #0
    4ae8:	00000073 	andeq	r0, r0, r3, ror r0
    4aec:	095c2302 	ldmdbeq	ip, {r1, r8, r9, sp}^
    4af0:	0000178c 	andeq	r1, r0, ip, lsl #15
    4af4:	00733403 	rsbseq	r3, r3, r3, lsl #8
    4af8:	23020000 	movwcs	r0, #8192	; 0x2000
    4afc:	19360960 	ldmdbne	r6!, {r5, r6, r8, fp}
    4b00:	35030000 	strcc	r0, [r3, #-0]
    4b04:	00000073 	andeq	r0, r0, r3, ror r0
    4b08:	09642302 	stmdbeq	r4!, {r1, r8, r9, sp}^
    4b0c:	00001941 	andeq	r1, r0, r1, asr #18
    4b10:	00733603 	rsbseq	r3, r3, r3, lsl #12
    4b14:	23020000 	movwcs	r0, #8192	; 0x2000
    4b18:	0a690968 	beq	1a470c0 <__bss_end+0x1a44800>
    4b1c:	37030000 	strcc	r0, [r3, -r0]
    4b20:	000002d0 	ldrdeq	r0, [r0], -r0	; <UNPREDICTABLE>
    4b24:	096c2302 	stmdbeq	ip!, {r1, r8, r9, sp}^
    4b28:	000018fc 	strdeq	r1, [r0], -ip
    4b2c:	00733903 	rsbseq	r3, r3, r3, lsl #18
    4b30:	23030000 	movwcs	r0, #12288	; 0x3000
    4b34:	2e090180 	adfcs<illegal precision>	f0, f1, f0
    4b38:	03000019 	movweq	r0, #25
    4b3c:	0000733a 	andeq	r7, r0, sl, lsr r3
    4b40:	84230300 	strthi	r0, [r3], #-768	; 0x300
    4b44:	17500901 	ldrbne	r0, [r0, -r1, lsl #18]
    4b48:	3b030000 	blcc	c4b50 <__bss_end+0xc2290>
    4b4c:	00000073 	andeq	r0, r0, r3, ror r0
    4b50:	01882303 	orreq	r2, r8, r3, lsl #6
    4b54:	0018ed09 	andseq	lr, r8, r9, lsl #26
    4b58:	733c0300 	teqvc	ip, #0
    4b5c:	03000000 	movweq	r0, #0
    4b60:	09018c23 	stmdbeq	r1, {r0, r1, r5, sl, fp, pc}
    4b64:	00000a73 	andeq	r0, r0, r3, ror sl
    4b68:	02d53f03 	sbcseq	r3, r5, #12
    4b6c:	23030000 	movwcs	r0, #12288	; 0x3000
    4b70:	93090190 	movwls	r0, #37264	; 0x9190
    4b74:	03000018 	movweq	r0, #24
    4b78:	00007342 	andeq	r7, r0, r2, asr #6
    4b7c:	a0230300 	eorge	r0, r3, r0, lsl #6
    4b80:	17420901 	strbne	r0, [r2, -r1, lsl #18]
    4b84:	43030000 	movwmi	r0, #12288	; 0x3000
    4b88:	00000073 	andeq	r0, r0, r3, ror r0
    4b8c:	01a42303 			; <UNDEFINED> instruction: 0x01a42303
    4b90:	00183709 	andseq	r3, r8, r9, lsl #14
    4b94:	da440300 	ble	110579c <__bss_end+0x1102edc>
    4b98:	03000002 	movweq	r0, #2
    4b9c:	0901a823 	stmdbeq	r1, {r0, r1, r5, fp, sp, pc}
    4ba0:	0000176a 	andeq	r1, r0, sl, ror #14
    4ba4:	00734703 	rsbseq	r4, r3, r3, lsl #14
    4ba8:	23030000 	movwcs	r0, #12288	; 0x3000
    4bac:	200901b0 			; <UNDEFINED> instruction: 0x200901b0
    4bb0:	03000019 	movweq	r0, #25
    4bb4:	00007348 	andeq	r7, r0, r8, asr #6
    4bb8:	b4230300 	strtlt	r0, [r3], #-768	; 0x300
    4bbc:	18490901 	stmdane	r9, {r0, r8, fp}^
    4bc0:	49030000 	stmdbmi	r3, {}	; <UNPREDICTABLE>
    4bc4:	00000073 	andeq	r0, r0, r3, ror r0
    4bc8:	01b82303 			; <UNDEFINED> instruction: 0x01b82303
    4bcc:	00880500 	addeq	r0, r8, r0, lsl #10
    4bd0:	88050000 	stmdahi	r5, {}	; <UNPREDICTABLE>
    4bd4:	06000000 	streq	r0, [r0], -r0
    4bd8:	00000053 	andeq	r0, r0, r3, asr r0
    4bdc:	000002d0 	ldrdeq	r0, [r0], -r0	; <UNPREDICTABLE>
    4be0:	00005e07 	andeq	r5, r0, r7, lsl #28
    4be4:	05000400 	streq	r0, [r0, #-1024]	; 0x400
    4be8:	000002c0 	andeq	r0, r0, r0, asr #5
    4bec:	00007805 	andeq	r7, r0, r5, lsl #16
    4bf0:	00880500 	addeq	r0, r8, r0, lsl #10
    4bf4:	9f030000 	svcls	0x00030000
    4bf8:	03000017 	movweq	r0, #23
    4bfc:	0000984b 	andeq	r9, r0, fp, asr #16
    4c00:	07040200 	streq	r0, [r4, -r0, lsl #4]
    4c04:	00000047 	andeq	r0, r0, r7, asr #32
    4c08:	1963010a 	stmdbne	r3!, {r1, r3, r8}^
    4c0c:	11010000 	mrsne	r0, (UNDEF: 1)
    4c10:	00004101 	andeq	r4, r0, r1, lsl #2
    4c14:	001f3400 	andseq	r3, pc, r0, lsl #8
    4c18:	001f9400 	andseq	r9, pc, r0, lsl #8
    4c1c:	007d0200 	rsbseq	r0, sp, r0, lsl #4
    4c20:	0000031d 	andeq	r0, r0, sp, lsl r3
    4c24:	0018e20b 	andseq	lr, r8, fp, lsl #4
    4c28:	1d110100 	ldfnes	f0, [r1, #-0]
    4c2c:	45000003 	strmi	r0, [r0, #-3]
    4c30:	00000015 	andeq	r0, r0, r5, lsl r0
    4c34:	02df040c 	sbcseq	r0, pc, #201326592	; 0xc000000
    4c38:	010a0000 	mrseq	r0, (UNDEF: 10)
    4c3c:	000018a0 	andeq	r1, r0, r0, lsr #17
    4c40:	41012f01 	tstmi	r1, r1, lsl #30
    4c44:	94000000 	strls	r0, [r0], #-0
    4c48:	e400001f 	str	r0, [r0], #-31
    4c4c:	0200001f 	andeq	r0, r0, #31
    4c50:	034f007d 	movteq	r0, #61565	; 0xf07d
    4c54:	e20b0000 	and	r0, fp, #0
    4c58:	01000018 	tsteq	r0, r8, lsl r0
    4c5c:	00031d2f 	andeq	r1, r3, pc, lsr #26
    4c60:	00156300 	andseq	r6, r5, r0, lsl #6
    4c64:	010d0000 	mrseq	r0, (UNDEF: 13)
    4c68:	00001886 	andeq	r1, r0, r6, lsl #17
    4c6c:	41014901 	tstmi	r1, r1, lsl #18
    4c70:	e4000000 	str	r0, [r0], #-0
    4c74:	1c00001f 	stcne	0, cr0, [r0], {31}
    4c78:	02000020 	andeq	r0, r0, #32
    4c7c:	010d007d 	tsteq	sp, sp, ror r0
    4c80:	000017cf 	andeq	r1, r0, pc, asr #15
    4c84:	41016101 	tstmi	r1, r1, lsl #2
    4c88:	1c000000 	stcne	0, cr0, [r0], {-0}
    4c8c:	44000020 	strmi	r0, [r0], #-32
    4c90:	02000020 	andeq	r0, r0, #32
    4c94:	010e007d 	tsteq	lr, sp, ror r0
    4c98:	0000186e 	andeq	r1, r0, lr, ror #16
    4c9c:	44017901 	strmi	r7, [r1], #-2305	; 0x901
    4ca0:	8c000020 	stchi	0, cr0, [r0], {32}
    4ca4:	02000020 	andeq	r0, r0, #32
    4ca8:	010e007d 	tsteq	lr, sp, ror r0
    4cac:	000018be 			; <UNDEFINED> instruction: 0x000018be
    4cb0:	8c019a01 	stchi	10, cr9, [r1], {1}
    4cb4:	cc000020 	stcgt	0, cr0, [r0], {32}
    4cb8:	02000020 	andeq	r0, r0, #32
    4cbc:	4c0f007d 	stcmi	0, cr0, [pc], {125}	; 0x7d
    4cc0:	01000019 	tsteq	r0, r9, lsl r0
    4cc4:	00031d03 	andeq	r1, r3, r3, lsl #26
    4cc8:	e4030500 	str	r0, [r3], #-1280	; 0x500
    4ccc:	0f000026 	svceq	0x00000026
    4cd0:	0000181e 	andeq	r1, r0, lr, lsl r8
    4cd4:	00530401 	subseq	r0, r3, r1, lsl #8
    4cd8:	03050000 	movweq	r0, #20480	; 0x5000
    4cdc:	000026e8 	andeq	r2, r0, r8, ror #13
    4ce0:	0018580f 	andseq	r5, r8, pc, lsl #16
    4ce4:	53040100 	movwpl	r0, #16640	; 0x4100
    4ce8:	05000000 	streq	r0, [r0, #-0]
    4cec:	0026ec03 	eoreq	lr, r6, r3, lsl #24
    4cf0:	17ba0f00 	ldrne	r0, [sl, r0, lsl #30]!
    4cf4:	04010000 	streq	r0, [r1], #-0
    4cf8:	00000053 	andeq	r0, r0, r3, asr r0
    4cfc:	26f00305 	ldrbtcs	r0, [r0], r5, lsl #6
    4d00:	61000000 	mrsvs	r0, (UNDEF: 0)
    4d04:	02000000 	andeq	r0, r0, #0
    4d08:	000f8900 	andeq	r8, pc, r0, lsl #18
    4d0c:	16010400 	strne	r0, [r1], -r0, lsl #8
    4d10:	01000001 	tsteq	r0, r1
    4d14:	00001970 	andeq	r1, r0, r0, ror r9
    4d18:	00000093 	muleq	r0, r3, r0
    4d1c:	000020cc 	andeq	r2, r0, ip, asr #1
    4d20:	000020cc 	andeq	r2, r0, ip, asr #1
    4d24:	000010d0 	ldrdeq	r1, [r0], -r0
    4d28:	d1060102 	tstle	r6, r2, lsl #2
    4d2c:	02000000 	andeq	r0, r0, #0
    4d30:	00cf0801 	sbceq	r0, pc, r1, lsl #16
    4d34:	02020000 	andeq	r0, r2, #0
    4d38:	00014a05 	andeq	r4, r1, r5, lsl #20
    4d3c:	07020200 	streq	r0, [r2, -r0, lsl #4]
    4d40:	00000103 	andeq	r0, r0, r3, lsl #2
    4d44:	69050403 	stmdbvs	r5, {r0, r1, sl}
    4d48:	0200746e 	andeq	r7, r0, #1845493760	; 0x6e000000
    4d4c:	004c0704 	subeq	r0, ip, r4, lsl #14
    4d50:	08020000 	stmdaeq	r2, {}	; <UNPREDICTABLE>
    4d54:	00000005 	andeq	r0, r0, r5
    4d58:	07080200 	streq	r0, [r8, -r0, lsl #4]
    4d5c:	00000042 	andeq	r0, r0, r2, asr #32
    4d60:	47070402 	strmi	r0, [r7, -r2, lsl #8]
    4d64:	00000000 	andeq	r0, r0, r0
    4d68:	00000061 	andeq	r0, r0, r1, rrx
    4d6c:	0fb30002 	svceq	0x00b30002
    4d70:	01040000 	mrseq	r0, (UNDEF: 4)
    4d74:	00000116 	andeq	r0, r0, r6, lsl r1
    4d78:	00199f01 	andseq	r9, r9, r1, lsl #30
    4d7c:	00009300 	andeq	r9, r0, r0, lsl #6
    4d80:	0020cc00 	eoreq	ip, r0, r0, lsl #24
    4d84:	0020cc00 	eoreq	ip, r0, r0, lsl #24
    4d88:	0010ed00 	andseq	lr, r0, r0, lsl #26
    4d8c:	06010200 	streq	r0, [r1], -r0, lsl #4
    4d90:	000000d1 	ldrdeq	r0, [r0], -r1
    4d94:	cf080102 	svcgt	0x00080102
    4d98:	02000000 	andeq	r0, r0, #0
    4d9c:	014a0502 	cmpeq	sl, r2, lsl #10
    4da0:	02020000 	andeq	r0, r2, #0
    4da4:	00010307 	andeq	r0, r1, r7, lsl #6
    4da8:	05040300 	streq	r0, [r4, #-768]	; 0x300
    4dac:	00746e69 	rsbseq	r6, r4, r9, ror #28
    4db0:	4c070402 	cfstrsmi	mvf0, [r7], {2}
    4db4:	02000000 	andeq	r0, r0, #0
    4db8:	00000508 	andeq	r0, r0, r8, lsl #10
    4dbc:	08020000 	stmdaeq	r2, {}	; <UNPREDICTABLE>
    4dc0:	00004207 	andeq	r4, r0, r7, lsl #4
    4dc4:	07040200 	streq	r0, [r4, -r0, lsl #4]
    4dc8:	00000047 	andeq	r0, r0, r7, asr #32
    4dcc:	00153500 	andseq	r3, r5, r0, lsl #10
    4dd0:	dd000200 	sfmle	f0, 4, [r0, #-0]
    4dd4:	0400000f 	streq	r0, [r0], #-15
    4dd8:	00011601 	andeq	r1, r1, r1, lsl #12
    4ddc:	19e30100 	stmibne	r3!, {r8}^
    4de0:	00930000 	addseq	r0, r3, r0
    4de4:	20cc0000 	sbccs	r0, ip, r0
    4de8:	241c0000 	ldrcs	r0, [ip], #-0
    4dec:	110a0000 	mrsne	r0, (UNDEF: 10)
    4df0:	01020000 	mrseq	r0, (UNDEF: 2)
    4df4:	0000d106 	andeq	sp, r0, r6, lsl #2
    4df8:	0ad30300 	beq	ff4c5a00 <__bss_end+0xff4c3140>
    4dfc:	0f020000 	svceq	0x00020000
    4e00:	00000037 	andeq	r0, r0, r7, lsr r0
    4e04:	cf080102 	svcgt	0x00080102
    4e08:	02000000 	andeq	r0, r0, #0
    4e0c:	014a0502 	cmpeq	sl, r2, lsl #10
    4e10:	02020000 	andeq	r0, r2, #0
    4e14:	00010307 	andeq	r0, r1, r7, lsl #6
    4e18:	0f7f0300 	svceq	0x007f0300
    4e1c:	12020000 	andne	r0, r2, #0
    4e20:	00000057 	andeq	r0, r0, r7, asr r0
    4e24:	69050404 	stmdbvs	r5, {r2, sl}
    4e28:	0300746e 	movweq	r7, #1134	; 0x46e
    4e2c:	000007b8 			; <UNDEFINED> instruction: 0x000007b8
    4e30:	00691302 	rsbeq	r1, r9, r2, lsl #6
    4e34:	04020000 	streq	r0, [r2], #-0
    4e38:	00004c07 	andeq	r4, r0, r7, lsl #24
    4e3c:	05080200 	streq	r0, [r8, #-512]	; 0x200
    4e40:	00000000 	andeq	r0, r0, r0
    4e44:	42070802 	andmi	r0, r7, #131072	; 0x20000
    4e48:	05000000 	streq	r0, [r0, #-0]
    4e4c:	641a0304 	ldrvs	r0, [sl], #-772	; 0x304
    4e50:	06000001 	streq	r0, [r0], -r1
    4e54:	00000516 	andeq	r0, r0, r6, lsl r5
    4e58:	005e1c03 	subseq	r1, lr, r3, lsl #24
    4e5c:	02040000 	andeq	r0, r4, #0
    4e60:	0023021e 	eoreq	r0, r3, lr, lsl r2
    4e64:	000a2d06 	andeq	r2, sl, r6, lsl #26
    4e68:	5e1d0300 	cdppl	3, 1, cr0, cr13, cr0, {0}
    4e6c:	04000000 	streq	r0, [r0], #-0
    4e70:	23021c02 	movwcs	r1, #11266	; 0x2c02
    4e74:	050e0600 	streq	r0, [lr, #-1536]	; 0x600
    4e78:	1e030000 	cdpne	0, 0, cr0, cr3, cr0, {0}
    4e7c:	0000005e 	andeq	r0, r0, lr, asr r0
    4e80:	021a0204 	andseq	r0, sl, #1073741824	; 0x40000000
    4e84:	37060023 	strcc	r0, [r6, -r3, lsr #32]
    4e88:	0300000a 	movweq	r0, #10
    4e8c:	00005e1f 	andeq	r5, r0, pc, lsl lr
    4e90:	18020400 	stmdane	r2, {sl}
    4e94:	06002302 	streq	r2, [r0], -r2, lsl #6
    4e98:	0000051e 	andeq	r0, r0, lr, lsl r5
    4e9c:	005e2003 	subseq	r2, lr, r3
    4ea0:	05040000 	streq	r0, [r4, #-0]
    4ea4:	00230213 	eoreq	r0, r3, r3, lsl r2
    4ea8:	000a4106 	andeq	r4, sl, r6, lsl #2
    4eac:	5e210300 	cdppl	3, 2, cr0, cr1, cr0, {0}
    4eb0:	04000000 	streq	r0, [r0], #-0
    4eb4:	23021003 	movwcs	r1, #8195	; 0x2003
    4eb8:	052e0600 	streq	r0, [lr, #-1536]!	; 0x600
    4ebc:	22030000 	andcs	r0, r3, #0
    4ec0:	0000005e 	andeq	r0, r0, lr, asr r0
    4ec4:	020e0204 	andeq	r0, lr, #1073741824	; 0x40000000
    4ec8:	4b060023 	blmi	184f5c <__bss_end+0x18269c>
    4ecc:	0300000a 	movweq	r0, #10
    4ed0:	00005e23 	andeq	r5, r0, r3, lsr #28
    4ed4:	08060400 	stmdaeq	r6, {sl}
    4ed8:	06002302 	streq	r2, [r0], -r2, lsl #6
    4edc:	00000797 	muleq	r0, r7, r7
    4ee0:	005e2403 	subseq	r2, lr, r3, lsl #8
    4ee4:	01040000 	mrseq	r0, (UNDEF: 4)
    4ee8:	00230207 	eoreq	r0, r3, r7, lsl #4
    4eec:	000a5506 	andeq	r5, sl, r6, lsl #10
    4ef0:	5e250300 	cdppl	3, 2, cr0, cr5, cr0, {0}
    4ef4:	04000000 	streq	r0, [r0], #-0
    4ef8:	23020403 	movwcs	r0, #9219	; 0x2403
    4efc:	091d0600 	ldmdbeq	sp, {r9, sl}
    4f00:	26030000 	strcs	r0, [r3], -r0
    4f04:	0000005e 	andeq	r0, r0, lr, asr r0
    4f08:	02030104 	andeq	r0, r3, #1
    4f0c:	5f060023 	svcpl	0x00060023
    4f10:	0300000a 	movweq	r0, #10
    4f14:	00005e27 	andeq	r5, r0, r7, lsr #28
    4f18:	01020400 	tsteq	r2, r0, lsl #8
    4f1c:	06002302 	streq	r2, [r0], -r2, lsl #6
    4f20:	000009cc 	andeq	r0, r0, ip, asr #19
    4f24:	005e2803 	subseq	r2, lr, r3, lsl #16
    4f28:	01040000 	mrseq	r0, (UNDEF: 4)
    4f2c:	00230200 	eoreq	r0, r3, r0, lsl #4
    4f30:	03040700 	movweq	r0, #18176	; 0x4700
    4f34:	00018318 	andeq	r8, r1, r8, lsl r3
    4f38:	030f0800 	movweq	r0, #63488	; 0xf800
    4f3c:	19030000 	stmdbne	r3, {}	; <UNPREDICTABLE>
    4f40:	0000005e 	andeq	r0, r0, lr, asr r0
    4f44:	0007f908 	andeq	pc, r7, r8, lsl #18
    4f48:	7e2a0300 	cdpvc	3, 2, cr0, cr10, cr0, {0}
    4f4c:	00000000 	andeq	r0, r0, r0
    4f50:	0009d203 	andeq	sp, r9, r3, lsl #4
    4f54:	642b0300 	strtvs	r0, [fp], #-768	; 0x300
    4f58:	09000001 	stmdbeq	r0, {r0}
    4f5c:	000009f3 	strdeq	r0, [r0], -r3
    4f60:	562e0304 	strtpl	r0, [lr], -r4, lsl #6
    4f64:	06000002 	streq	r0, [r0], -r2
    4f68:	00000516 	andeq	r0, r0, r6, lsl r5
    4f6c:	005e3003 	subseq	r3, lr, r3
    4f70:	05040000 	streq	r0, [r4, #-0]
    4f74:	0023021b 	eoreq	r0, r3, fp, lsl r2
    4f78:	000a2d06 	andeq	r2, sl, r6, lsl #26
    4f7c:	5e310300 	cdppl	3, 3, cr0, cr1, cr0, {0}
    4f80:	04000000 	streq	r0, [r0], #-0
    4f84:	23021803 	movwcs	r1, #10243	; 0x2803
    4f88:	051e0600 	ldreq	r0, [lr, #-1536]	; 0x600
    4f8c:	32030000 	andcc	r0, r3, #0
    4f90:	0000005e 	andeq	r0, r0, lr, asr r0
    4f94:	02110704 	andseq	r0, r1, #1048576	; 0x100000
    4f98:	37060023 	strcc	r0, [r6, -r3, lsr #32]
    4f9c:	0300000a 	movweq	r0, #10
    4fa0:	00005e33 	andeq	r5, r0, r3, lsr lr
    4fa4:	10010400 	andne	r0, r1, r0, lsl #8
    4fa8:	06002302 	streq	r2, [r0], -r2, lsl #6
    4fac:	0000052e 	andeq	r0, r0, lr, lsr #10
    4fb0:	005e3403 	subseq	r3, lr, r3, lsl #8
    4fb4:	04040000 	streq	r0, [r4], #-0
    4fb8:	0023020c 	eoreq	r0, r3, ip, lsl #4
    4fbc:	000a4106 	andeq	r4, sl, r6, lsl #2
    4fc0:	5e350300 	cdppl	3, 3, cr0, cr5, cr0, {0}
    4fc4:	04000000 	streq	r0, [r0], #-0
    4fc8:	23020804 	movwcs	r0, #10244	; 0x2804
    4fcc:	08f20600 	ldmeq	r2!, {r9, sl}^
    4fd0:	36030000 	strcc	r0, [r3], -r0
    4fd4:	0000005e 	andeq	r0, r0, lr, asr r0
    4fd8:	02070104 	andeq	r0, r7, #1
    4fdc:	4b060023 	blmi	185070 <__bss_end+0x1827b0>
    4fe0:	0300000a 	movweq	r0, #10
    4fe4:	00005e37 	andeq	r5, r0, r7, lsr lr
    4fe8:	04030400 	streq	r0, [r3], #-1024	; 0x400
    4fec:	06002302 	streq	r2, [r0], -r2, lsl #6
    4ff0:	0000091d 	andeq	r0, r0, sp, lsl r9
    4ff4:	005e3803 	subseq	r3, lr, r3, lsl #16
    4ff8:	01040000 	mrseq	r0, (UNDEF: 4)
    4ffc:	00230203 	eoreq	r0, r3, r3, lsl #4
    5000:	000a5506 	andeq	r5, sl, r6, lsl #10
    5004:	5e390300 	cdppl	3, 3, cr0, cr9, cr0, {0}
    5008:	04000000 	streq	r0, [r0], #-0
    500c:	23020102 	movwcs	r0, #8450	; 0x2102
    5010:	09cc0600 	stmibeq	ip, {r9, sl}^
    5014:	3a030000 	bcc	c501c <__bss_end+0xc275c>
    5018:	0000005e 	andeq	r0, r0, lr, asr r0
    501c:	02000104 	andeq	r0, r0, #1
    5020:	03000023 	movweq	r0, #35	; 0x23
    5024:	00000945 	andeq	r0, r0, r5, asr #18
    5028:	018e3b03 	orreq	r3, lr, r3, lsl #22
    502c:	b2090000 	andlt	r0, r9, #0
    5030:	04000009 	streq	r0, [r0], #-9
    5034:	034b5003 	movteq	r5, #45059	; 0xb003
    5038:	16060000 	strne	r0, [r6], -r0
    503c:	03000005 	movweq	r0, #5
    5040:	00005e52 	andeq	r5, r0, r2, asr lr
    5044:	1e020400 	cfcpysne	mvf0, mvf2
    5048:	06002302 	streq	r2, [r0], -r2, lsl #6
    504c:	00000a2d 	andeq	r0, r0, sp, lsr #20
    5050:	005e5303 	subseq	r5, lr, r3, lsl #6
    5054:	02040000 	andeq	r0, r4, #0
    5058:	0023021c 	eoreq	r0, r3, ip, lsl r2
    505c:	00050e06 	andeq	r0, r5, r6, lsl #28
    5060:	5e540300 	cdppl	3, 5, cr0, cr4, cr0, {0}
    5064:	04000000 	streq	r0, [r0], #-0
    5068:	23021a02 	movwcs	r1, #10754	; 0x2a02
    506c:	0a370600 	beq	dc6874 <__bss_end+0xdc3fb4>
    5070:	55030000 	strpl	r0, [r3, #-0]
    5074:	0000005e 	andeq	r0, r0, lr, asr r0
    5078:	02180204 	andseq	r0, r8, #1073741824	; 0x40000000
    507c:	1e060023 	cdpne	0, 0, cr0, cr6, cr3, {1}
    5080:	03000005 	movweq	r0, #5
    5084:	00005e56 	andeq	r5, r0, r6, asr lr
    5088:	13050400 	movwne	r0, #21504	; 0x5400
    508c:	06002302 	streq	r2, [r0], -r2, lsl #6
    5090:	00000a41 	andeq	r0, r0, r1, asr #20
    5094:	005e5703 	subseq	r5, lr, r3, lsl #14
    5098:	07040000 	streq	r0, [r4, -r0]
    509c:	0023020c 	eoreq	r0, r3, ip, lsl #4
    50a0:	00047306 	andeq	r7, r4, r6, lsl #6
    50a4:	5e580300 	cdppl	3, 5, cr0, cr8, cr0, {0}
    50a8:	04000000 	streq	r0, [r0], #-0
    50ac:	23020b01 	movwcs	r0, #11009	; 0x2b01
    50b0:	0a4b0600 	beq	12c68b8 <__bss_end+0x12c3ff8>
    50b4:	59030000 	stmdbpl	r3, {}	; <UNPREDICTABLE>
    50b8:	0000005e 	andeq	r0, r0, lr, asr r0
    50bc:	02080304 	andeq	r0, r8, #268435456	; 0x10000000
    50c0:	9f060023 	svcls	0x00060023
    50c4:	03000007 	movweq	r0, #7
    50c8:	00005e5a 	andeq	r5, r0, sl, asr lr
    50cc:	07010400 	streq	r0, [r1, -r0, lsl #8]
    50d0:	06002302 	streq	r2, [r0], -r2, lsl #6
    50d4:	00000a55 	andeq	r0, r0, r5, asr sl
    50d8:	005e5b03 	subseq	r5, lr, r3, lsl #22
    50dc:	03040000 	movweq	r0, #16384	; 0x4000
    50e0:	00230204 	eoreq	r0, r3, r4, lsl #4
    50e4:	00091d06 	andeq	r1, r9, r6, lsl #26
    50e8:	5e5c0300 	cdppl	3, 5, cr0, cr12, cr0, {0}
    50ec:	04000000 	streq	r0, [r0], #-0
    50f0:	23020301 	movwcs	r0, #8961	; 0x2301
    50f4:	0a5f0600 	beq	17c68fc <__bss_end+0x17c403c>
    50f8:	5d030000 	stcpl	0, cr0, [r3, #-0]
    50fc:	0000005e 	andeq	r0, r0, lr, asr r0
    5100:	02010204 	andeq	r0, r1, #1073741824	; 0x40000000
    5104:	cc060023 	stcgt	0, cr0, [r6], {35}	; 0x23
    5108:	03000009 	movweq	r0, #9
    510c:	00005e5e 	andeq	r5, r0, lr, asr lr
    5110:	00010400 	andeq	r0, r1, r0, lsl #8
    5114:	00002302 	andeq	r2, r0, r2, lsl #6
    5118:	00049a03 	andeq	r9, r4, r3, lsl #20
    511c:	615f0300 	cmpvs	pc, r0, lsl #6
    5120:	09000002 	stmdbeq	r0, {r1}
    5124:	00000d68 	andeq	r0, r0, r8, ror #26
    5128:	62620304 	rsbvs	r0, r2, #268435456	; 0x10000000
    512c:	06000004 	streq	r0, [r0], -r4
    5130:	00000516 	andeq	r0, r0, r6, lsl r5
    5134:	005e6403 	subseq	r6, lr, r3, lsl #8
    5138:	02040000 	andeq	r0, r4, #0
    513c:	0023021e 	eoreq	r0, r3, lr, lsl r2
    5140:	000a2d06 	andeq	r2, sl, r6, lsl #26
    5144:	5e650300 	cdppl	3, 6, cr0, cr5, cr0, {0}
    5148:	04000000 	streq	r0, [r0], #-0
    514c:	23021c02 	movwcs	r1, #11266	; 0x2c02
    5150:	050e0600 	streq	r0, [lr, #-1536]	; 0x600
    5154:	66030000 	strvs	r0, [r3], -r0
    5158:	0000005e 	andeq	r0, r0, lr, asr r0
    515c:	021a0204 	andseq	r0, sl, #1073741824	; 0x40000000
    5160:	37060023 	strcc	r0, [r6, -r3, lsr #32]
    5164:	0300000a 	movweq	r0, #10
    5168:	00005e67 	andeq	r5, r0, r7, ror #28
    516c:	18020400 	stmdane	r2, {sl}
    5170:	06002302 	streq	r2, [r0], -r2, lsl #6
    5174:	0000051e 	andeq	r0, r0, lr, lsl r5
    5178:	005e6803 	subseq	r6, lr, r3, lsl #16
    517c:	05040000 	streq	r0, [r4, #-0]
    5180:	00230213 	eoreq	r0, r3, r3, lsl r2
    5184:	000a4106 	andeq	r4, sl, r6, lsl #2
    5188:	5e690300 	cdppl	3, 6, cr0, cr9, cr0, {0}
    518c:	04000000 	streq	r0, [r0], #-0
    5190:	23021003 	movwcs	r1, #8195	; 0x2003
    5194:	0bc20600 	bleq	ff08699c <__bss_end+0xff0840dc>
    5198:	6a030000 	bvs	c51a0 <__bss_end+0xc28e0>
    519c:	0000005e 	andeq	r0, r0, lr, asr r0
    51a0:	020e0204 	andeq	r0, lr, #1073741824	; 0x40000000
    51a4:	85060023 	strhi	r0, [r6, #-35]	; 0x23
    51a8:	03000002 	movweq	r0, #2
    51ac:	00005e6b 	andeq	r5, r0, fp, ror #28
    51b0:	0d010400 	cfstrseq	mvf0, [r1, #-0]
    51b4:	06002302 	streq	r2, [r0], -r2, lsl #6
    51b8:	00000a4b 	andeq	r0, r0, fp, asr #20
    51bc:	005e6c03 	subseq	r6, lr, r3, lsl #24
    51c0:	05040000 	streq	r0, [r4, #-0]
    51c4:	00230208 	eoreq	r0, r3, r8, lsl #4
    51c8:	00088606 	andeq	r8, r8, r6, lsl #12
    51cc:	5e6d0300 	cdppl	3, 6, cr0, cr13, cr0, {0}
    51d0:	04000000 	streq	r0, [r0], #-0
    51d4:	23020701 	movwcs	r0, #9985	; 0x2701
    51d8:	08310600 	ldmdaeq	r1!, {r9, sl}
    51dc:	6e030000 	cdpvs	0, 0, cr0, cr3, cr0, {0}
    51e0:	0000005e 	andeq	r0, r0, lr, asr r0
    51e4:	02060104 	andeq	r0, r6, #1
    51e8:	55060023 	strpl	r0, [r6, #-35]	; 0x23
    51ec:	0300000a 	movweq	r0, #10
    51f0:	00005e6f 	andeq	r5, r0, pc, ror #28
    51f4:	04020400 	streq	r0, [r2], #-1024	; 0x400
    51f8:	06002302 	streq	r2, [r0], -r2, lsl #6
    51fc:	0000091d 	andeq	r0, r0, sp, lsl r9
    5200:	005e7003 	subseq	r7, lr, r3
    5204:	01040000 	mrseq	r0, (UNDEF: 4)
    5208:	00230203 	eoreq	r0, r3, r3, lsl #4
    520c:	000a5f06 	andeq	r5, sl, r6, lsl #30
    5210:	5e710300 	cdppl	3, 7, cr0, cr1, cr0, {0}
    5214:	04000000 	streq	r0, [r0], #-0
    5218:	23020102 	movwcs	r0, #8450	; 0x2102
    521c:	09cc0600 	stmibeq	ip, {r9, sl}^
    5220:	72030000 	andvc	r0, r3, #0
    5224:	0000005e 	andeq	r0, r0, lr, asr r0
    5228:	02000104 	andeq	r0, r0, #1
    522c:	03000023 	movweq	r0, #35	; 0x23
    5230:	000003c2 	andeq	r0, r0, r2, asr #7
    5234:	03567303 	cmpeq	r6, #201326592	; 0xc000000
    5238:	32090000 	andcc	r0, r9, #0
    523c:	04000006 	streq	r0, [r0], #-6
    5240:	05467503 	strbeq	r7, [r6, #-1283]	; 0x503
    5244:	16060000 	strne	r0, [r6], -r0
    5248:	03000005 	movweq	r0, #5
    524c:	00005e77 	andeq	r5, r0, r7, ror lr
    5250:	1c040400 	cfstrsne	mvf0, [r4], {-0}
    5254:	06002302 	streq	r2, [r0], -r2, lsl #6
    5258:	00000a2d 	andeq	r0, r0, sp, lsr #20
    525c:	005e7803 	subseq	r7, lr, r3, lsl #16
    5260:	04040000 	streq	r0, [r4], #-0
    5264:	00230218 	eoreq	r0, r3, r8, lsl r2
    5268:	00051e06 	andeq	r1, r5, r6, lsl #28
    526c:	5e790300 	cdppl	3, 7, cr0, cr9, cr0, {0}
    5270:	04000000 	streq	r0, [r0], #-0
    5274:	23021107 	movwcs	r1, #8455	; 0x2107
    5278:	0a370600 	beq	dc6a80 <__bss_end+0xdc41c0>
    527c:	7a030000 	bvc	c5284 <__bss_end+0xc29c4>
    5280:	0000005e 	andeq	r0, r0, lr, asr r0
    5284:	020c0504 	andeq	r0, ip, #16777216	; 0x1000000
    5288:	f2060023 	vhadd.s8	d0, d6, d19
    528c:	03000008 	movweq	r0, #8
    5290:	00005e7b 	andeq	r5, r0, fp, ror lr
    5294:	0b010400 	bleq	4629c <__bss_end+0x439dc>
    5298:	06002302 	streq	r2, [r0], -r2, lsl #6
    529c:	00000a41 	andeq	r0, r0, r1, asr #20
    52a0:	005e7c03 	subseq	r7, lr, r3, lsl #24
    52a4:	03040000 	movweq	r0, #16384	; 0x4000
    52a8:	00230208 	eoreq	r0, r3, r8, lsl #4
    52ac:	00098106 	andeq	r8, r9, r6, lsl #2
    52b0:	5e7d0300 	cdppl	3, 7, cr0, cr13, cr0, {0}
    52b4:	04000000 	streq	r0, [r0], #-0
    52b8:	23020701 	movwcs	r0, #9985	; 0x2701
    52bc:	0aaf0600 	beq	febc6ac4 <__bss_end+0xfebc4204>
    52c0:	7e030000 	cdpvc	0, 0, cr0, cr3, cr0, {0}
    52c4:	0000005e 	andeq	r0, r0, lr, asr r0
    52c8:	02060104 	andeq	r0, r6, #1
    52cc:	4b060023 	blmi	185360 <__bss_end+0x182aa0>
    52d0:	0300000a 	movweq	r0, #10
    52d4:	00005e7f 	andeq	r5, r0, pc, ror lr
    52d8:	04020400 	streq	r0, [r2], #-1024	; 0x400
    52dc:	06002302 	streq	r2, [r0], -r2, lsl #6
    52e0:	0000091d 	andeq	r0, r0, sp, lsl r9
    52e4:	005e8003 	subseq	r8, lr, r3
    52e8:	01040000 	mrseq	r0, (UNDEF: 4)
    52ec:	00230203 	eoreq	r0, r3, r3, lsl #4
    52f0:	000a5506 	andeq	r5, sl, r6, lsl #10
    52f4:	5e810300 	cdppl	3, 8, cr0, cr1, cr0, {0}
    52f8:	04000000 	streq	r0, [r0], #-0
    52fc:	23020102 	movwcs	r0, #8450	; 0x2102
    5300:	09cc0600 	stmibeq	ip, {r9, sl}^
    5304:	82030000 	andhi	r0, r3, #0
    5308:	0000005e 	andeq	r0, r0, lr, asr r0
    530c:	02000104 	andeq	r0, r0, #1
    5310:	03000023 	movweq	r0, #35	; 0x23
    5314:	000006f8 	strdeq	r0, [r0], -r8
    5318:	046d8303 	strbteq	r8, [sp], #-771	; 0x303
    531c:	01090000 	mrseq	r0, (UNDEF: 9)
    5320:	04000009 	streq	r0, [r0], #-9
    5324:	06a18603 	strteq	r8, [r1], r3, lsl #12
    5328:	16060000 	strne	r0, [r6], -r0
    532c:	03000005 	movweq	r0, #5
    5330:	00005e88 	andeq	r5, r0, r8, lsl #29
    5334:	1c040400 	cfstrsne	mvf0, [r4], {-0}
    5338:	06002302 	streq	r2, [r0], -r2, lsl #6
    533c:	0000050e 	andeq	r0, r0, lr, lsl #10
    5340:	005e8903 	subseq	r8, lr, r3, lsl #18
    5344:	02040000 	andeq	r0, r4, #0
    5348:	0023021a 	eoreq	r0, r3, sl, lsl r2
    534c:	000a2d06 	andeq	r2, sl, r6, lsl #26
    5350:	5e8a0300 	cdppl	3, 8, cr0, cr10, cr0, {0}
    5354:	04000000 	streq	r0, [r0], #-0
    5358:	23021802 	movwcs	r1, #10242	; 0x2802
    535c:	051e0600 	ldreq	r0, [lr, #-1536]	; 0x600
    5360:	8b030000 	blhi	c5368 <__bss_end+0xc2aa8>
    5364:	0000005e 	andeq	r0, r0, lr, asr r0
    5368:	02140404 	andseq	r0, r4, #67108864	; 0x4000000
    536c:	37060023 	strcc	r0, [r6, -r3, lsr #32]
    5370:	0300000a 	movweq	r0, #10
    5374:	00005e8c 	andeq	r5, r0, ip, lsl #29
    5378:	10040400 	andne	r0, r4, r0, lsl #8
    537c:	06002302 	streq	r2, [r0], -r2, lsl #6
    5380:	000004be 			; <UNDEFINED> instruction: 0x000004be
    5384:	005e8d03 	subseq	r8, lr, r3, lsl #26
    5388:	01040000 	mrseq	r0, (UNDEF: 4)
    538c:	0023020f 	eoreq	r0, r3, pc, lsl #4
    5390:	00098906 	andeq	r8, r9, r6, lsl #18
    5394:	5e8f0300 	cdppl	3, 8, cr0, cr15, cr0, {0}
    5398:	04000000 	streq	r0, [r0], #-0
    539c:	23020e01 	movwcs	r0, #11777	; 0x2e01
    53a0:	0a410600 	beq	1046ba8 <__bss_end+0x10442e8>
    53a4:	90030000 	andls	r0, r3, r0
    53a8:	0000005e 	andeq	r0, r0, lr, asr r0
    53ac:	020c0204 	andeq	r0, ip, #1073741824	; 0x40000000
    53b0:	f2060023 	vhadd.s8	d0, d6, d19
    53b4:	03000008 	movweq	r0, #8
    53b8:	00005e91 	muleq	r0, r1, lr
    53bc:	0b010400 	bleq	463c4 <__bss_end+0x43b04>
    53c0:	06002302 	streq	r2, [r0], -r2, lsl #6
    53c4:	00000379 	andeq	r0, r0, r9, ror r3
    53c8:	005e9203 	subseq	r9, lr, r3, lsl #4
    53cc:	01040000 	mrseq	r0, (UNDEF: 4)
    53d0:	0023020a 	eoreq	r0, r3, sl, lsl #4
    53d4:	0003fe06 	andeq	pc, r3, r6, lsl #28
    53d8:	5e930300 	cdppl	3, 9, cr0, cr3, cr0, {0}
    53dc:	04000000 	streq	r0, [r0], #-0
    53e0:	23020901 	movwcs	r0, #10497	; 0x2901
    53e4:	0a260600 	beq	986bec <__bss_end+0x98432c>
    53e8:	94030000 	strls	r0, [r3], #-0
    53ec:	0000005e 	andeq	r0, r0, lr, asr r0
    53f0:	02080104 	andeq	r0, r8, #1
    53f4:	4b060023 	blmi	185488 <__bss_end+0x182bc8>
    53f8:	0300000a 	movweq	r0, #10
    53fc:	00005e95 	muleq	r0, r5, lr
    5400:	07010400 	streq	r0, [r1, -r0, lsl #8]
    5404:	06002302 	streq	r2, [r0], -r2, lsl #6
    5408:	00000939 	andeq	r0, r0, r9, lsr r9
    540c:	005e9603 	subseq	r9, lr, r3, lsl #12
    5410:	01040000 	mrseq	r0, (UNDEF: 4)
    5414:	00230206 	eoreq	r0, r3, r6, lsl #4
    5418:	0009c606 	andeq	ip, r9, r6, lsl #12
    541c:	5e970300 	cdppl	3, 9, cr0, cr7, cr0, {0}
    5420:	04000000 	streq	r0, [r0], #-0
    5424:	23020501 	movwcs	r0, #9473	; 0x2501
    5428:	0b5e0600 	bleq	1786c30 <__bss_end+0x1784370>
    542c:	98030000 	stmdals	r3, {}	; <UNPREDICTABLE>
    5430:	0000005e 	andeq	r0, r0, lr, asr r0
    5434:	02040104 	andeq	r0, r4, #1
    5438:	1d060023 	stcne	0, cr0, [r6, #-140]	; 0xffffff74
    543c:	03000009 	movweq	r0, #9
    5440:	00005e99 	muleq	r0, r9, lr
    5444:	03010400 	movweq	r0, #5120	; 0x1400
    5448:	06002302 	streq	r2, [r0], -r2, lsl #6
    544c:	00000a55 	andeq	r0, r0, r5, asr sl
    5450:	005e9a03 	subseq	r9, lr, r3, lsl #20
    5454:	02040000 	andeq	r0, r4, #0
    5458:	00230201 	eoreq	r0, r3, r1, lsl #4
    545c:	0009cc06 	andeq	ip, r9, r6, lsl #24
    5460:	5e9b0300 	cdppl	3, 9, cr0, cr11, cr0, {0}
    5464:	04000000 	streq	r0, [r0], #-0
    5468:	23020001 	movwcs	r0, #8193	; 0x2001
    546c:	d1030000 	mrsle	r0, (UNDEF: 3)
    5470:	03000002 	movweq	r0, #2
    5474:	0005519c 	muleq	r5, ip, r1
    5478:	03040500 	movweq	r0, #17664	; 0x4500
    547c:	00071ba4 	andeq	r1, r7, r4, lsr #23
    5480:	0cc10600 	stcleq	6, cr0, [r1], {0}
    5484:	a6030000 	strge	r0, [r3], -r0
    5488:	0000005e 	andeq	r0, r0, lr, asr r0
    548c:	021e0204 	andseq	r0, lr, #1073741824	; 0x40000000
    5490:	2d060023 	stccs	0, cr0, [r6, #-140]	; 0xffffff74
    5494:	0300000a 	movweq	r0, #10
    5498:	00005ea7 	andeq	r5, r0, r7, lsr #29
    549c:	18060400 	stmdane	r6, {sl}
    54a0:	06002302 	streq	r2, [r0], -r2, lsl #6
    54a4:	00000a07 	andeq	r0, r0, r7, lsl #20
    54a8:	005ea803 	subseq	sl, lr, r3, lsl #16
    54ac:	02040000 	andeq	r0, r4, #0
    54b0:	00230216 	eoreq	r0, r3, r6, lsl r2
    54b4:	000a3706 	andeq	r3, sl, r6, lsl #14
    54b8:	5ea90300 	cdppl	3, 10, cr0, cr9, cr0, {0}
    54bc:	04000000 	streq	r0, [r0], #-0
    54c0:	23021006 	movwcs	r1, #8198	; 0x2006
    54c4:	06560600 	ldrbeq	r0, [r6], -r0, lsl #12
    54c8:	aa030000 	bge	c54d0 <__bss_end+0xc2c10>
    54cc:	0000005e 	andeq	r0, r0, lr, asr r0
    54d0:	020e0204 	andeq	r0, lr, #1073741824	; 0x40000000
    54d4:	41060023 	tstmi	r6, r3, lsr #32
    54d8:	0300000a 	movweq	r0, #10
    54dc:	00005eab 	andeq	r5, r0, fp, lsr #29
    54e0:	000e0400 	andeq	r0, lr, r0, lsl #8
    54e4:	00002302 	andeq	r2, r0, r2, lsl #6
    54e8:	a2030407 	andge	r0, r3, #117440512	; 0x7000000
    54ec:	0000073a 	andeq	r0, r0, sl, lsr r7
    54f0:	00030f08 	andeq	r0, r3, r8, lsl #30
    54f4:	5ea30300 	cdppl	3, 10, cr0, cr3, cr0, {0}
    54f8:	08000000 	stmdaeq	r0, {}	; <UNPREDICTABLE>
    54fc:	000007f9 	strdeq	r0, [r0], -r9
    5500:	06acac03 	strteq	sl, [ip], r3, lsl #24
    5504:	03000000 	movweq	r0, #0
    5508:	000003e0 	andeq	r0, r0, r0, ror #7
    550c:	071bad03 	ldreq	sl, [fp, -r3, lsl #26]
    5510:	a1090000 	mrsge	r0, (UNDEF: 9)
    5514:	04000002 	streq	r0, [r0], #-2
    5518:	07c9b403 	strbeq	fp, [r9, r3, lsl #8]
    551c:	2d060000 	stccs	0, cr0, [r6, #-0]
    5520:	0300000a 	movweq	r0, #10
    5524:	00005eb6 			; <UNDEFINED> instruction: 0x00005eb6
    5528:	1c040400 	cfstrsne	mvf0, [r4], {-0}
    552c:	06002302 	streq	r2, [r0], -r2, lsl #6
    5530:	0000084a 	andeq	r0, r0, sl, asr #16
    5534:	005eb703 	subseq	fp, lr, r3, lsl #14
    5538:	02040000 	andeq	r0, r4, #0
    553c:	0023021a 	eoreq	r0, r3, sl, lsl r2
    5540:	000c8406 	andeq	r8, ip, r6, lsl #8
    5544:	5eb80300 	cdppl	3, 11, cr0, cr8, cr0, {0}
    5548:	04000000 	streq	r0, [r0], #-0
    554c:	23021802 	movwcs	r1, #10242	; 0x2802
    5550:	09790600 	ldmdbeq	r9!, {r9, sl}^
    5554:	b9030000 	stmdblt	r3, {}	; <UNPREDICTABLE>
    5558:	0000005e 	andeq	r0, r0, lr, asr r0
    555c:	02160204 	andseq	r0, r6, #1073741824	; 0x40000000
    5560:	37060023 	strcc	r0, [r6, -r3, lsr #32]
    5564:	0300000a 	movweq	r0, #10
    5568:	00005eba 			; <UNDEFINED> instruction: 0x00005eba
    556c:	14020400 	strne	r0, [r2], #-1024	; 0x400
    5570:	06002302 	streq	r2, [r0], -r2, lsl #6
    5574:	00000964 	andeq	r0, r0, r4, ror #18
    5578:	005ebb03 	subseq	fp, lr, r3, lsl #22
    557c:	02040000 	andeq	r0, r4, #0
    5580:	00230212 	eoreq	r0, r3, r2, lsl r2
    5584:	000a4106 	andeq	r4, sl, r6, lsl #2
    5588:	5ebc0300 	cdppl	3, 11, cr0, cr12, cr0, {0}
    558c:	04000000 	streq	r0, [r0], #-0
    5590:	23020012 	movwcs	r0, #8210	; 0x2012
    5594:	d5030000 	strle	r0, [r3, #-0]
    5598:	0300000b 	movweq	r0, #11
    559c:	000745bd 			; <UNDEFINED> instruction: 0x000745bd
    55a0:	0c2d0900 	stceq	9, cr0, [sp], #-0
    55a4:	03040000 	movweq	r0, #16384	; 0x4000
    55a8:	000847c3 	andeq	r4, r8, r3, asr #15
    55ac:	05a90600 	streq	r0, [r9, #1536]!	; 0x600
    55b0:	c5030000 	strgt	r0, [r3, #-0]
    55b4:	0000005e 	andeq	r0, r0, lr, asr r0
    55b8:	021b0504 	andseq	r0, fp, #16777216	; 0x1000000
    55bc:	b8060023 	stmdalt	r6, {r0, r1, r5}
    55c0:	0300000c 	movweq	r0, #12
    55c4:	00005ec6 	andeq	r5, r0, r6, asr #29
    55c8:	100b0400 	andne	r0, fp, r0, lsl #8
    55cc:	06002302 	streq	r2, [r0], -r2, lsl #6
    55d0:	000005ae 	andeq	r0, r0, lr, lsr #11
    55d4:	005ec703 	subseq	ip, lr, r3, lsl #14
    55d8:	02040000 	andeq	r0, r4, #0
    55dc:	0023020e 	eoreq	r0, r3, lr, lsl #4
    55e0:	000a3706 	andeq	r3, sl, r6, lsl #14
    55e4:	5ec80300 	cdppl	3, 12, cr0, cr8, cr0, {0}
    55e8:	04000000 	streq	r0, [r0], #-0
    55ec:	23020806 	movwcs	r0, #10246	; 0x2806
    55f0:	09680600 	stmdbeq	r8!, {r9, sl}^
    55f4:	c9030000 	stmdbgt	r3, {}	; <UNPREDICTABLE>
    55f8:	0000005e 	andeq	r0, r0, lr, asr r0
    55fc:	02060204 	andeq	r0, r6, #1073741824	; 0x40000000
    5600:	41060023 	tstmi	r6, r3, lsr #32
    5604:	0300000a 	movweq	r0, #10
    5608:	00005eca 	andeq	r5, r0, sl, asr #29
    560c:	00060400 	andeq	r0, r6, r0, lsl #8
    5610:	00002302 	andeq	r2, r0, r2, lsl #6
    5614:	00089203 	andeq	r9, r8, r3, lsl #4
    5618:	d4cb0300 	strble	r0, [fp], #768	; 0x300
    561c:	09000007 	stmdbeq	r0, {r0, r1, r2}
    5620:	00000721 	andeq	r0, r0, r1, lsr #14
    5624:	81cd0304 	bichi	r0, sp, r4, lsl #6
    5628:	06000008 	streq	r0, [r0], -r8
    562c:	00000c7b 	andeq	r0, r0, fp, ror ip
    5630:	005ecf03 	subseq	ip, lr, r3, lsl #30
    5634:	10040000 	andne	r0, r4, r0
    5638:	00230210 	eoreq	r0, r3, r0, lsl r2
    563c:	000cb806 	andeq	fp, ip, r6, lsl #16
    5640:	5ed00300 	cdppl	3, 13, cr0, cr0, cr0, {0}
    5644:	04000000 	streq	r0, [r0], #-0
    5648:	23020010 	movwcs	r0, #8208	; 0x2010
    564c:	1b030000 	blne	c5654 <__bss_end+0xc2d94>
    5650:	0300000b 	movweq	r0, #11
    5654:	000852d1 	ldrdeq	r5, [r8], -r1
    5658:	0d2e0a00 	vstmdbeq	lr!, {s0-s-1}
    565c:	02dc0000 	sbcseq	r0, ip, #0
    5660:	1070d303 	rsbsne	sp, r0, r3, lsl #6
    5664:	eb0b0000 	bl	2c566c <__bss_end+0x2c2dac>
    5668:	03000006 	movweq	r0, #6
    566c:	001070d5 	ldrsbeq	r7, [r0], -r5
    5670:	00230200 	eoreq	r0, r3, r0, lsl #4
    5674:	000a2d0b 	andeq	r2, sl, fp, lsl #26
    5678:	75d60300 	ldrbvc	r0, [r6, #768]	; 0x300
    567c:	02000010 	andeq	r0, r0, #16
    5680:	260b0423 	strcs	r0, [fp], -r3, lsr #8
    5684:	0300000d 	movweq	r0, #13
    5688:	00107ad7 			; <UNDEFINED> instruction: 0x00107ad7
    568c:	08230200 	stmdaeq	r3!, {r9}
    5690:	000a370b 	andeq	r3, sl, fp, lsl #14
    5694:	75d80300 	ldrbvc	r0, [r8, #768]	; 0x300
    5698:	02000010 	andeq	r0, r0, #16
    569c:	740b0c23 	strvc	r0, [fp], #-3107	; 0xc23
    56a0:	03000008 	movweq	r0, #8
    56a4:	001075d9 			; <UNDEFINED> instruction: 0x001075d9
    56a8:	10230200 	eorne	r0, r3, r0, lsl #4
    56ac:	000a410b 	andeq	r4, sl, fp, lsl #2
    56b0:	75da0300 	ldrbvc	r0, [sl, #768]	; 0x300
    56b4:	02000010 	andeq	r0, r0, #16
    56b8:	a30b1423 	movwge	r1, #46115	; 0xb423
    56bc:	03000003 	movweq	r0, #3
    56c0:	001075db 			; <UNDEFINED> instruction: 0x001075db
    56c4:	18230200 	stmdane	r3!, {r9}
    56c8:	000a4b0b 	andeq	r4, sl, fp, lsl #22
    56cc:	75dc0300 	ldrbvc	r0, [ip, #768]	; 0x300
    56d0:	02000010 	andeq	r0, r0, #16
    56d4:	a00b1c23 	andge	r1, fp, r3, lsr #24
    56d8:	03000009 	movweq	r0, #9
    56dc:	00107fdd 			; <UNDEFINED> instruction: 0x00107fdd
    56e0:	20230200 	eorcs	r0, r3, r0, lsl #4
    56e4:	000a550b 	andeq	r5, sl, fp, lsl #10
    56e8:	75de0300 	ldrbvc	r0, [lr, #768]	; 0x300
    56ec:	02000010 	andeq	r0, r0, #16
    56f0:	470b2423 	strmi	r2, [fp, -r3, lsr #8]
    56f4:	03000003 	movweq	r0, #3
    56f8:	001084df 			; <UNDEFINED> instruction: 0x001084df
    56fc:	28230200 	stmdacs	r3!, {r9}
    5700:	000a5f0b 	andeq	r5, sl, fp, lsl #30
    5704:	75e00300 	strbvc	r0, [r0, #768]!	; 0x300
    5708:	02000010 	andeq	r0, r0, #16
    570c:	950b2c23 	strls	r2, [fp, #-3107]	; 0xc23
    5710:	03000009 	movweq	r0, #9
    5714:	001075e1 	andseq	r7, r0, r1, ror #11
    5718:	30230200 	eorcc	r0, r3, r0, lsl #4
    571c:	000a690b 	andeq	r6, sl, fp, lsl #18
    5720:	75e20300 	strbvc	r0, [r2, #768]!	; 0x300
    5724:	02000010 	andeq	r0, r0, #16
    5728:	0e0b3423 	cdpeq	4, 0, cr3, cr11, cr3, {1}
    572c:	03000007 	movweq	r0, #7
    5730:	001089e3 	andseq	r8, r0, r3, ror #19
    5734:	38230200 	stmdacc	r3!, {r9}
    5738:	000a730b 	andeq	r7, sl, fp, lsl #6
    573c:	75e40300 	strbvc	r0, [r4, #768]!	; 0x300
    5740:	02000010 	andeq	r0, r0, #16
    5744:	030b3c23 	movweq	r3, #48163	; 0xbc23
    5748:	03000005 	movweq	r0, #5
    574c:	00108ee5 	andseq	r8, r0, r5, ror #29
    5750:	40230200 	eormi	r0, r3, r0, lsl #4
    5754:	000d7c0b 	andeq	r7, sp, fp, lsl #24
    5758:	75e60300 	strbvc	r0, [r6, #768]!	; 0x300
    575c:	02000010 	andeq	r0, r0, #16
    5760:	9a0b4423 	bls	2d67f4 <__bss_end+0x2d3f34>
    5764:	03000003 	movweq	r0, #3
    5768:	001075e7 	andseq	r7, r0, r7, ror #11
    576c:	48230200 	stmdami	r3!, {r9}
    5770:	0009e80b 	andeq	lr, r9, fp, lsl #16
    5774:	75e80300 	strbvc	r0, [r8, #768]!	; 0x300
    5778:	02000010 	andeq	r0, r0, #16
    577c:	7c0b4c23 	stcvc	12, cr4, [fp], {35}	; 0x23
    5780:	03000008 	movweq	r0, #8
    5784:	001093e9 	andseq	r9, r0, r9, ror #7
    5788:	50230200 	eorpl	r0, r3, r0, lsl #4
    578c:	00084a0b 	andeq	r4, r8, fp, lsl #20
    5790:	98ea0300 	stmials	sl!, {r8, r9}^
    5794:	02000010 	andeq	r0, r0, #16
    5798:	260b5423 	strcs	r5, [fp], -r3, lsr #8
    579c:	03000005 	movweq	r0, #5
    57a0:	00109deb 	andseq	r9, r0, fp, ror #27
    57a4:	58230200 	stmdapl	r3!, {r9}
    57a8:	000c020b 	andeq	r0, ip, fp, lsl #4
    57ac:	75ec0300 	strbvc	r0, [ip, #768]!	; 0x300
    57b0:	02000010 	andeq	r0, r0, #16
    57b4:	fe0b5c23 	cdp2	12, 0, cr5, cr11, cr3, {1}
    57b8:	0300000a 	movweq	r0, #10
    57bc:	001075ed 	andseq	r7, r0, sp, ror #11
    57c0:	60230200 	eorvs	r0, r3, r0, lsl #4
    57c4:	0006ba0b 	andeq	fp, r6, fp, lsl #20
    57c8:	75ee0300 	strbvc	r0, [lr, #768]!	; 0x300
    57cc:	02000010 	andeq	r0, r0, #16
    57d0:	cb0b6423 	blgt	2de864 <__bss_end+0x2dbfa4>
    57d4:	0300000c 	movweq	r0, #12
    57d8:	001075ef 	andseq	r7, r0, pc, ror #11
    57dc:	68230200 	stmdavs	r3!, {r9}
    57e0:	0008f80b 	andeq	pc, r8, fp, lsl #16
    57e4:	75f00300 	ldrbvc	r0, [r0, #768]!	; 0x300
    57e8:	02000010 	andeq	r0, r0, #16
    57ec:	7d0b6c23 	stcvc	12, cr6, [fp, #-140]	; 0xffffff74
    57f0:	0300000a 	movweq	r0, #10
    57f4:	0010b2f1 			; <UNDEFINED> instruction: 0x0010b2f1
    57f8:	70230200 	eorvc	r0, r3, r0, lsl #4
    57fc:	000d560b 	andeq	r5, sp, fp, lsl #12
    5800:	75f20300 	ldrbvc	r0, [r2, #768]!	; 0x300
    5804:	03000010 	movweq	r0, #16
    5808:	0b018023 	bleq	6589c <__bss_end+0x62fdc>
    580c:	00000cd4 	ldrdeq	r0, [r0], -r4
    5810:	1075f303 	rsbsne	pc, r5, r3, lsl #6
    5814:	23030000 	movwcs	r0, #12288	; 0x3000
    5818:	530c0184 	movwpl	r0, #49540	; 0xc184
    581c:	03003064 	movweq	r3, #100	; 0x64
    5820:	001075f4 			; <UNDEFINED> instruction: 0x001075f4
    5824:	88230300 	stmdahi	r3!, {r8, r9}
    5828:	64530c01 	ldrbvs	r0, [r3], #-3073	; 0xc01
    582c:	f5030031 			; <UNDEFINED> instruction: 0xf5030031
    5830:	00001075 	andeq	r1, r0, r5, ror r0
    5834:	018c2303 	orreq	r2, ip, r3, lsl #6
    5838:	3264530c 	rsbcc	r5, r4, #805306368	; 0x30000000
    583c:	75f60300 	ldrbvc	r0, [r6, #768]!	; 0x300
    5840:	03000010 	movweq	r0, #16
    5844:	0b019023 	bleq	698d8 <__bss_end+0x67018>
    5848:	00000cdf 	ldrdeq	r0, [r0], -pc	; <UNPREDICTABLE>
    584c:	10c7f703 	sbcne	pc, r7, r3, lsl #14
    5850:	23030000 	movwcs	r0, #12288	; 0x3000
    5854:	530c0194 	movwpl	r0, #49556	; 0xc194
    5858:	f8030073 			; <UNDEFINED> instruction: 0xf8030073
    585c:	00001075 	andeq	r1, r0, r5, ror r0
    5860:	019c2303 	orrseq	r2, ip, r3, lsl #6
    5864:	000af40b 	andeq	pc, sl, fp, lsl #8
    5868:	75f90300 	ldrbvc	r0, [r9, #768]!	; 0x300
    586c:	03000010 	movweq	r0, #16
    5870:	0b01a023 	bleq	6d904 <__bss_end+0x6b044>
    5874:	00000af9 	strdeq	r0, [r0], -r9
    5878:	1075fa03 	rsbsne	pc, r5, r3, lsl #20
    587c:	23030000 	movwcs	r0, #12288	; 0x3000
    5880:	ea0b01a4 	b	2c5f18 <__bss_end+0x2c3658>
    5884:	0300000c 	movweq	r0, #12
    5888:	0010ccfb 			; <UNDEFINED> instruction: 0x0010ccfb
    588c:	a8230300 	stmdage	r3!, {r8, r9}
    5890:	03900b01 	orrseq	r0, r0, #1024	; 0x400
    5894:	fc030000 	stc2	0, cr0, [r3], {-0}
    5898:	00001075 	andeq	r1, r0, r5, ror r0
    589c:	01b02303 	lslseq	r2, r3, #6
    58a0:	0003950b 	andeq	r9, r3, fp, lsl #10
    58a4:	75fd0300 	ldrbvc	r0, [sp, #768]!	; 0x300
    58a8:	03000010 	movweq	r0, #16
    58ac:	0b01b423 	bleq	72940 <__bss_end+0x70080>
    58b0:	00000716 	andeq	r0, r0, r6, lsl r7
    58b4:	10d1fe03 	sbcsne	pc, r1, r3, lsl #28
    58b8:	23030000 	movwcs	r0, #12288	; 0x3000
    58bc:	520b01b8 	andpl	r0, fp, #46	; 0x2e
    58c0:	0300000b 	movweq	r0, #11
    58c4:	001075ff 			; <UNDEFINED> instruction: 0x001075ff
    58c8:	c0230300 	eorgt	r0, r3, r0, lsl #6
    58cc:	08260d01 	stmdaeq	r6!, {r0, r8, sl, fp}
    58d0:	00030000 	andeq	r0, r3, r0
    58d4:	0010d601 	andseq	sp, r0, r1, lsl #12
    58d8:	c4230300 	strtgt	r0, [r3], #-768	; 0x300
    58dc:	73550e01 	cmpvc	r5, #16
    58e0:	01030062 	tsteq	r3, r2, rrx
    58e4:	00107501 	andseq	r7, r0, r1, lsl #10
    58e8:	cc230300 	stcgt	3, cr0, [r3], #-0
    58ec:	059d0d01 	ldreq	r0, [sp, #3329]	; 0xd01
    58f0:	02030000 	andeq	r0, r3, #0
    58f4:	00107501 	andseq	r7, r0, r1, lsl #10
    58f8:	d0230300 	eorle	r0, r3, r0, lsl #6
    58fc:	07380d01 	ldreq	r0, [r8, -r1, lsl #26]!
    5900:	03030000 	movweq	r0, #12288	; 0x3000
    5904:	0010eb01 	andseq	lr, r0, r1, lsl #22
    5908:	d4230300 	strtle	r0, [r3], #-768	; 0x300
    590c:	0d1a0d01 	ldceq	13, cr0, [sl, #-4]
    5910:	04030000 	streq	r0, [r3], #-0
    5914:	00107501 	andseq	r7, r0, r1, lsl #10
    5918:	f0230300 			; <UNDEFINED> instruction: 0xf0230300
    591c:	0bcd0d01 	bleq	ff348d28 <__bss_end+0xff346468>
    5920:	05030000 	streq	r0, [r3, #-0]
    5924:	00107501 	andseq	r7, r0, r1, lsl #10
    5928:	f4230300 	vld2.8	{d0-d3}, [r3], r0
    592c:	07750d01 	ldrbeq	r0, [r5, -r1, lsl #26]!
    5930:	06030000 	streq	r0, [r3], -r0
    5934:	00107501 	andseq	r7, r0, r1, lsl #10
    5938:	f8230300 			; <UNDEFINED> instruction: 0xf8230300
    593c:	08ae0d01 	stmiaeq	lr!, {r0, r8, sl, fp}
    5940:	07030000 	streq	r0, [r3, -r0]
    5944:	00107501 	andseq	r7, r0, r1, lsl #10
    5948:	fc230300 	stc2	3, cr0, [r3], #-0
    594c:	095b0d01 	ldmdbeq	fp, {r0, r8, sl, fp}^
    5950:	08030000 	stmdaeq	r3, {}	; <UNPREDICTABLE>
    5954:	00107501 	andseq	r7, r0, r1, lsl #10
    5958:	80230300 	eorhi	r0, r3, r0, lsl #6
    595c:	65420e02 	strbvs	r0, [r2, #-3586]	; 0xe02
    5960:	09030030 	stmdbeq	r3, {r4, r5}
    5964:	00107501 	andseq	r7, r0, r1, lsl #10
    5968:	84230300 	strthi	r0, [r3], #-768	; 0x300
    596c:	08680d02 	stmdaeq	r8!, {r1, r8, sl, fp}^
    5970:	0a030000 	beq	c5978 <__bss_end+0xc30b8>
    5974:	00107501 	andseq	r7, r0, r1, lsl #10
    5978:	88230300 	stmdahi	r3!, {r8, r9}
    597c:	65460e02 	strbvs	r0, [r6, #-3586]	; 0xe02
    5980:	0b030030 	bleq	c5a48 <__bss_end+0xc3188>
    5984:	00107501 	andseq	r7, r0, r1, lsl #10
    5988:	8c230300 	stchi	3, cr0, [r3], #-0
    598c:	02eb0d02 	rsceq	r0, fp, #128	; 0x80
    5990:	0c030000 	stceq	0, cr0, [r3], {-0}
    5994:	00107501 	andseq	r7, r0, r1, lsl #10
    5998:	90230300 	eorls	r0, r3, r0, lsl #6
    599c:	02f70d02 	rscseq	r0, r7, #128	; 0x80
    59a0:	0d030000 	stceq	0, cr0, [r3, #-0]
    59a4:	00107501 	andseq	r7, r0, r1, lsl #10
    59a8:	94230300 	strtls	r0, [r3], #-768	; 0x300
    59ac:	032f0d02 	teqeq	pc, #128	; 0x80
    59b0:	0e030000 	cdpeq	0, 0, cr0, cr3, cr0, {0}
    59b4:	00107501 	andseq	r7, r0, r1, lsl #10
    59b8:	98230300 	stmdals	r3!, {r8, r9}
    59bc:	03030d02 	movweq	r0, #15618	; 0x3d02
    59c0:	0f030000 	svceq	0x00030000
    59c4:	00107501 	andseq	r7, r0, r1, lsl #10
    59c8:	9c230300 	stcls	3, cr0, [r3], #-0
    59cc:	07490d02 	strbeq	r0, [r9, -r2, lsl #26]
    59d0:	10030000 	andne	r0, r3, r0
    59d4:	00110001 	andseq	r0, r1, r1
    59d8:	a0230300 	eorge	r0, r3, r0, lsl #6
    59dc:	03370d02 	teqeq	r7, #128	; 0x80
    59e0:	11030000 	mrsne	r0, (UNDEF: 3)
    59e4:	00107501 	andseq	r7, r0, r1, lsl #10
    59e8:	ac230300 	stcge	3, cr0, [r3], #-0
    59ec:	034f0d02 	movteq	r0, #64770	; 0xfd02
    59f0:	12030000 	andne	r0, r3, #0
    59f4:	00107501 	andseq	r7, r0, r1, lsl #10
    59f8:	b0230300 	eorlt	r0, r3, r0, lsl #6
    59fc:	0aa10d02 	beq	fe848e0c <__bss_end+0xfe84654c>
    5a00:	13030000 	movwne	r0, #12288	; 0x3000
    5a04:	00107501 	andseq	r7, r0, r1, lsl #10
    5a08:	b4230300 	strtlt	r0, [r3], #-768	; 0x300
    5a0c:	035b0d02 	cmpeq	fp, #128	; 0x80
    5a10:	14030000 	strne	r0, [r3], #-0
    5a14:	00107501 	andseq	r7, r0, r1, lsl #10
    5a18:	b8230300 	stmdalt	r3!, {r8, r9}
    5a1c:	65560e02 	ldrbvs	r0, [r6, #-3586]	; 0xe02
    5a20:	01150300 	tsteq	r5, r0, lsl #6
    5a24:	00001075 	andeq	r1, r0, r5, ror r0
    5a28:	02bc2303 	adcseq	r2, ip, #201326592	; 0xc000000
    5a2c:	0006f30d 	andeq	pc, r6, sp, lsl #6
    5a30:	01160300 	tsteq	r6, r0, lsl #6
    5a34:	00001075 	andeq	r1, r0, r5, ror r0
    5a38:	02c02303 	sbceq	r2, r0, #201326592	; 0xc000000
    5a3c:	7376410e 	cmnvc	r6, #-2147483645	; 0x80000003
    5a40:	01170300 	tsteq	r7, r0, lsl #6
    5a44:	00001075 	andeq	r1, r0, r5, ror r0
    5a48:	02c42303 	sbceq	r2, r4, #201326592	; 0xc000000
    5a4c:	0003670d 	andeq	r6, r3, sp, lsl #14
    5a50:	01180300 	tsteq	r8, r0, lsl #6
    5a54:	00001075 	andeq	r1, r0, r5, ror r0
    5a58:	02c82303 	sbceq	r2, r8, #201326592	; 0xc000000
    5a5c:	0007540d 	andeq	r5, r7, sp, lsl #8
    5a60:	01190300 	tsteq	r9, r0, lsl #6
    5a64:	00001075 	andeq	r1, r0, r5, ror r0
    5a68:	02cc2303 	sbceq	r2, ip, #201326592	; 0xc000000
    5a6c:	00042a0d 	andeq	r2, r4, sp, lsl #20
    5a70:	011a0300 	tsteq	sl, r0, lsl #6
    5a74:	00001075 	andeq	r1, r0, r5, ror r0
    5a78:	02d02303 	sbcseq	r2, r0, #201326592	; 0xc000000
    5a7c:	0004360d 	andeq	r3, r4, sp, lsl #12
    5a80:	011b0300 	tsteq	fp, r0, lsl #6
    5a84:	00001075 	andeq	r1, r0, r5, ror r0
    5a88:	02d42303 	sbcseq	r2, r4, #201326592	; 0xc000000
    5a8c:	0004420d 	andeq	r4, r4, sp, lsl #4
    5a90:	011c0300 	tsteq	ip, r0, lsl #6
    5a94:	00001075 	andeq	r1, r0, r5, ror r0
    5a98:	02d82303 	sbcseq	r2, r8, #201326592	; 0xc000000
    5a9c:	0004b80d 	andeq	fp, r4, sp, lsl #16
    5aa0:	011d0300 	tsteq	sp, r0, lsl #6
    5aa4:	00001075 	andeq	r1, r0, r5, ror r0
    5aa8:	02dc2303 	sbcseq	r2, ip, #201326592	; 0xc000000
    5aac:	00044e0d 	andeq	r4, r4, sp, lsl #28
    5ab0:	011e0300 	tsteq	lr, r0, lsl #6
    5ab4:	00001075 	andeq	r1, r0, r5, ror r0
    5ab8:	02e02303 	rsceq	r2, r0, #201326592	; 0xc000000
    5abc:	00075f0d 	andeq	r5, r7, sp, lsl #30
    5ac0:	011f0300 	tsteq	pc, r0, lsl #6
    5ac4:	00001075 	andeq	r1, r0, r5, ror r0
    5ac8:	02e42303 	rsceq	r2, r4, #201326592	; 0xc000000
    5acc:	0003d80d 	andeq	sp, r3, sp, lsl #16
    5ad0:	01200300 	teqeq	r0, r0, lsl #6
    5ad4:	00001075 	andeq	r1, r0, r5, ror r0
    5ad8:	02e82303 	rsceq	r2, r8, #201326592	; 0xc000000
    5adc:	000c6f0d 	andeq	r6, ip, sp, lsl #30
    5ae0:	01210300 	teqeq	r1, r0, lsl #6
    5ae4:	00001075 	andeq	r1, r0, r5, ror r0
    5ae8:	02ec2303 	rsceq	r2, ip, #201326592	; 0xc000000
    5aec:	00076a0d 	andeq	r6, r7, sp, lsl #20
    5af0:	01220300 	teqeq	r2, r0, lsl #6
    5af4:	00001105 	andeq	r1, r0, r5, lsl #2
    5af8:	02f02303 	rscseq	r2, r0, #201326592	; 0xc000000
    5afc:	00064e0d 	andeq	r4, r6, sp, lsl #28
    5b00:	01230300 	teqeq	r3, r0, lsl #6
    5b04:	00001075 	andeq	r1, r0, r5, ror r0
    5b08:	03802303 	orreq	r2, r0, #201326592	; 0xc000000
    5b0c:	0005fd0d 	andeq	pc, r5, sp, lsl #26
    5b10:	01240300 	teqeq	r4, r0, lsl #6
    5b14:	00001075 	andeq	r1, r0, r5, ror r0
    5b18:	03842303 	orreq	r2, r4, #201326592	; 0xc000000
    5b1c:	0006090d 	andeq	r0, r6, sp, lsl #18
    5b20:	01250300 	teqeq	r5, r0, lsl #6
    5b24:	00001075 	andeq	r1, r0, r5, ror r0
    5b28:	03882303 	orreq	r2, r8, #201326592	; 0xc000000
    5b2c:	0006150d 	andeq	r1, r6, sp, lsl #10
    5b30:	01260300 	teqeq	r6, r0, lsl #6
    5b34:	00001075 	andeq	r1, r0, r5, ror r0
    5b38:	038c2303 	orreq	r2, ip, #201326592	; 0xc000000
    5b3c:	0008520d 	andeq	r5, r8, sp, lsl #4
    5b40:	01270300 	teqeq	r7, r0, lsl #6
    5b44:	0000110a 	andeq	r1, r0, sl, lsl #2
    5b48:	03902303 	orrseq	r2, r0, #201326592	; 0xc000000
    5b4c:	0006460d 	andeq	r4, r6, sp, lsl #12
    5b50:	01280300 	teqeq	r8, r0, lsl #6
    5b54:	00001075 	andeq	r1, r0, r5, ror r0
    5b58:	03a02303 	moveq	r2, #201326592	; 0xc000000
    5b5c:	00058e0d 	andeq	r8, r5, sp, lsl #28
    5b60:	01290300 	teqeq	r9, r0, lsl #6
    5b64:	00001075 	andeq	r1, r0, r5, ror r0
    5b68:	03a42303 			; <UNDEFINED> instruction: 0x03a42303
    5b6c:	0008bb0d 	andeq	fp, r8, sp, lsl #22
    5b70:	012a0300 	teqeq	sl, r0, lsl #6
    5b74:	00001075 	andeq	r1, r0, r5, ror r0
    5b78:	03a82303 			; <UNDEFINED> instruction: 0x03a82303
    5b7c:	0006710d 	andeq	r7, r6, sp, lsl #2
    5b80:	012b0300 	teqeq	fp, r0, lsl #6
    5b84:	00001075 	andeq	r1, r0, r5, ror r0
    5b88:	03ac2303 			; <UNDEFINED> instruction: 0x03ac2303
    5b8c:	7374410e 	cmnvc	r4, #-2147483645	; 0x80000003
    5b90:	012c0300 	teqeq	ip, r0, lsl #6
    5b94:	00001075 	andeq	r1, r0, r5, ror r0
    5b98:	03b02303 	movseq	r2, #201326592	; 0xc000000
    5b9c:	00085d0d 	andeq	r5, r8, sp, lsl #26
    5ba0:	012d0300 	teqeq	sp, r0, lsl #6
    5ba4:	0000111f 	andeq	r1, r0, pc, lsl r1
    5ba8:	03b42303 			; <UNDEFINED> instruction: 0x03b42303
    5bac:	0006210d 	andeq	r2, r6, sp, lsl #2
    5bb0:	012e0300 	teqeq	lr, r0, lsl #6
    5bb4:	00001124 	andeq	r1, r0, r4, lsr #2
    5bb8:	04802303 	streq	r2, [r0], #771	; 0x303
    5bbc:	0009190d 	andeq	r1, r9, sp, lsl #18
    5bc0:	012f0300 	teqeq	pc, r0, lsl #6
    5bc4:	00001075 	andeq	r1, r0, r5, ror r0
    5bc8:	04842303 	streq	r2, [r4], #771	; 0x303
    5bcc:	000cac0d 	andeq	sl, ip, sp, lsl #24
    5bd0:	01300300 	teqeq	r0, r0, lsl #6
    5bd4:	00001139 	andeq	r1, r0, r9, lsr r1
    5bd8:	04882303 	streq	r2, [r8], #771	; 0x303
    5bdc:	0007cd0d 	andeq	ip, r7, sp, lsl #26
    5be0:	01310300 	teqeq	r1, r0, lsl #6
    5be4:	0000114e 	andeq	r1, r0, lr, asr #2
    5be8:	04a02303 	strteq	r2, [r0], #771	; 0x303
    5bec:	0004050d 	andeq	r0, r4, sp, lsl #10
    5bf0:	01320300 	teqeq	r2, r0, lsl #6
    5bf4:	00001075 	andeq	r1, r0, r5, ror r0
    5bf8:	04a42303 	strteq	r2, [r4], #771	; 0x303
    5bfc:	0006de0d 	andeq	sp, r6, sp, lsl #28
    5c00:	01330300 	teqeq	r3, r0, lsl #6
    5c04:	00001075 	andeq	r1, r0, r5, ror r0
    5c08:	04a82303 	strteq	r2, [r8], #771	; 0x303
    5c0c:	0008140d 	andeq	r1, r8, sp, lsl #8
    5c10:	01340300 	teqeq	r4, r0, lsl #6
    5c14:	00001075 	andeq	r1, r0, r5, ror r0
    5c18:	04ac2303 	strteq	r2, [ip], #771	; 0x303
    5c1c:	0009220d 	andeq	r2, r9, sp, lsl #4
    5c20:	01350300 	teqeq	r5, r0, lsl #6
    5c24:	00001075 	andeq	r1, r0, r5, ror r0
    5c28:	04b02303 	ldrteq	r2, [r0], #771	; 0x303
    5c2c:	000b340d 	andeq	r3, fp, sp, lsl #8
    5c30:	01360300 	teqeq	r6, r0, lsl #6
    5c34:	00001075 	andeq	r1, r0, r5, ror r0
    5c38:	04b42303 	ldrteq	r2, [r4], #771	; 0x303
    5c3c:	0005360d 	andeq	r3, r5, sp, lsl #12
    5c40:	01370300 	teqeq	r7, r0, lsl #6
    5c44:	00001075 	andeq	r1, r0, r5, ror r0
    5c48:	04b82303 	ldrteq	r2, [r8], #771	; 0x303
    5c4c:	0005720d 	andeq	r7, r5, sp, lsl #4
    5c50:	01380300 	teqeq	r8, r0, lsl #6
    5c54:	00001075 	andeq	r1, r0, r5, ror r0
    5c58:	04bc2303 	ldrteq	r2, [ip], #771	; 0x303
    5c5c:	0007d60d 	andeq	sp, r7, sp, lsl #12
    5c60:	01390300 	teqeq	r9, r0, lsl #6
    5c64:	00001075 	andeq	r1, r0, r5, ror r0
    5c68:	04c02303 	strbeq	r2, [r0], #771	; 0x303
    5c6c:	00048e0d 	andeq	r8, r4, sp, lsl #28
    5c70:	013a0300 	teqeq	sl, r0, lsl #6
    5c74:	00001075 	andeq	r1, r0, r5, ror r0
    5c78:	04c42303 	strbeq	r2, [r4], #771	; 0x303
    5c7c:	00096f0d 	andeq	r6, r9, sp, lsl #30
    5c80:	013b0300 	teqeq	fp, r0, lsl #6
    5c84:	00001075 	andeq	r1, r0, r5, ror r0
    5c88:	04c82303 	strbeq	r2, [r8], #771	; 0x303
    5c8c:	000b9e0d 	andeq	r9, fp, sp, lsl #28
    5c90:	013c0300 	teqeq	ip, r0, lsl #6
    5c94:	00001075 	andeq	r1, r0, r5, ror r0
    5c98:	04cc2303 	strbeq	r2, [ip], #771	; 0x303
    5c9c:	0004b00d 	andeq	fp, r4, sp
    5ca0:	013d0300 	teqeq	sp, r0, lsl #6
    5ca4:	00001075 	andeq	r1, r0, r5, ror r0
    5ca8:	04d02303 	ldrbeq	r2, [r0], #771	; 0x303
    5cac:	0005420d 	andeq	r4, r5, sp, lsl #4
    5cb0:	013e0300 	teqeq	lr, r0, lsl #6
    5cb4:	00001153 	andeq	r1, r0, r3, asr r1
    5cb8:	04d42303 	ldrbeq	r2, [r4], #771	; 0x303
    5cbc:	00081e0d 	andeq	r1, r8, sp, lsl #28
    5cc0:	013f0300 	teqeq	pc, r0, lsl #6
    5cc4:	00001075 	andeq	r1, r0, r5, ror r0
    5cc8:	04e02303 	strbteq	r2, [r0], #771	; 0x303
    5ccc:	00054e0d 	andeq	r4, r5, sp, lsl #28
    5cd0:	01400300 	mrseq	r0, SPSR_irq
    5cd4:	00001158 	andeq	r1, r0, r8, asr r1
    5cd8:	04e42303 	strbteq	r2, [r4], #771	; 0x303
    5cdc:	0007ee0d 	andeq	lr, r7, sp, lsl #28
    5ce0:	01410300 	mrseq	r0, (UNDEF: 113)
    5ce4:	00001075 	andeq	r1, r0, r5, ror r0
    5ce8:	04f02303 	ldrbteq	r2, [r0], #771	; 0x303
    5cec:	00055a0d 	andeq	r5, r5, sp, lsl #20
    5cf0:	01420300 	mrseq	r0, SPSR_svc
    5cf4:	0000115d 	andeq	r1, r0, sp, asr r1
    5cf8:	04f42303 	ldrbteq	r2, [r4], #771	; 0x303
    5cfc:	0007e20d 	andeq	lr, r7, sp, lsl #4
    5d00:	01430300 	mrseq	r0, (UNDEF: 115)
    5d04:	00001075 	andeq	r1, r0, r5, ror r0
    5d08:	05802303 	streq	r2, [r0, #771]	; 0x303
    5d0c:	000add0d 	andeq	sp, sl, sp, lsl #26
    5d10:	01440300 	mrseq	r0, SPSR_abt
    5d14:	00001075 	andeq	r1, r0, r5, ror r0
    5d18:	05842303 	streq	r2, [r4, #771]	; 0x303
    5d1c:	000c8f0d 	andeq	r8, ip, sp, lsl #30
    5d20:	01450300 	mrseq	r0, (UNDEF: 117)
    5d24:	00001075 	andeq	r1, r0, r5, ror r0
    5d28:	05882303 	streq	r2, [r8, #771]	; 0x303
    5d2c:	000c9f0d 	andeq	r9, ip, sp, lsl #30
    5d30:	01460300 	mrseq	r0, SPSR_und
    5d34:	00001075 	andeq	r1, r0, r5, ror r0
    5d38:	058c2303 	streq	r2, [ip, #771]	; 0x303
    5d3c:	0002910d 	andeq	r9, r2, sp, lsl #2
    5d40:	01470300 	mrseq	r0, (UNDEF: 119)
    5d44:	00001075 	andeq	r1, r0, r5, ror r0
    5d48:	05902303 	ldreq	r2, [r0, #771]	; 0x303
    5d4c:	000b070d 	andeq	r0, fp, sp, lsl #14
    5d50:	01480300 	mrseq	r0, (UNDEF: 120)
    5d54:	00001162 	andeq	r1, r0, r2, ror #2
    5d58:	05942303 	ldreq	r2, [r4, #771]	; 0x303
    5d5c:	0004800d 	andeq	r8, r4, sp
    5d60:	01490300 	mrseq	r0, (UNDEF: 121)
    5d64:	00001075 	andeq	r1, r0, r5, ror r0
    5d68:	059c2303 	ldreq	r2, [ip, #771]	; 0x303
    5d6c:	0007880d 	andeq	r8, r7, sp, lsl #16
    5d70:	014a0300 	mrseq	r0, (UNDEF: 122)
    5d74:	00001075 	andeq	r1, r0, r5, ror r0
    5d78:	05a02303 	streq	r2, [r0, #771]!	; 0x303
    5d7c:	00045a0d 	andeq	r5, r4, sp, lsl #20
    5d80:	014b0300 	mrseq	r0, (UNDEF: 123)
    5d84:	00001075 	andeq	r1, r0, r5, ror r0
    5d88:	05a42303 	streq	r2, [r4, #771]!	; 0x303
    5d8c:	000a870d 	andeq	r8, sl, sp, lsl #14
    5d90:	014c0300 	mrseq	r0, SPSR_mon
    5d94:	00001075 	andeq	r1, r0, r5, ror r0
    5d98:	05a82303 	streq	r2, [r8, #771]!	; 0x303
    5d9c:	000c470d 	andeq	r4, ip, sp, lsl #14
    5da0:	014d0300 	mrseq	r0, (UNDEF: 125)
    5da4:	00001075 	andeq	r1, r0, r5, ror r0
    5da8:	05ac2303 	streq	r2, [ip, #771]!	; 0x303
    5dac:	000c5b0d 	andeq	r5, ip, sp, lsl #22
    5db0:	014e0300 	mrseq	r0, SPSR_hyp
    5db4:	00001075 	andeq	r1, r0, r5, ror r0
    5db8:	05b02303 	ldreq	r2, [r0, #771]!	; 0x303
    5dbc:	0005660d 	andeq	r6, r5, sp, lsl #12
    5dc0:	014f0300 	mrseq	r0, (UNDEF: 127)
    5dc4:	00001167 	andeq	r1, r0, r7, ror #2
    5dc8:	05b42303 	ldreq	r2, [r4, #771]!	; 0x303
    5dcc:	0008c90d 	andeq	ip, r8, sp, lsl #18
    5dd0:	01500300 	cmpeq	r0, r0, lsl #6
    5dd4:	00001075 	andeq	r1, r0, r5, ror r0
    5dd8:	05c02303 	strbeq	r2, [r0, #771]	; 0x303
    5ddc:	0008d30d 	andeq	sp, r8, sp, lsl #6
    5de0:	01510300 	cmpeq	r1, r0, lsl #6
    5de4:	00001075 	andeq	r1, r0, r5, ror r0
    5de8:	05c42303 	strbeq	r2, [r4, #771]	; 0x303
    5dec:	0008dd0d 	andeq	sp, r8, sp, lsl #26
    5df0:	01520300 	cmpeq	r2, r0, lsl #6
    5df4:	00001075 	andeq	r1, r0, r5, ror r0
    5df8:	05c82303 	strbeq	r2, [r8, #771]	; 0x303
    5dfc:	0007fe0d 	andeq	pc, r7, sp, lsl #28
    5e00:	01530300 	cmpeq	r3, r0, lsl #6
    5e04:	00001075 	andeq	r1, r0, r5, ror r0
    5e08:	05cc2303 	strbeq	r2, [ip, #771]	; 0x303
    5e0c:	000a1c0d 	andeq	r1, sl, sp, lsl #24
    5e10:	01540300 	cmpeq	r4, r0, lsl #6
    5e14:	00001075 	andeq	r1, r0, r5, ror r0
    5e18:	05d02303 	ldrbeq	r2, [r0, #771]	; 0x303
    5e1c:	0008090d 	andeq	r0, r8, sp, lsl #18
    5e20:	01550300 	cmpeq	r5, r0, lsl #6
    5e24:	00001075 	andeq	r1, r0, r5, ror r0
    5e28:	05d42303 	ldrbeq	r2, [r4, #771]	; 0x303
    5e2c:	0005cc0d 	andeq	ip, r5, sp, lsl #24
    5e30:	01560300 	cmpeq	r6, r0, lsl #6
    5e34:	00001075 	andeq	r1, r0, r5, ror r0
    5e38:	05d82303 	ldrbeq	r2, [r8, #771]	; 0x303
    5e3c:	01830f00 	orreq	r0, r3, r0, lsl #30
    5e40:	5e0f0000 	cdppl	0, 0, cr0, cr15, cr0, {0}
    5e44:	0f000000 	svceq	0x00000000
    5e48:	00000256 	andeq	r0, r0, r6, asr r2
    5e4c:	00034b0f 	andeq	r4, r3, pc, lsl #22
    5e50:	04620f00 	strbteq	r0, [r2], #-3840	; 0xf00
    5e54:	460f0000 	strmi	r0, [pc], -r0
    5e58:	0f000005 	svceq	0x00000005
    5e5c:	000006a1 	andeq	r0, r0, r1, lsr #13
    5e60:	00073a0f 	andeq	r3, r7, pc, lsl #20
    5e64:	07c90f00 	strbeq	r0, [r9, r0, lsl #30]
    5e68:	470f0000 	strmi	r0, [pc, -r0]
    5e6c:	10000008 	andne	r0, r0, r8
    5e70:	0000005e 	andeq	r0, r0, lr, asr r0
    5e74:	000010b2 	strheq	r1, [r0], -r2
    5e78:	00006911 	andeq	r6, r0, r1, lsl r9
    5e7c:	0f000300 	svceq	0x00000300
    5e80:	000010a2 	andeq	r1, r0, r2, lsr #1
    5e84:	00005e10 	andeq	r5, r0, r0, lsl lr
    5e88:	0010c700 	andseq	ip, r0, r0, lsl #14
    5e8c:	00691100 	rsbeq	r1, r9, r0, lsl #2
    5e90:	00010000 	andeq	r0, r1, r0
    5e94:	0010b70f 	andseq	fp, r0, pc, lsl #14
    5e98:	10b70f00 	adcsne	r0, r7, r0, lsl #30
    5e9c:	b70f0000 	strlt	r0, [pc, -r0]
    5ea0:	0f000010 	svceq	0x00000010
    5ea4:	000010b7 	strheq	r1, [r0], -r7
    5ea8:	00005e10 	andeq	r5, r0, r0, lsl lr
    5eac:	0010eb00 	andseq	lr, r0, r0, lsl #22
    5eb0:	00691100 	rsbeq	r1, r9, r0, lsl #2
    5eb4:	00060000 	andeq	r0, r6, r0
    5eb8:	0010db0f 	andseq	sp, r0, pc, lsl #22
    5ebc:	005e1000 	subseq	r1, lr, r0
    5ec0:	11000000 	mrsne	r0, (UNDEF: 0)
    5ec4:	69110000 	ldmdbvs	r1, {}	; <UNPREDICTABLE>
    5ec8:	02000000 	andeq	r0, r0, #0
    5ecc:	10f00f00 	rscsne	r0, r0, r0, lsl #30
    5ed0:	a20f0000 	andge	r0, pc, #0
    5ed4:	0f000010 	svceq	0x00000010
    5ed8:	000010a2 	andeq	r1, r0, r2, lsr #1
    5edc:	00005e10 	andeq	r5, r0, r0, lsl lr
    5ee0:	00111f00 	andseq	r1, r1, r0, lsl #30
    5ee4:	00691100 	rsbeq	r1, r9, r0, lsl #2
    5ee8:	00120000 	andseq	r0, r2, r0
    5eec:	00110f0f 	andseq	r0, r1, pc, lsl #30
    5ef0:	08810f00 	stmeq	r1, {r8, r9, sl, fp}
    5ef4:	5e100000 	cdppl	0, 1, cr0, cr0, cr0, {0}
    5ef8:	39000000 	stmdbcc	r0, {}	; <UNPREDICTABLE>
    5efc:	11000011 	tstne	r0, r1, lsl r0
    5f00:	00000069 	andeq	r0, r0, r9, rrx
    5f04:	290f0005 	stmdbcs	pc, {r0, r2}	; <UNPREDICTABLE>
    5f08:	10000011 	andne	r0, r0, r1, lsl r0
    5f0c:	0000005e 	andeq	r0, r0, lr, asr r0
    5f10:	0000114e 	andeq	r1, r0, lr, asr #2
    5f14:	00006911 	andeq	r6, r0, r1, lsl r9
    5f18:	0f000000 	svceq	0x00000000
    5f1c:	0000113e 	andeq	r1, r0, lr, lsr r1
    5f20:	0010f00f 	andseq	pc, r0, pc
    5f24:	10f00f00 	rscsne	r0, r0, r0, lsl #30
    5f28:	f00f0000 			; <UNDEFINED> instruction: 0xf00f0000
    5f2c:	0f000010 	svceq	0x00000010
    5f30:	000010b7 	strheq	r1, [r0], -r7
    5f34:	0010f00f 	andseq	pc, r0, pc
    5f38:	0b811200 	bleq	fe04a740 <__bss_end+0xfe047e80>
    5f3c:	57030000 	strpl	r0, [r3, -r0]
    5f40:	00088c01 	andeq	r8, r8, r1, lsl #24
    5f44:	6c041300 	stcvs	3, cr1, [r4], {-0}
    5f48:	09000011 	stmdbeq	r0, {r0, r4}
    5f4c:	000009a8 	andeq	r0, r0, r8, lsr #19
    5f50:	a7180408 	ldrge	r0, [r8, -r8, lsl #8]
    5f54:	0b000011 	bleq	5fa0 <__bss_end+0x36e0>
    5f58:	0000033f 	andeq	r0, r0, pc, lsr r3
    5f5c:	005e1904 	subseq	r1, lr, r4, lsl #18
    5f60:	23020000 	movwcs	r0, #8192	; 0x2000
    5f64:	05d60b00 	ldrbeq	r0, [r6, #2816]	; 0xb00
    5f68:	1a040000 	bne	105f70 <__bss_end+0x1036b0>
    5f6c:	0000005e 	andeq	r0, r0, lr, asr r0
    5f70:	00042302 	andeq	r2, r4, r2, lsl #6
    5f74:	000b9309 	andeq	r9, fp, r9, lsl #6
    5f78:	1d042400 	cfstrsne	mvf2, [r4, #-0]
    5f7c:	00001232 	andeq	r1, r0, r2, lsr r2
    5f80:	000bf10b 	andeq	pc, fp, fp, lsl #2
    5f84:	5e1e0400 	cfmulspl	mvf0, mvf14, mvf0
    5f88:	02000000 	andeq	r0, r0, #0
    5f8c:	b80b0023 	stmdalt	fp, {r0, r1, r5}
    5f90:	0400000b 	streq	r0, [r0], #-11
    5f94:	00005e1f 	andeq	r5, r0, pc, lsl lr
    5f98:	04230200 	strteq	r0, [r3], #-512	; 0x200
    5f9c:	0006290b 	andeq	r2, r6, fp, lsl #18
    5fa0:	5e200400 	cdppl	4, 2, cr0, cr0, cr0, {0}
    5fa4:	02000000 	andeq	r0, r0, #0
    5fa8:	740b0823 	strvc	r0, [fp], #-2083	; 0x823
    5fac:	04000008 	streq	r0, [r0], #-8
    5fb0:	00005e22 	andeq	r5, r0, r2, lsr #28
    5fb4:	0c230200 	sfmeq	f0, 4, [r3], #-0
    5fb8:	0003a30b 	andeq	sl, r3, fp, lsl #6
    5fbc:	5e230400 	cdppl	4, 2, cr0, cr3, cr0, {0}
    5fc0:	02000000 	andeq	r0, r0, #0
    5fc4:	de0b1023 	cdple	0, 0, cr1, cr11, cr3, {1}
    5fc8:	04000006 	streq	r0, [r0], #-6
    5fcc:	00005e24 	andeq	r5, r0, r4, lsr #28
    5fd0:	14230200 	strtne	r0, [r3], #-512	; 0x200
    5fd4:	0008140b 	andeq	r1, r8, fp, lsl #8
    5fd8:	5e250400 	cdppl	4, 2, cr0, cr5, cr0, {0}
    5fdc:	02000000 	andeq	r0, r0, #0
    5fe0:	8f0b1823 	svchi	0x000b1823
    5fe4:	0400000c 	streq	r0, [r0], #-12
    5fe8:	00005e26 	andeq	r5, r0, r6, lsr #28
    5fec:	1c230200 	sfmne	f0, 4, [r3], #-0
    5ff0:	000c9f0b 	andeq	r9, ip, fp, lsl #30
    5ff4:	5e270400 	cdppl	4, 2, cr0, cr7, cr0, {0}
    5ff8:	02000000 	andeq	r0, r0, #0
    5ffc:	09002023 	stmdbeq	r0, {r0, r1, r5, sp}
    6000:	0000041d 	andeq	r0, r0, sp, lsl r4
    6004:	85320408 	ldrhi	r0, [r2, #-1032]!	; 0x408
    6008:	0b000012 	bleq	6058 <__bss_end+0x3798>
    600c:	0000051e 	andeq	r0, r0, lr, lsl r5
    6010:	002c3304 	eoreq	r3, ip, r4, lsl #6
    6014:	23020000 	movwcs	r0, #8192	; 0x2000
    6018:	050e0b00 	streq	r0, [lr, #-2816]	; 0xb00
    601c:	34040000 	strcc	r0, [r4], #-0
    6020:	0000002c 	andeq	r0, r0, ip, lsr #32
    6024:	0b012302 	bleq	4ec34 <__bss_end+0x4c374>
    6028:	00000516 	andeq	r0, r0, r6, lsl r5
    602c:	002c3504 	eoreq	r3, ip, r4, lsl #10
    6030:	23020000 	movwcs	r0, #8192	; 0x2000
    6034:	052e0b02 	streq	r0, [lr, #-2818]!	; 0xb02
    6038:	36040000 	strcc	r0, [r4], -r0
    603c:	0000002c 	andeq	r0, r0, ip, lsr #32
    6040:	0c032302 	stceq	3, cr2, [r3], {2}
    6044:	006c6c50 	rsbeq	r6, ip, r0, asr ip
    6048:	005e3704 	subseq	r3, lr, r4, lsl #14
    604c:	23020000 	movwcs	r0, #8192	; 0x2000
    6050:	cf090004 	svcgt	0x00090004
    6054:	4000001a 	andmi	r0, r0, sl, lsl r0
    6058:	12ae3a04 	adcne	r3, lr, #16384	; 0x4000
    605c:	140b0000 	strne	r0, [fp], #-0
    6060:	0400000b 	streq	r0, [r0], #-11
    6064:	0011783b 	andseq	r7, r1, fp, lsr r8
    6068:	00230200 	eoreq	r0, r3, r0, lsl #4
    606c:	001a710b 	andseq	r7, sl, fp, lsl #2
    6070:	ae3c0400 	cfabssge	mvf0, mvf12
    6074:	02000012 	andeq	r0, r0, #18
    6078:	10000423 	andne	r0, r0, r3, lsr #8
    607c:	0000005e 	andeq	r0, r0, lr, asr r0
    6080:	000012be 			; <UNDEFINED> instruction: 0x000012be
    6084:	00006911 	andeq	r6, r0, r1, lsl r9
    6088:	02000e00 	andeq	r0, r0, #0
    608c:	00470704 	subeq	r0, r7, r4, lsl #14
    6090:	01140000 	tsteq	r4, r0
    6094:	00001a0f 	andeq	r1, r0, pc, lsl #20
    6098:	78011501 	stmdavc	r1, {r0, r8, sl, ip}
    609c:	cc000011 	stcgt	0, cr0, [r0], {17}
    60a0:	fc000020 	stc2	0, cr0, [r0], {32}
    60a4:	02000020 	andeq	r0, r0, #32
    60a8:	12f1007d 	rscsne	r0, r1, #125	; 0x7d
    60ac:	1f150000 	svcne	0x00150000
    60b0:	01000014 	tsteq	r0, r4, lsl r0
    60b4:	00005e15 	andeq	r5, r0, r5, lsl lr
    60b8:	00158100 	andseq	r8, r5, r0, lsl #2
    60bc:	01160000 	tsteq	r6, r0
    60c0:	00001ac3 	andeq	r1, r0, r3, asr #21
    60c4:	78012e01 	stmdavc	r1, {r0, r9, sl, fp, sp}
    60c8:	fc000011 	stc2	0, cr0, [r0], {17}
    60cc:	0c000020 	stceq	0, cr0, [r0], {32}
    60d0:	02000021 	andeq	r0, r0, #33	; 0x21
    60d4:	0114007d 	tsteq	r4, sp, ror r0
    60d8:	00001a64 	andeq	r1, r0, r4, ror #20
    60dc:	4c014501 	cfstr32mi	mvfx4, [r1], {1}
    60e0:	0c000000 	stceq	0, cr0, [r0], {-0}
    60e4:	48000021 	stmdami	r0, {r0, r5}
    60e8:	02000021 	andeq	r0, r0, #33	; 0x21
    60ec:	1335007d 	teqne	r5, #125	; 0x7d
    60f0:	ce150000 	cdpgt	0, 1, cr0, cr5, cr0, {0}
    60f4:	0100001a 	tsteq	r0, sl, lsl r0
    60f8:	00133545 	andseq	r3, r3, r5, asr #10
    60fc:	00159400 	andseq	r9, r5, r0, lsl #8
    6100:	04130000 	ldreq	r0, [r3], #-0
    6104:	00001285 	andeq	r1, r0, r5, lsl #5
    6108:	1ad90114 	bne	ff646560 <__bss_end+0xff643ca0>
    610c:	60010000 	andvs	r0, r1, r0
    6110:	00004c01 	andeq	r4, r0, r1, lsl #24
    6114:	00214800 	eoreq	r4, r1, r0, lsl #16
    6118:	00217c00 	eoreq	r7, r1, r0, lsl #24
    611c:	007d0200 	rsbseq	r0, sp, r0, lsl #4
    6120:	00001367 	andeq	r1, r0, r7, ror #6
    6124:	001ace15 	andseq	ip, sl, r5, lsl lr
    6128:	35600100 	strbcc	r0, [r0, #-256]!	; 0x100
    612c:	b2000013 	andlt	r0, r0, #19
    6130:	00000015 	andeq	r0, r0, r5, lsl r0
    6134:	1ab40117 	bne	fed06598 <__bss_end+0xfed03cd8>
    6138:	7e010000 	cdpvc	0, 0, cr0, cr1, cr0, {0}
    613c:	00004c01 	andeq	r4, r0, r1, lsl #24
    6140:	00217c00 	eoreq	r7, r1, r0, lsl #24
    6144:	0021e400 	eoreq	lr, r1, r0, lsl #8
    6148:	0015d000 	andseq	sp, r5, r0
    614c:	00139400 	andseq	r9, r3, r0, lsl #8
    6150:	05951500 	ldreq	r1, [r5, #1280]	; 0x500
    6154:	7e010000 	cdpvc	0, 0, cr0, cr1, cr0, {0}
    6158:	00001394 	muleq	r0, r4, r3
    615c:	000015f0 	strdeq	r1, [r0], -r0
    6160:	7e041300 	cdpvc	3, 0, cr1, cr4, cr0, {0}
    6164:	17000011 	smladne	r0, r1, r0, r0
    6168:	001a5501 	andseq	r5, sl, r1, lsl #10
    616c:	01a20100 			; <UNDEFINED> instruction: 0x01a20100
    6170:	0000004c 	andeq	r0, r0, ip, asr #32
    6174:	000021e4 	andeq	r2, r0, r4, ror #3
    6178:	0000222c 	andeq	r2, r0, ip, lsr #4
    617c:	0000160e 	andeq	r1, r0, lr, lsl #12
    6180:	000013c7 	andeq	r1, r0, r7, asr #7
    6184:	00059515 	andeq	r9, r5, r5, lsl r5
    6188:	94a20100 	strtls	r0, [r2], #256	; 0x100
    618c:	2e000013 	mcrcs	0, 0, r0, cr0, cr3, {0}
    6190:	00000016 	andeq	r0, r0, r6, lsl r0
    6194:	1a7e0117 	bne	1f865f8 <__bss_end+0x1f83d38>
    6198:	bc010000 	stclt	0, cr0, [r1], {-0}
    619c:	00004c01 	andeq	r4, r0, r1, lsl #24
    61a0:	00222c00 	eoreq	r2, r2, r0, lsl #24
    61a4:	00228c00 	eoreq	r8, r2, r0, lsl #24
    61a8:	00164c00 	andseq	r4, r6, r0, lsl #24
    61ac:	0013f400 	andseq	pc, r3, r0, lsl #8
    61b0:	1aa11500 	bne	fe84b5b8 <__bss_end+0xfe848cf8>
    61b4:	bc010000 	stclt	0, cr0, [r1], {-0}
    61b8:	000013f4 	strdeq	r1, [r0], -r4
    61bc:	0000166c 	andeq	r1, r0, ip, ror #12
    61c0:	32041300 	andcc	r1, r4, #0
    61c4:	17000012 	smladne	r0, r2, r0, r0
    61c8:	001a9501 	andseq	r9, sl, r1, lsl #10
    61cc:	01dc0100 	bicseq	r0, ip, r0, lsl #2
    61d0:	0000004c 	andeq	r0, r0, ip, asr #32
    61d4:	0000228c 	andeq	r2, r0, ip, lsl #5
    61d8:	000022dc 	ldrdeq	r2, [r0], -ip
    61dc:	0000168a 	andeq	r1, r0, sl, lsl #13
    61e0:	00001427 	andeq	r1, r0, r7, lsr #8
    61e4:	001aa115 	andseq	sl, sl, r5, lsl r1
    61e8:	f4dc0100 			; <UNDEFINED> instruction: 0xf4dc0100
    61ec:	aa000013 	bge	6240 <__bss_end+0x3980>
    61f0:	00000016 	andeq	r0, r0, r6, lsl r0
    61f4:	1a1c0114 	bne	70664c <__bss_end+0x703d8c>
    61f8:	f9010000 			; <UNDEFINED> instruction: 0xf9010000
    61fc:	00004c01 	andeq	r4, r0, r1, lsl #24
    6200:	0022dc00 	eoreq	sp, r2, r0, lsl #24
    6204:	00235000 	eoreq	r5, r3, r0
    6208:	007d0200 	rsbseq	r0, sp, r0, lsl #4
    620c:	00001453 	andeq	r1, r0, r3, asr r4
    6210:	00077f15 	andeq	r7, r7, r5, lsl pc
    6214:	53f90100 	mvnspl	r0, #0
    6218:	c8000014 	stmdagt	r0, {r2, r4}
    621c:	00000016 	andeq	r0, r0, r6, lsl r0
    6220:	11a70413 			; <UNDEFINED> instruction: 0x11a70413
    6224:	01180000 	tsteq	r8, r0
    6228:	000019d2 	ldrdeq	r1, [r0], -r2
    622c:	01012501 	tsteq	r1, r1, lsl #10
    6230:	0000004c 	andeq	r0, r0, ip, asr #32
    6234:	00002350 	andeq	r2, r0, r0, asr r3
    6238:	000023b0 			; <UNDEFINED> instruction: 0x000023b0
    623c:	87007d02 	strhi	r7, [r0, -r2, lsl #26]
    6240:	19000014 	stmdbne	r0, {r2, r4}
    6244:	0000077f 	andeq	r0, r0, pc, ror r7
    6248:	53012501 	movwpl	r2, #5377	; 0x1501
    624c:	e6000014 			; <UNDEFINED> instruction: 0xe6000014
    6250:	00000016 	andeq	r0, r0, r6, lsl r0
    6254:	1a400118 	bne	10066bc <__bss_end+0x1003dfc>
    6258:	6a010000 	bvs	46260 <__bss_end+0x439a0>
    625c:	005e0101 	subseq	r0, lr, r1, lsl #2
    6260:	23b00000 	movscs	r0, #0
    6264:	241c0000 	ldrcs	r0, [ip], #-0
    6268:	7d020000 	stcvc	0, cr0, [r2, #-0]
    626c:	00150500 	andseq	r0, r5, r0, lsl #10
    6270:	051e1a00 	ldreq	r1, [lr, #-2560]	; 0xa00
    6274:	6c010000 	stcvs	0, cr0, [r1], {-0}
    6278:	00005e01 	andeq	r5, r0, r1, lsl #28
    627c:	00170400 	andseq	r0, r7, r0, lsl #8
    6280:	050e1a00 	streq	r1, [lr, #-2560]	; 0xa00
    6284:	6d010000 	stcvs	0, cr0, [r1, #-0]
    6288:	00005e01 	andeq	r5, r0, r1, lsl #28
    628c:	00173c00 	andseq	r3, r7, r0, lsl #24
    6290:	05161a00 	ldreq	r1, [r6, #-2560]	; 0xa00
    6294:	6e010000 	cdpvs	0, 0, cr0, cr1, cr0, {0}
    6298:	00005e01 	andeq	r5, r0, r1, lsl #28
    629c:	00175c00 	andseq	r5, r7, r0, lsl #24
    62a0:	052e1a00 	streq	r1, [lr, #-2560]!	; 0xa00
    62a4:	6f010000 	svcvs	0x00010000
    62a8:	00005e01 	andeq	r5, r0, r1, lsl #28
    62ac:	00179400 	andseq	r9, r7, r0, lsl #8
    62b0:	1aac1a00 	bne	feb0cab8 <__bss_end+0xfeb0a1f8>
    62b4:	70010000 	andvc	r0, r1, r0
    62b8:	00005e01 	andeq	r5, r0, r1, lsl #28
    62bc:	0017cc00 	andseq	ip, r7, r0, lsl #24
    62c0:	1a4c1a00 	bne	130cac8 <__bss_end+0x130a208>
    62c4:	71010000 	mrsvc	r0, (UNDEF: 1)
    62c8:	00005e01 	andeq	r5, r0, r1, lsl #28
    62cc:	0017f600 	andseq	pc, r7, r0, lsl #12
    62d0:	141b0000 	ldrne	r0, [fp], #-0
    62d4:	0100000b 	tsteq	r0, fp
    62d8:	00117804 	andseq	r7, r1, r4, lsl #16
    62dc:	f4030500 	vst3.8	{d0,d2,d4}, [r3], r0
    62e0:	1b000026 	blne	6380 <__bss_end+0x3ac0>
    62e4:	00001a2d 	andeq	r1, r0, sp, lsr #20
    62e8:	01833501 	orreq	r3, r3, r1, lsl #10
    62ec:	03050000 	movweq	r0, #20480	; 0x5000
    62f0:	000026fc 	strdeq	r2, [r0], -ip
    62f4:	001ae91b 	andseq	lr, sl, fp, lsl r9
    62f8:	3a360100 	bcc	d86700 <__bss_end+0xd83e40>
    62fc:	05000007 	streq	r0, [r0, #-7]
    6300:	0026f803 	eoreq	pc, r6, r3, lsl #16
	...

Disassembly of section .debug_abbrev:

00000000 <.debug_abbrev>:
       0:	25011101 	strcs	r1, [r1, #-257]	; 0x101
       4:	030b130e 	movweq	r1, #45838	; 0xb30e
       8:	110e1b0e 	tstne	lr, lr, lsl #22
       c:	10011201 	andne	r1, r1, r1, lsl #4
      10:	02000006 	andeq	r0, r0, #6
      14:	0b0b0024 	bleq	2c00ac <__bss_end+0x2bd7ec>
      18:	0e030b3e 	vmoveq.16	d3[0], r0
      1c:	24030000 	strcs	r0, [r3], #-0
      20:	3e0b0b00 	vmlacc.f64	d0, d11, d0
      24:	0008030b 	andeq	r0, r8, fp, lsl #6
      28:	01130400 	tsteq	r3, r0, lsl #8
      2c:	0b0b0e03 	bleq	2c3840 <__bss_end+0x2c0f80>
      30:	0b3b0b3a 	bleq	ec2d20 <__bss_end+0xec0460>
      34:	00001301 	andeq	r1, r0, r1, lsl #6
      38:	03000d05 	movweq	r0, #3333	; 0xd05
      3c:	3b0b3a0e 	blcc	2ce87c <__bss_end+0x2cbfbc>
      40:	3813490b 	ldmdacc	r3, {r0, r1, r3, r8, fp, lr}
      44:	0600000a 	streq	r0, [r0], -sl
      48:	13490101 	movtne	r0, #37121	; 0x9101
      4c:	00001301 	andeq	r1, r0, r1, lsl #6
      50:	49002107 	stmdbmi	r0, {r0, r1, r2, r8, sp}
      54:	000b2f13 	andeq	r2, fp, r3, lsl pc
      58:	00160800 	andseq	r0, r6, r0, lsl #16
      5c:	0b3a0e03 	bleq	e83870 <__bss_end+0xe80fb0>
      60:	13490b3b 	movtne	r0, #39739	; 0x9b3b
      64:	34090000 	strcc	r0, [r9], #-0
      68:	3a0e0300 	bcc	380c70 <__bss_end+0x37e3b0>
      6c:	490b3b0b 	stmdbmi	fp, {r0, r1, r3, r8, r9, fp, ip, sp}
      70:	020c3f13 	andeq	r3, ip, #76	; 0x4c
      74:	0a00000a 	beq	a4 <config_61+0x8>
      78:	13490026 	movtne	r0, #36902	; 0x9026
      7c:	01000000 	mrseq	r0, (UNDEF: 0)
      80:	06100011 			; <UNDEFINED> instruction: 0x06100011
      84:	01120111 	tsteq	r2, r1, lsl r1
      88:	081b0803 	ldmdaeq	fp, {r0, r1, fp}
      8c:	05130825 	ldreq	r0, [r3, #-2085]	; 0x825
      90:	01000000 	mrseq	r0, (UNDEF: 0)
      94:	0e250111 	mcreq	1, 1, r0, cr5, cr1, {0}
      98:	0e030b13 	vmoveq.32	d3[0], r0
      9c:	01110e1b 	tsteq	r1, fp, lsl lr
      a0:	06100112 			; <UNDEFINED> instruction: 0x06100112
      a4:	24020000 	strcs	r0, [r2], #-0
      a8:	3e0b0b00 	vmlacc.f64	d0, d11, d0
      ac:	000e030b 	andeq	r0, lr, fp, lsl #6
      b0:	00240300 	eoreq	r0, r4, r0, lsl #6
      b4:	0b3e0b0b 	bleq	f82ce8 <__bss_end+0xf80428>
      b8:	00000803 	andeq	r0, r0, r3, lsl #16
      bc:	0b000f04 	bleq	3cd4 <__bss_end+0x1414>
      c0:	0013490b 	andseq	r4, r3, fp, lsl #18
      c4:	000f0500 	andeq	r0, pc, r0, lsl #10
      c8:	00000b0b 	andeq	r0, r0, fp, lsl #22
      cc:	3f012e06 	svccc	0x00012e06
      d0:	3a0e030c 	bcc	380d08 <__bss_end+0x37e448>
      d4:	270b3b0b 	strcs	r3, [fp, -fp, lsl #22]
      d8:	1201110c 	andne	r1, r1, #3
      dc:	000a4001 	andeq	r4, sl, r1
      e0:	00050700 	andeq	r0, r5, r0, lsl #14
      e4:	0b3a0e03 	bleq	e838f8 <__bss_end+0xe81038>
      e8:	13490b3b 	movtne	r0, #39739	; 0x9b3b
      ec:	00000602 	andeq	r0, r0, r2, lsl #12
      f0:	03000508 	movweq	r0, #1288	; 0x508
      f4:	3b0b3a08 	blcc	2ce91c <__bss_end+0x2cc05c>
      f8:	0213490b 	andseq	r4, r3, #180224	; 0x2c000
      fc:	09000006 	stmdbeq	r0, {r1, r2}
     100:	0e030034 	mcreq	0, 0, r0, cr3, cr4, {1}
     104:	0b3b0b3a 	bleq	ec2df4 <__bss_end+0xec0534>
     108:	06021349 	streq	r1, [r2], -r9, asr #6
     10c:	340a0000 	strcc	r0, [sl], #-0
     110:	3a0e0300 	bcc	380d18 <__bss_end+0x37e458>
     114:	490b3b0b 	stmdbmi	fp, {r0, r1, r3, r8, r9, fp, ip, sp}
     118:	000a0213 	andeq	r0, sl, r3, lsl r2
     11c:	11010000 	mrsne	r0, (UNDEF: 1)
     120:	130e2501 	movwne	r2, #58625	; 0xe501
     124:	1b0e030b 	blne	380d58 <__bss_end+0x37e498>
     128:	1201110e 	andne	r1, r1, #-2147483645	; 0x80000003
     12c:	00061001 	andeq	r1, r6, r1
     130:	00240200 	eoreq	r0, r4, r0, lsl #4
     134:	0b3e0b0b 	bleq	f82d68 <__bss_end+0xf804a8>
     138:	00000e03 	andeq	r0, r0, r3, lsl #28
     13c:	0b002403 	bleq	9150 <__bss_end+0x6890>
     140:	030b3e0b 	movweq	r3, #48651	; 0xbe0b
     144:	00000008 	andeq	r0, r0, r8
     148:	10001101 	andne	r1, r0, r1, lsl #2
     14c:	12011106 	andne	r1, r1, #-2147483647	; 0x80000001
     150:	1b080301 	blne	200d5c <__bss_end+0x1fe49c>
     154:	13082508 	movwne	r2, #34056	; 0x8508
     158:	00000005 	andeq	r0, r0, r5
     15c:	25011101 	strcs	r1, [r1, #-257]	; 0x101
     160:	030b130e 	movweq	r1, #45838	; 0xb30e
     164:	110e1b0e 	tstne	lr, lr, lsl #22
     168:	10011201 	andne	r1, r1, r1, lsl #4
     16c:	02000006 	andeq	r0, r0, #6
     170:	0b0b0024 	bleq	2c0208 <__bss_end+0x2bd948>
     174:	0e030b3e 	vmoveq.16	d3[0], r0
     178:	24030000 	strcs	r0, [r3], #-0
     17c:	3e0b0b00 	vmlacc.f64	d0, d11, d0
     180:	0008030b 	andeq	r0, r8, fp, lsl #6
     184:	11010000 	mrsne	r0, (UNDEF: 1)
     188:	130e2501 	movwne	r2, #58625	; 0xe501
     18c:	1b0e030b 	blne	380dc0 <__bss_end+0x37e500>
     190:	1201110e 	andne	r1, r1, #-2147483645	; 0x80000003
     194:	00061001 	andeq	r1, r6, r1
     198:	00240200 	eoreq	r0, r4, r0, lsl #4
     19c:	0b3e0b0b 	bleq	f82dd0 <__bss_end+0xf80510>
     1a0:	00000e03 	andeq	r0, r0, r3, lsl #28
     1a4:	0b002403 	bleq	91b8 <__bss_end+0x68f8>
     1a8:	030b3e0b 	movweq	r3, #48651	; 0xbe0b
     1ac:	00000008 	andeq	r0, r0, r8
     1b0:	25011101 	strcs	r1, [r1, #-257]	; 0x101
     1b4:	030b130e 	movweq	r1, #45838	; 0xb30e
     1b8:	110e1b0e 	tstne	lr, lr, lsl #22
     1bc:	10011201 	andne	r1, r1, r1, lsl #4
     1c0:	02000006 	andeq	r0, r0, #6
     1c4:	0b0b0024 	bleq	2c025c <__bss_end+0x2bd99c>
     1c8:	0e030b3e 	vmoveq.16	d3[0], r0
     1cc:	24030000 	strcs	r0, [r3], #-0
     1d0:	3e0b0b00 	vmlacc.f64	d0, d11, d0
     1d4:	0008030b 	andeq	r0, r8, fp, lsl #6
     1d8:	11010000 	mrsne	r0, (UNDEF: 1)
     1dc:	130e2501 	movwne	r2, #58625	; 0xe501
     1e0:	1b0e030b 	blne	380e14 <__bss_end+0x37e554>
     1e4:	1201110e 	andne	r1, r1, #-2147483645	; 0x80000003
     1e8:	00061001 	andeq	r1, r6, r1
     1ec:	00240200 	eoreq	r0, r4, r0, lsl #4
     1f0:	0b3e0b0b 	bleq	f82e24 <__bss_end+0xf80564>
     1f4:	00000e03 	andeq	r0, r0, r3, lsl #28
     1f8:	03001603 	movweq	r1, #1539	; 0x603
     1fc:	3b0b3a0e 	blcc	2cea3c <__bss_end+0x2cc17c>
     200:	0013490b 	andseq	r4, r3, fp, lsl #18
     204:	00240400 	eoreq	r0, r4, r0, lsl #8
     208:	0b3e0b0b 	bleq	f82e3c <__bss_end+0xf8057c>
     20c:	00000803 	andeq	r0, r0, r3, lsl #16
     210:	0b011305 	bleq	44e2c <__bss_end+0x4256c>
     214:	3b0b3a0b 	blcc	2cea48 <__bss_end+0x2cc188>
     218:	0013010b 	andseq	r0, r3, fp, lsl #2
     21c:	000d0600 	andeq	r0, sp, r0, lsl #12
     220:	0b3a0e03 	bleq	e83a34 <__bss_end+0xe81174>
     224:	13490b3b 	movtne	r0, #39739	; 0x9b3b
     228:	0b0d0b0b 	bleq	342e5c <__bss_end+0x34059c>
     22c:	0a380b0c 	beq	e02e64 <__bss_end+0xe005a4>
     230:	17070000 	strne	r0, [r7, -r0]
     234:	3a0b0b01 	bcc	2c2e40 <__bss_end+0x2c0580>
     238:	010b3b0b 	tsteq	fp, fp, lsl #22
     23c:	08000013 	stmdaeq	r0, {r0, r1, r4}
     240:	0e03000d 	cdpeq	0, 0, cr0, cr3, cr13, {0}
     244:	0b3b0b3a 	bleq	ec2f34 <__bss_end+0xec0674>
     248:	00001349 	andeq	r1, r0, r9, asr #6
     24c:	03011309 	movweq	r1, #4873	; 0x1309
     250:	3a0b0b0e 	bcc	2c2e90 <__bss_end+0x2c05d0>
     254:	010b3b0b 	tsteq	fp, fp, lsl #22
     258:	0a000013 	beq	2ac <set_pll+0xa4>
     25c:	0e030113 	mcreq	1, 0, r0, cr3, cr3, {0}
     260:	0b3a050b 	bleq	e81694 <__bss_end+0xe7edd4>
     264:	13010b3b 	movwne	r0, #6971	; 0x1b3b
     268:	0d0b0000 	stceq	0, cr0, [fp, #-0]
     26c:	3a0e0300 	bcc	380e74 <__bss_end+0x37e5b4>
     270:	490b3b0b 	stmdbmi	fp, {r0, r1, r3, r8, r9, fp, ip, sp}
     274:	000a3813 	andeq	r3, sl, r3, lsl r8
     278:	000d0c00 	andeq	r0, sp, r0, lsl #24
     27c:	0b3a0803 	bleq	e82290 <__bss_end+0xe7f9d0>
     280:	13490b3b 	movtne	r0, #39739	; 0x9b3b
     284:	00000a38 	andeq	r0, r0, r8, lsr sl
     288:	03000d0d 	movweq	r0, #3341	; 0xd0d
     28c:	3b0b3a0e 	blcc	2ceacc <__bss_end+0x2cc20c>
     290:	38134905 	ldmdacc	r3, {r0, r2, r8, fp, lr}
     294:	0e00000a 	cdpeq	0, 0, cr0, cr0, cr10, {0}
     298:	0803000d 	stmdaeq	r3, {r0, r2, r3}
     29c:	053b0b3a 	ldreq	r0, [fp, #-2874]!	; 0xb3a
     2a0:	0a381349 	beq	e04fcc <__bss_end+0xe0270c>
     2a4:	350f0000 	strcc	r0, [pc, #-0]	; 2ac <set_pll+0xa4>
     2a8:	00134900 	andseq	r4, r3, r0, lsl #18
     2ac:	01011000 	mrseq	r1, (UNDEF: 1)
     2b0:	13011349 	movwne	r1, #4937	; 0x1349
     2b4:	21110000 	tstcs	r1, r0
     2b8:	2f134900 	svccs	0x00134900
     2bc:	1200000b 	andne	r0, r0, #11
     2c0:	0e030016 	mcreq	0, 0, r0, cr3, cr6, {0}
     2c4:	053b0b3a 	ldreq	r0, [fp, #-2874]!	; 0xb3a
     2c8:	00001349 	andeq	r1, r0, r9, asr #6
     2cc:	0b000f13 	bleq	3f20 <__bss_end+0x1660>
     2d0:	0013490b 	andseq	r4, r3, fp, lsl #18
     2d4:	01041400 	tsteq	r4, r0, lsl #8
     2d8:	0b3a0b0b 	bleq	e82f0c <__bss_end+0xe8064c>
     2dc:	13010b3b 	movwne	r0, #6971	; 0x1b3b
     2e0:	28150000 	ldmdacs	r5, {}	; <UNPREDICTABLE>
     2e4:	1c0e0300 	stcne	3, cr0, [lr], {-0}
     2e8:	1600000d 	strne	r0, [r0], -sp
     2ec:	0b0b000f 	bleq	2c0330 <__bss_end+0x2bda70>
     2f0:	2e170000 	cdpcs	0, 1, cr0, cr7, cr0, {0}
     2f4:	030c3f00 	movweq	r3, #52992	; 0xcf00
     2f8:	3b0b3a0e 	blcc	2ceb38 <__bss_end+0x2cc278>
     2fc:	490c270b 	stmdbmi	ip, {r0, r1, r3, r8, r9, sl, sp}
     300:	12011113 	andne	r1, r1, #-1073741820	; 0xc0000004
     304:	00064001 	andeq	r4, r6, r1
     308:	012e1800 	teqeq	lr, r0, lsl #16
     30c:	0e030c3f 	mcreq	12, 0, r0, cr3, cr15, {1}
     310:	0b3b0b3a 	bleq	ec3000 <__bss_end+0xec0740>
     314:	01110c27 	tsteq	r1, r7, lsr #24
     318:	06400112 			; <UNDEFINED> instruction: 0x06400112
     31c:	00001301 	andeq	r1, r0, r1, lsl #6
     320:	03003419 	movweq	r3, #1049	; 0x419
     324:	3b0b3a0e 	blcc	2ceb64 <__bss_end+0x2cc2a4>
     328:	0213490b 	andseq	r4, r3, #180224	; 0x2c000
     32c:	1a000006 	bne	34c <mem_status_clear>
     330:	0e030034 	mcreq	0, 0, r0, cr3, cr4, {1}
     334:	0b3b0b3a 	bleq	ec3024 <__bss_end+0xec0764>
     338:	0b1c1349 	bleq	705064 <__bss_end+0x7027a4>
     33c:	341b0000 	ldrcc	r0, [fp], #-0
     340:	3a0e0300 	bcc	380f48 <__bss_end+0x37e688>
     344:	490b3b0b 	stmdbmi	fp, {r0, r1, r3, r8, r9, fp, ip, sp}
     348:	1c000013 	stcne	0, cr0, [r0], {19}
     34c:	0e030034 	mcreq	0, 0, r0, cr3, cr4, {1}
     350:	0b3b0b3a 	bleq	ec3040 <__bss_end+0xec0780>
     354:	0a021349 	beq	85080 <__bss_end+0x827c0>
     358:	341d0000 	ldrcc	r0, [sp], #-0
     35c:	3a0e0300 	bcc	380f64 <__bss_end+0x37e6a4>
     360:	490b3b0b 	stmdbmi	fp, {r0, r1, r3, r8, r9, fp, ip, sp}
     364:	020c3f13 	andeq	r3, ip, #76	; 0x4c
     368:	1e00000a 	cdpne	0, 0, cr0, cr0, cr10, {0}
     36c:	0e030034 	mcreq	0, 0, r0, cr3, cr4, {1}
     370:	0b3b0b3a 	bleq	ec3060 <__bss_end+0xec07a0>
     374:	0c3f1349 	ldceq	3, cr1, [pc], #-292	; 258 <set_pll+0x50>
     378:	00000c3c 	andeq	r0, r0, ip, lsr ip
     37c:	01110100 	tsteq	r1, r0, lsl #2
     380:	0b130e25 	bleq	4c3c1c <__bss_end+0x4c135c>
     384:	0e1b0e03 	cdpeq	14, 1, cr0, cr11, cr3, {0}
     388:	01120111 	tsteq	r2, r1, lsl r1
     38c:	00000610 	andeq	r0, r0, r0, lsl r6
     390:	0b002402 	bleq	93a0 <__bss_end+0x6ae0>
     394:	030b3e0b 	movweq	r3, #48651	; 0xbe0b
     398:	0300000e 	movweq	r0, #14
     39c:	0b0b0024 	bleq	2c0434 <__bss_end+0x2bdb74>
     3a0:	08030b3e 	stmdaeq	r3, {r1, r2, r3, r4, r5, r8, r9, fp}
     3a4:	16040000 	strne	r0, [r4], -r0
     3a8:	3a0e0300 	bcc	380fb0 <__bss_end+0x37e6f0>
     3ac:	490b3b0b 	stmdbmi	fp, {r0, r1, r3, r8, r9, fp, ip, sp}
     3b0:	05000013 	streq	r0, [r0, #-19]
     3b4:	13490035 	movtne	r0, #36917	; 0x9035
     3b8:	2e060000 	cdpcs	0, 0, cr0, cr6, cr0, {0}
     3bc:	030c3f01 	movweq	r3, #52993	; 0xcf01
     3c0:	3b0b3a0e 	blcc	2cec00 <__bss_end+0x2cc340>
     3c4:	110c270b 	tstne	ip, fp, lsl #14
     3c8:	40011201 	andmi	r1, r1, r1, lsl #4
     3cc:	00130106 	andseq	r0, r3, r6, lsl #2
     3d0:	00340700 	eorseq	r0, r4, r0, lsl #14
     3d4:	0b3a0e03 	bleq	e83be8 <__bss_end+0xe81328>
     3d8:	13490b3b 	movtne	r0, #39739	; 0x9b3b
     3dc:	00000a02 	andeq	r0, r0, r2, lsl #20
     3e0:	3f002e08 	svccc	0x00002e08
     3e4:	3a0e030c 	bcc	38101c <__bss_end+0x37e75c>
     3e8:	270b3b0b 	strcs	r3, [fp, -fp, lsl #22]
     3ec:	1201110c 	andne	r1, r1, #3
     3f0:	000a4001 	andeq	r4, sl, r1
     3f4:	012e0900 	teqeq	lr, r0, lsl #18
     3f8:	0e030c3f 	mcreq	12, 0, r0, cr3, cr15, {1}
     3fc:	0b3b0b3a 	bleq	ec30ec <__bss_end+0xec082c>
     400:	01110c27 	tsteq	r1, r7, lsr #24
     404:	0a400112 	beq	1000854 <__bss_end+0xffdf94>
     408:	00001301 	andeq	r1, r0, r1, lsl #6
     40c:	0300340a 	movweq	r3, #1034	; 0x40a
     410:	3b0b3a08 	blcc	2cec38 <__bss_end+0x2cc378>
     414:	0213490b 	andseq	r4, r3, #180224	; 0x2c000
     418:	0b000006 	bleq	438 <io_init_high+0x8>
     41c:	08030005 	stmdaeq	r3, {r0, r2}
     420:	0b3b0b3a 	bleq	ec3110 <__bss_end+0xec0850>
     424:	0a021349 	beq	85150 <__bss_end+0x82890>
     428:	2e0c0000 	cdpcs	0, 0, cr0, cr12, cr0, {0}
     42c:	030c3f00 	movweq	r3, #52992	; 0xcf00
     430:	3b0b3a0e 	blcc	2cec70 <__bss_end+0x2cc3b0>
     434:	490c270b 	stmdbmi	ip, {r0, r1, r3, r8, r9, sl, sp}
     438:	12011113 	andne	r1, r1, #-1073741820	; 0xc0000004
     43c:	000a4001 	andeq	r4, sl, r1
     440:	012e0d00 	teqeq	lr, r0, lsl #26
     444:	0e030c3f 	mcreq	12, 0, r0, cr3, cr15, {1}
     448:	053b0b3a 	ldreq	r0, [fp, #-2874]!	; 0xb3a
     44c:	01110c27 	tsteq	r1, r7, lsr #24
     450:	0a400112 	beq	10008a0 <__bss_end+0xffdfe0>
     454:	00001301 	andeq	r1, r0, r1, lsl #6
     458:	0300340e 	movweq	r3, #1038	; 0x40e
     45c:	3b0b3a0e 	blcc	2cec9c <__bss_end+0x2cc3dc>
     460:	02134905 	andseq	r4, r3, #81920	; 0x14000
     464:	0f00000a 	svceq	0x0000000a
     468:	0c3f012e 	ldfeqs	f0, [pc], #-184	; 3b8 <show_mem_status+0x10>
     46c:	0b3a0e03 	bleq	e83c80 <__bss_end+0xe813c0>
     470:	0c27053b 	cfstr32eq	mvfx0, [r7], #-236	; 0xffffff14
     474:	01120111 	tsteq	r2, r1, lsl r1
     478:	13010640 	movwne	r0, #5696	; 0x1640
     47c:	05100000 	ldreq	r0, [r0, #-0]
     480:	3a080300 	bcc	201088 <__bss_end+0x1fe7c8>
     484:	49053b0b 	stmdbmi	r5, {r0, r1, r3, r8, r9, fp, ip, sp}
     488:	00060213 	andeq	r0, r6, r3, lsl r2
     48c:	00341100 	eorseq	r1, r4, r0, lsl #2
     490:	0b3a0e03 	bleq	e83ca4 <__bss_end+0xe813e4>
     494:	1349053b 	movtne	r0, #38203	; 0x953b
     498:	00000602 	andeq	r0, r0, r2, lsl #12
     49c:	03003412 	movweq	r3, #1042	; 0x412
     4a0:	3b0b3a0e 	blcc	2cece0 <__bss_end+0x2cc420>
     4a4:	3f13490b 	svccc	0x0013490b
     4a8:	000a020c 	andeq	r0, sl, ip, lsl #4
     4ac:	11010000 	mrsne	r0, (UNDEF: 1)
     4b0:	130e2501 	movwne	r2, #58625	; 0xe501
     4b4:	1b0e030b 	blne	3810e8 <__bss_end+0x37e828>
     4b8:	1201110e 	andne	r1, r1, #-2147483645	; 0x80000003
     4bc:	00061001 	andeq	r1, r6, r1
     4c0:	00240200 	eoreq	r0, r4, r0, lsl #4
     4c4:	0b3e0b0b 	bleq	f830f8 <__bss_end+0xf80838>
     4c8:	00000e03 	andeq	r0, r0, r3, lsl #28
     4cc:	03001603 	movweq	r1, #1539	; 0x603
     4d0:	3b0b3a0e 	blcc	2ced10 <__bss_end+0x2cc450>
     4d4:	0013490b 	andseq	r4, r3, fp, lsl #18
     4d8:	00240400 	eoreq	r0, r4, r0, lsl #8
     4dc:	0b3e0b0b 	bleq	f83110 <__bss_end+0xf80850>
     4e0:	00000803 	andeq	r0, r0, r3, lsl #16
     4e4:	03010405 	movweq	r0, #5125	; 0x1405
     4e8:	3a0b0b0e 	bcc	2c3128 <__bss_end+0x2c0868>
     4ec:	010b3b0b 	tsteq	fp, fp, lsl #22
     4f0:	06000013 			; <UNDEFINED> instruction: 0x06000013
     4f4:	0e030028 	cdpeq	0, 0, cr0, cr3, cr8, {1}
     4f8:	00000d1c 	andeq	r0, r0, ip, lsl sp
     4fc:	3f012e07 	svccc	0x00012e07
     500:	3a0e030c 	bcc	381138 <__bss_end+0x37e878>
     504:	270b3b0b 	strcs	r3, [fp, -fp, lsl #22]
     508:	2013490c 	andscs	r4, r3, ip, lsl #18
     50c:	0013010b 	andseq	r0, r3, fp, lsl #2
     510:	00340800 	eorseq	r0, r4, r0, lsl #16
     514:	0b3a0e03 	bleq	e83d28 <__bss_end+0xe81468>
     518:	13490b3b 	movtne	r0, #39739	; 0x9b3b
     51c:	2e090000 	cdpcs	0, 0, cr0, cr9, cr0, {0}
     520:	030c3f01 	movweq	r3, #52993	; 0xcf01
     524:	3b0b3a0e 	blcc	2ced64 <__bss_end+0x2cc4a4>
     528:	200c270b 	andcs	r2, ip, fp, lsl #14
     52c:	0013010b 	andseq	r0, r3, fp, lsl #2
     530:	00050a00 	andeq	r0, r5, r0, lsl #20
     534:	0b3a0e03 	bleq	e83d48 <__bss_end+0xe81488>
     538:	13490b3b 	movtne	r0, #39739	; 0x9b3b
     53c:	2e0b0000 	cdpcs	0, 0, cr0, cr11, cr0, {0}
     540:	3a0e0301 	bcc	38114c <__bss_end+0x37e88c>
     544:	270b3b0b 	strcs	r3, [fp, -fp, lsl #22]
     548:	2013490c 	andscs	r4, r3, ip, lsl #18
     54c:	0013010b 	andseq	r0, r3, fp, lsl #2
     550:	012e0c00 	teqeq	lr, r0, lsl #24
     554:	01111331 	tsteq	r1, r1, lsr r3
     558:	0a400112 	beq	10009a8 <__bss_end+0xffe0e8>
     55c:	00001301 	andeq	r1, r0, r1, lsl #6
     560:	3100050d 	tstcc	r0, sp, lsl #10
     564:	00060213 	andeq	r0, r6, r3, lsl r2
     568:	00050e00 	andeq	r0, r5, r0, lsl #28
     56c:	0a021331 	beq	85238 <__bss_end+0x82978>
     570:	340f0000 	strcc	r0, [pc], #-0	; 578 <delay_us+0x38>
     574:	02133100 	andseq	r3, r3, #0
     578:	10000006 	andne	r0, r0, r6
     57c:	0c3f002e 	ldceq	0, cr0, [pc], #-184	; 4cc <backup_perfcounter+0xc>
     580:	0b3a0e03 	bleq	e83d94 <__bss_end+0xe814d4>
     584:	0c270b3b 	stceq	11, cr0, [r7], #-236	; 0xffffff14
     588:	01120111 	tsteq	r2, r1, lsl r1
     58c:	00000a40 	andeq	r0, r0, r0, asr #20
     590:	31003411 	tstcc	r0, r1, lsl r4
     594:	000a0213 	andeq	r0, sl, r3, lsl r2
     598:	012e1200 	teqeq	lr, r0, lsl #4
     59c:	0e030c3f 	mcreq	12, 0, r0, cr3, cr15, {1}
     5a0:	0b3b0b3a 	bleq	ec3290 <__bss_end+0xec09d0>
     5a4:	01110c27 	tsteq	r1, r7, lsr #24
     5a8:	0a400112 	beq	10009f8 <__bss_end+0xffe138>
     5ac:	00001301 	andeq	r1, r0, r1, lsl #6
     5b0:	03003413 	movweq	r3, #1043	; 0x413
     5b4:	3b0b3a0e 	blcc	2cedf4 <__bss_end+0x2cc534>
     5b8:	0213490b 	andseq	r4, r3, #180224	; 0x2c000
     5bc:	14000006 	strne	r0, [r0], #-6
     5c0:	0c3f012e 	ldfeqs	f0, [pc], #-184	; 510 <reset_counter+0x8>
     5c4:	0b3a0e03 	bleq	e83dd8 <__bss_end+0xe81518>
     5c8:	0c270b3b 	stceq	11, cr0, [r7], #-236	; 0xffffff14
     5cc:	01120111 	tsteq	r2, r1, lsl r1
     5d0:	13010640 	movwne	r0, #5696	; 0x1640
     5d4:	1d150000 	ldcne	0, cr0, [r5, #-0]
     5d8:	11133101 	tstne	r3, r1, lsl #2
     5dc:	58011201 	stmdapl	r1, {r0, r9, ip}
     5e0:	010b590b 	tsteq	fp, fp, lsl #18
     5e4:	16000013 			; <UNDEFINED> instruction: 0x16000013
     5e8:	0111010b 	tsteq	r1, fp, lsl #2
     5ec:	00000112 	andeq	r0, r0, r2, lsl r1
     5f0:	31011d17 	tstcc	r1, r7, lsl sp
     5f4:	12011113 	andne	r1, r1, #-1073741820	; 0xc0000004
     5f8:	590b5801 	stmdbpl	fp, {r0, fp, ip, lr}
     5fc:	1800000b 	stmdane	r0, {r0, r1, r3}
     600:	08030005 	stmdaeq	r3, {r0, r2}
     604:	0b3b0b3a 	bleq	ec32f4 <__bss_end+0xec0a34>
     608:	06021349 	streq	r1, [r2], -r9, asr #6
     60c:	34190000 	ldrcc	r0, [r9], #-0
     610:	3a080300 	bcc	201218 <__bss_end+0x1fe958>
     614:	490b3b0b 	stmdbmi	fp, {r0, r1, r3, r8, r9, fp, ip, sp}
     618:	00060213 	andeq	r0, r6, r3, lsl r2
     61c:	000a1a00 	andeq	r1, sl, r0, lsl #20
     620:	0b3a0803 	bleq	e82634 <__bss_end+0xe7fd74>
     624:	01110b3b 	tsteq	r1, fp, lsr fp
     628:	051b0000 	ldreq	r0, [fp, #-0]
     62c:	3a0e0300 	bcc	381234 <__bss_end+0x37e974>
     630:	490b3b0b 	stmdbmi	fp, {r0, r1, r3, r8, r9, fp, ip, sp}
     634:	00060213 	andeq	r0, r6, r3, lsl r2
     638:	00051c00 	andeq	r1, r5, r0, lsl #24
     63c:	0b3a0e03 	bleq	e83e50 <__bss_end+0xe81590>
     640:	13490b3b 	movtne	r0, #39739	; 0x9b3b
     644:	00000a02 	andeq	r0, r0, r2, lsl #20
     648:	3f012e1d 	svccc	0x00012e1d
     64c:	3a0e030c 	bcc	381284 <__bss_end+0x37e9c4>
     650:	270b3b0b 	strcs	r3, [fp, -fp, lsl #22]
     654:	1113490c 	tstne	r3, ip, lsl #18
     658:	40011201 	andmi	r1, r1, r1, lsl #4
     65c:	0013010a 	andseq	r0, r3, sl, lsl #2
     660:	00341e00 	eorseq	r1, r4, r0, lsl #28
     664:	0b3a0e03 	bleq	e83e78 <__bss_end+0xe815b8>
     668:	13490b3b 	movtne	r0, #39739	; 0x9b3b
     66c:	00000a02 	andeq	r0, r0, r2, lsl #20
     670:	01110100 	tsteq	r1, r0, lsl #2
     674:	0b130e25 	bleq	4c3f10 <__bss_end+0x4c1650>
     678:	0e1b0e03 	cdpeq	14, 1, cr0, cr11, cr3, {0}
     67c:	01120111 	tsteq	r2, r1, lsl r1
     680:	00000610 	andeq	r0, r0, r0, lsl r6
     684:	0b002402 	bleq	9694 <__bss_end+0x6dd4>
     688:	030b3e0b 	movweq	r3, #48651	; 0xbe0b
     68c:	03000008 	movweq	r0, #8
     690:	0b0b0024 	bleq	2c0728 <__bss_end+0x2bde68>
     694:	0e030b3e 	vmoveq.16	d3[0], r0
     698:	16040000 	strne	r0, [r4], -r0
     69c:	3a0e0300 	bcc	3812a4 <__bss_end+0x37e9e4>
     6a0:	490b3b0b 	stmdbmi	fp, {r0, r1, r3, r8, r9, fp, ip, sp}
     6a4:	05000013 	streq	r0, [r0, #-19]
     6a8:	0e030113 	mcreq	1, 0, r0, cr3, cr3, {0}
     6ac:	0b3a0b0b 	bleq	e832e0 <__bss_end+0xe80a20>
     6b0:	13010b3b 	movwne	r0, #6971	; 0x1b3b
     6b4:	0d060000 	stceq	0, cr0, [r6, #-0]
     6b8:	3a0e0300 	bcc	3812c0 <__bss_end+0x37ea00>
     6bc:	490b3b0b 	stmdbmi	fp, {r0, r1, r3, r8, r9, fp, ip, sp}
     6c0:	000a3813 	andeq	r3, sl, r3, lsl r8
     6c4:	000d0700 	andeq	r0, sp, r0, lsl #14
     6c8:	0b3a0803 	bleq	e826dc <__bss_end+0xe7fe1c>
     6cc:	13490b3b 	movtne	r0, #39739	; 0x9b3b
     6d0:	00000a38 	andeq	r0, r0, r8, lsr sl
     6d4:	3f012e08 	svccc	0x00012e08
     6d8:	3a0e030c 	bcc	381310 <__bss_end+0x37ea50>
     6dc:	270b3b0b 	strcs	r3, [fp, -fp, lsl #22]
     6e0:	1201110c 	andne	r1, r1, #3
     6e4:	010a4001 	tsteq	sl, r1
     6e8:	09000013 	stmdbeq	r0, {r0, r1, r4}
     6ec:	0e030005 	cdpeq	0, 0, cr0, cr3, cr5, {0}
     6f0:	0b3b0b3a 	bleq	ec33e0 <__bss_end+0xec0b20>
     6f4:	0a021349 	beq	85420 <__bss_end+0x82b60>
     6f8:	0f0a0000 	svceq	0x000a0000
     6fc:	490b0b00 	stmdbmi	fp, {r8, r9, fp}
     700:	0b000013 	bleq	754 <inv_loop1+0xc>
     704:	0c3f012e 	ldfeqs	f0, [pc], #-184	; 654 <get_event_counter+0x30>
     708:	0b3a0e03 	bleq	e83f1c <__bss_end+0xe8165c>
     70c:	0c270b3b 	stceq	11, cr0, [r7], #-236	; 0xffffff14
     710:	01120111 	tsteq	r2, r1, lsl r1
     714:	00000a40 	andeq	r0, r0, r0, asr #20
     718:	00110100 	andseq	r0, r1, r0, lsl #2
     71c:	01110610 	tsteq	r1, r0, lsl r6
     720:	08030112 	stmdaeq	r3, {r1, r4, r8}
     724:	0825081b 	stmdaeq	r5!, {r0, r1, r3, r4, fp}
     728:	00000513 	andeq	r0, r0, r3, lsl r5
     72c:	01110100 	tsteq	r1, r0, lsl #2
     730:	0b130e25 	bleq	4c3fcc <__bss_end+0x4c170c>
     734:	0e1b0e03 	cdpeq	14, 1, cr0, cr11, cr3, {0}
     738:	01120111 	tsteq	r2, r1, lsl r1
     73c:	00000610 	andeq	r0, r0, r0, lsl r6
     740:	0b002402 	bleq	9750 <__bss_end+0x6e90>
     744:	030b3e0b 	movweq	r3, #48651	; 0xbe0b
     748:	0300000e 	movweq	r0, #14
     74c:	0b0b0024 	bleq	2c07e4 <__bss_end+0x2bdf24>
     750:	08030b3e 	stmdaeq	r3, {r1, r2, r3, r4, r5, r8, r9, fp}
     754:	16040000 	strne	r0, [r4], -r0
     758:	3a0e0300 	bcc	381360 <__bss_end+0x37eaa0>
     75c:	490b3b0b 	stmdbmi	fp, {r0, r1, r3, r8, r9, fp, ip, sp}
     760:	05000013 	streq	r0, [r0, #-19]
     764:	0e030113 	mcreq	1, 0, r0, cr3, cr3, {0}
     768:	0b3a0b0b 	bleq	e8339c <__bss_end+0xe80adc>
     76c:	13010b3b 	movwne	r0, #6971	; 0x1b3b
     770:	0d060000 	stceq	0, cr0, [r6, #-0]
     774:	3a0e0300 	bcc	38137c <__bss_end+0x37eabc>
     778:	490b3b0b 	stmdbmi	fp, {r0, r1, r3, r8, r9, fp, ip, sp}
     77c:	000a3813 	andeq	r3, sl, r3, lsl r8
     780:	000d0700 	andeq	r0, sp, r0, lsl #14
     784:	0b3a0803 	bleq	e82798 <__bss_end+0xe7fed8>
     788:	13490b3b 	movtne	r0, #39739	; 0x9b3b
     78c:	00000a38 	andeq	r0, r0, r8, lsr sl
     790:	3f012e08 	svccc	0x00012e08
     794:	3a0e030c 	bcc	3813cc <__bss_end+0x37eb0c>
     798:	270b3b0b 	strcs	r3, [fp, -fp, lsl #22]
     79c:	1201110c 	andne	r1, r1, #3
     7a0:	010a4001 	tsteq	sl, r1
     7a4:	09000013 	stmdbeq	r0, {r0, r1, r4}
     7a8:	0e030005 	cdpeq	0, 0, cr0, cr3, cr5, {0}
     7ac:	0b3b0b3a 	bleq	ec349c <__bss_end+0xec0bdc>
     7b0:	0a021349 	beq	854dc <__bss_end+0x82c1c>
     7b4:	0f0a0000 	svceq	0x000a0000
     7b8:	490b0b00 	stmdbmi	fp, {r8, r9, fp}
     7bc:	0b000013 	bleq	810 <loop1+0x18>
     7c0:	0c3f012e 	ldfeqs	f0, [pc], #-184	; 710 <save_sp_nommu+0x4>
     7c4:	0b3a0e03 	bleq	e83fd8 <__bss_end+0xe81718>
     7c8:	0c27053b 	cfstr32eq	mvfx0, [r7], #-236	; 0xffffff14
     7cc:	01120111 	tsteq	r2, r1, lsl r1
     7d0:	13010a40 	movwne	r0, #6720	; 0x1a40
     7d4:	050c0000 	streq	r0, [ip, #-0]
     7d8:	3a0e0300 	bcc	3813e0 <__bss_end+0x37eb20>
     7dc:	49053b0b 	stmdbmi	r5, {r0, r1, r3, r8, r9, fp, ip, sp}
     7e0:	000a0213 	andeq	r0, sl, r3, lsl r2
     7e4:	00340d00 	eorseq	r0, r4, r0, lsl #26
     7e8:	0b3a0803 	bleq	e827fc <__bss_end+0xe7ff3c>
     7ec:	1349053b 	movtne	r0, #38203	; 0x953b
     7f0:	00000602 	andeq	r0, r0, r2, lsl #12
     7f4:	0300340e 	movweq	r3, #1038	; 0x40e
     7f8:	3b0b3a0e 	blcc	2cf038 <__bss_end+0x2cc778>
     7fc:	00134905 	andseq	r4, r3, r5, lsl #18
     800:	002e0f00 	eoreq	r0, lr, r0, lsl #30
     804:	0e030c3f 	mcreq	12, 0, r0, cr3, cr15, {1}
     808:	053b0b3a 	ldreq	r0, [fp, #-2874]!	; 0xb3a
     80c:	01110c27 	tsteq	r1, r7, lsr #24
     810:	0a400112 	beq	1000c60 <__bss_end+0xffe3a0>
     814:	34100000 	ldrcc	r0, [r0], #-0
     818:	3a0e0300 	bcc	381420 <__bss_end+0x37eb60>
     81c:	490b3b0b 	stmdbmi	fp, {r0, r1, r3, r8, r9, fp, ip, sp}
     820:	000a0213 	andeq	r0, sl, r3, lsl r2
     824:	00341100 	eorseq	r1, r4, r0, lsl #2
     828:	0b3a0e03 	bleq	e8403c <__bss_end+0xe8177c>
     82c:	13490b3b 	movtne	r0, #39739	; 0x9b3b
     830:	26120000 	ldrcs	r0, [r2], -r0
     834:	00134900 	andseq	r4, r3, r0, lsl #18
     838:	01011300 	mrseq	r1, SP_irq
     83c:	13011349 	movwne	r1, #4937	; 0x1349
     840:	21140000 	tstcs	r4, r0
     844:	2f134900 	svccs	0x00134900
     848:	1500000b 	strne	r0, [r0, #-11]
     84c:	0e030034 	mcreq	0, 0, r0, cr3, cr4, {1}
     850:	0b3b0b3a 	bleq	ec3540 <__bss_end+0xec0c80>
     854:	0c3f1349 	ldceq	3, cr1, [pc], #-292	; 738 <invalidate_dcache+0x8>
     858:	00000a02 	andeq	r0, r0, r2, lsl #20
     85c:	01110100 	tsteq	r1, r0, lsl #2
     860:	0b130e25 	bleq	4c40fc <__bss_end+0x4c183c>
     864:	0e1b0e03 	cdpeq	14, 1, cr0, cr11, cr3, {0}
     868:	01120111 	tsteq	r2, r1, lsl r1
     86c:	00000610 	andeq	r0, r0, r0, lsl r6
     870:	0b002402 	bleq	9880 <__bss_end+0x6fc0>
     874:	030b3e0b 	movweq	r3, #48651	; 0xbe0b
     878:	0300000e 	movweq	r0, #14
     87c:	0e030016 	mcreq	0, 0, r0, cr3, cr6, {0}
     880:	0b3b0b3a 	bleq	ec3570 <__bss_end+0xec0cb0>
     884:	00001349 	andeq	r1, r0, r9, asr #6
     888:	0b002404 	bleq	98a0 <__bss_end+0x6fe0>
     88c:	030b3e0b 	movweq	r3, #48651	; 0xbe0b
     890:	05000008 	streq	r0, [r0, #-8]
     894:	0b0b0113 	bleq	2c0ce8 <__bss_end+0x2be428>
     898:	0b3b0b3a 	bleq	ec3588 <__bss_end+0xec0cc8>
     89c:	00001301 	andeq	r1, r0, r1, lsl #6
     8a0:	03000d06 	movweq	r0, #3334	; 0xd06
     8a4:	3b0b3a0e 	blcc	2cf0e4 <__bss_end+0x2cc824>
     8a8:	0b13490b 	bleq	4d2cdc <__bss_end+0x4d041c>
     8ac:	0c0b0d0b 	stceq	13, cr0, [fp], {11}
     8b0:	000a380b 	andeq	r3, sl, fp, lsl #16
     8b4:	01170700 	tsteq	r7, r0, lsl #14
     8b8:	0b3a0b0b 	bleq	e834ec <__bss_end+0xe80c2c>
     8bc:	13010b3b 	movwne	r0, #6971	; 0x1b3b
     8c0:	0d080000 	stceq	0, cr0, [r8, #-0]
     8c4:	3a0e0300 	bcc	3814cc <__bss_end+0x37ec0c>
     8c8:	490b3b0b 	stmdbmi	fp, {r0, r1, r3, r8, r9, fp, ip, sp}
     8cc:	09000013 	stmdbeq	r0, {r0, r1, r4}
     8d0:	0e030113 	mcreq	1, 0, r0, cr3, cr3, {0}
     8d4:	0b3a0b0b 	bleq	e83508 <__bss_end+0xe80c48>
     8d8:	13010b3b 	movwne	r0, #6971	; 0x1b3b
     8dc:	130a0000 	movwne	r0, #40960	; 0xa000
     8e0:	0b0e0301 	bleq	3814ec <__bss_end+0x37ec2c>
     8e4:	3b0b3a05 	blcc	2cf100 <__bss_end+0x2cc840>
     8e8:	0013010b 	andseq	r0, r3, fp, lsl #2
     8ec:	000d0b00 	andeq	r0, sp, r0, lsl #22
     8f0:	0b3a0e03 	bleq	e84104 <__bss_end+0xe81844>
     8f4:	13490b3b 	movtne	r0, #39739	; 0x9b3b
     8f8:	00000a38 	andeq	r0, r0, r8, lsr sl
     8fc:	03000d0c 	movweq	r0, #3340	; 0xd0c
     900:	3b0b3a08 	blcc	2cf128 <__bss_end+0x2cc868>
     904:	3813490b 	ldmdacc	r3, {r0, r1, r3, r8, fp, lr}
     908:	0d00000a 	stceq	0, cr0, [r0, #-40]	; 0xffffffd8
     90c:	0e03000d 	cdpeq	0, 0, cr0, cr3, cr13, {0}
     910:	053b0b3a 	ldreq	r0, [fp, #-2874]!	; 0xb3a
     914:	0a381349 	beq	e05640 <__bss_end+0xe02d80>
     918:	0d0e0000 	stceq	0, cr0, [lr, #-0]
     91c:	3a080300 	bcc	201524 <__bss_end+0x1fec64>
     920:	49053b0b 	stmdbmi	r5, {r0, r1, r3, r8, r9, fp, ip, sp}
     924:	000a3813 	andeq	r3, sl, r3, lsl r8
     928:	00350f00 	eorseq	r0, r5, r0, lsl #30
     92c:	00001349 	andeq	r1, r0, r9, asr #6
     930:	49010110 	stmdbmi	r1, {r4, r8}
     934:	00130113 	andseq	r0, r3, r3, lsl r1
     938:	00211100 	eoreq	r1, r1, r0, lsl #2
     93c:	0b2f1349 	bleq	bc5668 <__bss_end+0xbc2da8>
     940:	16120000 	ldrne	r0, [r2], -r0
     944:	3a0e0300 	bcc	38154c <__bss_end+0x37ec8c>
     948:	49053b0b 	stmdbmi	r5, {r0, r1, r3, r8, r9, fp, ip, sp}
     94c:	13000013 	movwne	r0, #19
     950:	0b0b000f 	bleq	2c0994 <__bss_end+0x2be0d4>
     954:	00001349 	andeq	r1, r0, r9, asr #6
     958:	03012e14 	movweq	r2, #7700	; 0x1e14
     95c:	3b0b3a0e 	blcc	2cf19c <__bss_end+0x2cc8dc>
     960:	490c270b 	stmdbmi	ip, {r0, r1, r3, r8, r9, sl, sp}
     964:	010b2013 	tsteq	fp, r3, lsl r0
     968:	15000013 	strne	r0, [r0, #-19]
     96c:	0e030005 	cdpeq	0, 0, cr0, cr3, cr5, {0}
     970:	0b3b0b3a 	bleq	ec3660 <__bss_end+0xec0da0>
     974:	00001349 	andeq	r1, r0, r9, asr #6
     978:	03003416 	movweq	r3, #1046	; 0x416
     97c:	3b0b3a0e 	blcc	2cf1bc <__bss_end+0x2cc8fc>
     980:	0013490b 	andseq	r4, r3, fp, lsl #18
     984:	00341700 	eorseq	r1, r4, r0, lsl #14
     988:	0b3a0803 	bleq	e8299c <__bss_end+0xe800dc>
     98c:	13490b3b 	movtne	r0, #39739	; 0x9b3b
     990:	2e180000 	cdpcs	0, 1, cr0, cr8, cr0, {0}
     994:	3a0e0301 	bcc	3815a0 <__bss_end+0x37ece0>
     998:	270b3b0b 	strcs	r3, [fp, -fp, lsl #22]
     99c:	010b200c 	tsteq	fp, ip
     9a0:	19000013 	stmdbne	r0, {r0, r1, r4}
     9a4:	0e03012e 	adfeqsp	f0, f3, #0.5
     9a8:	053b0b3a 	ldreq	r0, [fp, #-2874]!	; 0xb3a
     9ac:	0b200c27 	bleq	803a50 <__bss_end+0x801190>
     9b0:	00001301 	andeq	r1, r0, r1, lsl #6
     9b4:	0300051a 	movweq	r0, #1306	; 0x51a
     9b8:	3b0b3a08 	blcc	2cf1e0 <__bss_end+0x2cc920>
     9bc:	00134905 	andseq	r4, r3, r5, lsl #18
     9c0:	012e1b00 	teqeq	lr, r0, lsl #22
     9c4:	0b3a0e03 	bleq	e841d8 <__bss_end+0xe81918>
     9c8:	0c27053b 	cfstr32eq	mvfx0, [r7], #-236	; 0xffffff14
     9cc:	0b201349 	bleq	8056f8 <__bss_end+0x802e38>
     9d0:	00001301 	andeq	r1, r0, r1, lsl #6
     9d4:	0300341c 	movweq	r3, #1052	; 0x41c
     9d8:	3b0b3a0e 	blcc	2cf218 <__bss_end+0x2cc958>
     9dc:	00134905 	andseq	r4, r3, r5, lsl #18
     9e0:	012e1d00 	teqeq	lr, r0, lsl #26
     9e4:	01111331 	tsteq	r1, r1, lsr r3
     9e8:	06400112 			; <UNDEFINED> instruction: 0x06400112
     9ec:	00001301 	andeq	r1, r0, r1, lsl #6
     9f0:	3100051e 	tstcc	r0, lr, lsl r5
     9f4:	00060213 	andeq	r0, r6, r3, lsl r2
     9f8:	00341f00 	eorseq	r1, r4, r0, lsl #30
     9fc:	06021331 			; <UNDEFINED> instruction: 0x06021331
     a00:	34200000 	strtcc	r0, [r0], #-0
     a04:	1c133100 	ldfnes	f3, [r3], {-0}
     a08:	2100000b 	tstcs	r0, fp
     a0c:	1331011d 	teqne	r1, #1073741831	; 0x40000007
     a10:	06550152 			; <UNDEFINED> instruction: 0x06550152
     a14:	0b590b58 	bleq	164377c <__bss_end+0x1640ebc>
     a18:	0b220000 	bleq	880a20 <__bss_end+0x87e160>
     a1c:	00065501 	andeq	r5, r6, r1, lsl #10
     a20:	00342300 	eorseq	r2, r4, r0, lsl #6
     a24:	00001331 	andeq	r1, r0, r1, lsr r3
     a28:	31003424 	tstcc	r0, r4, lsr #8
     a2c:	000d1c13 	andeq	r1, sp, r3, lsl ip
     a30:	00052500 	andeq	r2, r5, r0, lsl #10
     a34:	00001331 	andeq	r1, r0, r1, lsr r3
     a38:	3f012e26 	svccc	0x00012e26
     a3c:	3a0e030c 	bcc	381674 <__bss_end+0x37edb4>
     a40:	270b3b0b 	strcs	r3, [fp, -fp, lsl #22]
     a44:	1201110c 	andne	r1, r1, #3
     a48:	01064001 	tsteq	r6, r1
     a4c:	27000013 	smladcs	r0, r3, r0, r0
     a50:	08030034 	stmdaeq	r3, {r2, r4, r5}
     a54:	053b0b3a 	ldreq	r0, [fp, #-2874]!	; 0xb3a
     a58:	06021349 	streq	r1, [r2], -r9, asr #6
     a5c:	34280000 	strtcc	r0, [r8], #-0
     a60:	3a0e0300 	bcc	381668 <__bss_end+0x37eda8>
     a64:	49053b0b 	stmdbmi	r5, {r0, r1, r3, r8, r9, fp, ip, sp}
     a68:	00060213 	andeq	r0, r6, r3, lsl r2
     a6c:	011d2900 	tsteq	sp, r0, lsl #18
     a70:	01521331 	cmpeq	r2, r1, lsr r3
     a74:	0b580655 	bleq	16023d0 <__bss_end+0x15ffb10>
     a78:	00000559 	andeq	r0, r0, r9, asr r5
     a7c:	3100052a 	tstcc	r0, sl, lsr #10
     a80:	000b1c13 	andeq	r1, fp, r3, lsl ip
     a84:	00342b00 	eorseq	r2, r4, r0, lsl #22
     a88:	061c1331 			; <UNDEFINED> instruction: 0x061c1331
     a8c:	2e2c0000 	cdpcs	0, 2, cr0, cr12, cr0, {0}
     a90:	030c3f01 	movweq	r3, #52993	; 0xcf01
     a94:	3b0b3a0e 	blcc	2cf2d4 <__bss_end+0x2cca14>
     a98:	490c2705 	stmdbmi	ip, {r0, r2, r8, r9, sl, sp}
     a9c:	12011113 	andne	r1, r1, #-1073741820	; 0xc0000004
     aa0:	01064001 	tsteq	r6, r1
     aa4:	2d000013 	stccs	0, cr0, [r0, #-76]	; 0xffffffb4
     aa8:	0e030005 	cdpeq	0, 0, cr0, cr3, cr5, {0}
     aac:	053b0b3a 	ldreq	r0, [fp, #-2874]!	; 0xb3a
     ab0:	06021349 	streq	r1, [r2], -r9, asr #6
     ab4:	1d2e0000 	stcne	0, cr0, [lr, #-0]
     ab8:	52133101 	andspl	r3, r3, #1073741824	; 0x40000000
     abc:	58065501 	stmdapl	r6, {r0, r8, sl, ip, lr}
     ac0:	0105590b 	tsteq	r5, fp, lsl #18
     ac4:	2f000013 	svccs	0x00000013
     ac8:	1331011d 	teqne	r1, #1073741831	; 0x40000007
     acc:	01120111 	tsteq	r2, r1, lsl r1
     ad0:	05590b58 	ldrbeq	r0, [r9, #-2904]	; 0xb58
     ad4:	26300000 	ldrtcs	r0, [r0], -r0
     ad8:	00134900 	andseq	r4, r3, r0, lsl #18
     adc:	00053100 	andeq	r3, r5, r0, lsl #2
     ae0:	0b3a0803 	bleq	e82af4 <__bss_end+0xe80234>
     ae4:	1349053b 	movtne	r0, #38203	; 0x953b
     ae8:	00000602 	andeq	r0, r0, r2, lsl #12
     aec:	03000532 	movweq	r0, #1330	; 0x532
     af0:	3b0b3a08 	blcc	2cf318 <__bss_end+0x2cca58>
     af4:	02134905 	andseq	r4, r3, #81920	; 0x14000
     af8:	3300000a 	movwcc	r0, #10
     afc:	08030034 	stmdaeq	r3, {r2, r4, r5}
     b00:	053b0b3a 	ldreq	r0, [fp, #-2874]!	; 0xb3a
     b04:	0a021349 	beq	85830 <__bss_end+0x82f70>
     b08:	2e340000 	cdpcs	0, 3, cr0, cr4, cr0, {0}
     b0c:	030c3f01 	movweq	r3, #52993	; 0xcf01
     b10:	3b0b3a0e 	blcc	2cf350 <__bss_end+0x2cca90>
     b14:	110c2705 	tstne	ip, r5, lsl #14
     b18:	40011201 	andmi	r1, r1, r1, lsl #4
     b1c:	00130106 	andseq	r0, r3, r6, lsl #2
     b20:	002e3500 	eoreq	r3, lr, r0, lsl #10
     b24:	0e030c3f 	mcreq	12, 0, r0, cr3, cr15, {1}
     b28:	053b0b3a 	ldreq	r0, [fp, #-2874]!	; 0xb3a
     b2c:	01110c27 	tsteq	r1, r7, lsr #24
     b30:	0a400112 	beq	1000f80 <__bss_end+0xffe6c0>
     b34:	34360000 	ldrtcc	r0, [r6], #-0
     b38:	3a0e0300 	bcc	381740 <__bss_end+0x37ee80>
     b3c:	490b3b0b 	stmdbmi	fp, {r0, r1, r3, r8, r9, fp, ip, sp}
     b40:	000a0213 	andeq	r0, sl, r3, lsl r2
     b44:	11010000 	mrsne	r0, (UNDEF: 1)
     b48:	130e2501 	movwne	r2, #58625	; 0xe501
     b4c:	1b0e030b 	blne	381780 <__bss_end+0x37eec0>
     b50:	1201110e 	andne	r1, r1, #-2147483645	; 0x80000003
     b54:	00061001 	andeq	r1, r6, r1
     b58:	00240200 	eoreq	r0, r4, r0, lsl #4
     b5c:	0b3e0b0b 	bleq	f83790 <__bss_end+0xf80ed0>
     b60:	00000e03 	andeq	r0, r0, r3, lsl #28
     b64:	03001603 	movweq	r1, #1539	; 0x603
     b68:	3b0b3a0e 	blcc	2cf3a8 <__bss_end+0x2ccae8>
     b6c:	0013490b 	andseq	r4, r3, fp, lsl #18
     b70:	00240400 	eoreq	r0, r4, r0, lsl #8
     b74:	0b3e0b0b 	bleq	f837a8 <__bss_end+0xf80ee8>
     b78:	00000803 	andeq	r0, r0, r3, lsl #16
     b7c:	0b000f05 	bleq	4798 <__bss_end+0x1ed8>
     b80:	0600000b 	streq	r0, [r0], -fp
     b84:	0e030113 	mcreq	1, 0, r0, cr3, cr3, {0}
     b88:	0b3a0b0b 	bleq	e837bc <__bss_end+0xe80efc>
     b8c:	13010b3b 	movwne	r0, #6971	; 0x1b3b
     b90:	0d070000 	stceq	0, cr0, [r7, #-0]
     b94:	490e0300 	stmdbmi	lr, {r8, r9}
     b98:	340a3813 	strcc	r3, [sl], #-2067	; 0x813
     b9c:	0800000c 	stmdaeq	r0, {r2, r3}
     ba0:	0e03012e 	adfeqsp	f0, f3, #0.5
     ba4:	0b3b0b3a 	bleq	ec3894 <__bss_end+0xec0fd4>
     ba8:	13490c27 	movtne	r0, #39975	; 0x9c27
     bac:	13010b20 	movwne	r0, #6944	; 0x1b20
     bb0:	05090000 	streq	r0, [r9, #-0]
     bb4:	3a0e0300 	bcc	3817bc <__bss_end+0x37eefc>
     bb8:	490b3b0b 	stmdbmi	fp, {r0, r1, r3, r8, r9, fp, ip, sp}
     bbc:	0a000013 	beq	c10 <jump_to_resume0_nommu+0x90>
     bc0:	08030005 	stmdaeq	r3, {r0, r2}
     bc4:	0b3b0b3a 	bleq	ec38b4 <__bss_end+0xec0ff4>
     bc8:	00001349 	andeq	r1, r0, r9, asr #6
     bcc:	0300340b 	movweq	r3, #1035	; 0x40b
     bd0:	3b0b3a08 	blcc	2cf3f8 <__bss_end+0x2ccb38>
     bd4:	0013490b 	andseq	r4, r3, fp, lsl #18
     bd8:	000f0c00 	andeq	r0, pc, r0, lsl #24
     bdc:	13490b0b 	movtne	r0, #39691	; 0x9b0b
     be0:	260d0000 	strcs	r0, [sp], -r0
     be4:	00134900 	andseq	r4, r3, r0, lsl #18
     be8:	00340e00 	eorseq	r0, r4, r0, lsl #28
     bec:	0b3a0e03 	bleq	e84400 <__bss_end+0xe81b40>
     bf0:	13490b3b 	movtne	r0, #39739	; 0x9b3b
     bf4:	010f0000 	mrseq	r0, CPSR
     bf8:	01134901 	tsteq	r3, r1, lsl #18
     bfc:	10000013 	andne	r0, r0, r3, lsl r0
     c00:	13490021 	movtne	r0, #36897	; 0x9021
     c04:	00000b2f 	andeq	r0, r0, pc, lsr #22
     c08:	03012e11 	movweq	r2, #7697	; 0x1e11
     c0c:	3b0b3a0e 	blcc	2cf44c <__bss_end+0x2ccb8c>
     c10:	490c270b 	stmdbmi	ip, {r0, r1, r3, r8, r9, sl, sp}
     c14:	12011113 	andne	r1, r1, #-1073741820	; 0xc0000004
     c18:	01064001 	tsteq	r6, r1
     c1c:	12000013 	andne	r0, r0, #19
     c20:	0e030005 	cdpeq	0, 0, cr0, cr3, cr5, {0}
     c24:	0b3b0b3a 	bleq	ec3914 <__bss_end+0xec1054>
     c28:	06021349 	streq	r1, [r2], -r9, asr #6
     c2c:	34130000 	ldrcc	r0, [r3], #-0
     c30:	3a0e0300 	bcc	381838 <__bss_end+0x37ef78>
     c34:	490b3b0b 	stmdbmi	fp, {r0, r1, r3, r8, r9, fp, ip, sp}
     c38:	000a0213 	andeq	r0, sl, r3, lsl r2
     c3c:	00341400 	eorseq	r1, r4, r0, lsl #8
     c40:	0b3a0803 	bleq	e82c54 <__bss_end+0xe80394>
     c44:	13490b3b 	movtne	r0, #39739	; 0x9b3b
     c48:	00000602 	andeq	r0, r0, r2, lsl #12
     c4c:	03012e15 	movweq	r2, #7701	; 0x1e15
     c50:	3b0b3a0e 	blcc	2cf490 <__bss_end+0x2ccbd0>
     c54:	490c2705 	stmdbmi	ip, {r0, r2, r8, r9, sl, sp}
     c58:	12011113 	andne	r1, r1, #-1073741820	; 0xc0000004
     c5c:	01064001 	tsteq	r6, r1
     c60:	16000013 			; <UNDEFINED> instruction: 0x16000013
     c64:	0e030005 	cdpeq	0, 0, cr0, cr3, cr5, {0}
     c68:	053b0b3a 	ldreq	r0, [fp, #-2874]!	; 0xb3a
     c6c:	06021349 	streq	r1, [r2], -r9, asr #6
     c70:	05170000 	ldreq	r0, [r7, #-0]
     c74:	3a080300 	bcc	20187c <__bss_end+0x1fefbc>
     c78:	49053b0b 	stmdbmi	r5, {r0, r1, r3, r8, r9, fp, ip, sp}
     c7c:	00060213 	andeq	r0, r6, r3, lsl r2
     c80:	00341800 	eorseq	r1, r4, r0, lsl #16
     c84:	0b3a0e03 	bleq	e84498 <__bss_end+0xe81bd8>
     c88:	1349053b 	movtne	r0, #38203	; 0x953b
     c8c:	00000a02 	andeq	r0, r0, r2, lsl #20
     c90:	31011d19 	tstcc	r1, r9, lsl sp
     c94:	55015213 	strpl	r5, [r1, #-531]	; 0x213
     c98:	590b5806 	stmdbpl	fp, {r1, r2, fp, ip, lr}
     c9c:	1a000005 	bne	cb8 <__save_processor_state+0x78>
     ca0:	13310005 	teqne	r1, #5
     ca4:	00000602 	andeq	r0, r0, r2, lsl #12
     ca8:	55010b1b 	strpl	r0, [r1, #-2843]	; 0xb1b
     cac:	1c000006 	stcne	0, cr0, [r0], {6}
     cb0:	13310034 	teqne	r1, #52	; 0x34
     cb4:	00000602 	andeq	r0, r0, r2, lsl #12
     cb8:	31012e1d 	tstcc	r1, sp, lsl lr
     cbc:	12011113 	andne	r1, r1, #-1073741820	; 0xc0000004
     cc0:	01064001 	tsteq	r6, r1
     cc4:	1e000013 	mcrne	0, 0, r0, cr0, cr3, {0}
     cc8:	13310034 	teqne	r1, #52	; 0x34
     ccc:	00000a02 	andeq	r0, r0, r2, lsl #20
     cd0:	3100051f 	tstcc	r0, pc, lsl r5
     cd4:	000b1c13 	andeq	r1, fp, r3, lsl ip
     cd8:	012e2000 	teqeq	lr, r0
     cdc:	0e030c3f 	mcreq	12, 0, r0, cr3, cr15, {1}
     ce0:	053b0b3a 	ldreq	r0, [fp, #-2874]!	; 0xb3a
     ce4:	13490c27 	movtne	r0, #39975	; 0x9c27
     ce8:	01120111 	tsteq	r2, r1, lsl r1
     cec:	13010640 	movwne	r0, #5696	; 0x1640
     cf0:	18210000 	stmdane	r1!, {}	; <UNPREDICTABLE>
     cf4:	22000000 	andcs	r0, r0, #0
     cf8:	0e030034 	mcreq	0, 0, r0, cr3, cr4, {1}
     cfc:	053b0b3a 	ldreq	r0, [fp, #-2874]!	; 0xb3a
     d00:	06021349 	streq	r1, [r2], -r9, asr #6
     d04:	34230000 	strtcc	r0, [r3], #-0
     d08:	3a080300 	bcc	201910 <__bss_end+0x1ff050>
     d0c:	49053b0b 	stmdbmi	r5, {r0, r1, r3, r8, r9, fp, ip, sp}
     d10:	00060213 	andeq	r0, r6, r3, lsl r2
     d14:	011d2400 	tsteq	sp, r0, lsl #8
     d18:	01111331 	tsteq	r1, r1, lsr r3
     d1c:	0b580112 	bleq	160116c <__bss_end+0x15fe8ac>
     d20:	13010559 	movwne	r0, #5465	; 0x1559
     d24:	0b250000 	bleq	940d2c <__bss_end+0x93e46c>
     d28:	12011101 	andne	r1, r1, #1073741824	; 0x40000000
     d2c:	26000001 	strcs	r0, [r0], -r1
     d30:	13310005 	teqne	r1, #5
     d34:	05270000 	streq	r0, [r7, #-0]!
     d38:	02133100 	andseq	r3, r3, #0
     d3c:	2800000a 	stmdacs	r0, {r1, r3}
     d40:	1331011d 	teqne	r1, #1073741831	; 0x40000007
     d44:	01120111 	tsteq	r2, r1, lsl r1
     d48:	05590b58 	ldrbeq	r0, [r9, #-2904]	; 0xb58
     d4c:	01000000 	mrseq	r0, (UNDEF: 0)
     d50:	06100011 			; <UNDEFINED> instruction: 0x06100011
     d54:	01120111 	tsteq	r2, r1, lsl r1
     d58:	081b0803 	ldmdaeq	fp, {r0, r1, fp}
     d5c:	05130825 	ldreq	r0, [r3, #-2085]	; 0x825
     d60:	01000000 	mrseq	r0, (UNDEF: 0)
     d64:	0e250111 	mcreq	1, 1, r0, cr5, cr1, {0}
     d68:	0e030b13 	vmoveq.32	d3[0], r0
     d6c:	01110e1b 	tsteq	r1, fp, lsl lr
     d70:	06100112 			; <UNDEFINED> instruction: 0x06100112
     d74:	24020000 	strcs	r0, [r2], #-0
     d78:	3e0b0b00 	vmlacc.f64	d0, d11, d0
     d7c:	000e030b 	andeq	r0, lr, fp, lsl #6
     d80:	00160300 	andseq	r0, r6, r0, lsl #6
     d84:	0b3a0e03 	bleq	e84598 <__bss_end+0xe81cd8>
     d88:	13490b3b 	movtne	r0, #39739	; 0x9b3b
     d8c:	24040000 	strcs	r0, [r4], #-0
     d90:	3e0b0b00 	vmlacc.f64	d0, d11, d0
     d94:	0008030b 	andeq	r0, r8, fp, lsl #6
     d98:	002e0500 	eoreq	r0, lr, r0, lsl #10
     d9c:	0e030c3f 	mcreq	12, 0, r0, cr3, cr15, {1}
     da0:	0b3b0b3a 	bleq	ec3a90 <__bss_end+0xec11d0>
     da4:	01110c27 	tsteq	r1, r7, lsr #24
     da8:	0a400112 	beq	10011f8 <__bss_end+0xffe938>
     dac:	2e060000 	cdpcs	0, 0, cr0, cr6, cr0, {0}
     db0:	030c3f01 	movweq	r3, #52993	; 0xcf01
     db4:	3b0b3a0e 	blcc	2cf5f4 <__bss_end+0x2ccd34>
     db8:	490c270b 	stmdbmi	ip, {r0, r1, r3, r8, r9, sl, sp}
     dbc:	12011113 	andne	r1, r1, #-1073741820	; 0xc0000004
     dc0:	000a4001 	andeq	r4, sl, r1
     dc4:	00050700 	andeq	r0, r5, r0, lsl #14
     dc8:	0b3a0e03 	bleq	e845dc <__bss_end+0xe81d1c>
     dcc:	13490b3b 	movtne	r0, #39739	; 0x9b3b
     dd0:	00000602 	andeq	r0, r0, r2, lsl #12
     dd4:	03003408 	movweq	r3, #1032	; 0x408
     dd8:	3b0b3a0e 	blcc	2cf618 <__bss_end+0x2ccd58>
     ddc:	0213490b 	andseq	r4, r3, #180224	; 0x2c000
     de0:	00000006 	andeq	r0, r0, r6
     de4:	25011101 	strcs	r1, [r1, #-257]	; 0x101
     de8:	030b130e 	movweq	r1, #45838	; 0xb30e
     dec:	110e1b0e 	tstne	lr, lr, lsl #22
     df0:	10011201 	andne	r1, r1, r1, lsl #4
     df4:	02000006 	andeq	r0, r0, #6
     df8:	0b0b0024 	bleq	2c0e90 <__bss_end+0x2be5d0>
     dfc:	0e030b3e 	vmoveq.16	d3[0], r0
     e00:	16030000 	strne	r0, [r3], -r0
     e04:	3a0e0300 	bcc	381a0c <__bss_end+0x37f14c>
     e08:	490b3b0b 	stmdbmi	fp, {r0, r1, r3, r8, r9, fp, ip, sp}
     e0c:	04000013 	streq	r0, [r0], #-19
     e10:	0b0b0024 	bleq	2c0ea8 <__bss_end+0x2be5e8>
     e14:	08030b3e 	stmdaeq	r3, {r1, r2, r3, r4, r5, r8, r9, fp}
     e18:	35050000 	strcc	r0, [r5, #-0]
     e1c:	00134900 	andseq	r4, r3, r0, lsl #18
     e20:	01040600 	tsteq	r4, r0, lsl #12
     e24:	0b0b0e03 	bleq	2c4638 <__bss_end+0x2c1d78>
     e28:	0b3b0b3a 	bleq	ec3b18 <__bss_end+0xec1258>
     e2c:	00001301 	andeq	r1, r0, r1, lsl #6
     e30:	03002807 	movweq	r2, #2055	; 0x807
     e34:	000d1c0e 	andeq	r1, sp, lr, lsl #24
     e38:	000f0800 	andeq	r0, pc, r0, lsl #16
     e3c:	00000b0b 	andeq	r0, r0, fp, lsl #22
     e40:	3f012e09 	svccc	0x00012e09
     e44:	3a0e030c 	bcc	381a7c <__bss_end+0x37f1bc>
     e48:	270b3b0b 	strcs	r3, [fp, -fp, lsl #22]
     e4c:	1113490c 	tstne	r3, ip, lsl #18
     e50:	40011201 	andmi	r1, r1, r1, lsl #4
     e54:	00130106 	andseq	r0, r3, r6, lsl #2
     e58:	00340a00 	eorseq	r0, r4, r0, lsl #20
     e5c:	0b3a0803 	bleq	e82e70 <__bss_end+0xe805b0>
     e60:	13490b3b 	movtne	r0, #39739	; 0x9b3b
     e64:	00000602 	andeq	r0, r0, r2, lsl #12
     e68:	0300340b 	movweq	r3, #1035	; 0x40b
     e6c:	3b0b3a0e 	blcc	2cf6ac <__bss_end+0x2ccdec>
     e70:	0213490b 	andseq	r4, r3, #180224	; 0x2c000
     e74:	0c000006 	stceq	0, cr0, [r0], {6}
     e78:	08030005 	stmdaeq	r3, {r0, r2}
     e7c:	0b3b0b3a 	bleq	ec3b6c <__bss_end+0xec12ac>
     e80:	06021349 	streq	r1, [r2], -r9, asr #6
     e84:	2e0d0000 	cdpcs	0, 0, cr0, cr13, cr0, {0}
     e88:	030c3f01 	movweq	r3, #52993	; 0xcf01
     e8c:	3b0b3a0e 	blcc	2cf6cc <__bss_end+0x2cce0c>
     e90:	490c270b 	stmdbmi	ip, {r0, r1, r3, r8, r9, sl, sp}
     e94:	12011113 	andne	r1, r1, #-1073741820	; 0xc0000004
     e98:	010a4001 	tsteq	sl, r1
     e9c:	0e000013 	mcreq	0, 0, r0, cr0, cr3, {0}
     ea0:	0e030034 	mcreq	0, 0, r0, cr3, cr4, {1}
     ea4:	0b3b0b3a 	bleq	ec3b94 <__bss_end+0xec12d4>
     ea8:	0a021349 	beq	85bd4 <__bss_end+0x83314>
     eac:	01000000 	mrseq	r0, (UNDEF: 0)
     eb0:	0e250111 	mcreq	1, 1, r0, cr5, cr1, {0}
     eb4:	0e030b13 	vmoveq.32	d3[0], r0
     eb8:	01110e1b 	tsteq	r1, fp, lsl lr
     ebc:	06100112 			; <UNDEFINED> instruction: 0x06100112
     ec0:	24020000 	strcs	r0, [r2], #-0
     ec4:	3e0b0b00 	vmlacc.f64	d0, d11, d0
     ec8:	000e030b 	andeq	r0, lr, fp, lsl #6
     ecc:	00160300 	andseq	r0, r6, r0, lsl #6
     ed0:	0b3a0e03 	bleq	e846e4 <__bss_end+0xe81e24>
     ed4:	13490b3b 	movtne	r0, #39739	; 0x9b3b
     ed8:	24040000 	strcs	r0, [r4], #-0
     edc:	3e0b0b00 	vmlacc.f64	d0, d11, d0
     ee0:	0008030b 	andeq	r0, r8, fp, lsl #6
     ee4:	00350500 	eorseq	r0, r5, r0, lsl #10
     ee8:	00001349 	andeq	r1, r0, r9, asr #6
     eec:	49010106 	stmdbmi	r1, {r1, r2, r8}
     ef0:	00130113 	andseq	r0, r3, r3, lsl r1
     ef4:	00210700 	eoreq	r0, r1, r0, lsl #14
     ef8:	0b2f1349 	bleq	bc5c24 <__bss_end+0xbc3364>
     efc:	13080000 	movwne	r0, #32768	; 0x8000
     f00:	0b0e0301 	bleq	381b0c <__bss_end+0x37f24c>
     f04:	3b0b3a0b 	blcc	2cf738 <__bss_end+0x2cce78>
     f08:	0013010b 	andseq	r0, r3, fp, lsl #2
     f0c:	000d0900 	andeq	r0, sp, r0, lsl #18
     f10:	0b3a0e03 	bleq	e84724 <__bss_end+0xe81e64>
     f14:	13490b3b 	movtne	r0, #39739	; 0x9b3b
     f18:	00000a38 	andeq	r0, r0, r8, lsr sl
     f1c:	3f012e0a 	svccc	0x00012e0a
     f20:	3a0e030c 	bcc	381b58 <__bss_end+0x37f298>
     f24:	270b3b0b 	strcs	r3, [fp, -fp, lsl #22]
     f28:	1113490c 	tstne	r3, ip, lsl #18
     f2c:	40011201 	andmi	r1, r1, r1, lsl #4
     f30:	0013010a 	andseq	r0, r3, sl, lsl #2
     f34:	00050b00 	andeq	r0, r5, r0, lsl #22
     f38:	0b3a0e03 	bleq	e8474c <__bss_end+0xe81e8c>
     f3c:	13490b3b 	movtne	r0, #39739	; 0x9b3b
     f40:	00000602 	andeq	r0, r0, r2, lsl #12
     f44:	0b000f0c 	bleq	4b7c <__bss_end+0x22bc>
     f48:	0013490b 	andseq	r4, r3, fp, lsl #18
     f4c:	002e0d00 	eoreq	r0, lr, r0, lsl #26
     f50:	0e030c3f 	mcreq	12, 0, r0, cr3, cr15, {1}
     f54:	0b3b0b3a 	bleq	ec3c44 <__bss_end+0xec1384>
     f58:	13490c27 	movtne	r0, #39975	; 0x9c27
     f5c:	01120111 	tsteq	r2, r1, lsl r1
     f60:	00000a40 	andeq	r0, r0, r0, asr #20
     f64:	3f002e0e 	svccc	0x00002e0e
     f68:	3a0e030c 	bcc	381ba0 <__bss_end+0x37f2e0>
     f6c:	270b3b0b 	strcs	r3, [fp, -fp, lsl #22]
     f70:	1201110c 	andne	r1, r1, #3
     f74:	000a4001 	andeq	r4, sl, r1
     f78:	00340f00 	eorseq	r0, r4, r0, lsl #30
     f7c:	0b3a0e03 	bleq	e84790 <__bss_end+0xe81ed0>
     f80:	13490b3b 	movtne	r0, #39739	; 0x9b3b
     f84:	00000a02 	andeq	r0, r0, r2, lsl #20
     f88:	01110100 	tsteq	r1, r0, lsl #2
     f8c:	0b130e25 	bleq	4c4828 <__bss_end+0x4c1f68>
     f90:	0e1b0e03 	cdpeq	14, 1, cr0, cr11, cr3, {0}
     f94:	01120111 	tsteq	r2, r1, lsl r1
     f98:	00000610 	andeq	r0, r0, r0, lsl r6
     f9c:	0b002402 	bleq	9fac <__bss_end+0x76ec>
     fa0:	030b3e0b 	movweq	r3, #48651	; 0xbe0b
     fa4:	0300000e 	movweq	r0, #14
     fa8:	0b0b0024 	bleq	2c1040 <__bss_end+0x2be780>
     fac:	08030b3e 	stmdaeq	r3, {r1, r2, r3, r4, r5, r8, r9, fp}
     fb0:	01000000 	mrseq	r0, (UNDEF: 0)
     fb4:	0e250111 	mcreq	1, 1, r0, cr5, cr1, {0}
     fb8:	0e030b13 	vmoveq.32	d3[0], r0
     fbc:	01110e1b 	tsteq	r1, fp, lsl lr
     fc0:	06100112 			; <UNDEFINED> instruction: 0x06100112
     fc4:	24020000 	strcs	r0, [r2], #-0
     fc8:	3e0b0b00 	vmlacc.f64	d0, d11, d0
     fcc:	000e030b 	andeq	r0, lr, fp, lsl #6
     fd0:	00240300 	eoreq	r0, r4, r0, lsl #6
     fd4:	0b3e0b0b 	bleq	f83c08 <__bss_end+0xf81348>
     fd8:	00000803 	andeq	r0, r0, r3, lsl #16
     fdc:	01110100 	tsteq	r1, r0, lsl #2
     fe0:	0b130e25 	bleq	4c487c <__bss_end+0x4c1fbc>
     fe4:	0e1b0e03 	cdpeq	14, 1, cr0, cr11, cr3, {0}
     fe8:	01120111 	tsteq	r2, r1, lsl r1
     fec:	00000610 	andeq	r0, r0, r0, lsl r6
     ff0:	0b002402 	bleq	a000 <__bss_end+0x7740>
     ff4:	030b3e0b 	movweq	r3, #48651	; 0xbe0b
     ff8:	0300000e 	movweq	r0, #14
     ffc:	0e030016 	mcreq	0, 0, r0, cr3, cr6, {0}
    1000:	0b3b0b3a 	bleq	ec3cf0 <__bss_end+0xec1430>
    1004:	00001349 	andeq	r1, r0, r9, asr #6
    1008:	0b002404 	bleq	a020 <__bss_end+0x7760>
    100c:	030b3e0b 	movweq	r3, #48651	; 0xbe0b
    1010:	05000008 	streq	r0, [r0, #-8]
    1014:	0b0b0113 	bleq	2c1468 <__bss_end+0x2beba8>
    1018:	0b3b0b3a 	bleq	ec3d08 <__bss_end+0xec1448>
    101c:	00001301 	andeq	r1, r0, r1, lsl #6
    1020:	03000d06 	movweq	r0, #3334	; 0xd06
    1024:	3b0b3a0e 	blcc	2cf864 <__bss_end+0x2ccfa4>
    1028:	0b13490b 	bleq	4d345c <__bss_end+0x4d0b9c>
    102c:	0c0b0d0b 	stceq	13, cr0, [fp], {11}
    1030:	000a380b 	andeq	r3, sl, fp, lsl #16
    1034:	01170700 	tsteq	r7, r0, lsl #14
    1038:	0b3a0b0b 	bleq	e83c6c <__bss_end+0xe813ac>
    103c:	13010b3b 	movwne	r0, #6971	; 0x1b3b
    1040:	0d080000 	stceq	0, cr0, [r8, #-0]
    1044:	3a0e0300 	bcc	381c4c <__bss_end+0x37f38c>
    1048:	490b3b0b 	stmdbmi	fp, {r0, r1, r3, r8, r9, fp, ip, sp}
    104c:	09000013 	stmdbeq	r0, {r0, r1, r4}
    1050:	0e030113 	mcreq	1, 0, r0, cr3, cr3, {0}
    1054:	0b3a0b0b 	bleq	e83c88 <__bss_end+0xe813c8>
    1058:	13010b3b 	movwne	r0, #6971	; 0x1b3b
    105c:	130a0000 	movwne	r0, #40960	; 0xa000
    1060:	0b0e0301 	bleq	381c6c <__bss_end+0x37f3ac>
    1064:	3b0b3a05 	blcc	2cf880 <__bss_end+0x2ccfc0>
    1068:	0013010b 	andseq	r0, r3, fp, lsl #2
    106c:	000d0b00 	andeq	r0, sp, r0, lsl #22
    1070:	0b3a0e03 	bleq	e84884 <__bss_end+0xe81fc4>
    1074:	13490b3b 	movtne	r0, #39739	; 0x9b3b
    1078:	00000a38 	andeq	r0, r0, r8, lsr sl
    107c:	03000d0c 	movweq	r0, #3340	; 0xd0c
    1080:	3b0b3a08 	blcc	2cf8a8 <__bss_end+0x2ccfe8>
    1084:	3813490b 	ldmdacc	r3, {r0, r1, r3, r8, fp, lr}
    1088:	0d00000a 	stceq	0, cr0, [r0, #-40]	; 0xffffffd8
    108c:	0e03000d 	cdpeq	0, 0, cr0, cr3, cr13, {0}
    1090:	053b0b3a 	ldreq	r0, [fp, #-2874]!	; 0xb3a
    1094:	0a381349 	beq	e05dc0 <__bss_end+0xe03500>
    1098:	0d0e0000 	stceq	0, cr0, [lr, #-0]
    109c:	3a080300 	bcc	201ca4 <__bss_end+0x1ff3e4>
    10a0:	49053b0b 	stmdbmi	r5, {r0, r1, r3, r8, r9, fp, ip, sp}
    10a4:	000a3813 	andeq	r3, sl, r3, lsl r8
    10a8:	00350f00 	eorseq	r0, r5, r0, lsl #30
    10ac:	00001349 	andeq	r1, r0, r9, asr #6
    10b0:	49010110 	stmdbmi	r1, {r4, r8}
    10b4:	00130113 	andseq	r0, r3, r3, lsl r1
    10b8:	00211100 	eoreq	r1, r1, r0, lsl #2
    10bc:	0b2f1349 	bleq	bc5de8 <__bss_end+0xbc3528>
    10c0:	16120000 	ldrne	r0, [r2], -r0
    10c4:	3a0e0300 	bcc	381ccc <__bss_end+0x37f40c>
    10c8:	49053b0b 	stmdbmi	r5, {r0, r1, r3, r8, r9, fp, ip, sp}
    10cc:	13000013 	movwne	r0, #19
    10d0:	0b0b000f 	bleq	2c1114 <__bss_end+0x2be854>
    10d4:	00001349 	andeq	r1, r0, r9, asr #6
    10d8:	3f012e14 	svccc	0x00012e14
    10dc:	3a0e030c 	bcc	381d14 <__bss_end+0x37f454>
    10e0:	270b3b0b 	strcs	r3, [fp, -fp, lsl #22]
    10e4:	1113490c 	tstne	r3, ip, lsl #18
    10e8:	40011201 	andmi	r1, r1, r1, lsl #4
    10ec:	0013010a 	andseq	r0, r3, sl, lsl #2
    10f0:	00051500 	andeq	r1, r5, r0, lsl #10
    10f4:	0b3a0e03 	bleq	e84908 <__bss_end+0xe82048>
    10f8:	13490b3b 	movtne	r0, #39739	; 0x9b3b
    10fc:	00000602 	andeq	r0, r0, r2, lsl #12
    1100:	3f002e16 	svccc	0x00002e16
    1104:	3a0e030c 	bcc	381d3c <__bss_end+0x37f47c>
    1108:	270b3b0b 	strcs	r3, [fp, -fp, lsl #22]
    110c:	1113490c 	tstne	r3, ip, lsl #18
    1110:	40011201 	andmi	r1, r1, r1, lsl #4
    1114:	1700000a 	strne	r0, [r0, -sl]
    1118:	0c3f012e 	ldfeqs	f0, [pc], #-184	; 1068 <serial_init_nommu+0x8c>
    111c:	0b3a0e03 	bleq	e84930 <__bss_end+0xe82070>
    1120:	0c270b3b 	stceq	11, cr0, [r7], #-236	; 0xffffff14
    1124:	01111349 	tsteq	r1, r9, asr #6
    1128:	06400112 			; <UNDEFINED> instruction: 0x06400112
    112c:	00001301 	andeq	r1, r0, r1, lsl #6
    1130:	3f012e18 	svccc	0x00012e18
    1134:	3a0e030c 	bcc	381d6c <__bss_end+0x37f4ac>
    1138:	27053b0b 	strcs	r3, [r5, -fp, lsl #22]
    113c:	1113490c 	tstne	r3, ip, lsl #18
    1140:	40011201 	andmi	r1, r1, r1, lsl #4
    1144:	0013010a 	andseq	r0, r3, sl, lsl #2
    1148:	00051900 	andeq	r1, r5, r0, lsl #18
    114c:	0b3a0e03 	bleq	e84960 <__bss_end+0xe820a0>
    1150:	1349053b 	movtne	r0, #38203	; 0x953b
    1154:	00000602 	andeq	r0, r0, r2, lsl #12
    1158:	0300341a 	movweq	r3, #1050	; 0x41a
    115c:	3b0b3a0e 	blcc	2cf99c <__bss_end+0x2cd0dc>
    1160:	02134905 	andseq	r4, r3, #81920	; 0x14000
    1164:	1b000006 	blne	1184 <serial_gets_nommu+0x78>
    1168:	0e030034 	mcreq	0, 0, r0, cr3, cr4, {1}
    116c:	0b3b0b3a 	bleq	ec3e5c <__bss_end+0xec159c>
    1170:	0a021349 	beq	85e9c <__bss_end+0x835dc>
    1174:	Address 0x00001174 is out of bounds.


Disassembly of section .debug_line:

00000000 <.debug_line>:
       0:	00000094 	muleq	r0, r4, r0
       4:	008e0002 	addeq	r0, lr, r2
       8:	01020000 	mrseq	r0, (UNDEF: 2)
       c:	000d0efb 	strdeq	r0, [sp], -fp
      10:	01010101 	tsteq	r1, r1, lsl #2
      14:	01000000 	mrseq	r0, (UNDEF: 0)
      18:	61010000 	mrsvs	r0, (UNDEF: 1)
      1c:	2f686372 	svccs	0x00686372
      20:	2f6d7261 	svccs	0x006d7261
      24:	6863616d 	stmdavs	r3!, {r0, r2, r3, r5, r6, r8, sp, lr}^
      28:	6e75732d 	cdpvs	3, 7, cr7, cr5, cr13, {1}
      2c:	702f6978 	eorvc	r6, pc, r8, ror r9	; <UNPREDICTABLE>
      30:	74732f6d 	ldrbtvc	r2, [r3], #-3949	; 0xf6d
      34:	62646e61 	rsbvs	r6, r4, #1552	; 0x610
      38:	75732f79 	ldrbvc	r2, [r3, #-3961]!	; 0xf79
      3c:	2f726570 	svccs	0x00726570
      40:	75736572 	ldrbvc	r6, [r3, #-1394]!	; 0x572
      44:	2e2f656d 	cfsh64cs	mvdx6, mvdx15, #61
      48:	002e2e2f 	eoreq	r2, lr, pc, lsr #28
      4c:	68637261 	stmdavs	r3!, {r0, r5, r6, r9, ip, sp, lr}^
      50:	6d72612f 	ldfvse	f6, [r2, #-188]!	; 0xffffff44
      54:	63616d2f 	cmnvs	r1, #3008	; 0xbc0
      58:	75732d68 	ldrbvc	r2, [r3, #-3432]!	; 0xd68
      5c:	2f69786e 	svccs	0x0069786e
      60:	732f6d70 	teqvc	pc, #7168	; 0x1c00
      64:	646e6174 	strbtvs	r6, [lr], #-372	; 0x174
      68:	732f7962 	teqvc	pc, #1605632	; 0x188000
      6c:	72657075 	rsbvc	r7, r5, #117	; 0x75
      70:	7365722f 	cmnvc	r5, #-268435454	; 0xf0000002
      74:	00656d75 	rsbeq	r6, r5, r5, ror sp
      78:	70757300 	rsbsvc	r7, r5, r0, lsl #6
      7c:	695f7265 	ldmdbvs	pc, {r0, r2, r5, r6, r9, ip, sp, lr}^	; <UNPREDICTABLE>
      80:	0100682e 	tsteq	r0, lr, lsr #16
      84:	65720000 	ldrbvs	r0, [r2, #-0]!
      88:	656d7573 	strbvs	r7, [sp, #-1395]!	; 0x573
      8c:	6165685f 	cmnvs	r5, pc, asr r8
      90:	00632e64 	rsbeq	r2, r3, r4, ror #28
      94:	00000002 	andeq	r0, r0, r2
      98:	0000008b 	andeq	r0, r0, fp, lsl #1
      9c:	004c0002 	subeq	r0, ip, r2
      a0:	01020000 	mrseq	r0, (UNDEF: 2)
      a4:	000d0efb 	strdeq	r0, [sp], -fp
      a8:	01010101 	tsteq	r1, r1, lsl #2
      ac:	01000000 	mrseq	r0, (UNDEF: 0)
      b0:	61010000 	mrsvs	r0, (UNDEF: 1)
      b4:	2f686372 	svccs	0x00686372
      b8:	2f6d7261 	svccs	0x006d7261
      bc:	6863616d 	stmdavs	r3!, {r0, r2, r3, r5, r6, r8, sp, lr}^
      c0:	6e75732d 	cdpvs	3, 7, cr7, cr5, cr13, {1}
      c4:	702f6978 	eorvc	r6, pc, r8, ror r9	; <UNPREDICTABLE>
      c8:	74732f6d 	ldrbtvc	r2, [r3], #-3949	; 0xf6d
      cc:	62646e61 	rsbvs	r6, r4, #1552	; 0x610
      d0:	75732f79 	ldrbvc	r2, [r3, #-3961]!	; 0xf79
      d4:	2f726570 	svccs	0x00726570
      d8:	75736572 	ldrbvc	r6, [r3, #-1394]!	; 0x572
      dc:	0000656d 	andeq	r6, r0, sp, ror #10
      e0:	75736572 	ldrbvc	r6, [r3, #-1394]!	; 0x572
      e4:	2e31656d 	cdpcs	5, 3, cr6, cr1, cr13, {3}
      e8:	00010053 	andeq	r0, r1, r3, asr r0
      ec:	05000000 	streq	r0, [r0, #-0]
      f0:	00003002 	andeq	r3, r0, r2
      f4:	00c30300 	sbceq	r0, r3, r0, lsl #6
      f8:	2f2f2f01 	svccs	0x002f2f01
      fc:	2f332f2f 	svccs	0x00332f2f
     100:	302f2f2f 	eorcc	r2, pc, pc, lsr #30
     104:	302f312f 	eorcc	r3, pc, pc, lsr #2
     108:	2f2f302f 	svccs	0x002f302f
     10c:	2f322f2f 	svccs	0x00322f2f
     110:	322f2f2f 	eorcc	r2, pc, #188	; 0xbc
     114:	342f2f2f 	strtcc	r2, [pc], #-3887	; 11c <loop2+0x18>
     118:	2f312f30 	svccs	0x00312f30
     11c:	2e580330 	mrccs	3, 2, r0, cr8, cr0, {1}
     120:	02023436 	andeq	r3, r2, #905969664	; 0x36000000
     124:	72010100 	andvc	r0, r1, #0
     128:	02000000 	andeq	r0, r0, #0
     12c:	00004400 	andeq	r4, r0, r0, lsl #8
     130:	fb010200 	blx	4093a <__bss_end+0x3e07a>
     134:	01000d0e 	tsteq	r0, lr, lsl #26
     138:	00010101 	andeq	r0, r1, r1, lsl #2
     13c:	00010000 	andeq	r0, r1, r0
     140:	72610100 	rsbvc	r0, r1, #0
     144:	612f6863 	teqvs	pc, r3, ror #16
     148:	6d2f6d72 	stcvs	13, cr6, [pc, #-456]!	; ffffff88 <__bss_end+0xffffd6c8>
     14c:	2d686361 	stclcs	3, cr6, [r8, #-388]!	; 0xfffffe7c
     150:	786e7573 	stmdavc	lr!, {r0, r1, r4, r5, r6, r8, sl, ip, sp, lr}^
     154:	6d702f69 	ldclvs	15, cr2, [r0, #-420]!	; 0xfffffe5c
     158:	6174732f 	cmnvs	r4, pc, lsr #6
     15c:	7962646e 	stmdbvc	r2!, {r1, r2, r3, r5, r6, sl, sp, lr}^
     160:	7075732f 	rsbsvc	r7, r5, pc, lsr #6
     164:	00007265 	andeq	r7, r0, r5, ror #4
     168:	6d6d6f63 	stclvs	15, cr6, [sp, #-396]!	; 0xfffffe74
     16c:	632e6e6f 	teqvs	lr, #1776	; 0x6f0
     170:	00000100 	andeq	r0, r0, r0, lsl #2
     174:	02050000 	andeq	r0, r5, #0
     178:	000000d0 	ldrdeq	r0, [r0], -r0	; <UNPREDICTABLE>
     17c:	15012303 	strne	r2, [r1, #-771]	; 0x303
     180:	4a7a034c 	bmi	1e80eb8 <__bss_end+0x1e7e5f8>
     184:	02040200 	andeq	r0, r4, #0
     188:	04020035 	streq	r0, [r2], #-53	; 0x35
     18c:	02002d02 	andeq	r2, r0, #128	; 0x80
     190:	002f0204 	eoreq	r0, pc, r4, lsl #4
     194:	2d020402 	cfstrscs	mvf0, [r2, #-8]
     198:	01000402 	tsteq	r0, r2, lsl #8
     19c:	00001901 	andeq	r1, r0, r1, lsl #18
     1a0:	13000200 	movwne	r0, #512	; 0x200
     1a4:	02000000 	andeq	r0, r0, #0
     1a8:	0d0efb01 	vstreq	d15, [lr, #-4]
     1ac:	01010100 	mrseq	r0, (UNDEF: 17)
     1b0:	00000001 	andeq	r0, r0, r1
     1b4:	01000001 	tsteq	r0, r1
     1b8:	00670000 	rsbeq	r0, r7, r0
     1bc:	00020000 	andeq	r0, r2, r0
     1c0:	00000049 	andeq	r0, r0, r9, asr #32
     1c4:	0efb0102 	cdpeq	1, 15, cr0, cr11, cr2, {0}
     1c8:	0101000d 	tsteq	r1, sp
     1cc:	00000101 	andeq	r0, r0, r1, lsl #2
     1d0:	00000100 	andeq	r0, r0, r0, lsl #2
     1d4:	63726101 	cmnvs	r2, #1073741824	; 0x40000000
     1d8:	72612f68 	rsbvc	r2, r1, #416	; 0x1a0
     1dc:	616d2f6d 	cmnvs	sp, sp, ror #30
     1e0:	732d6863 	teqvc	sp, #6488064	; 0x630000
     1e4:	69786e75 	ldmdbvs	r8!, {r0, r2, r4, r5, r6, r9, sl, fp, sp, lr}^
     1e8:	2f6d702f 	svccs	0x006d702f
     1ec:	6e617473 	mcrvs	4, 3, r7, cr1, cr3, {3}
     1f0:	2f796264 	svccs	0x00796264
     1f4:	65707573 	ldrbvs	r7, [r0, #-1395]!	; 0x573
     1f8:	73000072 	movwvc	r0, #114	; 0x72
     1fc:	72657075 	rsbvc	r7, r5, #117	; 0x75
     200:	6c65645f 	cfstrdvs	mvd6, [r5], #-380	; 0xfffffe84
     204:	532e7961 	teqpl	lr, #1589248	; 0x184000
     208:	00000100 	andeq	r0, r0, r0, lsl #2
     20c:	02050000 	andeq	r0, r5, #0
     210:	000000f8 	strdeq	r0, [r0], -r8
     214:	2f010d03 	svccs	0x00010d03
     218:	2f2f302f 	svccs	0x002f302f
     21c:	2f302f2f 	svccs	0x00302f2f
     220:	01000202 	tsteq	r0, r2, lsl #4
     224:	00001901 	andeq	r1, r0, r1, lsl #18
     228:	13000200 	movwne	r0, #512	; 0x200
     22c:	02000000 	andeq	r0, r0, #0
     230:	0d0efb01 	vstreq	d15, [lr, #-4]
     234:	01010100 	mrseq	r0, (UNDEF: 17)
     238:	00000001 	andeq	r0, r0, r1
     23c:	01000001 	tsteq	r0, r1
     240:	00190000 	andseq	r0, r9, r0
     244:	00020000 	andeq	r0, r2, r0
     248:	00000013 	andeq	r0, r0, r3, lsl r0
     24c:	0efb0102 	cdpeq	1, 15, cr0, cr11, cr2, {0}
     250:	0101000d 	tsteq	r1, sp
     254:	00000101 	andeq	r0, r0, r1, lsl #2
     258:	00000100 	andeq	r0, r0, r0, lsl #2
     25c:	19000001 	stmdbne	r0, {r0}
     260:	02000000 	andeq	r0, r0, #0
     264:	00001300 	andeq	r1, r0, r0, lsl #6
     268:	fb010200 	blx	40a72 <__bss_end+0x3e1b2>
     26c:	01000d0e 	tsteq	r0, lr, lsl #26
     270:	00010101 	andeq	r0, r1, r1, lsl #2
     274:	00010000 	andeq	r0, r1, r0
     278:	00000100 	andeq	r0, r0, r0, lsl #2
     27c:	00000145 	andeq	r0, r0, r5, asr #2
     280:	00c50002 	sbceq	r0, r5, r2
     284:	01020000 	mrseq	r0, (UNDEF: 2)
     288:	000d0efb 	strdeq	r0, [sp], -fp
     28c:	01010101 	tsteq	r1, r1, lsl #2
     290:	01000000 	mrseq	r0, (UNDEF: 0)
     294:	61010000 	mrsvs	r0, (UNDEF: 1)
     298:	2f686372 	svccs	0x00686372
     29c:	2f6d7261 	svccs	0x006d7261
     2a0:	6863616d 	stmdavs	r3!, {r0, r2, r3, r5, r6, r8, sp, lr}^
     2a4:	6e75732d 	cdpvs	3, 7, cr7, cr5, cr13, {1}
     2a8:	702f6978 	eorvc	r6, pc, r8, ror r9	; <UNPREDICTABLE>
     2ac:	74732f6d 	ldrbtvc	r2, [r3], #-3949	; 0xf6d
     2b0:	62646e61 	rsbvs	r6, r4, #1552	; 0x610
     2b4:	75732f79 	ldrbvc	r2, [r3, #-3961]!	; 0xf79
     2b8:	2f726570 	svccs	0x00726570
     2bc:	75736572 	ldrbvc	r6, [r3, #-1394]!	; 0x572
     2c0:	6100656d 	tstvs	r0, sp, ror #10
     2c4:	2f686372 	svccs	0x00686372
     2c8:	2f6d7261 	svccs	0x006d7261
     2cc:	6863616d 	stmdavs	r3!, {r0, r2, r3, r5, r6, r8, sp, lr}^
     2d0:	6e75732d 	cdpvs	3, 7, cr7, cr5, cr13, {1}
     2d4:	702f6978 	eorvc	r6, pc, r8, ror r9	; <UNPREDICTABLE>
     2d8:	74732f6d 	ldrbtvc	r2, [r3], #-3949	; 0xf6d
     2dc:	62646e61 	rsbvs	r6, r4, #1552	; 0x610
     2e0:	75732f79 	ldrbvc	r2, [r3, #-3961]!	; 0xf79
     2e4:	2f726570 	svccs	0x00726570
     2e8:	75736572 	ldrbvc	r6, [r3, #-1394]!	; 0x572
     2ec:	2e2f656d 	cfsh64cs	mvdx6, mvdx15, #61
     2f0:	2f2e2e2f 	svccs	0x002e2e2f
     2f4:	2e2f2e2e 	cdpcs	14, 2, cr2, cr15, cr14, {1}
     2f8:	7200002e 	andvc	r0, r0, #46	; 0x2e
     2fc:	6d757365 	ldclvs	3, cr7, [r5, #-404]!	; 0xfffffe6c
     300:	635f3165 	cmpvs	pc, #1073741849	; 0x40000019
     304:	7261705f 	rsbvc	r7, r1, #95	; 0x5f
     308:	00632e74 	rsbeq	r2, r3, r4, ror lr
     30c:	70000001 	andvc	r0, r0, r1
     310:	79745f6d 	ldmdbvc	r4!, {r0, r2, r3, r5, r6, r8, r9, sl, fp, ip, lr}^
     314:	2e736570 	mrccs	5, 3, r6, cr3, cr0, {3}
     318:	00020068 	andeq	r0, r2, r8, rrx
     31c:	6d656d00 	stclvs	13, cr6, [r5, #-0]
     320:	6d63635f 	stclvs	3, cr6, [r3, #-380]!	; 0xfffffe84
     324:	75732d75 	ldrbvc	r2, [r3, #-3445]!	; 0xd75
     328:	7769386e 	strbvc	r3, [r9, -lr, ror #16]!
     32c:	2e317035 	mrccs	0, 1, r7, cr1, cr5, {1}
     330:	00020068 	andeq	r0, r2, r8, rrx
     334:	6d656d00 	stclvs	13, cr6, [r5, #-0]
     338:	6b6c635f 	blvs	1b190bc <__bss_end+0x1b167fc>
     33c:	0200682e 	andeq	r6, r0, #3014656	; 0x2e0000
     340:	6d700000 	ldclvs	0, cr0, [r0, #-0]
     344:	0200682e 	andeq	r6, r0, #3014656	; 0x2e0000
     348:	00000000 	andeq	r0, r0, r0
     34c:	01200205 	teqeq	r0, r5, lsl #4
     350:	2e030000 	cdpcs	0, 0, cr0, cr3, cr0, {0}
     354:	0c033101 	stfeqs	f3, [r3], {1}
     358:	2e74032e 	cdpcs	3, 7, cr0, cr4, cr14, {1}
     35c:	2e09032f 	cdpcs	3, 0, cr0, cr9, cr15, {1}
     360:	4b4b6d4c 	blmi	12db898 <__bss_end+0x12d8fd8>
     364:	4e6b4c2f 	cdpmi	12, 6, cr4, cr11, cr15, {1}
     368:	354b504b 	strbcc	r5, [fp, #-75]	; 0x4b
     36c:	694b6a4b 	stmdbvs	fp, {r0, r1, r3, r6, r9, fp, sp, lr}^
     370:	034a5503 	movteq	r5, #42243	; 0xa503
     374:	67036624 	strvs	r6, [r3, -r4, lsr #12]
     378:	082c0366 	stmdaeq	ip!, {r1, r2, r5, r6, r8, r9}
     37c:	2e0b0358 	mcrcs	3, 0, r0, cr11, cr8, {2}
     380:	04020030 	streq	r0, [r2], #-48	; 0x30
     384:	1103a001 	tstne	r3, r1
     388:	2e760366 	cdpcs	3, 7, cr0, cr6, cr6, {3}
     38c:	352e7903 	strcc	r7, [lr, #-2307]!	; 0x903
     390:	6232324c 	eorsvs	r3, r2, #-1073741820	; 0xc0000004
     394:	29334e32 	ldmdbcs	r3!, {r1, r4, r5, r9, sl, fp, lr}
     398:	0336a22f 	teqeq	r6, #-268435454	; 0xf0000002
     39c:	5a032e26 	bpl	cbc3c <__bss_end+0xc937c>
     3a0:	2e26032e 	cdpcs	3, 2, cr0, cr6, cr14, {1}
     3a4:	032e5a03 	teqeq	lr, #12288	; 0x3000
     3a8:	2f2f2e26 	svccs	0x002f2e26
     3ac:	00fe034e 	rscseq	r0, lr, lr, asr #6
     3b0:	302f8a66 	eorcc	r8, pc, r6, ror #20
     3b4:	7eff032c 	cdpvc	3, 15, cr0, cr15, cr12, {1}
     3b8:	a0314b2e 	eorsge	r4, r1, lr, lsr #22
     3bc:	4a75032f 	bmi	1d41080 <__bss_end+0x1d3e7c0>
     3c0:	01000c02 	tsteq	r0, r2, lsl #24
     3c4:	0000b301 	andeq	fp, r0, r1, lsl #6
     3c8:	51000200 	mrspl	r0, R8_usr
     3cc:	02000000 	andeq	r0, r0, #0
     3d0:	0d0efb01 	vstreq	d15, [lr, #-4]
     3d4:	01010100 	mrseq	r0, (UNDEF: 17)
     3d8:	00000001 	andeq	r0, r0, r1
     3dc:	01000001 	tsteq	r0, r1
     3e0:	68637261 	stmdavs	r3!, {r0, r5, r6, r9, ip, sp, lr}^
     3e4:	6d72612f 	ldfvse	f6, [r2, #-188]!	; 0xffffff44
     3e8:	63616d2f 	cmnvs	r1, #3008	; 0xbc0
     3ec:	75732d68 	ldrbvc	r2, [r3, #-3432]!	; 0xd68
     3f0:	2f69786e 	svccs	0x0069786e
     3f4:	732f6d70 	teqvc	pc, #7168	; 0x1c00
     3f8:	646e6174 	strbtvs	r6, [lr], #-372	; 0x174
     3fc:	2e2f7962 	cdpcs	9, 2, cr7, cr15, cr2, {3}
     400:	7000002e 	andvc	r0, r0, lr, lsr #32
     404:	65645f6d 	strbvs	r5, [r4, #-3949]!	; 0xf6d
     408:	2e677562 	cdpcs	5, 6, cr7, cr7, cr2, {3}
     40c:	00010063 	andeq	r0, r1, r3, rrx
     410:	5f6d7000 	svcpl	0x006d7000
     414:	65707974 	ldrbvs	r7, [r0, #-2420]!	; 0x974
     418:	00682e73 	rsbeq	r2, r8, r3, ror lr
     41c:	00000001 	andeq	r0, r0, r1
     420:	1c020500 	cfstr32ne	mvfx0, [r2], {-0}
     424:	03000003 	movweq	r0, #3
     428:	0030010b 	eorseq	r0, r0, fp, lsl #2
     42c:	4b010402 	blmi	4143c <__bss_end+0x3eb7c>
     430:	361a516a 	ldrcc	r5, [sl], -sl, ror #2
     434:	00fd0319 	rscseq	r0, sp, r9, lsl r3
     438:	1431142e 	ldrtne	r1, [r1], #-1070	; 0x42e
     43c:	31db1631 	bicscc	r1, fp, r1, lsr r6
     440:	2d2f3114 	stfcss	f3, [pc, #-80]!	; 3f8 <save_mem_status_nommu+0x18>
     444:	302f672f 	eorcc	r6, pc, pc, lsr #14
     448:	3167134d 	cmncc	r7, sp, asr #6
     44c:	312b312e 	teqcc	fp, lr, lsr #2
     450:	4d4f9d2f 	stclmi	13, cr9, [pc, #-188]	; 39c <get_mem_status+0x4>
     454:	4c2f2d2f 	stcmi	13, cr2, [pc], #-188	; 3a0 <get_mem_status+0x8>
     458:	2f2d2f4d 	svccs	0x002d2f4d
     45c:	4a09034c 	bmi	241194 <__bss_end+0x23e8d4>
     460:	1631a114 			; <UNDEFINED> instruction: 0x1631a114
     464:	31312f67 	teqcc	r1, r7, ror #30
     468:	312f6815 	teqcc	pc, r5, lsl r8	; <UNPREDICTABLE>
     46c:	4c4c3034 	mcrrmi	0, 3, r3, ip, cr4
     470:	312f302a 	teqcc	pc, sl, lsr #32
     474:	0231312c 	eorseq	r3, r1, #11
     478:	01010002 	tsteq	r1, r2
     47c:	000000ff 	strdeq	r0, [r0], -pc	; <UNPREDICTABLE>
     480:	00850002 	addeq	r0, r5, r2
     484:	01020000 	mrseq	r0, (UNDEF: 2)
     488:	000d0efb 	strdeq	r0, [sp], -fp
     48c:	01010101 	tsteq	r1, r1, lsl #2
     490:	01000000 	mrseq	r0, (UNDEF: 0)
     494:	61010000 	mrsvs	r0, (UNDEF: 1)
     498:	2f686372 	svccs	0x00686372
     49c:	2f6d7261 	svccs	0x006d7261
     4a0:	6863616d 	stmdavs	r3!, {r0, r2, r3, r5, r6, r8, sp, lr}^
     4a4:	6e75732d 	cdpvs	3, 7, cr7, cr5, cr13, {1}
     4a8:	702f6978 	eorvc	r6, pc, r8, ror r9	; <UNPREDICTABLE>
     4ac:	74732f6d 	ldrbtvc	r2, [r3], #-3949	; 0xf6d
     4b0:	62646e61 	rsbvs	r6, r4, #1552	; 0x610
     4b4:	2e2e2f79 	mcrcs	15, 1, r2, cr14, cr9, {3}
     4b8:	63726100 	cmnvs	r2, #0
     4bc:	72612f68 	rsbvc	r2, r1, #416	; 0x1a0
     4c0:	616d2f6d 	cmnvs	sp, sp, ror #30
     4c4:	732d6863 	teqvc	sp, #6488064	; 0x630000
     4c8:	69786e75 	ldmdbvs	r8!, {r0, r2, r4, r5, r6, r9, sl, fp, sp, lr}^
     4cc:	2f6d702f 	svccs	0x006d702f
     4d0:	6e617473 	mcrvs	4, 3, r7, cr1, cr3, {3}
     4d4:	2f796264 	svccs	0x00796264
     4d8:	2e2f2e2e 	cdpcs	14, 2, cr2, cr15, cr14, {1}
     4dc:	656d0000 	strbvs	r0, [sp, #-0]!
     4e0:	69745f6d 	ldmdbvs	r4!, {r0, r2, r3, r5, r6, r8, r9, sl, fp, ip, lr}^
     4e4:	676e696d 	strbvs	r6, [lr, -sp, ror #18]!
     4e8:	0100632e 	tsteq	r0, lr, lsr #6
     4ec:	6d700000 	ldclvs	0, cr0, [r0, #-0]
     4f0:	7079745f 	rsbsvc	r7, r9, pc, asr r4
     4f4:	682e7365 	stmdavs	lr!, {r0, r2, r5, r6, r8, r9, ip, sp, lr}
     4f8:	00000100 	andeq	r0, r0, r0, lsl #2
     4fc:	645f6d70 	ldrbvs	r6, [pc], #-3440	; 504 <get_cyclecount+0x4>
     500:	67756265 	ldrbvs	r6, [r5, -r5, ror #4]!
     504:	0200682e 	andeq	r6, r0, #3014656	; 0x2e0000
     508:	00000000 	andeq	r0, r0, r0
     50c:	04940205 	ldreq	r0, [r4], #517	; 0x205
     510:	0b030000 	bleq	c0518 <__bss_end+0xbdc58>
     514:	09031401 	stmdbeq	r3, {r0, sl, ip}
     518:	31302f66 	teqcc	r0, r6, ror #30
     51c:	31314d32 	teqcc	r1, r2, lsr sp
     520:	314c8514 	cmpcc	ip, r4, lsl r5
     524:	31848515 	orrcc	r8, r4, r5, lsl r5
     528:	15313015 	ldrne	r3, [r1, #-21]!
     52c:	312f312f 	teqcc	pc, pc, lsr #2
     530:	032e7003 	teqeq	lr, #3
     534:	4b844a17 	blmi	fe112d98 <__bss_end+0xfe1104d8>
     538:	03362e34 	teqeq	r6, #832	; 0x340
     53c:	302f8232 	eorcc	r8, pc, r2, lsr r2	; <UNPREDICTABLE>
     540:	032e4c03 	teqeq	lr, #768	; 0x300
     544:	30034a57 	andcc	r4, r3, r7, asr sl
     548:	2e79032e 	cdpcs	3, 7, cr0, cr9, cr14, {1}
     54c:	032f4d35 	teqeq	pc, #3392	; 0xd40
     550:	4e667fa7 	cdpmi	15, 6, cr7, cr6, cr7, {5}
     554:	4a1e034d 	bmi	781290 <__bss_end+0x77e9d0>
     558:	032e3803 	teqeq	lr, #196608	; 0x30000
     55c:	4d139e28 	ldcmi	14, cr9, [r3, #-160]	; 0xffffff60
     560:	2e21030f 	cdpcs	3, 2, cr0, cr1, cr15, {0}
     564:	66090314 			; <UNDEFINED> instruction: 0x66090314
     568:	3231302f 	eorscc	r3, r1, #47	; 0x2f
     56c:	a431314d 	ldrtge	r3, [r1], #-333	; 0x14d
     570:	312f3031 	teqcc	pc, r1, lsr r0	; <UNPREDICTABLE>
     574:	3031a44e 	eorscc	sl, r1, lr, asr #8
     578:	0402312f 	streq	r3, [r2], #-303	; 0x12f
     57c:	ac010100 	stfges	f0, [r1], {-0}
     580:	02000000 	andeq	r0, r0, #0
     584:	00007f00 	andeq	r7, r0, r0, lsl #30
     588:	fb010200 	blx	40d92 <__bss_end+0x3e4d2>
     58c:	01000d0e 	tsteq	r0, lr, lsl #26
     590:	00010101 	andeq	r0, r1, r1, lsl #2
     594:	00010000 	andeq	r0, r1, r0
     598:	72610100 	rsbvc	r0, r1, #0
     59c:	612f6863 	teqvs	pc, r3, ror #16
     5a0:	6d2f6d72 	stcvs	13, cr6, [pc, #-456]!	; 3e0 <save_mem_status_nommu>
     5a4:	2d686361 	stclcs	3, cr6, [r8, #-388]!	; 0xfffffe7c
     5a8:	786e7573 	stmdavc	lr!, {r0, r1, r4, r5, r6, r8, sl, ip, sp, lr}^
     5ac:	6d702f69 	ldclvs	15, cr2, [r0, #-420]!	; 0xfffffe5c
     5b0:	6174732f 	cmnvs	r4, pc, lsr #6
     5b4:	7962646e 	stmdbvc	r2!, {r1, r2, r3, r5, r6, sl, sp, lr}^
     5b8:	002e2e2f 	eoreq	r2, lr, pc, lsr #28
     5bc:	68637261 	stmdavs	r3!, {r0, r5, r6, r9, ip, sp, lr}^
     5c0:	6d72612f 	ldfvse	f6, [r2, #-188]!	; 0xffffff44
     5c4:	63616d2f 	cmnvs	r1, #3008	; 0xbc0
     5c8:	75732d68 	ldrbvc	r2, [r3, #-3432]!	; 0xd68
     5cc:	2f69786e 	svccs	0x0069786e
     5d0:	732f6d70 	teqvc	pc, #7168	; 0x1c00
     5d4:	646e6174 	strbtvs	r6, [lr], #-372	; 0x174
     5d8:	2e2f7962 	cdpcs	9, 2, cr7, cr15, cr2, {3}
     5dc:	002e2f2e 	eoreq	r2, lr, lr, lsr #30
     5e0:	6d656d00 	stclvs	13, cr6, [r5, #-0]
     5e4:	756d6d5f 	strbvc	r6, [sp, #-3423]!	; 0xd5f
     5e8:	2e63705f 	mcrcs	0, 3, r7, cr3, cr15, {2}
     5ec:	00010063 	andeq	r0, r1, r3, rrx
     5f0:	2e6d7000 	cdpcs	0, 6, cr7, cr13, cr0, {0}
     5f4:	00020068 	andeq	r0, r2, r8, rrx
     5f8:	5f6d7000 	svcpl	0x006d7000
     5fc:	65707974 	ldrbvs	r7, [r0, #-2420]!	; 0x974
     600:	00682e73 	rsbeq	r2, r8, r3, ror lr
     604:	00000001 	andeq	r0, r0, r1
     608:	60020500 	andvs	r0, r2, r0, lsl #10
     60c:	19000006 	stmdbne	r0, {r1, r2}
     610:	4f4d4c14 	svcmi	0x004d4c14
     614:	4d4d4b4b 	vstrmi	d20, [sp, #-300]	; 0xfffffed4
     618:	4c4c1631 	mcrrmi	6, 3, r1, ip, cr1
     61c:	4b2f4b4e 	blmi	bd335c <__bss_end+0xbd0a9c>
     620:	131313bb 	tstne	r3, #-335544318	; 0xec000002
     624:	2f2f4c32 	svccs	0x002f4c32
     628:	0202312f 	andeq	r3, r2, #-1073741813	; 0xc000000b
     62c:	ad010100 	stfges	f0, [r1, #-0]
     630:	02000001 	andeq	r0, r0, #1
     634:	00004900 	andeq	r4, r0, r0, lsl #18
     638:	fb010200 	blx	40e42 <__bss_end+0x3e582>
     63c:	01000d0e 	tsteq	r0, lr, lsl #26
     640:	00010101 	andeq	r0, r1, r1, lsl #2
     644:	00010000 	andeq	r0, r1, r0
     648:	72610100 	rsbvc	r0, r1, #0
     64c:	612f6863 	teqvs	pc, r3, ror #16
     650:	6d2f6d72 	stcvs	13, cr6, [pc, #-456]!	; 490 <io_high+0x30>
     654:	2d686361 	stclcs	3, cr6, [r8, #-388]!	; 0xfffffe7c
     658:	786e7573 	stmdavc	lr!, {r0, r1, r4, r5, r6, r8, sl, ip, sp, lr}^
     65c:	6d702f69 	ldclvs	15, cr2, [r0, #-420]!	; 0xfffffe5c
     660:	6174732f 	cmnvs	r4, pc, lsr #6
     664:	7962646e 	stmdbvc	r2!, {r1, r2, r3, r5, r6, sl, sp, lr}^
     668:	002e2e2f 	eoreq	r2, lr, pc, lsr #28
     66c:	6d656d00 	stclvs	13, cr6, [r5, #-0]
     670:	756d6d5f 	strbvc	r6, [sp, #-3423]!	; 0xd5f
     674:	5f63705f 	svcpl	0x0063705f
     678:	2e6d7361 	cdpcs	3, 6, cr7, cr13, cr1, {3}
     67c:	00010053 	andeq	r0, r1, r3, asr r0
     680:	05000000 	streq	r0, [r0, #-0]
     684:	00070002 	andeq	r0, r7, r2
     688:	010a0300 	mrseq	r0, (UNDEF: 58)
     68c:	2f332f2f 	svccs	0x00332f2f
     690:	332f332f 	teqcc	pc, #-1140850688	; 0xbc000000
     694:	6613032f 	ldrvs	r0, [r3], -pc, lsr #6
     698:	2f2f2f2f 	svccs	0x002f2f2f
     69c:	2f2f302f 	svccs	0x002f302f
     6a0:	2f2f2f2f 	svccs	0x002f2f2f
     6a4:	2f2f2f2f 	svccs	0x002f2f2f
     6a8:	2f2f2f2f 	svccs	0x002f2f2f
     6ac:	2f2f3030 	svccs	0x002f3030
     6b0:	2f2f2f2f 	svccs	0x002f2f2f
     6b4:	302f2f30 	eorcc	r2, pc, r0, lsr pc	; <UNPREDICTABLE>
     6b8:	302f2f30 	eorcc	r2, pc, r0, lsr pc	; <UNPREDICTABLE>
     6bc:	2f2f2f33 	svccs	0x002f2f33
     6c0:	2f332f2f 	svccs	0x00332f2f
     6c4:	2f2f2f2f 	svccs	0x002f2f2f
     6c8:	2f2f302f 	svccs	0x002f302f
     6cc:	2f2f2f2f 	svccs	0x002f2f2f
     6d0:	2f2f2f2f 	svccs	0x002f2f2f
     6d4:	2f2f2f2f 	svccs	0x002f2f2f
     6d8:	2f2f3030 	svccs	0x002f3030
     6dc:	2f2f2f2f 	svccs	0x002f2f2f
     6e0:	302f2f30 	eorcc	r2, pc, r0, lsr pc	; <UNPREDICTABLE>
     6e4:	2f2f2f30 	svccs	0x002f2f30
     6e8:	2f2f342f 	svccs	0x002f342f
     6ec:	2f2f2f2f 	svccs	0x002f2f2f
     6f0:	2f332f2f 	svccs	0x00332f2f
     6f4:	2f2f2f2f 	svccs	0x002f2f2f
     6f8:	2f332f2f 	svccs	0x00332f2f
     6fc:	2f2f2f2f 	svccs	0x002f2f2f
     700:	2f2f332f 	svccs	0x002f332f
     704:	2f2f2f2f 	svccs	0x002f2f2f
     708:	2f2f2f34 	svccs	0x002f2f34
     70c:	332f2f2f 	teqcc	pc, #188	; 0xbc
     710:	2f2f2f2f 	svccs	0x002f2f2f
     714:	332f2f2f 	teqcc	pc, #188	; 0xbc
     718:	2f2f2f2f 	svccs	0x002f2f2f
     71c:	0a032f2f 	beq	cc3e0 <__bss_end+0xc9b20>
     720:	2f2f2f2e 	svccs	0x002f2f2e
     724:	2f342f2f 	svccs	0x00342f2f
     728:	2f2f2f2f 	svccs	0x002f2f2f
     72c:	2f2f332f 	svccs	0x002f332f
     730:	2f2f2f2f 	svccs	0x002f2f2f
     734:	2f2e0903 	svccs	0x002e0903
     738:	2f303030 	svccs	0x00303030
     73c:	332f2f2f 	teqcc	pc, #188	; 0xbc
     740:	2f2f2f30 	svccs	0x002f2f30
     744:	2f2f2f2f 	svccs	0x002f2f2f
     748:	2f2f2f31 	svccs	0x002f2f31
     74c:	2f2f2f2f 	svccs	0x002f2f2f
     750:	2f2f2f2f 	svccs	0x002f2f2f
     754:	2f2f2f2f 	svccs	0x002f2f2f
     758:	2f2f2f2f 	svccs	0x002f2f2f
     75c:	2f2f2f2f 	svccs	0x002f2f2f
     760:	2f2f2f2f 	svccs	0x002f2f2f
     764:	2f2f2f2f 	svccs	0x002f2f2f
     768:	2f2f2f2f 	svccs	0x002f2f2f
     76c:	2f2f2f2f 	svccs	0x002f2f2f
     770:	2f2f2f30 	svccs	0x002f2f30
     774:	2f2f2f2f 	svccs	0x002f2f2f
     778:	2f2f2f2f 	svccs	0x002f2f2f
     77c:	2f312f2f 	svccs	0x00312f2f
     780:	0a032f30 	beq	cc448 <__bss_end+0xc9b88>
     784:	2f2f2f2e 	svccs	0x002f2f2e
     788:	2f2f3050 	svccs	0x002f3050
     78c:	2f2f3430 	svccs	0x002f3430
     790:	2f30f82f 	svccs	0x0030f82f
     794:	0d03302f 	stceq	0, cr3, [r3, #-188]	; 0xffffff44
     798:	302f2f2e 	eorcc	r2, pc, lr, lsr #30
     79c:	2f820c03 	svccs	0x00820c03
     7a0:	2f2f2f2f 	svccs	0x002f2f2f
     7a4:	6d2f502f 	stcvs	0, cr5, [pc, #-188]!	; 6f0 <__turn_mmu_on+0x10>
     7a8:	30302f2f 	eorscc	r2, r0, pc, lsr #30
     7ac:	2f302f2f 	svccs	0x00302f2f
     7b0:	7cac0330 	stcvc	3, cr0, [ip], #192	; 0xc0
     7b4:	3103352e 	tstcc	r3, lr, lsr #10
     7b8:	e803312e 	stmda	r3, {r1, r2, r3, r5, r8, ip, sp}
     7bc:	30302e01 	eorscc	r2, r0, r1, lsl #28
     7c0:	30303032 	eorscc	r3, r0, r2, lsr r0
     7c4:	30303030 	eorscc	r3, r0, r0, lsr r0
     7c8:	30303030 	eorscc	r3, r0, r0, lsr r0
     7cc:	30303030 	eorscc	r3, r0, r0, lsr r0
     7d0:	30303030 	eorscc	r3, r0, r0, lsr r0
     7d4:	30303031 	eorscc	r3, r0, r1, lsr r0
     7d8:	02303030 	eorseq	r3, r0, #48	; 0x30
     7dc:	01010002 	tsteq	r1, r2
     7e0:	00000121 	andeq	r0, r0, r1, lsr #2
     7e4:	00810002 	addeq	r0, r1, r2
     7e8:	01020000 	mrseq	r0, (UNDEF: 2)
     7ec:	000d0efb 	strdeq	r0, [sp], -fp
     7f0:	01010101 	tsteq	r1, r1, lsl #2
     7f4:	01000000 	mrseq	r0, (UNDEF: 0)
     7f8:	61010000 	mrsvs	r0, (UNDEF: 1)
     7fc:	2f686372 	svccs	0x00686372
     800:	2f6d7261 	svccs	0x006d7261
     804:	6863616d 	stmdavs	r3!, {r0, r2, r3, r5, r6, r8, sp, lr}^
     808:	6e75732d 	cdpvs	3, 7, cr7, cr5, cr13, {1}
     80c:	702f6978 	eorvc	r6, pc, r8, ror r9	; <UNPREDICTABLE>
     810:	74732f6d 	ldrbtvc	r2, [r3], #-3949	; 0xf6d
     814:	62646e61 	rsbvs	r6, r4, #1552	; 0x610
     818:	2e2e2f79 	mcrcs	15, 1, r2, cr14, cr9, {3}
     81c:	63726100 	cmnvs	r2, #0
     820:	72612f68 	rsbvc	r2, r1, #416	; 0x1a0
     824:	616d2f6d 	cmnvs	sp, sp, ror #30
     828:	732d6863 	teqvc	sp, #6488064	; 0x630000
     82c:	69786e75 	ldmdbvs	r8!, {r0, r2, r4, r5, r6, r9, sl, fp, sp, lr}^
     830:	2f6d702f 	svccs	0x006d702f
     834:	6e617473 	mcrvs	4, 3, r7, cr1, cr3, {3}
     838:	2f796264 	svccs	0x00796264
     83c:	2e2f2e2e 	cdpcs	14, 2, cr2, cr15, cr14, {1}
     840:	656d0000 	strbvs	r0, [sp, #-0]!
     844:	70635f6d 	rsbvc	r5, r3, sp, ror #30
     848:	00632e75 	rsbeq	r2, r3, r5, ror lr
     84c:	6d000001 	stcvs	0, cr0, [r0, #-4]
     850:	635f6d65 	cmpvs	pc, #6464	; 0x1940
     854:	682e7570 	stmdavs	lr!, {r4, r5, r6, r8, sl, ip, sp, lr}
     858:	00000200 	andeq	r0, r0, r0, lsl #4
     85c:	745f6d70 	ldrbvc	r6, [pc], #-3440	; 864 <finished+0x4>
     860:	73657079 	cmnvc	r5, #121	; 0x79
     864:	0100682e 	tsteq	r0, lr, lsr #16
     868:	00000000 	andeq	r0, r0, r0
     86c:	0c400205 	sfmeq	f0, 2, [r0], {5}
     870:	89030000 	stmdbhi	r3, {}	; <UNPREDICTABLE>
     874:	03160101 	tsteq	r6, #1073741824	; 0x40000000
     878:	504b4a10 	subpl	r4, fp, r0, lsl sl
     87c:	4e4e4b4b 	vmlsmi.f64	d20, d14, d11
     880:	4e4b4b4b 	vmlsmi.f64	d20, d11, d11
     884:	4b4e4e4b 	blmi	13941b8 <__bss_end+0x13918f8>
     888:	0b034b4b 	bleq	d35bc <__bss_end+0xd0cfc>
     88c:	4b4b4b4a 	blmi	12d35bc <__bss_end+0x12d0cfc>
     890:	034b4b4b 	movteq	r4, #47947	; 0xbb4b
     894:	034b4a14 	movteq	r4, #47636	; 0xba14
     898:	524b4a16 	subpl	r4, fp, #90112	; 0x16000
     89c:	514b4b4b 	cmppl	fp, fp, asr #22
     8a0:	0e031434 	cfmvdhreq	mvd3, r1
     8a4:	2f4b4e4a 	svccs	0x004b4e4a
     8a8:	2f2f4b2f 	svccs	0x002f4b2f
     8ac:	4c322f4b 	ldcmi	15, cr2, [r2], #-300	; 0xfffffed4
     8b0:	4b4b4b4d 	blmi	12d35ec <__bss_end+0x12d0d2c>
     8b4:	524b4b4b 	subpl	r4, fp, #76800	; 0x12c00
     8b8:	4a16034b 	bmi	5815ec <__bss_end+0x57ed2c>
     8bc:	4b4b504b 	blmi	12d49f0 <__bss_end+0x12d2130>
     8c0:	2f2f514b 	svccs	0x002f514b
     8c4:	2f681433 	svccs	0x00681433
     8c8:	03153431 	tsteq	r5, #822083584	; 0x31000000
     8cc:	4b674a0b 	blmi	19d3100 <__bss_end+0x19d0840>
     8d0:	322f2f4b 	eorcc	r2, pc, #300	; 0x12c
     8d4:	30302f30 	eorscc	r2, r0, r0, lsr pc
     8d8:	302f2f2f 	eorcc	r2, pc, pc, lsr #30
     8dc:	2f31302f 	svccs	0x0031302f
     8e0:	2e0d032f 	cdpcs	3, 0, cr0, cr13, cr15, {1}
     8e4:	66120367 	ldrvs	r0, [r2], -r7, ror #6
     8e8:	2f2f344b 	svccs	0x002f344b
     8ec:	312f302f 	teqcc	pc, pc, lsr #32
     8f0:	114b1332 	cmpne	fp, r2, lsr r3
     8f4:	114b1333 	cmpne	fp, r3, lsr r3
     8f8:	31841332 	orrcc	r1, r4, r2, lsr r3
     8fc:	302f3015 	eorcc	r3, pc, r5, lsl r0	; <UNPREDICTABLE>
     900:	01000202 	tsteq	r0, r2, lsl #4
     904:	0001a901 	andeq	sl, r1, r1, lsl #18
     908:	6b000200 	blvs	1110 <serial_gets_nommu+0x4>
     90c:	02000000 	andeq	r0, r0, #0
     910:	0d0efb01 	vstreq	d15, [lr, #-4]
     914:	01010100 	mrseq	r0, (UNDEF: 17)
     918:	00000001 	andeq	r0, r0, r1
     91c:	01000001 	tsteq	r0, r1
     920:	68637261 	stmdavs	r3!, {r0, r5, r6, r9, ip, sp, lr}^
     924:	6d72612f 	ldfvse	f6, [r2, #-188]!	; 0xffffff44
     928:	63616d2f 	cmnvs	r1, #3008	; 0xbc0
     92c:	75732d68 	ldrbvc	r2, [r3, #-3432]!	; 0xd68
     930:	2f69786e 	svccs	0x0069786e
     934:	732f6d70 	teqvc	pc, #7168	; 0x1c00
     938:	646e6174 	strbtvs	r6, [lr], #-372	; 0x174
     93c:	2e2f7962 	cdpcs	9, 2, cr7, cr15, cr2, {3}
     940:	6d00002e 	stcvs	0, cr0, [r0, #-184]	; 0xffffff48
     944:	735f6d65 	cmpvc	pc, #6464	; 0x1940
     948:	61697265 	cmnvs	r9, r5, ror #4
     94c:	00632e6c 	rsbeq	r2, r3, ip, ror #28
     950:	70000001 	andvc	r0, r0, r1
     954:	79745f6d 	ldmdbvc	r4!, {r0, r2, r3, r5, r6, r8, r9, sl, fp, ip, lr}^
     958:	2e736570 	mrccs	5, 3, r6, cr3, cr0, {3}
     95c:	00010068 	andeq	r0, r1, r8, rrx
     960:	6d656d00 	stclvs	13, cr6, [r5, #-0]
     964:	6d63635f 	stclvs	3, cr6, [r3, #-380]!	; 0xfffffe84
     968:	75732d75 	ldrbvc	r2, [r3, #-3445]!	; 0xd75
     96c:	7769386e 	strbvc	r3, [r9, -lr, ror #16]!
     970:	2e317035 	mrccs	0, 1, r7, cr1, cr5, {1}
     974:	00010068 	andeq	r0, r1, r8, rrx
     978:	05000000 	streq	r0, [r0, #-0]
     97c:	000f1c02 	andeq	r1, pc, r2, lsl #24
     980:	011f0300 	tsteq	pc, r0, lsl #6
     984:	034e362e 	movteq	r3, #58926	; 0xe62e
     988:	30ddba0f 	sbcscc	fp, sp, pc, lsl #20
     98c:	03821603 	orreq	r1, r2, #3145728	; 0x300000
     990:	09032e61 	stmdbeq	r3, {r0, r5, r6, r9, sl, fp, sp}
     994:	034c302e 	movteq	r3, #49198	; 0xc02e
     998:	67684a12 			; <UNDEFINED> instruction: 0x67684a12
     99c:	03364d2f 	teqeq	r6, #3008	; 0xbc0
     9a0:	6c4c2e78 	mcrrvs	14, 7, r2, ip, cr8
     9a4:	66019603 	strvs	r9, [r1], -r3, lsl #12
     9a8:	032e7703 	teqeq	lr, #786432	; 0xc0000
     9ac:	71032e0f 	tstvc	r3, pc, lsl #28
     9b0:	0d03a02e 	stceq	0, cr10, [r3, #-184]	; 0xffffff48
     9b4:	2d673182 	stfcse	f3, [r7, #-520]!	; 0xfffffdf8
     9b8:	0e034b2f 	vmlaeq.f64	d4, d3, d31
     9bc:	4a73034a 	bmi	1cc16ec <__bss_end+0x1cbee2c>
     9c0:	2c2f2c31 	stccs	12, cr2, [pc], #-196	; 904 <disable_l2cache+0x10>
     9c4:	2d302f2f 	ldccs	15, cr2, [r0, #-188]!	; 0xffffff44
     9c8:	4e4c312f 	dvfmiep	f3, f4, #10.0
     9cc:	2e140330 	mrccs	3, 0, r0, cr4, cr0, {1}
     9d0:	4b312b15 	blmi	c4b62c <__bss_end+0xc48d6c>
     9d4:	0402002d 	streq	r0, [r2], #-45	; 0x2d
     9d8:	69033201 	stmdbvs	r3, {r0, r9, ip, sp}
     9dc:	2e0f0366 	cdpcs	3, 0, cr0, cr15, cr6, {3}
     9e0:	2f2e7103 	svccs	0x002e7103
     9e4:	502e1803 	eorpl	r1, lr, r3, lsl #16
     9e8:	9f2e6103 	svcls	0x002e6103
     9ec:	032e1603 	teqeq	lr, #3145728	; 0x300000
     9f0:	032f660b 	teqeq	pc, #11534336	; 0xb00000
     9f4:	039f4a5d 	orrseq	r4, pc, #380928	; 0x5d000
     9f8:	2a166625 	bcs	59a294 <__bss_end+0x5979d4>
     9fc:	032d4b32 	teqeq	sp, #51200	; 0xc800
     a00:	02002e0b 	andeq	r2, r0, #176	; 0xb0
     a04:	79030104 	stmdbvc	r3, {r2, r8}
     a08:	665b034a 	ldrbvs	r0, [fp], -sl, asr #6
     a0c:	032e2503 	teqeq	lr, #12582912	; 0xc00000
     a10:	25032e5b 	strcs	r2, [r3, #-3675]	; 0xe5b
     a14:	4a5b032e 	bmi	16c16d4 <__bss_end+0x16bee14>
     a18:	4a24039f 	bmi	90189c <__bss_end+0x8fefdc>
     a1c:	034a5e03 	movteq	r5, #44547	; 0xae03
     a20:	2a4c4a24 	bcs	13132b8 <__bss_end+0x13109f8>
     a24:	039e0a03 	orrseq	r0, lr, #12288	; 0x3000
     a28:	032e7fa0 	teqeq	lr, #640	; 0x280
     a2c:	034a00e7 	movteq	r0, #41191	; 0xa0e7
     a30:	842e7f99 	strthi	r7, [lr], #-3993	; 0xf99
     a34:	8200e503 	andhi	lr, r0, #12582912	; 0xc00000
     a38:	2f2d6731 	svccs	0x002d6731
     a3c:	4a0d034b 	bmi	341770 <__bss_end+0x33eeb0>
     a40:	314a7403 	cmpcc	sl, r3, lsl #8
     a44:	2f2c2f2c 	svccs	0x002c2f2c
     a48:	2f2d302f 	svccs	0x002d302f
     a4c:	304d4c31 	subcc	r4, sp, r1, lsr ip
     a50:	4cbc1431 	cfldrsmi	mvf1, [ip], #196	; 0xc4
     a54:	21034c4d 	tstcs	r3, sp, asr #24
     a58:	312b152e 	teqcc	fp, lr, lsr #10
     a5c:	02002d4b 	andeq	r2, r0, #4800	; 0x12c0
     a60:	03320104 	teqeq	r2, #1
     a64:	1b03665d 	blne	da3e0 <__bss_end+0xd7b20>
     a68:	2e65032e 	cdpcs	3, 6, cr0, cr5, cr14, {1}
     a6c:	2e24032f 	cdpcs	3, 2, cr0, cr4, cr15, {1}
     a70:	2e550350 	mrccs	3, 2, r0, cr5, cr0, {2}
     a74:	2e22039f 	mcrcs	3, 1, r0, cr2, cr15, {4}
     a78:	2f660b03 	svccs	0x00660b03
     a7c:	9f4a5103 	svcls	0x004a5103
     a80:	16663203 	strbtne	r3, [r6], -r3, lsl #4
     a84:	2d4b322a 	sfmcs	f3, 2, [fp, #-168]	; 0xffffff58
     a88:	002e0b03 	eoreq	r0, lr, r3, lsl #22
     a8c:	03010402 	movweq	r0, #5122	; 0x1402
     a90:	4e034a79 	mcrmi	10, 0, r4, cr3, cr9, {3}
     a94:	2e320366 	cdpcs	3, 3, cr0, cr2, cr6, {3}
     a98:	032e4e03 	teqeq	lr, #48	; 0x30
     a9c:	4e032e32 	mcrmi	14, 0, r2, cr3, cr2, {1}
     aa0:	31039f4a 	tstcc	r3, sl, asr #30
     aa4:	4a51034a 	bmi	14417d4 <__bss_end+0x143ef14>
     aa8:	4c4a3103 	stfmie	f3, [sl], {3}
     aac:	000a022a 	andeq	r0, sl, sl, lsr #4
     ab0:	03260101 	teqeq	r6, #1073741824	; 0x40000000
     ab4:	00020000 	andeq	r0, r2, r0
     ab8:	000000f2 	strdeq	r0, [r0], -r2
     abc:	0efb0102 	cdpeq	1, 15, cr0, cr11, cr2, {0}
     ac0:	0101000d 	tsteq	r1, sp
     ac4:	00000101 	andeq	r0, r0, r1, lsl #2
     ac8:	00000100 	andeq	r0, r0, r0, lsl #2
     acc:	63726101 	cmnvs	r2, #1073741824	; 0x40000000
     ad0:	72612f68 	rsbvc	r2, r1, #416	; 0x1a0
     ad4:	616d2f6d 	cmnvs	sp, sp, ror #30
     ad8:	732d6863 	teqvc	sp, #6488064	; 0x630000
     adc:	69786e75 	ldmdbvs	r8!, {r0, r2, r4, r5, r6, r9, sl, fp, sp, lr}^
     ae0:	2f6d702f 	svccs	0x006d702f
     ae4:	6e617473 	mcrvs	4, 3, r7, cr1, cr3, {3}
     ae8:	2f796264 	svccs	0x00796264
     aec:	2f002e2e 	svccs	0x00002e2e
     af0:	746f6f72 	strbtvc	r6, [pc], #-3954	; af8 <enable_mmu+0x4>
     af4:	726f772f 	rsbvc	r7, pc, #12320768	; 0xbc0000
     af8:	69732f6b 	ldmdbvs	r3!, {r0, r1, r3, r5, r6, r8, r9, sl, fp, sp}^
     afc:	6e696c6e 	cdpvs	12, 6, cr6, cr9, cr14, {3}
     b00:	33612f78 	cmncc	r1, #480	; 0x1e0
     b04:	696c2f33 	stmdbvs	ip!, {r0, r1, r4, r5, r8, r9, sl, fp, sp}^
     b08:	65656863 	strbvs	r6, [r5, #-2147]!	; 0x863
     b0c:	74756f2f 	ldrbtvc	r6, [r5], #-3887	; 0xf2f
     b10:	6e75732f 	cdpvs	3, 7, cr7, cr5, cr15, {1}
     b14:	35776938 	ldrbcc	r6, [r7, #-2360]!	; 0x938
     b18:	6c2f3170 	stfvss	f3, [pc], #-448	; 960 <invalidate_branch_predictor+0x14>
     b1c:	78756e69 	ldmdavc	r5!, {r0, r3, r5, r6, r9, sl, fp, sp, lr}^
     b20:	6d6f632f 	stclvs	3, cr6, [pc, #-188]!	; a6c <mem_preload_tlb+0xac>
     b24:	2f6e6f6d 	svccs	0x006e6f6d
     b28:	6c697562 	cfstr64vs	mvdx7, [r9], #-392	; 0xfffffe78
     b2c:	6f6f7264 	svcvs	0x006f7264
     b30:	78652f74 	stmdavc	r5!, {r2, r4, r5, r6, r8, r9, sl, fp, sp}^
     b34:	6e726574 	mrcvs	5, 3, r6, cr2, cr4, {3}
     b38:	742d6c61 	strtvc	r6, [sp], #-3169	; 0xc61
     b3c:	636c6f6f 	cmnvs	ip, #444	; 0x1bc
     b40:	6e696168 	powvsez	f6, f1, #0.0
     b44:	6e69622f 	cdpvs	2, 6, cr6, cr9, cr15, {1}
     b48:	2f2e2e2f 	svccs	0x002e2e2f
     b4c:	2f62696c 	svccs	0x0062696c
     b50:	2f636367 	svccs	0x00636367
     b54:	2d6d7261 	sfmcs	f7, 2, [sp, #-388]!	; 0xfffffe7c
     b58:	756e696c 	strbvc	r6, [lr, #-2412]!	; 0x96c
     b5c:	6e672d78 	mcrvs	13, 3, r2, cr7, cr8, {3}
     b60:	62616575 	rsbvs	r6, r1, #490733568	; 0x1d400000
     b64:	2e342f69 	cdpcs	15, 3, cr2, cr4, cr9, {3}
     b68:	2f332e36 	svccs	0x00332e36
     b6c:	6c636e69 	stclvs	14, cr6, [r3], #-420	; 0xfffffe5c
     b70:	00656475 	rsbeq	r6, r5, r5, ror r4
     b74:	6d656d00 	stclvs	13, cr6, [r5, #-0]
     b78:	6972705f 	ldmdbvs	r2!, {r0, r1, r2, r3, r4, r6, ip, sp, lr}^
     b7c:	2e6b746e 	cdpcs	4, 6, cr7, cr11, cr14, {3}
     b80:	00010063 	andeq	r0, r1, r3, rrx
     b84:	5f6d7000 	svcpl	0x006d7000
     b88:	65707974 	ldrbvs	r7, [r0, #-2420]!	; 0x974
     b8c:	00682e73 	rsbeq	r2, r8, r3, ror lr
     b90:	73000001 	movwvc	r0, #1
     b94:	72616474 	rsbvc	r6, r1, #1946157056	; 0x74000000
     b98:	00682e67 	rsbeq	r2, r8, r7, ror #28
     b9c:	3c000002 	stccc	0, cr0, [r0], {2}
     ba0:	6c697562 	cfstr64vs	mvdx7, [r9], #-392	; 0xfffffe78
     ba4:	6e692d74 	mcrvs	13, 3, r2, cr9, cr4, {3}
     ba8:	0000003e 	andeq	r0, r0, lr, lsr r0
     bac:	05000000 	streq	r0, [r0, #-0]
     bb0:	00138802 	andseq	r8, r3, r2, lsl #16
     bb4:	01ce0300 	biceq	r0, lr, r0, lsl #6
     bb8:	2a2c3401 	bcs	b0dbc4 <__bss_end+0xb0b304>
     bbc:	2fa32c88 	svccs	0x00a32c88
     bc0:	332e7a03 	teqcc	lr, #12288	; 0x3000
     bc4:	0200522b 	andeq	r5, r0, #-1342177278	; 0xb0000002
     bc8:	00310204 	eorseq	r0, r1, r4, lsl #4
     bcc:	83020402 	movwhi	r0, #9218	; 0x2402
     bd0:	02040200 	andeq	r0, r4, #0
     bd4:	0402002d 	streq	r0, [r2], #-45	; 0x2d
     bd8:	02004b02 	andeq	r4, r0, #2048	; 0x800
     bdc:	002d0204 	eoreq	r0, sp, r4, lsl #4
     be0:	2f020402 	svccs	0x00020402
     be4:	02040200 	andeq	r0, r4, #0
     be8:	6671032a 	ldrbtvs	r0, [r1], -sl, lsr #6
     bec:	00661703 	rsbeq	r1, r6, r3, lsl #14
     bf0:	06020402 	streq	r0, [r2], -r2, lsl #8
     bf4:	0402002e 	streq	r0, [r2], #-46	; 0x2e
     bf8:	00300602 	eorseq	r0, r0, r2, lsl #12
     bfc:	2c020402 	cfstrscs	mvf0, [r2], {2}
     c00:	fe036933 	mcr2	9, 0, r6, cr3, cr3, {1}
     c04:	2d328200 	lfmcs	f0, 1, [r2, #-0]
     c08:	038a852b 	orreq	r8, sl, #180355072	; 0xac00000
     c0c:	312f2e78 	teqcc	pc, r8, ror lr	; <UNPREDICTABLE>
     c10:	2e7ded03 	cdpcs	13, 7, cr14, cr13, cr3, {0}
     c14:	2e029303 	cdpcs	3, 0, cr9, cr2, cr3, {0}
     c18:	2e7ded03 	cdpcs	13, 7, cr14, cr13, cr3, {0}
     c1c:	02890330 	addeq	r0, r9, #-1073741824	; 0xc0000000
     c20:	7df70382 	ldclvc	3, cr0, [r7, #520]!	; 0x208
     c24:	0289032e 	addeq	r0, r9, #-1207959552	; 0xb8000000
     c28:	7df7032e 	ldclvc	3, cr0, [r7, #184]!	; 0xb8
     c2c:	bc46522e 	sfmlt	f5, 2, [r6], {46}	; 0x2e
     c30:	028e034c 	addeq	r0, lr, #805306369	; 0x30000001
     c34:	7ea8032e 	cdpvc	3, 10, cr0, cr8, cr14, {1}
     c38:	032c3682 	teqeq	ip, #136314880	; 0x8200000
     c3c:	876c2e7a 			; <UNDEFINED> instruction: 0x876c2e7a
     c40:	2e7a032f 	cdpcs	3, 7, cr0, cr10, cr15, {1}
     c44:	12032b33 	andne	r2, r3, #52224	; 0xcc00
     c48:	2e7a032e 	cdpcs	3, 7, cr0, cr10, cr14, {1}
     c4c:	2e70032d 	cdpcs	3, 7, cr0, cr0, cr13, {1}
     c50:	4d2e1403 	cfstrsmi	mvf1, [lr, #-12]!
     c54:	31633147 	cmncc	r3, r7, asr #2
     c58:	03633163 	cmneq	r3, #-1073741800	; 0xc0000018
     c5c:	77032e09 	strvc	r2, [r3, -r9, lsl #28]
     c60:	2e0c032e 	cdpcs	3, 0, cr0, cr12, cr14, {1}
     c64:	03665d03 	cmneq	r6, #192	; 0xc0
     c68:	2c4c6625 	mcrrcs	6, 2, r6, ip, cr5
     c6c:	034a5b03 	movteq	r5, #43779	; 0xab03
     c70:	03692e2a 	cmneq	r9, #672	; 0x2a0
     c74:	0c039e39 	stceq	14, cr9, [r3], {57}	; 0x39
     c78:	2e740366 	cdpcs	3, 7, cr0, cr4, cr6, {3}
     c7c:	2d2e0c03 	stccs	12, cr0, [lr, #-12]!
     c80:	03304830 	teqeq	r0, #3145728	; 0x300000
     c84:	032e00c1 	teqeq	lr, #193	; 0xc1
     c88:	55032e68 	strpl	r2, [r3, #-3688]	; 0xe68
     c8c:	cb034c2e 	blgt	d3d4c <__bss_end+0xd148c>
     c90:	b5032e00 	strlt	r2, [r3, #-3584]	; 0xe00
     c94:	034c2e7f 	movteq	r2, #52863	; 0xce7f
     c98:	032e00c6 	teqeq	lr, #198	; 0xc6
     c9c:	312e7fba 			; <UNDEFINED> instruction: 0x312e7fba
     ca0:	03292f69 	teqeq	r9, #420	; 0x1a4
     ca4:	342a2e09 	strtcc	r2, [sl], #-3593	; 0xe09
     ca8:	0200c103 	andeq	ip, r0, #-1073741824	; 0xc0000000
     cac:	2c300134 	ldfcss	f0, [r0], #-208	; 0xffffff30
     cb0:	54033130 	strpl	r3, [r3], #-304	; 0x130
     cb4:	7de6039e 	stclvc	3, cr0, [r6, #632]!	; 0x278
     cb8:	029b03d6 	addseq	r0, fp, #1476395011	; 0x58000003
     cbc:	7de50366 	stclvc	3, cr0, [r5, #408]!	; 0x198
     cc0:	029c032e 	addseq	r0, ip, #-1207959552	; 0xb8000000
     cc4:	7df50382 	ldclvc	3, cr0, [r5, #520]!	; 0x208
     cc8:	028d03d6 	addeq	r0, sp, #1476395011	; 0x58000003
     ccc:	0b032f82 	bleq	ccadc <__bss_end+0xca21c>
     cd0:	7fb9032e 	svcvc	0x00b9032e
     cd4:	00c7032e 	sbceq	r0, r7, lr, lsr #6
     cd8:	7fb9032e 	svcvc	0x00b9032e
     cdc:	7eae0366 	cdpvc	3, 10, cr0, cr14, cr6, {3}
     ce0:	826f032e 	rsbhi	r0, pc, #-1207959552	; 0xb8000000
     ce4:	f202ac03 			; <UNDEFINED> instruction: 0xf202ac03
     ce8:	2e63032f 	cdpcs	3, 6, cr0, cr3, cr15, {1}
     cec:	d67df003 	ldrbtle	pc, [sp], -r3	; <UNPREDICTABLE>
     cf0:	66029103 	strvs	r9, [r2], -r3, lsl #2
     cf4:	2e7def03 	cdpcs	15, 7, cr14, cr13, cr3, {0}
     cf8:	82029203 	andhi	r9, r2, #805306368	; 0x30000000
     cfc:	d67dff03 	ldrbtle	pc, [sp], -r3, lsl #30	; <UNPREDICTABLE>
     d00:	82028d03 	andhi	r8, r2, #192	; 0xc0
     d04:	0d039f50 	stceq	15, cr9, [r3, #-320]	; 0xfffffec0
     d08:	52032f2e 	andpl	r2, r3, #184	; 0xb8
     d0c:	7dfb0382 	ldclvc	3, cr0, [fp, #520]!	; 0x208
     d10:	028603ba 	addeq	r0, r6, #-402653182	; 0xe8000002
     d14:	7dfa0366 	ldclvc	3, cr0, [sl, #408]!	; 0x198
     d18:	0287032e 	addeq	r0, r7, #-1207959552	; 0xb8000000
     d1c:	7e8a0382 	cdpvc	3, 8, cr0, cr10, cr2, {4}
     d20:	028d03d6 	addeq	r0, sp, #1476395011	; 0x58000003
     d24:	663b0382 	ldrtvs	r0, [fp], -r2, lsl #7
     d28:	03660c03 	cmneq	r6, #768	; 0x300
     d2c:	0c032e74 	stceq	14, cr2, [r3], {116}	; 0x74
     d30:	48302d2e 	ldmdami	r0!, {r1, r2, r3, r5, r8, sl, fp, sp}
     d34:	00c10330 	sbceq	r0, r1, r0, lsr r3
     d38:	2e68032e 	cdpcs	3, 6, cr0, cr8, cr14, {1}
     d3c:	4c2e5503 	cfstr32mi	mvfx5, [lr], #-12
     d40:	2e00cb03 	vmlacs.f64	d12, d0, d3
     d44:	2e7fb503 	cdpcs	5, 7, cr11, cr15, cr3, {0}
     d48:	00c6034c 	sbceq	r0, r6, ip, asr #6
     d4c:	7fba032e 	svcvc	0x00ba032e
     d50:	2f69312e 	svccs	0x0069312e
     d54:	2e090329 	cdpcs	3, 0, cr0, cr9, cr9, {1}
     d58:	c103342a 	tstgt	r3, sl, lsr #8
     d5c:	01340200 	teqeq	r4, r0, lsl #4
     d60:	31302c30 	teqcc	r0, r0, lsr ip
     d64:	039e5403 	orrseq	r5, lr, #50331648	; 0x3000000
     d68:	03d67cf1 	bicseq	r7, r6, #61696	; 0xf100
     d6c:	03660390 	cmneq	r6, #1073741826	; 0x40000002
     d70:	032e7cf0 	teqeq	lr, #61440	; 0xf000
     d74:	03820391 	orreq	r0, r2, #1140850690	; 0x44000002
     d78:	03d67d80 	bicseq	r7, r6, #8192	; 0x2000
     d7c:	2f820382 	svccs	0x00820382
     d80:	032e0b03 	teqeq	lr, #3072	; 0xc00
     d84:	032e7fb9 	teqeq	lr, #740	; 0x2e4
     d88:	032e00c7 	teqeq	lr, #199	; 0xc7
     d8c:	03667fb9 	cmneq	r6, #740	; 0x2e4
     d90:	032e7db9 	teqeq	lr, #11840	; 0x2e40
     d94:	a103826f 	tstge	r3, pc, ror #4
     d98:	032ff203 	msreq	CPSR_fsxc, #805306368	; 0x30000000
     d9c:	fb032e63 	blx	cc732 <__bss_end+0xc9e72>
     da0:	8603d67c 			; <UNDEFINED> instruction: 0x8603d67c
     da4:	fa036603 	blx	da5b8 <__bss_end+0xd7cf8>
     da8:	87032e7c 	smlsdxhi	r3, ip, lr, r2
     dac:	8a038203 	bhi	e15c0 <__bss_end+0xded00>
     db0:	8203d67d 	andhi	sp, r3, #131072000	; 0x7d00000
     db4:	9f508203 	svcls	0x00508203
     db8:	2f2e0d03 	svccs	0x002e0d03
     dbc:	03825203 	orreq	r5, r2, #805306368	; 0x30000000
     dc0:	03ba7d86 			; <UNDEFINED> instruction: 0x03ba7d86
     dc4:	036602fb 	cmneq	r6, #-1342177265	; 0xb000000f
     dc8:	032e7d85 	teqeq	lr, #8512	; 0x2140
     dcc:	038202fc 	orreq	r0, r2, #-1073741809	; 0xc000000f
     dd0:	03d67d95 	bicseq	r7, r6, #9536	; 0x2540
     dd4:	02820382 	addeq	r0, r2, #134217730	; 0x8000002
     dd8:	01010006 	tsteq	r1, r6
     ddc:	000000a9 	andeq	r0, r0, r9, lsr #1
     de0:	00450002 	subeq	r0, r5, r2
     de4:	01020000 	mrseq	r0, (UNDEF: 2)
     de8:	000d0efb 	strdeq	r0, [sp], -fp
     dec:	01010101 	tsteq	r1, r1, lsl #2
     df0:	01000000 	mrseq	r0, (UNDEF: 0)
     df4:	61010000 	mrsvs	r0, (UNDEF: 1)
     df8:	2f686372 	svccs	0x00686372
     dfc:	2f6d7261 	svccs	0x006d7261
     e00:	6863616d 	stmdavs	r3!, {r0, r2, r3, r5, r6, r8, sp, lr}^
     e04:	6e75732d 	cdpvs	3, 7, cr7, cr5, cr13, {1}
     e08:	702f6978 	eorvc	r6, pc, r8, ror r9	; <UNPREDICTABLE>
     e0c:	74732f6d 	ldrbtvc	r2, [r3], #-3949	; 0xf6d
     e10:	62646e61 	rsbvs	r6, r4, #1552	; 0x610
     e14:	2e2e2f79 	mcrcs	15, 1, r2, cr14, cr9, {3}
     e18:	656d0000 	strbvs	r0, [sp, #-0]!
     e1c:	69645f6d 	stmdbvs	r4!, {r0, r2, r3, r5, r6, r8, r9, sl, fp, ip, lr}^
     e20:	62696c76 	rsbvs	r6, r9, #30208	; 0x7600
     e24:	0100532e 	tsteq	r0, lr, lsr #6
     e28:	00000000 	andeq	r0, r0, r0
     e2c:	1b740205 	blne	1d01648 <__bss_end+0x1cfed88>
     e30:	0e030000 	cdpeq	0, 0, cr0, cr3, cr0, {0}
     e34:	302f2f01 	eorcc	r2, pc, r1, lsl #30
     e38:	2f2f2f2f 	svccs	0x002f2f2f
     e3c:	2f342f30 	svccs	0x00342f30
     e40:	00d5032f 	sbcseq	r0, r5, pc, lsr #6
     e44:	2f2f2f2e 	svccs	0x002f2f2e
     e48:	2f2f2f33 	svccs	0x002f2f33
     e4c:	302f2f2f 	eorcc	r2, pc, pc, lsr #30
     e50:	2f142e02 	svccs	0x00142e02
     e54:	302f2f30 	eorcc	r2, pc, r0, lsr pc	; <UNPREDICTABLE>
     e58:	2f342f4c 	svccs	0x00342f4c
     e5c:	2f2f2f2f 	svccs	0x002f2f2f
     e60:	2f2f2f2f 	svccs	0x002f2f2f
     e64:	02302f2f 	eorseq	r2, r0, #188	; 0xbc
     e68:	2f2f142e 	svccs	0x002f142e
     e6c:	302f2f30 	eorcc	r2, pc, r0, lsr pc	; <UNPREDICTABLE>
     e70:	302f2f2f 	eorcc	r2, pc, pc, lsr #30
     e74:	2f2f2f4c 	svccs	0x002f2f4c
     e78:	2f2f2f33 	svccs	0x002f2f33
     e7c:	2f332f2f 	svccs	0x00332f2f
     e80:	2f2f2f2f 	svccs	0x002f2f2f
     e84:	01000202 	tsteq	r0, r2, lsl #4
     e88:	00008201 	andeq	r8, r0, r1, lsl #4
     e8c:	54000200 	strpl	r0, [r0], #-512	; 0x200
     e90:	02000000 	andeq	r0, r0, #0
     e94:	0d0efb01 	vstreq	d15, [lr, #-4]
     e98:	01010100 	mrseq	r0, (UNDEF: 17)
     e9c:	00000001 	andeq	r0, r0, r1
     ea0:	01000001 	tsteq	r0, r1
     ea4:	68637261 	stmdavs	r3!, {r0, r5, r6, r9, ip, sp, lr}^
     ea8:	6d72612f 	ldfvse	f6, [r2, #-188]!	; 0xffffff44
     eac:	63616d2f 	cmnvs	r1, #3008	; 0xbc0
     eb0:	75732d68 	ldrbvc	r2, [r3, #-3432]!	; 0xd68
     eb4:	2f69786e 	svccs	0x0069786e
     eb8:	732f6d70 	teqvc	pc, #7168	; 0x1c00
     ebc:	646e6174 	strbtvs	r6, [lr], #-372	; 0x174
     ec0:	2e2f7962 	cdpcs	9, 2, cr7, cr15, cr2, {3}
     ec4:	6d00002e 	stcvs	0, cr0, [r0, #-184]	; 0xffffff48
     ec8:	645f6d65 	ldrbvs	r6, [pc], #-3429	; ed0 <set_copro_default+0x98>
     ecc:	696c7669 	stmdbvs	ip!, {r0, r3, r5, r6, r9, sl, ip, sp, lr}^
     ed0:	632e6362 	teqvs	lr, #-2013265919	; 0x88000001
     ed4:	00000100 	andeq	r0, r0, r0, lsl #2
     ed8:	745f6d70 	ldrbvc	r6, [pc], #-3440	; ee0 <save_processor_state>
     edc:	73657079 	cmnvc	r5, #121	; 0x79
     ee0:	0100682e 	tsteq	r0, lr, lsr #16
     ee4:	00000000 	andeq	r0, r0, r0
     ee8:	1d500205 	lfmne	f0, 2, [r0, #-20]	; 0xffffffec
     eec:	13150000 	tstne	r5, #0
     ef0:	1732114b 	ldrne	r1, [r2, -fp, asr #2]!
     ef4:	02002b31 	andeq	r2, r0, #50176	; 0xc400
     ef8:	06340104 	ldrteq	r0, [r4], -r4, lsl #2
     efc:	2b31064a 	blcs	c4282c <__bss_end+0xc3ff6c>
     f00:	2b4a0b03 	blcs	1283b14 <__bss_end+0x1281254>
     f04:	342a3330 	strtcc	r3, [sl], #-816	; 0x330
     f08:	04024d30 	streq	r4, [r2], #-3376	; 0xd30
     f0c:	f4010100 	vst4.8	{d0,d2,d4,d6}, [r1], r0
     f10:	02000000 	andeq	r0, r0, #0
     f14:	00005d00 	andeq	r5, r0, r0, lsl #26
     f18:	fb010200 	blx	41722 <__bss_end+0x3ee62>
     f1c:	01000d0e 	tsteq	r0, lr, lsl #26
     f20:	00010101 	andeq	r0, r1, r1, lsl #2
     f24:	00010000 	andeq	r0, r1, r0
     f28:	72610100 	rsbvc	r0, r1, #0
     f2c:	612f6863 	teqvs	pc, r3, ror #16
     f30:	6d2f6d72 	stcvs	13, cr6, [pc, #-456]!	; d70 <__restore_processor_state+0x24>
     f34:	2d686361 	stclcs	3, cr6, [r8, #-388]!	; 0xfffffe7c
     f38:	786e7573 	stmdavc	lr!, {r0, r1, r4, r5, r6, r8, sl, ip, sp, lr}^
     f3c:	6d702f69 	ldclvs	15, cr2, [r0, #-420]!	; 0xfffffe5c
     f40:	6174732f 	cmnvs	r4, pc, lsr #6
     f44:	7962646e 	stmdbvc	r2!, {r1, r2, r3, r5, r6, sl, sp, lr}^
     f48:	002e2e2f 	eoreq	r2, lr, pc, lsr #28
     f4c:	6d656d00 	stclvs	13, cr6, [r5, #-0]
     f50:	746e695f 	strbtvc	r6, [lr], #-2399	; 0x95f
     f54:	0100632e 	tsteq	r0, lr, lsr #6
     f58:	6d700000 	ldclvs	0, cr0, [r0, #-0]
     f5c:	7079745f 	rsbsvc	r7, r9, pc, asr r4
     f60:	682e7365 	stmdavs	lr!, {r0, r2, r5, r6, r8, r9, ip, sp, lr}
     f64:	00000100 	andeq	r0, r0, r0, lsl #2
     f68:	5f6d656d 	svcpl	0x006d656d
     f6c:	2e746e69 	cdpcs	14, 7, cr6, cr4, cr9, {3}
     f70:	00010068 	andeq	r0, r1, r8, rrx
     f74:	05000000 	streq	r0, [r0, #-0]
     f78:	001da802 	andseq	sl, sp, r2, lsl #16
     f7c:	01220300 	teqeq	r2, r0, lsl #6
     f80:	0a032f14 	beq	ccbd8 <__bss_end+0xca318>
     f84:	2e73032e 	cdpcs	3, 7, cr0, cr3, cr14, {1}
     f88:	032f2d31 	teqeq	pc, #3136	; 0xc40
     f8c:	032d2e0b 	teqeq	sp, #176	; 0xb0
     f90:	002f2e75 	eoreq	r2, pc, r5, ror lr	; <UNPREDICTABLE>
     f94:	03020402 	movweq	r0, #9218	; 0x2402
     f98:	02004a0b 	andeq	r4, r0, #45056	; 0xb000
     f9c:	062d0204 	strteq	r0, [sp], -r4, lsl #4
     fa0:	0b03064a 	bleq	c28d0 <__bss_end+0xc0010>
     fa4:	2e75032e 	cdpcs	3, 7, cr0, cr5, cr14, {1}
     fa8:	2d2e0c03 	stccs	12, cr0, [lr, #-12]!
     fac:	02040200 	andeq	r0, r4, #0
     fb0:	0402002f 	streq	r0, [r2], #-47	; 0x2f
     fb4:	304e2d02 	subcc	r2, lr, r2, lsl #26
     fb8:	2f4c4c2c 	svccs	0x004c4c2c
     fbc:	820f034f 	andhi	r0, pc, #1006632961	; 0x3c000001
     fc0:	2b332c14 	blcs	ccc018 <__bss_end+0xcc9758>
     fc4:	02040200 	andeq	r0, r4, #0
     fc8:	040200a2 	streq	r0, [r2], #-162	; 0xa2
     fcc:	02004b02 	andeq	r4, r0, #2048	; 0x800
     fd0:	6c800204 	sfmvs	f0, 4, [r0], {4}
     fd4:	13820f03 	orrne	r0, r2, #12
     fd8:	2a32322d 	bcs	c8d894 <__bss_end+0xc8afd4>
     fdc:	322d2b32 	eorcc	r2, sp, #51200	; 0xc800
     fe0:	312b322a 	teqcc	fp, sl, lsr #4
     fe4:	302e7a03 	eorcc	r7, lr, r3, lsl #20
     fe8:	032e0b03 	teqeq	lr, #3072	; 0xc00
     fec:	6d312e76 	ldcvs	14, cr2, [r1, #-472]!	; 0xfffffe28
     ff0:	144a0f03 	strbne	r0, [sl], #-3843	; 0xf03
     ff4:	312b4d31 	teqcc	fp, r1, lsr sp
     ff8:	2c302f2b 	ldccs	15, cr2, [r0], #-172	; 0xffffff54
     ffc:	2c332930 	ldccs	9, cr2, [r3], #-192	; 0xffffff40
    1000:	08024b35 	stmdaeq	r2, {r0, r2, r4, r5, r8, r9, fp, lr}
    1004:	c5010100 	strgt	r0, [r1, #-256]	; 0x100
    1008:	02000000 	andeq	r0, r0, #0
    100c:	00005d00 	andeq	r5, r0, r0, lsl #26
    1010:	fb010200 	blx	4181a <__bss_end+0x3ef5a>
    1014:	01000d0e 	tsteq	r0, lr, lsl #26
    1018:	00010101 	andeq	r0, r1, r1, lsl #2
    101c:	00010000 	andeq	r0, r1, r0
    1020:	72610100 	rsbvc	r0, r1, #0
    1024:	612f6863 	teqvs	pc, r3, ror #16
    1028:	6d2f6d72 	stcvs	13, cr6, [pc, #-456]!	; e68 <set_copro_default+0x30>
    102c:	2d686361 	stclcs	3, cr6, [r8, #-388]!	; 0xfffffe7c
    1030:	786e7573 	stmdavc	lr!, {r0, r1, r4, r5, r6, r8, sl, ip, sp, lr}^
    1034:	6d702f69 	ldclvs	15, cr2, [r0, #-420]!	; 0xfffffe5c
    1038:	6174732f 	cmnvs	r4, pc, lsr #6
    103c:	7962646e 	stmdbvc	r2!, {r1, r2, r3, r5, r6, sl, sp, lr}^
    1040:	002e2e2f 	eoreq	r2, lr, pc, lsr #28
    1044:	6d656d00 	stclvs	13, cr6, [r5, #-0]
    1048:	726d745f 	rsbvc	r7, sp, #1593835520	; 0x5f000000
    104c:	0100632e 	tsteq	r0, lr, lsr #6
    1050:	6d700000 	ldclvs	0, cr0, [r0, #-0]
    1054:	7079745f 	rsbsvc	r7, r9, pc, asr r4
    1058:	682e7365 	stmdavs	lr!, {r0, r2, r5, r6, r8, r9, ip, sp, lr}
    105c:	00000100 	andeq	r0, r0, r0, lsl #2
    1060:	5f6d656d 	svcpl	0x006d656d
    1064:	2e726d74 	mrccs	13, 3, r6, cr2, cr4, {3}
    1068:	00010068 	andeq	r0, r1, r8, rrx
    106c:	05000000 	streq	r0, [r0, #-0]
    1070:	001f3402 	andseq	r3, pc, r2, lsl #8
    1074:	01110300 	tsteq	r1, r0, lsl #6
    1078:	2e7a0318 	mrccs	3, 3, r0, cr10, cr8, {0}
    107c:	2b312b34 	blcs	c4bd54 <__bss_end+0xc49494>
    1080:	03820c03 	orreq	r0, r2, #768	; 0x300
    1084:	4b2f2e77 	blmi	bcca68 <__bss_end+0xbca1a8>
    1088:	4b4b4b4b 	blmi	12d3dbc <__bss_end+0x12d14fc>
    108c:	2e0f034d 	cdpcs	3, 0, cr0, cr15, cr13, {2}
    1090:	03306414 	teqeq	r0, #335544320	; 0x14000000
    1094:	77032e09 	strvc	r2, [r3, -r9, lsl #28]
    1098:	4b4b2f2e 	blmi	12ccd58 <__bss_end+0x12ca498>
    109c:	4d4b4b4b 	vstrmi	d20, [fp, #-300]	; 0xfffffed4
    10a0:	162e0f03 	strtne	r0, [lr], -r3, lsl #30
    10a4:	302c302c 	eorcc	r3, ip, ip, lsr #32
    10a8:	2f29512c 	svccs	0x0029512c
    10ac:	0f034d4b 	svceq	0x00034d4b
    10b0:	2933132e 	ldmdbcs	r3!, {r1, r2, r3, r5, r8, r9, ip}
    10b4:	2f2c2f4b 	svccs	0x002c2f4b
    10b8:	1203312f 	andne	r3, r3, #-1073741813	; 0xc000000b
    10bc:	68bb152e 	ldmvs	fp!, {r1, r2, r3, r5, r8, sl, ip}
    10c0:	0369694d 	cmneq	r9, #1261568	; 0x134000
    10c4:	bb142e12 	bllt	50c914 <__bss_end+0x50a054>
    10c8:	02676969 	rsbeq	r6, r7, #1720320	; 0x1a4000
    10cc:	01010002 	tsteq	r1, r2
    10d0:	00000019 	andeq	r0, r0, r9, lsl r0
    10d4:	00130002 	andseq	r0, r3, r2
    10d8:	01020000 	mrseq	r0, (UNDEF: 2)
    10dc:	000d0efb 	strdeq	r0, [sp], -fp
    10e0:	01010101 	tsteq	r1, r1, lsl #2
    10e4:	01000000 	mrseq	r0, (UNDEF: 0)
    10e8:	00010000 	andeq	r0, r1, r0
    10ec:	00001900 	andeq	r1, r0, r0, lsl #18
    10f0:	13000200 	movwne	r0, #512	; 0x200
    10f4:	02000000 	andeq	r0, r0, #0
    10f8:	0d0efb01 	vstreq	d15, [lr, #-4]
    10fc:	01010100 	mrseq	r0, (UNDEF: 17)
    1100:	00000001 	andeq	r0, r0, r1
    1104:	01000001 	tsteq	r0, r1
    1108:	01650000 	cmneq	r5, r0
    110c:	00020000 	andeq	r0, r2, r0
    1110:	00000075 	andeq	r0, r0, r5, ror r0
    1114:	0efb0102 	cdpeq	1, 15, cr0, cr11, cr2, {0}
    1118:	0101000d 	tsteq	r1, sp
    111c:	00000101 	andeq	r0, r0, r1, lsl #2
    1120:	00000100 	andeq	r0, r0, r0, lsl #2
    1124:	63726101 	cmnvs	r2, #1073741824	; 0x40000000
    1128:	72612f68 	rsbvc	r2, r1, #416	; 0x1a0
    112c:	616d2f6d 	cmnvs	sp, sp, ror #30
    1130:	732d6863 	teqvc	sp, #6488064	; 0x630000
    1134:	69786e75 	ldmdbvs	r8!, {r0, r2, r4, r5, r6, r9, sl, fp, sp, lr}^
    1138:	2f6d702f 	svccs	0x006d702f
    113c:	6e617473 	mcrvs	4, 3, r7, cr1, cr3, {3}
    1140:	2f796264 	svccs	0x00796264
    1144:	00002e2e 	andeq	r2, r0, lr, lsr #28
    1148:	5f6d656d 	svcpl	0x006d656d
    114c:	2e6b6c63 	cdpcs	12, 6, cr6, cr11, cr3, {3}
    1150:	00010063 	andeq	r0, r1, r3, rrx
    1154:	5f6d7000 	svcpl	0x006d7000
    1158:	65707974 	ldrbvs	r7, [r0, #-2420]!	; 0x974
    115c:	00682e73 	rsbeq	r2, r8, r3, ror lr
    1160:	6d000001 	stcvs	0, cr0, [r0, #-4]
    1164:	635f6d65 	cmpvs	pc, #6464	; 0x1940
    1168:	2d756d63 	ldclcs	13, cr6, [r5, #-396]!	; 0xfffffe74
    116c:	386e7573 	stmdacc	lr!, {r0, r1, r4, r5, r6, r8, sl, ip, sp, lr}^
    1170:	70357769 	eorsvc	r7, r5, r9, ror #14
    1174:	00682e31 	rsbeq	r2, r8, r1, lsr lr
    1178:	6d000001 	stcvs	0, cr0, [r0, #-4]
    117c:	635f6d65 	cmpvs	pc, #6464	; 0x1940
    1180:	682e6b6c 	stmdavs	lr!, {r2, r3, r5, r6, r8, r9, fp, sp, lr}
    1184:	00000100 	andeq	r0, r0, r0, lsl #2
    1188:	02050000 	andeq	r0, r5, #0
    118c:	000020cc 	andeq	r2, r0, ip, asr #1
    1190:	13011503 	movwne	r1, #5379	; 0x1503
    1194:	3048682f 	subcc	r6, r8, pc, lsr #16
    1198:	0332302c 	teqeq	r2, #44	; 0x2c
    119c:	4b144a11 	blmi	5139e8 <__bss_end+0x511128>
    11a0:	134a1403 	movtne	r1, #41987	; 0xa403
    11a4:	2b4d2f2d 	blcs	134ce60 <__bss_end+0x134a5a0>
    11a8:	2e780352 	mrccs	3, 3, r0, cr8, cr2, {2}
    11ac:	4d4b2f31 	stclmi	15, cr2, [fp, #-196]	; 0xffffff3c
    11b0:	142e1203 	strtne	r1, [lr], #-515	; 0x203
    11b4:	2e760352 	mrccs	3, 3, r0, cr6, cr2, {2}
    11b8:	2e0d0330 	mcrcs	3, 0, r0, cr13, cr0, {1}
    11bc:	362e7303 	strtcc	r7, [lr], -r3, lsl #6
    11c0:	034d4b2f 	movteq	r4, #56111	; 0xdb2f
    11c4:	4e2f2e0f 	cdpmi	14, 2, cr2, cr15, cr15, {0}
    11c8:	7603346a 	strvc	r3, [r3], -sl, ror #8
    11cc:	4b2f312e 	blmi	bcd68c <__bss_end+0xbcadcc>
    11d0:	32308332 	eorscc	r8, r0, #-939524096	; 0xc8000000
    11d4:	6d034e2a 	stcvs	14, cr4, [r3, #-168]	; 0xffffff58
    11d8:	2e14032e 	cdpcs	3, 1, cr0, cr4, cr14, {1}
    11dc:	134a0e03 	movtne	r0, #44547	; 0xae03
    11e0:	312d302d 	teqcc	sp, sp, lsr #32
    11e4:	2f2f296b 	svccs	0x002f296b
    11e8:	4d2f2f2d 	stcmi	15, cr2, [pc, #-180]!	; 113c <serial_gets_nommu+0x30>
    11ec:	13661003 	cmnne	r6, #3
    11f0:	2f2d2f65 	svccs	0x002d2f65
    11f4:	032e1003 	teqeq	lr, #3
    11f8:	312b2e74 	teqcc	fp, r4, ror lr
    11fc:	6768684c 	strbvs	r6, [r8, -ip, asr #16]!
    1200:	4a0f0333 	bmi	3c1ed4 <__bss_end+0x3bf614>
    1204:	2f2e8113 	svccs	0x002e8113
    1208:	032e0e03 	teqeq	lr, #48	; 0x30
    120c:	302f2e73 	eorcc	r2, pc, r3, ror lr	; <UNPREDICTABLE>
    1210:	78033031 	stmdavc	r3, {r0, r4, r5, ip, sp}
    1214:	31302f2e 	teqcc	r0, lr, lsr #30
    1218:	0e033330 	mcreq	3, 0, r3, cr3, cr0, {1}
    121c:	2c31014a 	ldfcss	f0, [r1], #-296	; 0xfffffed8
    1220:	2e1a03a0 	cdpcs	3, 1, cr0, cr10, cr0, {5}
    1224:	4d2e6903 	stcmi	9, cr6, [lr, #-12]!
    1228:	4b4b4b4b 	blmi	12d3f5c <__bss_end+0x12d169c>
    122c:	034a0d03 	movteq	r0, #44291	; 0xad03
    1230:	0b032e74 	bleq	ccc08 <__bss_end+0xca348>
    1234:	304b2f4a 	subcc	r2, fp, sl, asr #30
    1238:	132e0f03 	teqne	lr, #12
    123c:	2d4b2f2d 	stclcs	15, cr2, [fp, #-180]	; 0xffffff4c
    1240:	034a1503 	movteq	r1, #42243	; 0xa503
    1244:	032f2e6c 	teqeq	pc, #1728	; 0x6c0
    1248:	4b4b4a09 	blmi	12d3a74 <__bss_end+0x12d11b4>
    124c:	4f4b4b4b 	svcmi	0x004b4b4b
    1250:	1a2e2f03 	bne	b8ce64 <__bss_end+0xb8a5a4>
    1254:	30322b69 	eorscc	r2, r2, r9, ror #22
    1258:	304e322c 	subcc	r3, lr, ip, lsr #4
    125c:	352c2f2d 	strcc	r2, [ip, #-3885]!	; 0xf2d
    1260:	3030482c 	eorscc	r4, r0, ip, lsr #16
    1264:	017a036c 	cmneq	sl, ip, ror #6
    1268:	032e7703 	teqeq	lr, #786432	; 0xc0000
    126c:	04022e0f 	streq	r2, [r2], #-3599	; 0xe0f
    1270:	Address 0x00001270 is out of bounds.


Disassembly of section .debug_str:

00000000 <.debug_str>:
       0:	676e6f6c 	strbvs	r6, [lr, -ip, ror #30]!
       4:	6e6f6c20 	cdpvs	12, 6, cr6, cr15, cr0, {1}
       8:	6e692067 	cdpvs	0, 6, cr2, cr9, cr7, {3}
       c:	525f0074 	subspl	r0, pc, #116	; 0x74
      10:	6d757365 	ldclvs	3, cr7, [r5, #-404]!	; 0xfffffe6c
      14:	69665f65 	stmdbvs	r6!, {r0, r2, r5, r6, r8, r9, sl, fp, ip, lr}^
      18:	685f656c 	ldmdavs	pc, {r2, r3, r5, r6, r8, sl, sp, lr}^	; <UNPREDICTABLE>
      1c:	00646165 	rsbeq	r6, r4, r5, ror #2
      20:	656c6966 	strbvs	r6, [ip, #-2406]!	; 0x966
      24:	6165685f 	cmnvs	r5, pc, asr r8
      28:	73765f64 	cmnvc	r6, #400	; 0x190
      2c:	656c006e 	strbvs	r0, [ip, #-110]!	; 0x6e
      30:	6874676e 	ldmdavs	r4!, {r1, r2, r3, r5, r6, r8, r9, sl, sp, lr}^
      34:	62757000 	rsbsvs	r7, r5, #0
      38:	6165685f 	cmnvs	r5, pc, asr r8
      3c:	73765f64 	cmnvc	r6, #400	; 0x190
      40:	6f6c006e 	svcvs	0x006c006e
      44:	6c20676e 	stcvs	7, cr6, [r0], #-440	; 0xfffffe48
      48:	20676e6f 	rsbcs	r6, r7, pc, ror #28
      4c:	69736e75 	ldmdbvs	r3!, {r0, r2, r4, r5, r6, r9, sl, fp, sp, lr}^
      50:	64656e67 	strbtvs	r6, [r5], #-3687	; 0xe67
      54:	746e6920 	strbtvc	r6, [lr], #-2336	; 0x920
      58:	63726100 	cmnvs	r2, #0
      5c:	72612f68 	rsbvc	r2, r1, #416	; 0x1a0
      60:	616d2f6d 	cmnvs	sp, sp, ror #30
      64:	732d6863 	teqvc	sp, #6488064	; 0x630000
      68:	69786e75 	ldmdbvs	r8!, {r0, r2, r4, r5, r6, r9, sl, fp, sp, lr}^
      6c:	2f6d702f 	svccs	0x006d702f
      70:	6e617473 	mcrvs	4, 3, r7, cr1, cr3, {3}
      74:	2f796264 	svccs	0x00796264
      78:	65707573 	ldrbvs	r7, [r0, #-1395]!	; 0x573
      7c:	65722f72 	ldrbvs	r2, [r2, #-3954]!	; 0xf72
      80:	656d7573 	strbvs	r7, [sp, #-1395]!	; 0x573
      84:	7365722f 	cmnvc	r5, #-268435454	; 0xf0000002
      88:	5f656d75 	svcpl	0x00656d75
      8c:	64616568 	strbtvs	r6, [r1], #-1384	; 0x568
      90:	2f00632e 	svccs	0x0000632e
      94:	746f6f72 	strbtvc	r6, [pc], #-3954	; 9c <config_61>
      98:	726f772f 	rsbvc	r7, pc, #12320768	; 0xbc0000
      9c:	69732f6b 	ldmdbvs	r3!, {r0, r1, r3, r5, r6, r8, r9, sl, fp, sp}^
      a0:	6e696c6e 	cdpvs	12, 6, cr6, cr9, cr14, {3}
      a4:	33612f78 	cmncc	r1, #480	; 0x1e0
      a8:	696c2f33 	stmdbvs	ip!, {r0, r1, r4, r5, r8, r9, sl, fp, sp}^
      ac:	65656863 	strbvs	r6, [r5, #-2147]!	; 0x863
      b0:	6e696c2f 	cdpvs	12, 6, cr6, cr9, cr15, {1}
      b4:	332d7875 	teqcc	sp, #7667712	; 0x750000
      b8:	6d00342e 	cfstrsvs	mvf3, [r0, #-184]	; 0xffffff48
      bc:	63696761 	cmnvs	r9, #25427968	; 0x1840000
      c0:	62757000 	rsbsvs	r7, r5, #0
      c4:	6165685f 	cmnvs	r5, pc, asr r8
      c8:	69735f64 	ldmdbvs	r3!, {r2, r5, r6, r8, r9, sl, fp, ip, lr}^
      cc:	7500657a 	strvc	r6, [r0, #-1402]	; 0x57a
      d0:	6769736e 	strbvs	r7, [r9, -lr, ror #6]!
      d4:	2064656e 	rsbcs	r6, r4, lr, ror #10
      d8:	72616863 	rsbvc	r6, r1, #6488064	; 0x630000
      dc:	6d756a00 	vldmdbvs	r5!, {s13-s12}
      e0:	6e695f70 	mcrvs	15, 3, r5, cr9, cr0, {3}
      e4:	75727473 	ldrbvc	r7, [r2, #-1139]!	; 0x473
      e8:	6f697463 	svcvs	0x00697463
      ec:	6552006e 	ldrbvs	r0, [r2, #-110]	; 0x6e
      f0:	656d7573 	strbvs	r7, [sp, #-1395]!	; 0x573
      f4:	6e73765f 	mrcvs	6, 3, r7, cr3, cr15, {2}
      f8:	65686300 	strbvs	r6, [r8, #-768]!	; 0x300
      fc:	735f6b63 	cmpvc	pc, #101376	; 0x18c00
     100:	73006d75 	movwvc	r6, #3445	; 0xd75
     104:	74726f68 	ldrbtvc	r6, [r2], #-3944	; 0xf68
     108:	736e7520 	cmnvc	lr, #134217728	; 0x8000000
     10c:	656e6769 	strbvs	r6, [lr, #-1897]!	; 0x769
     110:	6e692064 	cdpvs	0, 6, cr2, cr9, cr4, {3}
     114:	4e470074 	mcrmi	0, 2, r0, cr7, cr4, {3}
     118:	20432055 	subcs	r2, r3, r5, asr r0
     11c:	2e362e34 	mrccs	14, 1, r2, cr6, cr4, {1}
     120:	30322033 	eorscc	r2, r2, r3, lsr r0
     124:	32303231 	eorscc	r3, r0, #268435459	; 0x10000003
     128:	28203130 	stmdacs	r0!, {r4, r5, r8, ip, sp}
     12c:	72657270 	rsbvc	r7, r5, #7
     130:	61656c65 	cmnvs	r5, r5, ror #24
     134:	00296573 	eoreq	r6, r9, r3, ror r5
     138:	4e4f4765 	cdpmi	7, 4, cr4, cr15, cr5, {3}
     13c:	6e73765f 	mrcvs	6, 3, r7, cr3, cr15, {2}
     140:	616c7000 	cmnvs	ip, r0
     144:	726f6674 	rsbvc	r6, pc, #121634816	; 0x7400000
     148:	6873006d 	ldmdavs	r3!, {r0, r2, r3, r5, r6}^
     14c:	2074726f 	rsbscs	r7, r4, pc, ror #4
     150:	00746e69 	rsbseq	r6, r4, r9, ror #28
     154:	75736572 	ldrbvc	r6, [r3, #-1394]!	; 0x572
     158:	685f656d 	ldmdavs	pc, {r0, r2, r3, r5, r6, r8, sl, sp, lr}^	; <UNPREDICTABLE>
     15c:	00646165 	rsbeq	r6, r4, r5, ror #2
     160:	75736572 	ldrbvc	r6, [r3, #-1394]!	; 0x572
     164:	665f656d 	ldrbvs	r6, [pc], -sp, ror #10
     168:	5f656c69 	svcpl	0x00656c69
     16c:	64616568 	strbtvs	r6, [r1], #-1384	; 0x568
     170:	6100745f 	tstvs	r0, pc, asr r4
     174:	2f686372 	svccs	0x00686372
     178:	2f6d7261 	svccs	0x006d7261
     17c:	6863616d 	stmdavs	r3!, {r0, r2, r3, r5, r6, r8, sp, lr}^
     180:	6e75732d 	cdpvs	3, 7, cr7, cr5, cr13, {1}
     184:	702f6978 	eorvc	r6, pc, r8, ror r9	; <UNPREDICTABLE>
     188:	74732f6d 	ldrbtvc	r2, [r3], #-3949	; 0xf6d
     18c:	62646e61 	rsbvs	r6, r4, #1552	; 0x610
     190:	75732f79 	ldrbvc	r2, [r3, #-3961]!	; 0xf79
     194:	2f726570 	svccs	0x00726570
     198:	6d6d6f63 	stclvs	15, cr6, [sp, #-396]!	; 0xfffffe74
     19c:	632e6e6f 	teqvs	lr, #1776	; 0x6f0
     1a0:	706d7400 	rsbvc	r7, sp, r0, lsl #8
     1a4:	7473645f 	ldrbtvc	r6, [r3], #-1119	; 0x45f
     1a8:	706d7400 	rsbvc	r7, sp, r0, lsl #8
     1ac:	6372735f 	cmnvs	r2, #2080374785	; 0x7c000001
     1b0:	6d656d00 	stclvs	13, cr6, [r5, #-0]
     1b4:	6d656d5f 	stclvs	13, cr6, [r5, #-380]!	; 0xfffffe84
     1b8:	00797063 	rsbseq	r7, r9, r3, rrx
     1bc:	68637261 	stmdavs	r3!, {r0, r5, r6, r9, ip, sp, lr}^
     1c0:	6d72612f 	ldfvse	f6, [r2, #-188]!	; 0xffffff44
     1c4:	63616d2f 	cmnvs	r1, #3008	; 0xbc0
     1c8:	75732d68 	ldrbvc	r2, [r3, #-3432]!	; 0xd68
     1cc:	2f69786e 	svccs	0x0069786e
     1d0:	732f6d70 	teqvc	pc, #7168	; 0x1c00
     1d4:	646e6174 	strbtvs	r6, [lr], #-372	; 0x174
     1d8:	732f7962 	teqvc	pc, #1605632	; 0x188000
     1dc:	72657075 	rsbvc	r7, r5, #117	; 0x75
     1e0:	7075732f 	rsbsvc	r7, r5, pc, lsr #6
     1e4:	745f7265 	ldrbvc	r7, [pc], #-613	; 1ec <resume1_c_part+0xcc>
     1e8:	632e6977 	teqvs	lr, #1949696	; 0x1dc000
     1ec:	63726100 	cmnvs	r2, #0
     1f0:	72612f68 	rsbvc	r2, r1, #416	; 0x1a0
     1f4:	616d2f6d 	cmnvs	sp, sp, ror #30
     1f8:	732d6863 	teqvc	sp, #6488064	; 0x630000
     1fc:	69786e75 	ldmdbvs	r8!, {r0, r2, r4, r5, r6, r9, sl, fp, sp, lr}^
     200:	2f6d702f 	svccs	0x006d702f
     204:	6e617473 	mcrvs	4, 3, r7, cr1, cr3, {3}
     208:	2f796264 	svccs	0x00796264
     20c:	65707573 	ldrbvs	r7, [r0, #-1395]!	; 0x573
     210:	75732f72 	ldrbvc	r2, [r3, #-3954]!	; 0xf72
     214:	5f726570 	svcpl	0x00726570
     218:	636f6c63 	cmnvs	pc, #25344	; 0x6300
     21c:	00632e6b 	rsbeq	r2, r3, fp, ror #28
     220:	68637261 	stmdavs	r3!, {r0, r5, r6, r9, ip, sp, lr}^
     224:	6d72612f 	ldfvse	f6, [r2, #-188]!	; 0xffffff44
     228:	63616d2f 	cmnvs	r1, #3008	; 0xbc0
     22c:	75732d68 	ldrbvc	r2, [r3, #-3432]!	; 0xd68
     230:	2f69786e 	svccs	0x0069786e
     234:	732f6d70 	teqvc	pc, #7168	; 0x1c00
     238:	646e6174 	strbtvs	r6, [lr], #-372	; 0x174
     23c:	732f7962 	teqvc	pc, #1605632	; 0x188000
     240:	72657075 	rsbvc	r7, r5, #117	; 0x75
     244:	7075732f 	rsbsvc	r7, r5, pc, lsr #6
     248:	705f7265 	subsvc	r7, pc, r5, ror #4
     24c:	7265776f 	rsbvc	r7, r5, #29097984	; 0x1bc0000
     250:	6100632e 	tstvs	r0, lr, lsr #6
     254:	2f686372 	svccs	0x00686372
     258:	2f6d7261 	svccs	0x006d7261
     25c:	6863616d 	stmdavs	r3!, {r0, r2, r3, r5, r6, r8, sp, lr}^
     260:	6e75732d 	cdpvs	3, 7, cr7, cr5, cr13, {1}
     264:	702f6978 	eorvc	r6, pc, r8, ror r9	; <UNPREDICTABLE>
     268:	74732f6d 	ldrbtvc	r2, [r3], #-3949	; 0xf6d
     26c:	62646e61 	rsbvs	r6, r4, #1552	; 0x610
     270:	75732f79 	ldrbvc	r2, [r3, #-3961]!	; 0xf79
     274:	2f726570 	svccs	0x00726570
     278:	65707573 	ldrbvs	r7, [r0, #-1395]!	; 0x573
     27c:	70635f72 	rsbvc	r5, r3, r2, ror pc
     280:	632e7375 	teqvs	lr, #-738197503	; 0xd4000001
     284:	6c6c5000 	stclvs	0, cr5, [ip], #-0
     288:	4f4d3432 	svcmi	0x004d3432
     28c:	6e457475 	mcrvs	4, 2, r7, cr5, cr5, {3}
     290:	6c6c5000 	stclvs	0, cr5, [ip], #-0
     294:	6d617244 	sfmvs	f7, 2, [r1, #-272]!	; 0xfffffef0
     298:	74615030 	strbtvc	r5, [r1], #-48	; 0x30
     29c:	6e726574 	mrcvs	5, 3, r6, cr2, cr4, {3}
     2a0:	435f5f00 	cmpmi	pc, #0
     2a4:	5f554d43 	svcpl	0x00554d43
     2a8:	31424841 	cmpcc	r2, r1, asr #16
     2ac:	5441525f 	strbpl	r5, [r1], #-607	; 0x25f
     2b0:	525f4f49 	subspl	r4, pc, #292	; 0x124
     2b4:	30304745 	eorscc	r4, r0, r5, asr #14
     2b8:	63003435 	movwvs	r3, #1077	; 0x435
     2bc:	5f317570 	svcpl	0x00317570
     2c0:	65736572 	ldrbvs	r6, [r3, #-1394]!	; 0x572
     2c4:	65640074 	strbvs	r0, [r4, #-116]!	; 0x74
     2c8:	5f677562 	svcpl	0x00677562
     2cc:	6b73616d 	blvs	1cd8888 <__bss_end+0x1cd5fc8>
     2d0:	635f5f00 	cmpvs	pc, #0
     2d4:	5f756d63 	svcpl	0x00756d63
     2d8:	6970696d 	ldmdbvs	r0!, {r0, r2, r3, r5, r6, r8, fp, sp, lr}^
     2dc:	6c6c705f 	stclvs	0, cr7, [ip], #-380	; 0xfffffe84
     2e0:	6765725f 			; <UNDEFINED> instruction: 0x6765725f
     2e4:	30343030 	eorscc	r3, r4, r0, lsr r0
     2e8:	7200745f 	andvc	r7, r0, #1593835520	; 0x5f000000
     2ec:	72657365 	rsbvc	r7, r5, #-1811939327	; 0x94000001
     2f0:	31646576 	smccc	18006	; 0x4656
     2f4:	72003233 	andvc	r3, r0, #805306371	; 0x30000003
     2f8:	72657365 	rsbvc	r7, r5, #-1811939327	; 0x94000001
     2fc:	31646576 	smccc	18006	; 0x4656
     300:	72003333 	andvc	r3, r0, #-872415232	; 0xcc000000
     304:	72657365 	rsbvc	r7, r5, #-1811939327	; 0x94000001
     308:	31646576 	smccc	18006	; 0x4656
     30c:	64003433 	strvs	r3, [r0], #-1075	; 0x433
     310:	6c617677 	stclvs	6, cr7, [r1], #-476	; 0xfffffe24
     314:	76617300 	strbtvc	r7, [r1], -r0, lsl #6
     318:	725f6465 	subsvc	r6, pc, #1694498816	; 0x65000000
     31c:	69746e75 	ldmdbvs	r4!, {r0, r2, r4, r5, r6, r9, sl, fp, sp, lr}^
     320:	635f656d 	cmpvs	pc, #457179136	; 0x1b400000
     324:	65746e6f 	ldrbvs	r6, [r4, #-3695]!	; 0xe6f
     328:	735f7478 	cmpvc	pc, #2013265920	; 0x78000000
     32c:	4c006376 	stcmi	3, cr6, [r0], {118}	; 0x76
     330:	43306463 	teqmi	r0, #1660944384	; 0x63000000
     334:	4c003068 	stcmi	0, cr3, [r0], {104}	; 0x68
     338:	43306463 	teqmi	r0, #1660944384	; 0x63000000
     33c:	61003168 	tstvs	r0, r8, ror #2
     340:	645f6978 	ldrbvs	r6, [pc], #-2424	; 348 <mem_status_init_nommu>
     344:	50007669 	andpl	r7, r0, r9, ror #12
     348:	43366c6c 	teqmi	r6, #27648	; 0x6c00
     34c:	72006c74 	andvc	r6, r0, #29696	; 0x7400
     350:	72657365 	rsbvc	r7, r5, #-1811939327	; 0x94000001
     354:	31646576 	smccc	18006	; 0x4656
     358:	72003134 	andvc	r3, r0, #13
     35c:	72657365 	rsbvc	r7, r5, #-1811939327	; 0x94000001
     360:	31646576 	smccc	18006	; 0x4656
     364:	72003234 	andvc	r3, r0, #1073741827	; 0x40000003
     368:	72657365 	rsbvc	r7, r5, #-1811939327	; 0x94000001
     36c:	31646576 	smccc	18006	; 0x4656
     370:	69003334 	stmdbvs	r0, {r2, r4, r5, r8, r9, ip, sp}
     374:	7865646e 	stmdavc	r5!, {r1, r2, r3, r5, r6, sl, sp, lr}^
     378:	6c6c5000 	stclvs	0, cr5, [ip], #-0
     37c:	00637253 	rsbeq	r7, r3, r3, asr r2
     380:	65766173 	ldrbvs	r6, [r6, #-371]!	; 0x173
     384:	6d6d5f64 	stclvs	15, cr5, [sp, #-400]!	; 0xfffffe70
     388:	74735f75 	ldrbtvc	r5, [r3], #-3957	; 0xf75
     38c:	00657461 	rsbeq	r7, r5, r1, ror #8
     390:	30733249 	rsbscc	r3, r3, r9, asr #4
     394:	73324900 	teqvc	r2, #0
     398:	6c500031 	mrrcvs	0, 3, r0, r0, cr1	; <UNPREDICTABLE>
     39c:	4330316c 	teqmi	r0, #27
     3a0:	50006c74 	andpl	r6, r0, r4, ror ip
     3a4:	43346c6c 	teqmi	r4, #27648	; 0x6c00
     3a8:	50006c74 	andpl	r6, r0, r4, ror ip
     3ac:	54535f4d 	ldrbpl	r5, [r3], #-3917	; 0xf4d
     3b0:	42444e41 	submi	r4, r4, #1040	; 0x410
     3b4:	4e455f59 	mcrmi	15, 2, r5, cr5, cr9, {2}
     3b8:	454c4241 	strbmi	r4, [ip, #-577]	; 0x241
     3bc:	41544a5f 	cmpmi	r4, pc, asr sl
     3c0:	5f5f0047 	svcpl	0x005f0047
     3c4:	756d6363 	strbvc	r6, [sp, #-867]!	; 0x363
     3c8:	6c6c705f 	stclvs	0, cr7, [ip], #-380	; 0xfffffe84
     3cc:	65725f36 	ldrbvs	r5, [r2, #-3894]!	; 0xf36
     3d0:	32303067 	eorscc	r3, r0, #103	; 0x67
     3d4:	00745f38 	rsbseq	r5, r4, r8, lsr pc
     3d8:	6970694d 	ldmdbvs	r0!, {r0, r2, r3, r6, r8, fp, sp, lr}^
     3dc:	00697344 	rsbeq	r7, r9, r4, asr #6
     3e0:	63635f5f 	cmnvs	r3, #380	; 0x17c
     3e4:	735f756d 	cmpvc	pc, #457179136	; 0x1b400000
     3e8:	6c637379 	stclvs	3, cr7, [r3], #-484	; 0xfffffe1c
     3ec:	61725f6b 	cmnvs	r2, fp, ror #30
     3f0:	5f6f6974 	svcpl	0x006f6974
     3f4:	30676572 	rsbcc	r6, r7, r2, ror r5
     3f8:	5f303530 	svcpl	0x00303530
     3fc:	644c0074 	strbvs	r0, [ip], #-116	; 0x74
     400:	6e45326f 	cdpvs	2, 4, cr3, cr5, cr15, {3}
     404:	6c6c5000 	stclvs	0, cr5, [ip], #-0
     408:	69647541 	stmdbvs	r4!, {r0, r6, r8, sl, ip, sp, lr}^
     40c:	6169426f 	cmnvs	r9, pc, ror #4
     410:	70630073 	rsbvc	r0, r3, r3, ror r0
     414:	725f3375 	subsvc	r3, pc, #-738197503	; 0xd4000001
     418:	74657365 	strbtvc	r7, [r5], #-869	; 0x365
     41c:	6c6c7000 	stclvs	0, cr7, [ip], #-0
     420:	6361665f 	cmnvs	r1, #99614720	; 0x5f00000
     424:	5f726f74 	svcpl	0x00726f74
     428:	65720074 	ldrbvs	r0, [r2, #-116]!	; 0x74
     42c:	76726573 			; <UNDEFINED> instruction: 0x76726573
     430:	35316465 	ldrcc	r6, [r1, #-1125]!	; 0x465
     434:	65720031 	ldrbvs	r0, [r2, #-49]!	; 0x31
     438:	76726573 			; <UNDEFINED> instruction: 0x76726573
     43c:	35316465 	ldrcc	r6, [r1, #-1125]!	; 0x465
     440:	65720032 	ldrbvs	r0, [r2, #-50]!	; 0x32
     444:	76726573 			; <UNDEFINED> instruction: 0x76726573
     448:	35316465 	ldrcc	r6, [r1, #-1125]!	; 0x465
     44c:	65720033 	ldrbvs	r0, [r2, #-51]!	; 0x33
     450:	76726573 			; <UNDEFINED> instruction: 0x76726573
     454:	35316465 	ldrcc	r6, [r1, #-1125]!	; 0x465
     458:	6c500034 	mrrcvs	0, 3, r0, r0, cr4	; <UNPREDICTABLE>
     45c:	6973486c 	ldmdbvs	r3!, {r2, r3, r5, r6, fp, lr}^
     460:	74615063 	strbtvc	r5, [r1], #-99	; 0x63
     464:	6e726574 	mrcvs	5, 3, r6, cr2, cr4, {3}
     468:	625f5f00 	subsvs	r5, pc, #0
     46c:	655f7373 	ldrbvs	r7, [pc, #-883]	; 101 <mem_delay+0x9>
     470:	5000646e 	andpl	r6, r0, lr, ror #8
     474:	66434c4c 	strbvs	r4, [r3], -ip, asr #24
     478:	64705567 	ldrbtvs	r5, [r0], #-1383	; 0x567
     47c:	00657461 	rsbeq	r7, r5, r1, ror #8
     480:	476c6c50 			; <UNDEFINED> instruction: 0x476c6c50
     484:	61507570 	cmpvs	r0, r0, ror r5
     488:	72657474 	rsbvc	r7, r5, #1946157056	; 0x74000000
     48c:	6c50006e 	mrrcvs	0, 6, r0, r0, cr14	; <UNPREDICTABLE>
     490:	6973486c 	ldmdbvs	r3!, {r2, r3, r5, r6, fp, lr}^
     494:	61694263 	cmnvs	r9, r3, ror #4
     498:	5f5f0073 	svcpl	0x005f0073
     49c:	756d6363 	strbvc	r6, [sp, #-867]!	; 0x363
     4a0:	6c6c705f 	stclvs	0, cr7, [ip], #-380	; 0xfffffe84
     4a4:	65725f35 	ldrbvs	r5, [r2, #-3893]!	; 0xf35
     4a8:	32303067 	eorscc	r3, r0, #103	; 0x67
     4ac:	00745f30 	rsbseq	r5, r4, r0, lsr pc
     4b0:	316c6c50 	cmncc	ip, r0, asr ip
     4b4:	006e7554 	rsbeq	r7, lr, r4, asr r5
     4b8:	7375424d 	cmnvc	r5, #-805306364	; 0xd0000004
     4bc:	66560030 			; <UNDEFINED> instruction: 0x66560030
     4c0:	6c655362 	stclvs	3, cr5, [r5], #-392	; 0xfffffe78
     4c4:	5f4d5000 	svcpl	0x004d5000
     4c8:	4e415453 	mcrmi	4, 2, r5, cr1, cr3, {2}
     4cc:	5f594244 	svcpl	0x00594244
     4d0:	4e495250 	mcrmi	2, 2, r5, cr9, cr0, {2}
     4d4:	43435f54 	movtmi	r5, #16212	; 0x3f54
     4d8:	54535f55 	ldrbpl	r5, [r3], #-3925	; 0xf55
     4dc:	53555441 	cmppl	r5, #1090519040	; 0x41000000
     4e0:	5f4d5000 	svcpl	0x004d5000
     4e4:	4e415453 	mcrmi	4, 2, r5, cr1, cr3, {2}
     4e8:	5f594244 	svcpl	0x00594244
     4ec:	4e495250 	mcrmi	2, 2, r5, cr9, cr0, {2}
     4f0:	45525f54 	ldrbmi	r5, [r2, #-3924]	; 0xf54
     4f4:	454d5553 	strbmi	r5, [sp, #-1363]	; 0x553
     4f8:	5f4f495f 	svcpl	0x004f495f
     4fc:	54415453 	strbpl	r5, [r1], #-1107	; 0x453
     500:	4d005355 	stcmi	3, cr5, [r0, #-340]	; 0xfffffeac
     504:	50697069 	rsbpl	r7, r9, r9, rrx
     508:	74436c6c 	strbvc	r6, [r3], #-3180	; 0xc6c
     50c:	6146006c 	cmpvs	r6, ip, rrx
     510:	726f7463 	rsbvc	r7, pc, #1660944384	; 0x63000000
     514:	6146004b 	cmpvs	r6, fp, asr #32
     518:	726f7463 	rsbvc	r7, pc, #1660944384	; 0x63000000
     51c:	6146004d 	cmpvs	r6, sp, asr #32
     520:	726f7463 	rsbvc	r7, pc, #1660944384	; 0x63000000
     524:	7041004e 	subvc	r0, r1, lr, asr #32
     528:	69443262 	stmdbvs	r4, {r1, r5, r6, r9, ip, sp}^
     52c:	61460076 	hvcvs	24582	; 0x6006
     530:	726f7463 	rsbvc	r7, pc, #1660944384	; 0x63000000
     534:	65720050 	ldrbvs	r0, [r2, #-80]!	; 0x50
     538:	76726573 			; <UNDEFINED> instruction: 0x76726573
     53c:	30326465 	eorscc	r6, r2, r5, ror #8
     540:	65720032 	ldrbvs	r0, [r2, #-50]!	; 0x32
     544:	76726573 			; <UNDEFINED> instruction: 0x76726573
     548:	30326465 	eorscc	r6, r2, r5, ror #8
     54c:	65720033 	ldrbvs	r0, [r2, #-51]!	; 0x33
     550:	76726573 			; <UNDEFINED> instruction: 0x76726573
     554:	30326465 	eorscc	r6, r2, r5, ror #8
     558:	65720034 	ldrbvs	r0, [r2, #-52]!	; 0x34
     55c:	76726573 			; <UNDEFINED> instruction: 0x76726573
     560:	30326465 	eorscc	r6, r2, r5, ror #8
     564:	65720035 	ldrbvs	r0, [r2, #-53]!	; 0x35
     568:	76726573 			; <UNDEFINED> instruction: 0x76726573
     56c:	30326465 	eorscc	r6, r2, r5, ror #8
     570:	6c500036 	mrrcvs	0, 3, r0, r0, cr6	; <UNPREDICTABLE>
     574:	7570476c 	ldrbvc	r4, [r0, #-1900]!	; 0x76c
     578:	73616942 	cmnvc	r1, #1081344	; 0x108000
     57c:	73757300 	cmnvc	r5, #0
     580:	646e6570 	strbtvs	r6, [lr], #-1392	; 0x570
     584:	6c65645f 	cfstrdvs	mvd6, [r5], #-380	; 0xfffffe84
     588:	6d5f7961 	ldclvs	9, cr7, [pc, #-388]	; 40c <save_cpux_mem_status_nommu+0x10>
     58c:	70470073 	subvc	r0, r7, r3, ror r0
     590:	6d654d75 	stclvs	13, cr4, [r5, #-468]!	; 0xfffffe2c
     594:	6b6c6300 	blvs	1b1919c <__bss_end+0x1b168dc>
     598:	7669645f 			; <UNDEFINED> instruction: 0x7669645f
     59c:	73657200 	cmnvc	r5, #0
     5a0:	65767265 	ldrbvs	r7, [r6, #-613]!	; 0x265
     5a4:	31313164 	teqcc	r1, r4, ror #2
     5a8:	76694400 	strbtvc	r4, [r9], -r0, lsl #8
     5ac:	6944004d 	stmdbvs	r4, {r0, r2, r3, r6}^
     5b0:	50004e76 	andpl	r4, r0, r6, ror lr
     5b4:	54535f4d 	ldrbpl	r5, [r3], #-3917	; 0xf4d
     5b8:	42444e41 	submi	r4, r4, #1040	; 0x410
     5bc:	52505f59 	subspl	r5, r0, #356	; 0x164
     5c0:	5f544e49 	svcpl	0x00544e49
     5c4:	4e415453 	mcrmi	4, 2, r5, cr1, cr3, {2}
     5c8:	00594244 	subseq	r4, r9, r4, asr #4
     5cc:	32627041 	rsbcc	r7, r2, #65	; 0x41
     5d0:	65736552 	ldrbvs	r6, [r3, #-1362]!	; 0x552
     5d4:	68610074 	stmdavs	r1!, {r2, r4, r5, r6}^
     5d8:	70615f62 	rsbvc	r5, r1, r2, ror #30
     5dc:	69645f62 	stmdbvs	r4!, {r1, r5, r6, r8, r9, sl, fp, ip, lr}^
     5e0:	4d500076 	ldclmi	0, cr0, [r0, #-472]	; 0xfffffe28
     5e4:	4154535f 	cmpmi	r4, pc, asr r3
     5e8:	5942444e 	stmdbpl	r2, {r1, r2, r3, r6, sl, lr}^
     5ec:	4952505f 	ldmdbmi	r2, {r0, r1, r2, r3, r4, r6, ip, lr}^
     5f0:	495f544e 	ldmdbmi	pc, {r1, r2, r3, r6, sl, ip, lr}^	; <UNPREDICTABLE>
     5f4:	54535f4f 	ldrbpl	r5, [r3], #-3919	; 0xf4f
     5f8:	53555441 	cmppl	r5, #1090519040	; 0x41000000
     5fc:	73657200 	cmnvc	r5, #0
     600:	65767265 	ldrbvs	r7, [r6, #-613]!	; 0x265
     604:	31373164 	teqcc	r7, r4, ror #2
     608:	73657200 	cmnvc	r5, #0
     60c:	65767265 	ldrbvs	r7, [r6, #-613]!	; 0x265
     610:	32373164 	eorscc	r3, r7, #25
     614:	73657200 	cmnvc	r5, #0
     618:	65767265 	ldrbvs	r7, [r6, #-613]!	; 0x265
     61c:	33373164 	teqcc	r7, #25
     620:	6c6c5000 	stclvs	0, cr5, [ip], #-0
     624:	6b636f4c 	blvs	18dc35c <__bss_end+0x18d9a9c>
     628:	6c6c7000 	stclvs	0, cr7, [ip], #-0
     62c:	75745f31 	ldrbvc	r5, [r4, #-3889]!	; 0xf31
     630:	5f5f006e 	svcpl	0x005f006e
     634:	554d4343 	strbpl	r4, [sp, #-835]	; 0x343
     638:	4c4c505f 	mcrrmi	0, 5, r5, ip, cr15
     63c:	45525f38 	ldrbmi	r5, [r2, #-3896]	; 0xf38
     640:	33303047 	teqcc	r0, #71	; 0x47
     644:	70470038 	subvc	r0, r7, r8, lsr r0
     648:	726f4375 	rsbvc	r4, pc, #-738197503	; 0xd4000001
     64c:	65490065 	strbvs	r0, [r9, #-101]	; 0x65
     650:	63724470 	cmnvs	r2, #1879048192	; 0x70000000
     654:	70430030 	subvc	r0, r3, r0, lsr r0
     658:	6b6c4375 	blvs	1b11434 <__bss_end+0x1b0eb74>
     65c:	00637253 	rsbeq	r7, r3, r3, asr r2
     660:	73625f5f 	cmnvc	r2, #380	; 0x17c
     664:	74735f73 	ldrbtvc	r5, [r3], #-3955	; 0xf73
     668:	00747261 	rsbseq	r7, r4, r1, ror #4
     66c:	72636164 	rsbvc	r6, r3, #25
     670:	73657200 	cmnvc	r5, #0
     674:	65767265 	ldrbvs	r7, [r6, #-613]!	; 0x265
     678:	31383164 	teqcc	r8, r4, ror #2
     67c:	63726100 	cmnvs	r2, #0
     680:	72612f68 	rsbvc	r2, r1, #416	; 0x1a0
     684:	616d2f6d 	cmnvs	sp, sp, ror #30
     688:	732d6863 	teqvc	sp, #6488064	; 0x630000
     68c:	69786e75 	ldmdbvs	r8!, {r0, r2, r4, r5, r6, r9, sl, fp, sp, lr}^
     690:	2f6d702f 	svccs	0x006d702f
     694:	6e617473 	mcrvs	4, 3, r7, cr1, cr3, {3}
     698:	2f796264 	svccs	0x00796264
     69c:	65707573 	ldrbvs	r7, [r0, #-1395]!	; 0x573
     6a0:	65722f72 	ldrbvs	r2, [r2, #-3954]!	; 0xf72
     6a4:	656d7573 	strbvs	r7, [sp, #-1395]!	; 0x573
     6a8:	7365722f 	cmnvc	r5, #-268435454	; 0xf0000002
     6ac:	31656d75 	smccc	22229	; 0x56d5
     6b0:	705f635f 	subsvc	r6, pc, pc, asr r3	; <UNPREDICTABLE>
     6b4:	2e747261 	cdpcs	2, 7, cr7, cr4, cr1, {3}
     6b8:	68410063 	stmdavs	r1, {r0, r1, r5, r6}^
     6bc:	74614762 	strbtvc	r4, [r1], #-1890	; 0x762
     6c0:	50003165 	andpl	r3, r0, r5, ror #2
     6c4:	54535f4d 	ldrbpl	r5, [r3], #-3917	; 0xf4d
     6c8:	42444e41 	submi	r4, r4, #1040	; 0x410
     6cc:	52505f59 	subspl	r5, r0, #356	; 0x164
     6d0:	5f544e49 	svcpl	0x00544e49
     6d4:	55425447 	strbpl	r5, [r2, #-1095]	; 0x447
     6d8:	45525f53 	ldrbmi	r5, [r2, #-3923]	; 0xf53
     6dc:	6c500047 	mrrcvs	0, 4, r0, r0, cr7	; <UNPREDICTABLE>
     6e0:	6465566c 	strbtvs	r5, [r5], #-1644	; 0x66c
     6e4:	69426f69 	stmdbvs	r2, {r0, r3, r5, r6, r8, r9, sl, fp, sp, lr}^
     6e8:	50007361 	andpl	r7, r0, r1, ror #6
     6ec:	43316c6c 	teqmi	r1, #27648	; 0x6c00
     6f0:	41006c74 	tstmi	r0, r4, ror ip
     6f4:	00616464 	rsbeq	r6, r1, r4, ror #8
     6f8:	63635f5f 	cmnvs	r3, #380	; 0x17c
     6fc:	705f756d 	subsvc	r7, pc, sp, ror #10
     700:	5f386c6c 	svcpl	0x00386c6c
     704:	30676572 	rsbcc	r6, r7, r2, ror r5
     708:	5f383330 	svcpl	0x00383330
     70c:	6c500074 	mrrcvs	0, 7, r0, r0, cr4	; <UNPREDICTABLE>
     710:	7443386c 	strbvc	r3, [r3], #-2156	; 0x86c
     714:	6572006c 	ldrbvs	r0, [r2, #-108]!	; 0x6c
     718:	76726573 			; <UNDEFINED> instruction: 0x76726573
     71c:	30316465 	eorscc	r6, r1, r5, ror #8
     720:	435f5f00 	cmpmi	pc, #0
     724:	5f554d43 	svcpl	0x00554d43
     728:	4c4c4c50 	mcrrmi	12, 5, r4, ip, cr0
     72c:	5f4b434f 	svcpl	0x004b434f
     730:	30474552 	subcc	r4, r7, r2, asr r5
     734:	00303032 	eorseq	r3, r0, r2, lsr r0
     738:	65736572 	ldrbvs	r6, [r3, #-1394]!	; 0x572
     73c:	64657672 	strbtvs	r7, [r5], #-1650	; 0x672
     740:	64003231 	strvs	r3, [r0], #-561	; 0x231
     744:	32636463 	rsbcc	r6, r3, #1660944384	; 0x63000000
     748:	73657200 	cmnvc	r5, #0
     74c:	65767265 	ldrbvs	r7, [r6, #-613]!	; 0x265
     750:	00343164 	eorseq	r3, r4, r4, ror #2
     754:	65736572 	ldrbvs	r6, [r3, #-1394]!	; 0x572
     758:	64657672 	strbtvs	r7, [r5], #-1650	; 0x672
     75c:	72003531 	andvc	r3, r0, #205520896	; 0xc400000
     760:	72657365 	rsbvc	r7, r5, #-1811939327	; 0x94000001
     764:	31646576 	smccc	18006	; 0x4656
     768:	65720036 	ldrbvs	r0, [r2, #-54]!	; 0x36
     76c:	76726573 			; <UNDEFINED> instruction: 0x76726573
     770:	37316465 	ldrcc	r6, [r1, -r5, ror #8]!
     774:	6c6c5000 	stclvs	0, cr5, [ip], #-0
     778:	43726444 	cmnmi	r2, #1140850688	; 0x44000000
     77c:	63006766 	movwvs	r6, #1894	; 0x766
     780:	6d5f6b6c 	vldrvs	d22, [pc, #-432]	; 5d8 <init_event_counter+0xc>
     784:	00637369 	rsbeq	r7, r3, r9, ror #6
     788:	4d6c6c50 	stclmi	12, cr6, [ip, #-320]!	; 0xfffffec0
     78c:	50697069 	rsbpl	r7, r9, r9, rrx
     790:	65747461 	ldrbvs	r7, [r4, #-1121]!	; 0x461
     794:	53006e72 	movwpl	r6, #3698	; 0xe72
     798:	616d6769 	cmnvs	sp, r9, ror #14
     79c:	53006e45 	movwpl	r6, #3653	; 0xe45
     7a0:	616d6769 	cmnvs	sp, r9, ror #14
     7a4:	746c6544 	strbtvc	r6, [ip], #-1348	; 0x544
     7a8:	006e4561 	rsbeq	r4, lr, r1, ror #10
     7ac:	63646364 	cmnvs	r4, #-1879048191	; 0x90000001
     7b0:	74740033 	ldrbtvc	r0, [r4], #-51	; 0x33
     7b4:	00726362 	rsbseq	r6, r2, r2, ror #6
     7b8:	33755f5f 	cmncc	r5, #380	; 0x17c
     7bc:	65720032 	ldrbvs	r0, [r2, #-50]!	; 0x32
     7c0:	656d7573 	strbvs	r7, [sp, #-1395]!	; 0x573
     7c4:	5f635f31 	svcpl	0x00635f31
     7c8:	74726170 	ldrbtvc	r6, [r2], #-368	; 0x170
     7cc:	6c6c5000 	stclvs	0, cr5, [ip], #-0
     7d0:	61694278 	smcvs	37928	; 0x9428
     7d4:	6c500073 	mrrcvs	0, 7, r0, r0, cr3	; <UNPREDICTABLE>
     7d8:	70694d6c 	rsbvc	r4, r9, ip, ror #26
     7dc:	61694269 	cmnvs	r9, r9, ror #4
     7e0:	6c500073 	mrrcvs	0, 7, r0, r0, cr3	; <UNPREDICTABLE>
     7e4:	6150316c 	cmpvs	r0, ip, ror #2
     7e8:	72657474 	rsbvc	r7, r5, #1946157056	; 0x74000000
     7ec:	694d006e 	stmdbvs	sp, {r1, r2, r3, r5, r6}^
     7f0:	6c506970 	mrrcvs	9, 7, r6, r0, cr0
     7f4:	6e75546c 	cdpvs	4, 7, cr5, cr5, cr12, {3}
     7f8:	74696200 	strbtvc	r6, [r9], #-512	; 0x200
     7fc:	65720073 	ldrbvs	r0, [r2, #-115]!	; 0x73
     800:	76726573 			; <UNDEFINED> instruction: 0x76726573
     804:	31326465 	teqcc	r2, r5, ror #8
     808:	73657200 	cmnvc	r5, #0
     80c:	65767265 	ldrbvs	r7, [r6, #-613]!	; 0x265
     810:	00323264 	eorseq	r3, r2, r4, ror #4
     814:	566c6c50 			; <UNDEFINED> instruction: 0x566c6c50
     818:	61694265 	cmnvs	r9, r5, ror #4
     81c:	6c500073 	mrrcvs	0, 7, r0, r0, cr3	; <UNPREDICTABLE>
     820:	7554356c 	ldrbvc	r3, [r4, #-1388]	; 0x56c
     824:	6572006e 	ldrbvs	r0, [r2, #-110]!	; 0x6e
     828:	76726573 			; <UNDEFINED> instruction: 0x76726573
     82c:	31316465 	teqcc	r1, r5, ror #8
     830:	4c4c5000 	marmi	acc0, r5, ip
     834:	61707942 	cmnvs	r0, r2, asr #18
     838:	72007373 	andvc	r7, r0, #-872415231	; 0xcc000001
     83c:	6d757365 	ldclvs	3, cr7, [r5, #-404]!	; 0xfffffe6c
     840:	6f705f65 	svcvs	0x00705f65
     844:	65746e69 	ldrbvs	r6, [r4, #-3689]!	; 0xe69
     848:	68410072 	stmdavs	r1, {r1, r4, r5, r6}^
     84c:	69443162 	stmdbvs	r4, {r1, r5, r6, r8, ip, sp}^
     850:	65720076 	ldrbvs	r0, [r2, #-118]!	; 0x76
     854:	76726573 			; <UNDEFINED> instruction: 0x76726573
     858:	38316465 	ldmdacc	r1!, {r0, r2, r5, r6, sl, sp, lr}
     85c:	73657200 	cmnvc	r5, #0
     860:	65767265 	ldrbvs	r7, [r6, #-613]!	; 0x265
     864:	00393164 	eorseq	r3, r9, r4, ror #2
     868:	65736572 	ldrbvs	r6, [r3, #-1394]!	; 0x572
     86c:	64657672 	strbtvs	r7, [r5], #-1650	; 0x672
     870:	00313331 	eorseq	r3, r1, r1, lsr r3
     874:	336c6c50 	cmncc	ip, #20480	; 0x5000
     878:	006c7443 	rsbeq	r7, ip, r3, asr #8
     87c:	43737953 	cmnmi	r3, #1359872	; 0x14c000
     880:	69446b6c 	stmdbvs	r4, {r2, r3, r5, r6, r8, r9, fp, sp, lr}^
     884:	6c500076 	mrrcvs	0, 7, r0, r0, cr6	; <UNPREDICTABLE>
     888:	6b6c436c 	blvs	1b11640 <__bss_end+0x1b0ed80>
     88c:	4574754f 	ldrbmi	r7, [r4, #-1359]!	; 0x54f
     890:	5f5f006e 	svcpl	0x005f006e
     894:	756d6363 	strbvc	r6, [sp, #-867]!	; 0x363
     898:	6270615f 	rsbsvs	r6, r0, #-1073741801	; 0xc0000017
     89c:	61725f32 	cmnvs	r2, r2, lsr pc
     8a0:	5f6f6974 	svcpl	0x006f6974
     8a4:	30676572 	rsbcc	r6, r7, r2, ror r5
     8a8:	5f383530 	svcpl	0x00383530
     8ac:	624d0074 	subvs	r0, sp, #116	; 0x74
     8b0:	65527375 	ldrbvs	r7, [r2, #-885]	; 0x375
     8b4:	52746573 	rsbspl	r6, r4, #482344960	; 0x1cc00000
     8b8:	47006765 	strmi	r6, [r0, -r5, ror #14]
     8bc:	79487570 	stmdbvc	r8, {r4, r5, r6, r8, sl, ip, sp, lr}^
     8c0:	70630064 	rsbvc	r0, r3, r4, rrx
     8c4:	64695f75 	strbtvs	r5, [r9], #-3957	; 0xf75
     8c8:	62684100 	rsbvs	r4, r8, #0
     8cc:	65736552 	ldrbvs	r6, [r3, #-1362]!	; 0x552
     8d0:	41003074 	tstmi	r0, r4, ror r0
     8d4:	65526268 	ldrbvs	r6, [r2, #-616]	; 0x268
     8d8:	31746573 	cmncc	r4, r3, ror r5
     8dc:	62684100 	rsbvs	r4, r8, #0
     8e0:	65736552 	ldrbvs	r6, [r3, #-1362]!	; 0x552
     8e4:	63003274 	movwvs	r3, #628	; 0x274
     8e8:	5f327570 	svcpl	0x00327570
     8ec:	65736572 	ldrbvs	r6, [r3, #-1394]!	; 0x572
     8f0:	64530074 	ldrbvs	r0, [r3], #-116	; 0x74
     8f4:	006e456d 	rsbeq	r4, lr, sp, ror #10
     8f8:	32627041 	rsbcc	r7, r2, #65	; 0x41
     8fc:	65746147 	ldrbvs	r6, [r4, #-327]!	; 0x147
     900:	435f5f00 	cmpmi	pc, #0
     904:	5f554d43 	svcpl	0x00554d43
     908:	4950494d 	ldmdbmi	r0, {r0, r2, r3, r6, r8, fp, lr}^
     90c:	4c4c505f 	mcrrmi	0, 5, r5, ip, cr15
     910:	4745525f 	smlsldmi	r5, r5, pc, r2	; <UNPREDICTABLE>
     914:	30343030 	eorscc	r3, r4, r0, lsr r0
     918:	6c6c5000 	stclvs	0, cr5, [ip], #-0
     91c:	636f4c31 	cmnvs	pc, #12544	; 0x3100
     920:	6c50006b 	mrrcvs	0, 6, r0, r0, cr11	; <UNPREDICTABLE>
     924:	6172446c 	cmnvs	r2, ip, ror #8
     928:	6942306d 	stmdbvs	r2, {r0, r2, r3, r5, r6, ip, sp}^
     92c:	61007361 	tstvs	r0, r1, ror #6
     930:	655f7078 	ldrbvs	r7, [pc, #-120]	; 8c0 <disable_dcache+0x4>
     934:	746e6576 	strbtvc	r6, [lr], #-1398	; 0x576
     938:	6c655300 	stclvs	3, cr5, [r5], #-0
     93c:	4f353236 	svcmi	0x00353236
     940:	30353772 	eorscc	r3, r5, r2, ror r7
     944:	635f5f00 	cmpvs	pc, #0
     948:	5f756d63 	svcpl	0x00756d63
     94c:	326c6c70 	rsbcc	r6, ip, #28672	; 0x7000
     950:	6765725f 			; <UNDEFINED> instruction: 0x6765725f
     954:	38303030 	ldmdacc	r0!, {r4, r5, ip, sp}
     958:	4400745f 	strmi	r7, [r0], #-1119	; 0x45f
     95c:	476d6172 			; <UNDEFINED> instruction: 0x476d6172
     960:	00657461 	rsbeq	r7, r5, r1, ror #8
     964:	31626841 	cmncc	r2, r1, asr #16
     968:	536b6c43 	cmnpl	fp, #17152	; 0x4300
     96c:	50006372 	andpl	r6, r0, r2, ror r3
     970:	65446c6c 	strbvs	r6, [r4, #-3180]	; 0xc6c
     974:	73616942 	cmnvc	r1, #1081344	; 0x108000
     978:	62704100 	rsbsvs	r4, r0, #0
     97c:	76694431 			; <UNDEFINED> instruction: 0x76694431
     980:	646f4d00 	strbtvs	r4, [pc], #-3328	; 988 <enable_program_flow_prediction+0x8>
     984:	6c655365 	stclvs	3, cr5, [r5], #-404	; 0xfffffe6c
     988:	65654600 	strbvs	r4, [r5, #-1536]!	; 0x600
     98c:	63614264 	cmnvs	r1, #1073741830	; 0x40000006
     990:	7669446b 	strbtvc	r4, [r9], -fp, ror #8
     994:	73657200 	cmnvc	r5, #0
     998:	65767265 	ldrbvs	r7, [r6, #-613]!	; 0x265
     99c:	00313564 	eorseq	r3, r1, r4, ror #10
     9a0:	356c6c50 	strbcc	r6, [ip, #-3152]!	; 0xc50
     9a4:	006c7443 	rsbeq	r7, ip, r3, asr #8
     9a8:	5f6b6c63 	svcpl	0x006b6c63
     9ac:	5f766964 	svcpl	0x00766964
     9b0:	5f5f0074 	svcpl	0x005f0074
     9b4:	554d4343 	strbpl	r4, [sp, #-835]	; 0x343
     9b8:	4c4c505f 	mcrrmi	0, 5, r5, ip, cr15
     9bc:	45525f35 	ldrbmi	r5, [r2, #-3893]	; 0xf35
     9c0:	32303047 	eorscc	r3, r0, #71	; 0x47
     9c4:	44530030 	ldrbmi	r0, [r3], #-48	; 0x30
     9c8:	00327669 	eorseq	r7, r2, r9, ror #12
     9cc:	454c4c50 	strbmi	r4, [ip, #-3152]	; 0xc50
     9d0:	5f5f006e 	svcpl	0x005f006e
     9d4:	756d6363 	strbvc	r6, [sp, #-867]!	; 0x363
     9d8:	6c6c705f 	stclvs	0, cr7, [ip], #-380	; 0xfffffe84
     9dc:	65725f31 	ldrbvs	r5, [r2, #-3889]!	; 0xf31
     9e0:	30303067 	eorscc	r3, r0, r7, rrx
     9e4:	00745f30 	rsbseq	r5, r4, r0, lsr pc
     9e8:	446c6c50 	strbtmi	r6, [ip], #-3152	; 0xc50
     9ec:	43317264 	teqmi	r1, #1073741830	; 0x40000006
     9f0:	5f006c74 	svcpl	0x00006c74
     9f4:	4d43435f 	stclmi	3, cr4, [r3, #-380]	; 0xfffffe84
     9f8:	4c505f55 	mrrcmi	15, 5, r5, r0, cr5
     9fc:	525f324c 	subspl	r3, pc, #-1073741820	; 0xc0000004
     a00:	30304745 	eorscc	r4, r0, r5, asr #14
     a04:	41003830 	tstmi	r0, r0, lsr r8
     a08:	70416274 	subvc	r6, r1, r4, ror r2
     a0c:	6b6c4362 	blvs	1b1179c <__bss_end+0x1b0eedc>
     a10:	00766944 	rsbseq	r6, r6, r4, asr #18
     a14:	5f746573 	svcpl	0x00746573
     a18:	006c6c70 	rsbeq	r6, ip, r0, ror ip
     a1c:	31627041 	cmncc	r2, r1, asr #32
     a20:	65736552 	ldrbvs	r6, [r3, #-1362]!	; 0x552
     a24:	644c0074 	strbvs	r0, [ip], #-116	; 0x74
     a28:	6e45316f 	dvfvssz	f3, f5, #10.0
     a2c:	73657200 	cmnvc	r5, #0
     a30:	65767265 	ldrbvs	r7, [r6, #-613]!	; 0x265
     a34:	72003064 	andvc	r3, r0, #100	; 0x64
     a38:	72657365 	rsbvc	r7, r5, #-1811939327	; 0x94000001
     a3c:	31646576 	smccc	18006	; 0x4656
     a40:	73657200 	cmnvc	r5, #0
     a44:	65767265 	ldrbvs	r7, [r6, #-613]!	; 0x265
     a48:	72003264 	andvc	r3, r0, #1073741830	; 0x40000006
     a4c:	72657365 	rsbvc	r7, r5, #-1811939327	; 0x94000001
     a50:	33646576 	cmncc	r4, #494927872	; 0x1d800000
     a54:	73657200 	cmnvc	r5, #0
     a58:	65767265 	ldrbvs	r7, [r6, #-613]!	; 0x265
     a5c:	72003464 	andvc	r3, r0, #1677721600	; 0x64000000
     a60:	72657365 	rsbvc	r7, r5, #-1811939327	; 0x94000001
     a64:	35646576 	strbcc	r6, [r4, #-1398]!	; 0x576
     a68:	73657200 	cmnvc	r5, #0
     a6c:	65767265 	ldrbvs	r7, [r6, #-613]!	; 0x265
     a70:	72003664 	andvc	r3, r0, #104857600	; 0x6400000
     a74:	72657365 	rsbvc	r7, r5, #-1811939327	; 0x94000001
     a78:	37646576 			; <UNDEFINED> instruction: 0x37646576
     a7c:	73657200 	cmnvc	r5, #0
     a80:	65767265 	ldrbvs	r7, [r6, #-613]!	; 0x265
     a84:	50003964 	andpl	r3, r0, r4, ror #18
     a88:	65446c6c 	strbvs	r6, [r4, #-3180]	; 0xc6c
     a8c:	74746150 	ldrbtvc	r6, [r4], #-336	; 0x150
     a90:	006e7265 	rsbeq	r7, lr, r5, ror #4
     a94:	72636163 	rsbvc	r6, r3, #-1073741800	; 0xc0000018
     a98:	72777000 	rsbsvc	r7, r7, #0
     a9c:	6765725f 			; <UNDEFINED> instruction: 0x6765725f
     aa0:	69734300 	ldmdbvs	r3!, {r8, r9, lr}^
     aa4:	766d0030 			; <UNDEFINED> instruction: 0x766d0030
     aa8:	64615f61 	strbtvs	r5, [r1], #-3937	; 0xf61
     aac:	46007264 	strmi	r7, [r0], -r4, ror #4
     ab0:	4d636172 	stfmie	f6, [r3, #-456]!	; 0xfffffe38
     ab4:	5000646f 	andpl	r6, r0, pc, ror #8
     ab8:	54535f4d 	ldrbpl	r5, [r3], #-3917	; 0xf4d
     abc:	42444e41 	submi	r4, r4, #1040	; 0x410
     ac0:	52505f59 	subspl	r5, r0, #356	; 0x164
     ac4:	5f544e49 	svcpl	0x00544e49
     ac8:	34494343 	strbcc	r4, [r9], #-835	; 0x343
     acc:	525f3030 	subspl	r3, pc, #48	; 0x30
     ad0:	5f004745 	svcpl	0x00004745
     ad4:	0038755f 	eorseq	r7, r8, pc, asr r5
     ad8:	72727270 	rsbsvc	r7, r2, #7
     adc:	6c6c5000 	stclvs	0, cr5, [ip], #-0
     ae0:	69647541 	stmdbvs	r4!, {r0, r6, r8, sl, ip, sp, lr}^
     ae4:	7461506f 	strbtvc	r5, [r1], #-111	; 0x6f
     ae8:	6e726574 	mrcvs	5, 3, r6, cr2, cr4, {3}
     aec:	62747400 	rsbsvs	r7, r4, #0
     af0:	0072305f 	rsbseq	r3, r2, pc, asr r0
     af4:	30697053 	rsbcc	r7, r9, r3, asr r0
     af8:	69705300 	ldmdbvs	r0!, {r8, r9, ip, lr}^
     afc:	68410031 	stmdavs	r1, {r0, r4, r5}^
     b00:	74614762 	strbtvc	r4, [r1], #-1890	; 0x762
     b04:	72003065 	andvc	r3, r0, #101	; 0x65
     b08:	72657365 	rsbvc	r7, r5, #-1811939327	; 0x94000001
     b0c:	32646576 	rsbcc	r6, r4, #494927872	; 0x1d800000
     b10:	00313530 	eorseq	r3, r1, r0, lsr r5
     b14:	52756d43 	rsbspl	r6, r5, #4288	; 0x10c0
     b18:	5f006765 	svcpl	0x00006765
     b1c:	6d63635f 	stclvs	3, cr6, [r3, #-380]!	; 0xfffffe84
     b20:	6c705f75 	ldclvs	15, cr5, [r0], #-468	; 0xfffffe2c
     b24:	636f6c6c 	cmnvs	pc, #27648	; 0x6c00
     b28:	65725f6b 	ldrbvs	r5, [r2, #-3947]!	; 0xf6b
     b2c:	30323067 	eorscc	r3, r2, r7, rrx
     b30:	00745f30 	rsbseq	r5, r4, r0, lsr pc
     b34:	506c6c50 	rsbpl	r6, ip, r0, asr ip
     b38:	70697265 	rsbvc	r7, r9, r5, ror #4
     b3c:	61694268 	cmnvs	r9, r8, ror #4
     b40:	4d500073 	ldclmi	0, cr0, [r0, #-460]	; 0xfffffe34
     b44:	4154535f 	cmpmi	r4, pc, asr r3
     b48:	5942444e 	stmdbpl	r2, {r1, r2, r3, r6, sl, lr}^
     b4c:	5345545f 	movtpl	r5, #21599	; 0x545f
     b50:	65720054 	ldrbvs	r0, [r2, #-84]!	; 0x54
     b54:	76726573 			; <UNDEFINED> instruction: 0x76726573
     b58:	30316465 	eorscc	r6, r1, r5, ror #8
     b5c:	72460031 	subvc	r0, r6, #49	; 0x31
     b60:	6f4d6361 	svcvs	0x004d6361
     b64:	6e006564 	cfsh32vs	mvfx6, mvfx0, #52
     b68:	00727272 	rsbseq	r7, r2, r2, ror r2
     b6c:	50706d74 	rsbspl	r6, r0, r4, ror sp
     b70:	6d007274 	sfmvs	f7, 4, [r0, #-464]	; 0xfffffe30
     b74:	705f6d65 	subsvc	r6, pc, r5, ror #26
     b78:	5f617261 	svcpl	0x00617261
     b7c:	6f666e69 	svcvs	0x00666e69
     b80:	635f5f00 	cmpvs	pc, #0
     b84:	5f756d63 	svcpl	0x00756d63
     b88:	5f676572 	svcpl	0x00676572
     b8c:	7473696c 	ldrbtvc	r6, [r3], #-2412	; 0x96c
     b90:	6300745f 	movwvs	r7, #1119	; 0x45f
     b94:	6d5f6b6c 	vldrvs	d22, [pc, #-432]	; 9ec <mem_preload_tlb+0x2c>
     b98:	5f637369 	svcpl	0x00637369
     b9c:	6c500074 	mrrcvs	0, 7, r0, r0, cr4	; <UNPREDICTABLE>
     ba0:	6172446c 	cmnvs	r2, ip, ror #8
     ba4:	6942316d 	stmdbvs	r2, {r0, r2, r3, r5, r6, r8, ip, sp}^
     ba8:	65527361 	ldrbvs	r7, [r2, #-865]	; 0x361
     bac:	79730067 	ldmdbvc	r3!, {r0, r1, r2, r5, r6}^
     bb0:	76655f73 	uqsub16vc	r5, r5, r3
     bb4:	00746e65 	rsbseq	r6, r4, r5, ror #28
     bb8:	366c6c70 			; <UNDEFINED> instruction: 0x366c6c70
     bbc:	6169625f 	cmnvs	r9, pc, asr r2
     bc0:	6c500073 	mrrcvs	0, 7, r0, r0, cr3	; <UNPREDICTABLE>
     bc4:	4d34326c 	lfmmi	f3, 4, [r4, #-432]!	; 0xfffffe50
     bc8:	76696450 			; <UNDEFINED> instruction: 0x76696450
     bcc:	61724400 	cmnvs	r2, r0, lsl #8
     bd0:	6766436d 	strbvs	r4, [r6, -sp, ror #6]!
     bd4:	635f5f00 	cmpvs	pc, #0
     bd8:	5f756d63 	svcpl	0x00756d63
     bdc:	31626861 	cmncc	r2, r1, ror #16
     be0:	7461725f 	strbtvc	r7, [r1], #-607	; 0x25f
     be4:	725f6f69 	subsvc	r6, pc, #420	; 0x1a4
     be8:	30306765 	eorscc	r6, r0, r5, ror #14
     bec:	745f3435 	ldrbvc	r3, [pc], #-1077	; bf4 <jump_to_resume0_nommu+0x74>
     bf0:	6c6c7000 	stclvs	0, cr7, [ip], #-0
     bf4:	69625f31 	stmdbvs	r2!, {r0, r4, r5, r8, r9, sl, fp, ip, lr}^
     bf8:	74007361 	strvc	r7, [r0], #-865	; 0x361
     bfc:	315f6274 	cmpcc	pc, r4, ror r2	; <UNPREDICTABLE>
     c00:	65720072 	ldrbvs	r0, [r2, #-114]!	; 0x72
     c04:	76726573 			; <UNDEFINED> instruction: 0x76726573
     c08:	31386465 	teqcc	r8, r5, ror #8
     c0c:	5f4d5000 	svcpl	0x004d5000
     c10:	4e415453 	mcrmi	4, 2, r5, cr1, cr3, {2}
     c14:	5f594244 	svcpl	0x00594244
     c18:	4e495250 	mcrmi	2, 2, r5, cr9, cr0, {2}
     c1c:	41435f54 	cmpmi	r3, r4, asr pc
     c20:	5f454843 	svcpl	0x00454843
     c24:	5f424c54 	svcpl	0x00424c54
     c28:	5353494d 	cmppl	r3, #1261568	; 0x134000
     c2c:	435f5f00 	cmpmi	pc, #0
     c30:	5f554d43 	svcpl	0x00554d43
     c34:	32425041 	subcc	r5, r2, #65	; 0x41
     c38:	5441525f 	strbpl	r5, [r1], #-607	; 0x25f
     c3c:	525f4f49 	subspl	r4, pc, #292	; 0x124
     c40:	30304745 	eorscc	r4, r0, r5, asr #14
     c44:	50003835 	andpl	r3, r0, r5, lsr r8
     c48:	72446c6c 	subvc	r6, r4, #27648	; 0x6c00
     c4c:	50316d61 	eorspl	r6, r1, r1, ror #26
     c50:	65747461 	ldrbvs	r7, [r4, #-1121]!	; 0x461
     c54:	65526e72 	ldrbvs	r6, [r2, #-3698]	; 0xe72
     c58:	50003067 	andpl	r3, r0, r7, rrx
     c5c:	72446c6c 	subvc	r6, r4, #27648	; 0x6c00
     c60:	50316d61 	eorspl	r6, r1, r1, ror #26
     c64:	65747461 	ldrbvs	r7, [r4, #-1121]!	; 0x461
     c68:	65526e72 	ldrbvs	r6, [r2, #-3698]	; 0xe72
     c6c:	72003167 	andvc	r3, r0, #-1073741799	; 0xc0000019
     c70:	72657365 	rsbvc	r7, r5, #-1811939327	; 0x94000001
     c74:	31646576 	smccc	18006	; 0x4656
     c78:	4c003136 	stfmis	f3, [r0], {54}	; 0x36
     c7c:	546b636f 	strbtpl	r6, [fp], #-879	; 0x36f
     c80:	00656d69 	rsbeq	r6, r5, r9, ror #26
     c84:	31626841 	cmncc	r2, r1, asr #16
     c88:	44657250 	strbtmi	r7, [r5], #-592	; 0x250
     c8c:	50007669 	andpl	r7, r0, r9, ror #12
     c90:	65566c6c 	ldrbvs	r6, [r6, #-3180]	; 0xc6c
     c94:	506f6964 	rsbpl	r6, pc, r4, ror #18
     c98:	65747461 	ldrbvs	r7, [r4, #-1121]!	; 0x461
     c9c:	50006e72 	andpl	r6, r0, r2, ror lr
     ca0:	65566c6c 	ldrbvs	r6, [r6, #-3180]	; 0xc6c
     ca4:	74746150 	ldrbtvc	r6, [r4], #-336	; 0x150
     ca8:	006e7265 	rsbeq	r7, lr, r5, ror #4
     cac:	65736572 	ldrbvs	r6, [r3, #-1394]!	; 0x572
     cb0:	64657672 	strbtvs	r7, [r5], #-1650	; 0x672
     cb4:	00313032 	eorseq	r3, r1, r2, lsr r0
     cb8:	65736572 	ldrbvs	r6, [r3, #-1394]!	; 0x572
     cbc:	64657672 	strbtvs	r7, [r5], #-1650	; 0x672
     cc0:	49584100 	ldmdbmi	r8, {r8, lr}^
     cc4:	446b6c43 	strbtmi	r6, [fp], #-3139	; 0xc43
     cc8:	41007669 	tstmi	r0, r9, ror #12
     ccc:	47316270 			; <UNDEFINED> instruction: 0x47316270
     cd0:	00657461 	rsbeq	r7, r5, r1, ror #8
     cd4:	65736572 	ldrbvs	r6, [r3, #-1394]!	; 0x572
     cd8:	64657672 	strbtvs	r7, [r5], #-1650	; 0x672
     cdc:	72003139 	andvc	r3, r0, #1073741838	; 0x4000000e
     ce0:	72657365 	rsbvc	r7, r5, #-1811939327	; 0x94000001
     ce4:	39646576 	stmdbcc	r4!, {r1, r2, r4, r5, r6, r8, sl, sp, lr}^
     ce8:	65720032 	ldrbvs	r0, [r2, #-50]!	; 0x32
     cec:	76726573 			; <UNDEFINED> instruction: 0x76726573
     cf0:	33396465 	teqcc	r9, #1694498816	; 0x65000000
     cf4:	73736300 	cmnvc	r3, #0
     cf8:	4d500072 	ldclmi	0, cr0, [r0, #-456]	; 0xfffffe38
     cfc:	4154535f 	cmpmi	r4, pc, asr r3
     d00:	5942444e 	stmdbpl	r2, {r1, r2, r3, r6, sl, lr}^
     d04:	4952505f 	ldmdbmi	r2, {r0, r1, r2, r3, r4, r6, ip, lr}^
     d08:	435f544e 	cmpmi	pc, #1308622848	; 0x4e000000
     d0c:	5f535550 	svcpl	0x00535550
     d10:	535f4f49 	cmppl	pc, #292	; 0x124
     d14:	55544154 	ldrbpl	r4, [r4, #-340]	; 0x154
     d18:	65720053 	ldrbvs	r0, [r2, #-83]!	; 0x53
     d1c:	76726573 			; <UNDEFINED> instruction: 0x76726573
     d20:	32316465 	eorscc	r6, r1, #1694498816	; 0x65000000
     d24:	6c500031 	mrrcvs	0, 3, r0, r0, cr1	; <UNPREDICTABLE>
     d28:	7443326c 	strbvc	r3, [r3], #-620	; 0x26c
     d2c:	5f5f006c 	svcpl	0x005f006c
     d30:	554d4343 	strbpl	r4, [sp, #-835]	; 0x343
     d34:	4745525f 	smlsldmi	r5, r5, pc, r2	; <UNPREDICTABLE>
     d38:	53494c5f 	movtpl	r4, #40031	; 0x9c5f
     d3c:	4d500054 	ldclmi	0, cr0, [r0, #-336]	; 0xfffffeb0
     d40:	4154535f 	cmpmi	r4, pc, asr r3
     d44:	5942444e 	stmdbpl	r2, {r1, r2, r3, r6, sl, lr}^
     d48:	4952505f 	ldmdbmi	r2, {r0, r1, r2, r3, r4, r6, ip, lr}^
     d4c:	525f544e 	subspl	r5, pc, #1308622848	; 0x4e000000
     d50:	4d555345 	ldclmi	3, cr5, [r5, #-276]	; 0xfffffeec
     d54:	614e0045 	cmpvs	lr, r5, asr #32
     d58:	0030646e 	eorseq	r6, r0, lr, ror #8
     d5c:	6d5f7761 	ldclvs	7, cr7, [pc, #-388]	; be0 <jump_to_resume0_nommu+0x60>
     d60:	705f6d65 	subsvc	r6, pc, r5, ror #26
     d64:	00617261 	rsbeq	r7, r1, r1, ror #4
     d68:	43435f5f 	movtmi	r5, #16223	; 0x3f5f
     d6c:	505f554d 	subspl	r5, pc, sp, asr #10
     d70:	5f364c4c 	svcpl	0x00364c4c
     d74:	30474552 	subcc	r4, r7, r2, asr r5
     d78:	00383230 	eorseq	r3, r8, r0, lsr r2
     d7c:	396c6c50 	stmdbcc	ip!, {r4, r6, sl, fp, sp, lr}^
     d80:	006c7443 	rsbeq	r7, ip, r3, asr #8
     d84:	625f7073 	subsvs	r7, pc, #115	; 0x73
     d88:	756b6361 	strbvc	r6, [fp, #-865]!	; 0x361
     d8c:	6f6c0070 	svcvs	0x006c0070
     d90:	665f706f 	ldrbvs	r7, [pc], -pc, rrx
     d94:	0067616c 	rsbeq	r6, r7, ip, ror #2
     d98:	79737562 	ldmdbvc	r3!, {r1, r5, r6, r8, sl, ip, sp, lr}^
     d9c:	6961775f 	stmdbvs	r1!, {r0, r1, r2, r3, r4, r6, r8, r9, sl, ip, sp, lr}^
     da0:	676e6974 			; <UNDEFINED> instruction: 0x676e6974
     da4:	656c6300 	strbvs	r6, [ip, #-768]!	; 0x300
     da8:	6d5f7261 	lfmvs	f7, 2, [pc, #-388]	; c2c <jump_to_resume0_nommu+0xac>
     dac:	665f6d65 	ldrbvs	r6, [pc], -r5, ror #26
     db0:	0067616c 	rsbeq	r6, r7, ip, ror #2
     db4:	65766173 	ldrbvs	r6, [r6, #-371]!	; 0x173
     db8:	6d656d5f 	stclvs	13, cr6, [r5, #-380]!	; 0xfffffe84
     dbc:	6174735f 	cmnvs	r4, pc, asr r3
     dc0:	00737574 	rsbseq	r7, r3, r4, ror r5
     dc4:	61746164 	cmnvs	r4, r4, ror #2
     dc8:	6d656d00 	stclvs	13, cr6, [r5, #-0]
     dcc:	6174735f 	cmnvs	r4, pc, asr r3
     dd0:	5f737574 	svcpl	0x00737574
     dd4:	74696e69 	strbtvc	r6, [r9], #-3689	; 0xe69
     dd8:	6d6f6e5f 	stclvs	14, cr6, [pc, #-380]!	; c64 <__save_processor_state+0x24>
     ddc:	7300756d 	movwvc	r7, #1389	; 0x56d
     de0:	5f776f68 	svcpl	0x00776f68
     de4:	5f6d656d 	svcpl	0x006d656d
     de8:	74617473 	strbtvc	r7, [r1], #-1139	; 0x473
     dec:	69007375 	stmdbvs	r0, {r0, r2, r4, r5, r6, r8, r9, ip, sp, lr}
     df0:	69685f6f 	stmdbvs	r8!, {r0, r1, r2, r3, r5, r6, r8, r9, sl, fp, ip, lr}^
     df4:	73006867 	movwvc	r6, #2151	; 0x867
     df8:	5f657661 	svcpl	0x00657661
     dfc:	78757063 	ldmdavc	r5!, {r0, r1, r5, r6, ip, sp, lr}^
     e00:	6d656d5f 	stclvs	13, cr6, [r5, #-380]!	; 0xfffffe84
     e04:	6174735f 	cmnvs	r4, pc, asr r3
     e08:	5f737574 	svcpl	0x00737574
     e0c:	6d6d6f6e 	stclvs	15, cr6, [sp, #-440]!	; 0xfffffe48
     e10:	656d0075 	strbvs	r0, [sp, #-117]!	; 0x75
     e14:	74735f6d 	ldrbtvc	r5, [r3], #-3949	; 0xf6d
     e18:	73757461 	cmnvc	r5, #1627389952	; 0x61000000
     e1c:	6978655f 	ldmdbvs	r8!, {r0, r1, r2, r3, r4, r6, r8, sl, sp, lr}^
     e20:	6f690074 	svcvs	0x00690074
     e24:	696e695f 	stmdbvs	lr!, {r0, r1, r2, r3, r4, r6, r8, fp, sp, lr}^
     e28:	72610074 	rsbvc	r0, r1, #116	; 0x74
     e2c:	612f6863 	teqvs	pc, r3, ror #16
     e30:	6d2f6d72 	stcvs	13, cr6, [pc, #-456]!	; c70 <__save_processor_state+0x30>
     e34:	2d686361 	stclcs	3, cr6, [r8, #-388]!	; 0xfffffe7c
     e38:	786e7573 	stmdavc	lr!, {r0, r1, r4, r5, r6, r8, sl, ip, sp, lr}^
     e3c:	6d702f69 	ldclvs	15, cr2, [r0, #-420]!	; 0xfffffe5c
     e40:	6174732f 	cmnvs	r4, pc, lsr #6
     e44:	7962646e 	stmdbvc	r2!, {r1, r2, r3, r5, r6, sl, sp, lr}^
     e48:	2f2e2e2f 	svccs	0x002e2e2f
     e4c:	645f6d70 	ldrbvs	r6, [pc], #-3440	; e54 <set_copro_default+0x1c>
     e50:	67756265 	ldrbvs	r6, [r5, -r5, ror #4]!
     e54:	7300632e 	movwvc	r6, #814	; 0x32e
     e58:	5f657661 	svcpl	0x00657661
     e5c:	5f6d656d 	svcpl	0x006d656d
     e60:	74617473 	strbtvc	r7, [r1], #-1139	; 0x473
     e64:	6e5f7375 	mrcvs	3, 2, r7, cr15, cr5, {3}
     e68:	756d6d6f 	strbvc	r6, [sp, #-3439]!	; 0xd6f
     e6c:	74656700 	strbtvc	r6, [r5], #-1792	; 0x700
     e70:	6d656d5f 	stclvs	13, cr6, [r5, #-380]!	; 0xfffffe84
     e74:	6174735f 	cmnvs	r4, pc, asr r3
     e78:	00737574 	rsbseq	r7, r3, r4, ror r5
     e7c:	5f6d656d 	svcpl	0x006d656d
     e80:	74617473 	strbtvc	r7, [r1], #-1139	; 0x473
     e84:	635f7375 	cmpvs	pc, #-738197503	; 0xd4000001
     e88:	7261656c 	rsbvc	r6, r1, #452984832	; 0x1b000000
     e8c:	6d656d00 	stclvs	13, cr6, [r5, #-0]
     e90:	6174735f 	cmnvs	r4, pc, asr r3
     e94:	5f737574 	svcpl	0x00737574
     e98:	74696e69 	strbtvc	r6, [r9], #-3689	; 0xe69
     e9c:	69727000 	ldmdbvs	r2!, {ip, sp, lr}^
     ea0:	665f746e 	ldrbvs	r7, [pc], -lr, ror #8
     ea4:	0067616c 	rsbeq	r6, r7, ip, ror #2
     ea8:	695f6f69 	ldmdbvs	pc, {r0, r3, r5, r6, r8, r9, sl, fp, sp, lr}^	; <UNPREDICTABLE>
     eac:	5f74696e 	svcpl	0x0074696e
     eb0:	00776f6c 	rsbseq	r6, r7, ip, ror #30
     eb4:	65766173 	ldrbvs	r6, [r6, #-371]!	; 0x173
     eb8:	6d656d5f 	stclvs	13, cr6, [r5, #-380]!	; 0xfffffe84
     ebc:	616c665f 	cmnvs	ip, pc, asr r6
     ec0:	6f690067 	svcvs	0x00690067
     ec4:	696e695f 	stmdbvs	lr!, {r0, r1, r2, r3, r4, r6, r8, fp, sp, lr}^
     ec8:	69685f74 	stmdbvs	r8!, {r2, r4, r5, r6, r8, r9, sl, fp, ip, lr}^
     ecc:	61006867 	tstvs	r0, r7, ror #16
     ed0:	2f686372 	svccs	0x00686372
     ed4:	2f6d7261 	svccs	0x006d7261
     ed8:	6863616d 	stmdavs	r3!, {r0, r2, r3, r5, r6, r8, sp, lr}^
     edc:	6e75732d 	cdpvs	3, 7, cr7, cr5, cr13, {1}
     ee0:	702f6978 	eorvc	r6, pc, r8, ror r9	; <UNPREDICTABLE>
     ee4:	74732f6d 	ldrbtvc	r2, [r3], #-3949	; 0xf6d
     ee8:	62646e61 	rsbvs	r6, r4, #1552	; 0x610
     eec:	2e2e2f79 	mcrcs	15, 1, r2, cr14, cr9, {3}
     ef0:	6d656d2f 	stclvs	13, cr6, [r5, #-188]!	; 0xffffff44
     ef4:	6d69745f 	cfstrdvs	mvd7, [r9, #-380]!	; 0xfffffe84
     ef8:	2e676e69 	cdpcs	14, 6, cr6, cr7, cr9, {3}
     efc:	5f490063 	svcpl	0x00490063
     f00:	48434143 	stmdami	r3, {r0, r1, r6, r8, lr}^
     f04:	494d5f45 	stmdbmi	sp, {r0, r2, r6, r8, r9, sl, fp, ip, lr}^
     f08:	65005353 	strvs	r5, [r0, #-851]	; 0x353
     f0c:	746e6576 	strbtvc	r6, [lr], #-1398	; 0x576
     f10:	746e635f 	strbtvc	r6, [lr], #-863	; 0x35f
     f14:	63616200 	cmnvs	r1, #0
     f18:	5f70756b 	svcpl	0x0070756b
     f1c:	66726570 			; <UNDEFINED> instruction: 0x66726570
     f20:	756f635f 	strbvc	r6, [pc, #-863]!	; bc9 <jump_to_resume0_nommu+0x49>
     f24:	7265746e 	rsbvc	r7, r5, #1845493760	; 0x6e000000
     f28:	616e655f 	cmnvs	lr, pc, asr r5
     f2c:	5f656c62 	svcpl	0x00656c62
     f30:	00676572 	rsbeq	r6, r7, r2, ror r5
     f34:	4c545f49 	mrrcmi	15, 4, r5, r4, cr9
     f38:	494d5f42 	stmdbmi	sp, {r1, r6, r8, r9, sl, fp, ip, lr}^
     f3c:	63005353 	movwvs	r5, #851	; 0x353
     f40:	746e756f 	strbtvc	r7, [lr], #-1391	; 0x56f
     f44:	655f7265 	ldrbvs	r7, [pc, #-613]	; ce7 <__save_processor_state+0xa7>
     f48:	6c62616e 	stfvse	f6, [r2], #-440	; 0xfffffe48
     f4c:	61740065 	cmnvs	r4, r5, rrx
     f50:	74656772 	strbtvc	r6, [r5], #-1906	; 0x772
     f54:	73657200 	cmnvc	r5, #0
     f58:	635f7465 	cmpvs	pc, #1694498816	; 0x65000000
     f5c:	746e756f 	strbtvc	r7, [lr], #-1391	; 0x56f
     f60:	62007265 	andvs	r7, r0, #1342177286	; 0x50000006
     f64:	756b6361 	strbvc	r6, [fp, #-865]!	; 0x361
     f68:	65705f70 	ldrbvs	r5, [r0, #-3952]!	; 0xf70
     f6c:	6f636672 	svcvs	0x00636672
     f70:	65746e75 	ldrbvs	r6, [r4, #-3701]!	; 0xe75
     f74:	65640072 	strbvs	r0, [r4, #-114]!	; 0x72
     f78:	5f79616c 	svcpl	0x0079616c
     f7c:	5f007375 	svcpl	0x00007375
     f80:	3233735f 	eorscc	r7, r3, #2080374785	; 0x7c000001
     f84:	5f737500 	svcpl	0x00737500
     f88:	00746e63 	rsbseq	r6, r4, r3, ror #28
     f8c:	74696e69 	strbtvc	r6, [r9], #-3689	; 0xe69
     f90:	7265705f 	rsbvc	r7, r5, #95	; 0x5f
     f94:	756f6366 	strbvc	r6, [pc, #-870]!	; c36 <jump_to_resume0_nommu+0xb6>
     f98:	7265746e 	rsbvc	r7, r5, #1845493760	; 0x6e000000
     f9c:	6e690073 	mcrvs	0, 3, r0, cr9, cr3, {3}
     fa0:	655f7469 	ldrbvs	r7, [pc, #-1129]	; b3f <jump_to_suspend+0xb>
     fa4:	746e6576 	strbtvc	r6, [lr], #-1398	; 0x576
     fa8:	756f635f 	strbvc	r6, [pc, #-863]!	; c51 <__save_processor_state+0x11>
     fac:	7265746e 	rsbvc	r7, r5, #1845493760	; 0x6e000000
     fb0:	616e6500 	cmnvs	lr, r0, lsl #10
     fb4:	5f656c62 	svcpl	0x00656c62
     fb8:	69766964 	ldmdbvs	r6!, {r2, r5, r6, r8, fp, sp, lr}^
     fbc:	00726564 	rsbseq	r6, r2, r4, ror #10
     fc0:	6e616863 	cdpvs	8, 6, cr6, cr1, cr3, {3}
     fc4:	725f6567 	subsvc	r6, pc, #432013312	; 0x19c00000
     fc8:	69746e75 	ldmdbvs	r4!, {r0, r2, r4, r5, r6, r9, sl, fp, sp, lr}^
     fcc:	655f656d 	ldrbvs	r6, [pc, #-1389]	; a67 <mem_preload_tlb+0xa7>
     fd0:	6f00766e 	svcvs	0x0000766e
     fd4:	68726576 	ldmdavs	r2!, {r1, r2, r4, r5, r6, r8, sl, sp, lr}^
     fd8:	00646165 	rsbeq	r6, r4, r5, ror #2
     fdc:	5f746567 	svcpl	0x00746567
     fe0:	6c637963 	stclvs	9, cr7, [r3], #-396	; 0xfffffe74
     fe4:	756f6365 	strbvc	r6, [pc, #-869]!	; c87 <__save_processor_state+0x47>
     fe8:	7400746e 	strvc	r7, [r0], #-1134	; 0x46e
     fec:	00657079 	rsbeq	r7, r5, r9, ror r0
     ff0:	725f6f64 	subsvc	r6, pc, #400	; 0x190
     ff4:	74657365 	strbtvc	r7, [r5], #-869	; 0x365
     ff8:	746e6300 	strbtvc	r6, [lr], #-768	; 0x300
     ffc:	73007265 	movwvc	r7, #613	; 0x265
    1000:	655f7465 	ldrbvs	r7, [pc, #-1125]	; ba3 <jump_to_resume0_nommu+0x23>
    1004:	746e6576 	strbtvc	r6, [lr], #-1398	; 0x576
    1008:	756f635f 	strbvc	r6, [pc, #-863]!	; cb1 <__save_processor_state+0x71>
    100c:	7265746e 	rsbvc	r7, r5, #1845493760	; 0x6e000000
    1010:	74616d00 	strbtvc	r6, [r1], #-3328	; 0xd00
    1014:	655f6863 	ldrbvs	r6, [pc, #-2147]	; 7b9 <inv_finished+0x9>
    1018:	746e6576 	strbtvc	r6, [lr], #-1398	; 0x576
    101c:	756f635f 	strbvc	r6, [pc, #-863]!	; cc5 <__save_processor_state+0x85>
    1020:	7265746e 	rsbvc	r7, r5, #1845493760	; 0x6e000000
    1024:	435f4400 	cmpmi	pc, #0
    1028:	45484341 	strbmi	r4, [r8, #-833]	; 0x341
    102c:	53494d5f 	movtpl	r4, #40287	; 0x9d5f
    1030:	5f440053 	svcpl	0x00440053
    1034:	5f424c54 	svcpl	0x00424c54
    1038:	5353494d 	cmppl	r3, #1261568	; 0x134000
    103c:	63616200 	cmnvs	r1, #0
    1040:	5f70756b 	svcpl	0x0070756b
    1044:	66726570 			; <UNDEFINED> instruction: 0x66726570
    1048:	756f635f 	strbvc	r6, [pc, #-863]!	; cf1 <__save_processor_state+0xb1>
    104c:	7265746e 	rsbvc	r7, r5, #1845493760	; 0x6e000000
    1050:	7274635f 	rsbsvc	r6, r4, #2080374785	; 0x7c000001
    1054:	65725f6c 	ldrbvs	r5, [r2, #-3948]!	; 0xf6c
    1058:	65720067 	ldrbvs	r0, [r2, #-103]!	; 0x67
    105c:	726f7473 	rsbvc	r7, pc, #1929379840	; 0x73000000
    1060:	65705f65 	ldrbvs	r5, [r0, #-3941]!	; 0xf65
    1064:	6f636672 	svcvs	0x00636672
    1068:	65746e75 	ldrbvs	r6, [r4, #-3701]!	; 0xe75
    106c:	65670072 	strbvs	r0, [r7, #-114]!	; 0x72
    1070:	76655f74 	uqsub16vc	r5, r5, r4
    1074:	5f746e65 	svcpl	0x00746e65
    1078:	6e756f63 	cdpvs	15, 7, cr6, cr5, cr3, {3}
    107c:	00726574 	rsbseq	r6, r2, r4, ror r5
    1080:	6e756f63 	cdpvs	15, 7, cr6, cr5, cr3, {3}
    1084:	5f726574 	svcpl	0x00726574
    1088:	65707974 	ldrbvs	r7, [r0, #-2420]!	; 0x974
    108c:	6100655f 	tstvs	r0, pc, asr r5
    1090:	2f686372 	svccs	0x00686372
    1094:	2f6d7261 	svccs	0x006d7261
    1098:	6863616d 	stmdavs	r3!, {r0, r2, r3, r5, r6, r8, sp, lr}^
    109c:	6e75732d 	cdpvs	3, 7, cr7, cr5, cr13, {1}
    10a0:	702f6978 	eorvc	r6, pc, r8, ror r9	; <UNPREDICTABLE>
    10a4:	74732f6d 	ldrbtvc	r2, [r3], #-3949	; 0xf6d
    10a8:	62646e61 	rsbvs	r6, r4, #1552	; 0x610
    10ac:	2e2e2f79 	mcrcs	15, 1, r2, cr14, cr9, {3}
    10b0:	6d656d2f 	stclvs	13, cr6, [r5, #-188]!	; 0xffffff44
    10b4:	756d6d5f 	strbvc	r6, [sp, #-3423]!	; 0xd5f
    10b8:	2e63705f 	mcrcs	0, 3, r7, cr3, cr15, {2}
    10bc:	65720063 	ldrbvs	r0, [r2, #-99]!	; 0x63
    10c0:	726f7473 	rsbvc	r7, pc, #1929379840	; 0x73000000
    10c4:	6d6d5f65 	stclvs	15, cr5, [sp, #-404]!	; 0xfffffe6c
    10c8:	74735f75 	ldrbtvc	r5, [r3], #-3957	; 0xf75
    10cc:	00657461 	rsbeq	r7, r5, r1, ror #8
    10d0:	65766173 	ldrbvs	r6, [r6, #-371]!	; 0x173
    10d4:	756d6d5f 	strbvc	r6, [sp, #-3423]!	; 0xd5f
    10d8:	6174735f 	cmnvs	r4, pc, asr r3
    10dc:	70006574 	andvc	r6, r0, r4, ror r5
    10e0:	6970746f 	ldmdbvs	r0!, {r0, r1, r2, r3, r5, r6, sl, ip, sp, lr}^
    10e4:	5f690064 	svcpl	0x00690064
    10e8:	00726166 	rsbseq	r6, r2, r6, ror #2
    10ec:	66636373 			; <UNDEFINED> instruction: 0x66636373
    10f0:	73007267 	movwvc	r7, #615	; 0x267
    10f4:	635f7465 	cmpvs	pc, #1694498816	; 0x65000000
    10f8:	6f72706f 	svcvs	0x0072706f
    10fc:	6665645f 			; <UNDEFINED> instruction: 0x6665645f
    1100:	746c7561 	strbtvc	r7, [ip], #-1377	; 0x561
    1104:	63656900 	cmnvs	r5, #0
    1108:	5f640072 	svcpl	0x00640072
    110c:	00727366 	rsbseq	r7, r2, r6, ror #6
    1110:	65766173 	ldrbvs	r6, [r6, #-371]!	; 0x173
    1114:	70735f64 	rsbsvc	r5, r3, r4, ror #30
    1118:	615f7273 	cmpvs	pc, r3, ror r2	; <UNPREDICTABLE>
    111c:	73007462 	movwvc	r7, #1122	; 0x462
    1120:	64657661 	strbtvs	r7, [r5], #-1633	; 0x661
    1124:	7370735f 	cmnvc	r0, #2080374785	; 0x7c000001
    1128:	6f6d5f72 	svcvs	0x006d5f72
    112c:	6373006e 	cmnvs	r3, #110	; 0x6e
    1130:	65676264 	strbvs	r6, [r7, #-612]!	; 0x264
    1134:	726c626e 	rsbvc	r6, ip, #-536870906	; 0xe0000006
    1138:	76617300 	strbtvc	r7, [r1], -r0, lsl #6
    113c:	635f6465 	cmpvs	pc, #1694498816	; 0x65000000
    1140:	65746e6f 	ldrbvs	r6, [r4, #-3695]!	; 0xe6f
    1144:	725f7478 	subsvc	r7, pc, #2013265920	; 0x78000000
    1148:	665f3331 			; <UNDEFINED> instruction: 0x665f3331
    114c:	73007169 	movwvc	r7, #361	; 0x169
    1150:	64657661 	strbtvs	r7, [r5], #-1633	; 0x661
    1154:	6e6f635f 	mcrvs	3, 3, r6, cr15, cr15, {2}
    1158:	74786574 	ldrbtvc	r6, [r8], #-1396	; 0x574
    115c:	3331725f 	teqcc	r1, #-268435451	; 0xf0000005
    1160:	7172695f 	cmnvc	r2, pc, asr r9
    1164:	73657200 	cmnvc	r5, #0
    1168:	65726f74 	ldrbvs	r6, [r2, #-3956]!	; 0xf74
    116c:	6f72705f 	svcvs	0x0072705f
    1170:	73736563 	cmnvc	r3, #415236096	; 0x18c00000
    1174:	745f726f 	ldrbvc	r7, [pc], #-623	; 117c <serial_gets_nommu+0x70>
    1178:	30726274 	rsbscc	r6, r2, r4, ror r2
    117c:	76617300 	strbtvc	r7, [r1], -r0, lsl #6
    1180:	735f6465 	cmpvc	pc, #1694498816	; 0x65000000
    1184:	5f727370 	svcpl	0x00727370
    1188:	00637673 	rsbeq	r7, r3, r3, ror r6
    118c:	61736964 	cmnvs	r3, r4, ror #18
    1190:	5f656c62 	svcpl	0x00656c62
    1194:	68636163 	stmdavs	r3!, {r0, r1, r5, r6, r8, sp, lr}^
    1198:	6e695f65 	cdpvs	15, 6, cr5, cr9, cr5, {3}
    119c:	696c6176 	stmdbvs	ip!, {r1, r2, r4, r5, r6, r8, sp, lr}^
    11a0:	65746164 	ldrbvs	r6, [r4, #-356]!	; 0x164
    11a4:	725f5f00 	subsvc	r5, pc, #0
    11a8:	6f747365 	svcvs	0x00747365
    11ac:	705f6572 	subsvc	r6, pc, r2, ror r5	; <UNPREDICTABLE>
    11b0:	65636f72 	strbvs	r6, [r3, #-3954]!	; 0xf72
    11b4:	726f7373 	rsbvc	r7, pc, #-872415231	; 0xcc000001
    11b8:	6174735f 	cmnvs	r4, pc, asr r3
    11bc:	69006574 	stmdbvs	r0, {r2, r4, r5, r6, r8, sl, sp, lr}
    11c0:	00727365 	rsbseq	r7, r2, r5, ror #6
    11c4:	65766173 	ldrbvs	r6, [r6, #-371]!	; 0x173
    11c8:	70735f64 	rsbsvc	r5, r3, r4, ror #30
    11cc:	665f7273 			; <UNDEFINED> instruction: 0x665f7273
    11d0:	70007169 	andvc	r7, r0, r9, ror #2
    11d4:	00727363 	rsbseq	r7, r2, r3, ror #6
    11d8:	74787463 	ldrbtvc	r7, [r8], #-1123	; 0x463
    11dc:	76617300 	strbtvc	r7, [r1], -r0, lsl #6
    11e0:	735f6465 	cmpvc	pc, #1694498816	; 0x65000000
    11e4:	5f727370 	svcpl	0x00727370
    11e8:	00717269 	rsbseq	r7, r1, r9, ror #4
    11ec:	66615f64 	strbtvs	r5, [r1], -r4, ror #30
    11f0:	73007273 	movwvc	r7, #627	; 0x273
    11f4:	64657661 	strbtvs	r7, [r5], #-1633	; 0x661
    11f8:	6e6f635f 	mcrvs	3, 3, r6, cr15, cr15, {2}
    11fc:	74786574 	ldrbtvc	r6, [r8], #-1396	; 0x574
    1200:	77727500 	ldrbvc	r7, [r2, -r0, lsl #10]!
    1204:	64697074 	strbtvs	r7, [r9], #-116	; 0x74
    1208:	6e6f6e00 	cdpvs	14, 6, cr6, cr15, cr0, {0}
    120c:	63616373 	cmnvs	r1, #-872415231	; 0xcc000001
    1210:	6c727463 	cfldrdvs	mvd7, [r2], #-396	; 0xfffffe74
    1214:	65630072 	strbvs	r0, [r3, #-114]!	; 0x72
    1218:	73007263 	movwvc	r7, #611	; 0x263
    121c:	745f7465 	ldrbvc	r7, [pc], #-1125	; 1224 <serial_init+0x8c>
    1220:	30726274 	rsbscc	r6, r2, r4, ror r2
    1224:	6f727500 	svcvs	0x00727500
    1228:	64697074 	strbtvs	r7, [r9], #-116	; 0x74
    122c:	63726100 	cmnvs	r2, #0
    1230:	72612f68 	rsbvc	r2, r1, #416	; 0x1a0
    1234:	616d2f6d 	cmnvs	sp, sp, ror #30
    1238:	732d6863 	teqvc	sp, #6488064	; 0x630000
    123c:	69786e75 	ldmdbvs	r8!, {r0, r2, r4, r5, r6, r9, sl, fp, sp, lr}^
    1240:	2f6d702f 	svccs	0x006d702f
    1244:	6e617473 	mcrvs	4, 3, r7, cr1, cr3, {3}
    1248:	2f796264 	svccs	0x00796264
    124c:	6d2f2e2e 	stcvs	14, cr2, [pc, #-184]!	; 119c <serial_init+0x4>
    1250:	635f6d65 	cmpvs	pc, #6464	; 0x1940
    1254:	632e7570 	teqvs	lr, #469762048	; 0x1c000000
    1258:	735f5f00 	cmpvc	pc, #0
    125c:	5f657661 	svcpl	0x00657661
    1260:	636f7270 	cmnvs	pc, #7
    1264:	6f737365 	svcvs	0x00737365
    1268:	74735f72 	ldrbtvc	r5, [r3], #-3954	; 0xf72
    126c:	00657461 	rsbeq	r7, r5, r1, ror #8
    1270:	65736366 	ldrbvs	r6, [r3, #-870]!	; 0x366
    1274:	76617300 	strbtvc	r7, [r1], -r0, lsl #6
    1278:	635f6465 	cmpvs	pc, #1694498816	; 0x65000000
    127c:	65746e6f 	ldrbvs	r6, [r4, #-3695]!	; 0xe6f
    1280:	725f7478 	subsvc	r7, pc, #2013265920	; 0x78000000
    1284:	755f3331 	ldrbvc	r3, [pc, #-817]	; f5b <set_serial_clk+0x3f>
    1288:	7300646e 	movwvc	r6, #1134	; 0x46e
    128c:	64657661 	strbtvs	r7, [r5], #-1633	; 0x661
    1290:	6e6f635f 	mcrvs	3, 3, r6, cr15, cr15, {2}
    1294:	74786574 	ldrbtvc	r6, [r8], #-1396	; 0x574
    1298:	3231725f 	eorscc	r7, r1, #-268435451	; 0xf0000005
    129c:	6376735f 	cmnvs	r6, #2080374785	; 0x7c000001
    12a0:	76617300 	strbtvc	r7, [r1], -r0, lsl #6
    12a4:	635f6465 	cmpvs	pc, #1694498816	; 0x65000000
    12a8:	5f727370 	svcpl	0x00727370
    12ac:	00637673 	rsbeq	r7, r3, r3, ror r6
    12b0:	7273666f 	rsbsvc	r6, r3, #116391936	; 0x6f00000
    12b4:	636d7000 	cmnvs	sp, #0
    12b8:	72746e6f 	rsbsvc	r6, r4, #1776	; 0x6f0
    12bc:	00726c6f 	rsbseq	r6, r2, pc, ror #24
    12c0:	72736563 	rsbsvc	r6, r3, #415236096	; 0x18c00000
    12c4:	66656400 	strbtvs	r6, [r5], -r0, lsl #8
    12c8:	746c7561 	strbtvc	r7, [ip], #-1377	; 0x561
    12cc:	706f635f 	rsbvc	r6, pc, pc, asr r3	; <UNPREDICTABLE>
    12d0:	765f6f72 	usub16vc	r6, pc, r2	; <UNPREDICTABLE>
    12d4:	65756c61 	ldrbvs	r6, [r5, #-3169]!	; 0xc61
    12d8:	665f6900 	ldrbvs	r6, [pc], -r0, lsl #18
    12dc:	64007273 	strvs	r7, [r0], #-627	; 0x273
    12e0:	7261665f 	rsbvc	r6, r1, #99614720	; 0x5f00000
    12e4:	62766d00 	rsbsvs	r6, r6, #0
    12e8:	70007261 	andvc	r7, r0, r1, ror #4
    12ec:	756f636d 	strbvc	r6, [pc, #-877]!	; f87 <set_serial_clk+0x6b>
    12f0:	0072746e 	rsbseq	r7, r2, lr, ror #8
    12f4:	66615f69 	strbtvs	r5, [r1], -r9, ror #30
    12f8:	73007273 	movwvc	r7, #627	; 0x273
    12fc:	64657661 	strbtvs	r7, [r5], #-1633	; 0x661
    1300:	7370735f 	cmnvc	r0, #2080374785	; 0x7c000001
    1304:	6e755f72 	mrcvs	15, 3, r5, cr5, cr2, {3}
    1308:	61730064 	cmnvs	r3, r4, rrx
    130c:	5f646576 	svcpl	0x00646576
    1310:	746e6f63 	strbtvc	r6, [lr], #-3939	; 0xf63
    1314:	5f747865 	svcpl	0x00747865
    1318:	5f333172 	svcpl	0x00333172
    131c:	00746261 	rsbseq	r6, r4, r1, ror #4
    1320:	65766173 	ldrbvs	r6, [r6, #-371]!	; 0x173
    1324:	6d655f64 	stclvs	15, cr5, [r5, #-400]!	; 0xfffffe70
    1328:	5f797470 	svcpl	0x00797470
    132c:	746e6f63 	strbtvc	r6, [lr], #-3939	; 0xf63
    1330:	5f747865 	svcpl	0x00747865
    1334:	00637673 	rsbeq	r7, r3, r3, ror r6
    1338:	65766173 	ldrbvs	r6, [r6, #-371]!	; 0x173
    133c:	6f635f64 	svcvs	0x00635f64
    1340:	7865746e 	stmdavc	r5!, {r1, r2, r3, r5, r6, sl, ip, sp, lr}^
    1344:	31725f74 	cmncc	r2, r4, ror pc
    1348:	79735f33 	ldmdbvc	r3!, {r0, r1, r4, r5, r8, r9, sl, fp, ip, lr}^
    134c:	61730073 	cmnvs	r3, r3, ror r0
    1350:	5f646576 	svcpl	0x00646576
    1354:	746e6f63 	strbtvc	r6, [lr], #-3939	; 0xf63
    1358:	5f747865 	svcpl	0x00747865
    135c:	5f333172 	svcpl	0x00333172
    1360:	006e6f6d 	rsbeq	r6, lr, sp, ror #30
    1364:	69726573 	ldmdbvs	r2!, {r0, r1, r4, r5, r6, r8, sl, sp, lr}^
    1368:	705f6c61 	subsvc	r6, pc, r1, ror #24
    136c:	5f737475 	svcpl	0x00737475
    1370:	6d6d6f6e 	stclvs	15, cr6, [sp, #-440]!	; 0xfffffe48
    1374:	65730075 	ldrbvs	r0, [r3, #-117]!	; 0x75
    1378:	65735f74 	ldrbvs	r5, [r3, #-3956]!	; 0xf74
    137c:	6c616972 	stclvs	9, cr6, [r1], #-456	; 0xfffffe38
    1380:	6b6c635f 	blvs	1b1a104 <__bss_end+0x1b17844>
    1384:	74657300 	strbtvc	r7, [r5], #-768	; 0x300
    1388:	7265735f 	rsbvc	r7, r5, #2080374785	; 0x7c000001
    138c:	5f6c6169 	svcpl	0x006c6169
    1390:	6f697067 	svcvs	0x00697067
    1394:	72657300 	rsbvc	r7, r5, #0
    1398:	5f6c6169 	svcpl	0x006c6169
    139c:	73746567 	cmnvc	r4, #432013312	; 0x19c00000
    13a0:	72657300 	rsbvc	r7, r5, #0
    13a4:	5f6c6169 	svcpl	0x006c6169
    13a8:	74696e69 	strbtvc	r6, [r9], #-3689	; 0xe69
    13ac:	6d697400 	cfstrdvs	mvd7, [r9, #-0]
    13b0:	61620065 	cmnvs	r2, r5, rrx
    13b4:	70756b63 	rsbsvc	r6, r5, r3, ror #22
    13b8:	6970675f 	ldmdbvs	r0!, {r0, r1, r2, r3, r4, r6, r8, r9, sl, sp, lr}^
    13bc:	61755f6f 	cmnvs	r5, pc, ror #30
    13c0:	73007472 	movwvc	r7, #1138	; 0x472
    13c4:	61697265 	cmnvs	r9, r5, ror #4
    13c8:	65675f6c 	strbvs	r5, [r7, #-3948]!	; 0xf6c
    13cc:	68635f74 	stmdavs	r3!, {r2, r4, r5, r6, r8, r9, sl, fp, ip, lr}^
    13d0:	73007261 	movwvc	r7, #609	; 0x261
    13d4:	61697265 	cmnvs	r9, r5, ror #4
    13d8:	6e695f6c 	cdpvs	15, 6, cr5, cr9, cr12, {3}
    13dc:	6e5f7469 	cdpvs	4, 5, cr7, cr15, cr9, {3}
    13e0:	756d6d6f 	strbvc	r6, [sp, #-3439]!	; 0xd6f
    13e4:	63727300 	cmnvs	r2, #0
    13e8:	6572665f 	ldrbvs	r6, [r2, #-1631]!	; 0x65f
    13ec:	65730071 	ldrbvs	r0, [r3, #-113]!	; 0x71
    13f0:	6c616972 	stclvs	9, cr6, [r1], #-456	; 0xfffffe38
    13f4:	7475705f 	ldrbtvc	r7, [r5], #-95	; 0x5f
    13f8:	6168635f 	cmnvs	r8, pc, asr r3
    13fc:	32700072 	rsbscc	r0, r0, #114	; 0x72
    1400:	006b6c63 	rsbeq	r6, fp, r3, ror #24
    1404:	69726573 	ldmdbvs	r2!, {r0, r1, r4, r5, r6, r8, sl, sp, lr}^
    1408:	695f6c61 	ldmdbvs	pc, {r0, r5, r6, sl, fp, sp, lr}^	; <UNPREDICTABLE>
    140c:	6574696e 	ldrbvs	r6, [r4, #-2414]!	; 0x96e
    1410:	6c665f64 	stclvs	15, cr5, [r6], #-400	; 0xfffffe70
    1414:	63006761 	movwvs	r6, #1889	; 0x761
    1418:	725f7563 	subsvc	r7, pc, #415236096	; 0x18c00000
    141c:	6d006765 	stcvs	7, cr6, [r0, #-404]	; 0xfffffe6c
    1420:	665f756d 	ldrbvs	r7, [pc], -sp, ror #10
    1424:	0067616c 	rsbeq	r6, r7, ip, ror #2
    1428:	69726573 	ldmdbvs	r2!, {r0, r1, r4, r5, r6, r8, sl, sp, lr}^
    142c:	675f6c61 	ldrbvs	r6, [pc, -r1, ror #24]
    1430:	5f737465 	svcpl	0x00737465
    1434:	6d6d6f6e 	stclvs	15, cr6, [sp, #-440]!	; 0xfffffe48
    1438:	61620075 	smcvs	8197	; 0x2005
    143c:	70756b63 	rsbsvc	r6, r5, r3, ror #22
    1440:	7563635f 	strbvc	r6, [r3, #-863]!	; 0x35f
    1444:	7261755f 	rsbvc	r7, r1, #398458880	; 0x17c00000
    1448:	65725f74 	ldrbvs	r5, [r2, #-3956]!	; 0xf74
    144c:	00746573 	rsbseq	r6, r4, r3, ror r5
    1450:	69726573 	ldmdbvs	r2!, {r0, r1, r4, r5, r6, r8, sl, sp, lr}^
    1454:	705f6c61 	subsvc	r6, pc, r1, ror #24
    1458:	00737475 	rsbseq	r7, r3, r5, ror r4
    145c:	68637261 	stmdavs	r3!, {r0, r5, r6, r9, ip, sp, lr}^
    1460:	6d72612f 	ldfvse	f6, [r2, #-188]!	; 0xffffff44
    1464:	63616d2f 	cmnvs	r1, #3008	; 0xbc0
    1468:	75732d68 	ldrbvc	r2, [r3, #-3432]!	; 0xd68
    146c:	2f69786e 	svccs	0x0069786e
    1470:	732f6d70 	teqvc	pc, #7168	; 0x1c00
    1474:	646e6174 	strbtvs	r6, [lr], #-372	; 0x174
    1478:	2e2f7962 	cdpcs	9, 2, cr7, cr15, cr2, {3}
    147c:	656d2f2e 	strbvs	r2, [sp, #-3886]!	; 0xf2e
    1480:	65735f6d 	ldrbvs	r5, [r3, #-3949]!	; 0xf6d
    1484:	6c616972 	stclvs	9, cr6, [r1], #-456	; 0xfffffe38
    1488:	7300632e 	movwvc	r6, #814	; 0x32e
    148c:	61697265 	cmnvs	r9, r5, ror #4
    1490:	75705f6c 	ldrbvc	r5, [r0, #-3948]!	; 0xf6c
    1494:	68635f74 	stmdavs	r3!, {r2, r4, r5, r6, r8, r9, sl, fp, ip, lr}^
    1498:	6e5f7261 	cdpvs	2, 5, cr7, cr15, cr1, {3}
    149c:	756d6d6f 	strbvc	r6, [sp, #-3439]!	; 0xd6f
    14a0:	72657300 	rsbvc	r7, r5, #0
    14a4:	5f6c6169 	svcpl	0x006c6169
    14a8:	5f746567 	svcpl	0x00746567
    14ac:	72616863 	rsbvc	r6, r1, #6488064	; 0x630000
    14b0:	6d6f6e5f 	stclvs	14, cr6, [pc, #-380]!	; 133c <serial_gets+0x40>
    14b4:	7000756d 	andvc	r7, r0, sp, ror #10
    14b8:	0074726f 	rsbseq	r7, r4, pc, ror #4
    14bc:	69726573 	ldmdbvs	r2!, {r0, r1, r4, r5, r6, r8, sl, sp, lr}^
    14c0:	655f6c61 	ldrbvs	r6, [pc, #-3169]	; 867 <finished+0x7>
    14c4:	00746978 	rsbseq	r6, r4, r8, ror r9
    14c8:	6b636162 	blvs	18d9a58 <__bss_end+0x18d7198>
    14cc:	635f7075 	cmpvs	pc, #117	; 0x75
    14d0:	755f7563 	ldrbvc	r7, [pc, #-1379]	; f75 <set_serial_clk+0x59>
    14d4:	00747261 	rsbseq	r7, r4, r1, ror #4
    14d8:	63727370 	cmnvs	r2, #-1073741823	; 0xc0000001
    14dc:	7a697300 	bvc	1a5e0e4 <__bss_end+0x1a5b824>
    14e0:	00745f65 	rsbseq	r5, r4, r5, ror #30
    14e4:	73677261 	cmnvc	r7, #268435462	; 0x10000006
    14e8:	67696400 	strbvs	r6, [r9, -r0, lsl #8]!
    14ec:	735f7469 	cmpvc	pc, #1761607680	; 0x69000000
    14f0:	6e697274 	mcrvs	2, 3, r7, cr9, cr4, {3}
    14f4:	72610067 	rsbvc	r0, r1, #103	; 0x67
    14f8:	612f6863 	teqvs	pc, r3, ror #16
    14fc:	6d2f6d72 	stcvs	13, cr6, [pc, #-456]!	; 133c <serial_gets+0x40>
    1500:	2d686361 	stclcs	3, cr6, [r8, #-388]!	; 0xfffffe7c
    1504:	786e7573 	stmdavc	lr!, {r0, r1, r4, r5, r6, r8, sl, ip, sp, lr}^
    1508:	6d702f69 	ldclvs	15, cr2, [r0, #-420]!	; 0xfffffe5c
    150c:	6174732f 	cmnvs	r4, pc, lsr #6
    1510:	7962646e 	stmdbvc	r2!, {r1, r2, r3, r5, r6, sl, sp, lr}^
    1514:	2f2e2e2f 	svccs	0x002e2e2f
    1518:	5f6d656d 	svcpl	0x006d656d
    151c:	6e697270 	mcrvs	2, 3, r7, cr9, cr0, {3}
    1520:	632e6b74 	teqvs	lr, #118784	; 0x1d000
    1524:	62656400 	rsbvs	r6, r5, #0
    1528:	65676775 	strbvs	r6, [r7, #-1909]!	; 0x775
    152c:	75625f72 	strbvc	r5, [r2, #-3954]!	; 0xf72
    1530:	72656666 	rsbvc	r6, r5, #106954752	; 0x6600000
    1534:	65647000 	strbvs	r7, [r4, #-0]!
    1538:	73007473 	movwvc	r7, #1139	; 0x473
    153c:	6b636174 	blvs	18d9b14 <__bss_end+0x18d7254>
    1540:	675f5f00 	ldrbvs	r5, [pc, -r0, lsl #30]
    1544:	5f63756e 	svcpl	0x0063756e
    1548:	6c5f6176 	ldfvse	f6, [pc], {118}	; 0x76
    154c:	00747369 	rsbseq	r7, r4, r9, ror #6
    1550:	61765f5f 	cmnvs	r6, pc, asr pc
    1554:	73696c5f 	cmnvc	r9, #24320	; 0x5f00
    1558:	72700074 	rsbsvc	r0, r0, #116	; 0x74
    155c:	5f746e69 	svcpl	0x00746e69
    1560:	67696c61 	strbvs	r6, [r9, -r1, ror #24]!
    1564:	7473006e 	ldrbtvc	r0, [r3], #-110	; 0x6e
    1568:	79706372 	ldmdbvc	r0!, {r1, r4, r5, r6, r8, r9, sp, lr}^
    156c:	6f746900 	svcvs	0x00746900
    1570:	74730061 	ldrbtvc	r0, [r3], #-97	; 0x61
    1574:	61636e72 	smcvs	14050	; 0x36e2
    1578:	6f660074 	svcvs	0x00660074
    157c:	74616d72 	strbtvc	r6, [r1], #-3442	; 0xd72
    1580:	72747300 	rsbsvc	r7, r4, #0
    1584:	006e656c 	rsbeq	r6, lr, ip, ror #10
    1588:	70615f5f 	rsbvc	r5, r1, pc, asr pc
    158c:	6c696600 	stclvs	6, cr6, [r9], #-0
    1590:	68635f6c 	stmdavs	r3!, {r2, r3, r5, r6, r8, r9, sl, fp, ip, lr}^
    1594:	6f747500 	svcvs	0x00747500
    1598:	72700061 	rsbsvc	r0, r0, #97	; 0x61
    159c:	6b746e69 	blvs	1d1cf48 <__bss_end+0x1d1a688>
    15a0:	64617200 	strbtvs	r7, [r1], #-512	; 0x200
    15a4:	70007869 	andvc	r7, r0, r9, ror #16
    15a8:	746e6972 	strbtvc	r6, [lr], #-2418	; 0x972
    15ac:	6f6e5f6b 	svcvs	0x006e5f6b
    15b0:	00756d6d 	rsbseq	r6, r5, sp, ror #26
    15b4:	6167656e 	cmnvs	r7, lr, ror #10
    15b8:	65766974 	ldrbvs	r6, [r6, #-2420]!	; 0x974
    15bc:	6d5f5f00 	ldclvs	15, cr5, [pc, #-0]	; 15c4 <itoa.constprop.0+0xd8>
    15c0:	645f6d65 	ldrbvs	r6, [pc], #-3429	; 15c8 <itoa.constprop.0+0xdc>
    15c4:	00307669 	eorseq	r7, r0, r9, ror #12
    15c8:	51706d74 	cmnpl	r0, r4, ror sp
    15cc:	00746f75 	rsbseq	r6, r4, r5, ror pc
    15d0:	69766964 	ldmdbvs	r6!, {r2, r5, r6, r8, fp, sp, lr}^
    15d4:	726f6973 	rsbvc	r6, pc, #1884160	; 0x1cc000
    15d8:	76696400 	strbtvc	r6, [r9], -r0, lsl #8
    15dc:	6e656469 	cdpvs	4, 6, cr6, cr5, cr9, {3}
    15e0:	61720064 	cmnvs	r2, r4, rrx
    15e4:	696c5f77 	stmdbvs	ip!, {r0, r1, r2, r4, r5, r6, r8, r9, sl, fp, ip, lr}^
    15e8:	64755f62 	ldrbtvs	r5, [r5], #-3938	; 0xf62
    15ec:	74007669 	strvc	r7, [r0], #-1641	; 0x669
    15f0:	6944706d 	stmdbvs	r4, {r0, r2, r3, r5, r6, ip, sp, lr}^
    15f4:	72610076 	rsbvc	r0, r1, #118	; 0x76
    15f8:	612f6863 	teqvs	pc, r3, ror #16
    15fc:	6d2f6d72 	stcvs	13, cr6, [pc, #-456]!	; 143c <utoa+0xb4>
    1600:	2d686361 	stclcs	3, cr6, [r8, #-388]!	; 0xfffffe7c
    1604:	786e7573 	stmdavc	lr!, {r0, r1, r4, r5, r6, r8, sl, ip, sp, lr}^
    1608:	6d702f69 	ldclvs	15, cr2, [r0, #-420]!	; 0xfffffe5c
    160c:	6174732f 	cmnvs	r4, pc, lsr #6
    1610:	7962646e 	stmdbvc	r2!, {r1, r2, r3, r5, r6, sl, sp, lr}^
    1614:	2f2e2e2f 	svccs	0x002e2e2f
    1618:	5f6d656d 	svcpl	0x006d656d
    161c:	6c766964 	ldclvs	9, cr6, [r6], #-400	; 0xfffffe70
    1620:	2e636269 	cdpcs	2, 6, cr6, cr3, cr9, {3}
    1624:	68730063 	ldmdavs	r3!, {r0, r1, r5, r6}^
    1628:	00746669 	rsbseq	r6, r4, r9, ror #12
    162c:	5f6d656d 	svcpl	0x006d656d
    1630:	5f746e69 	svcpl	0x00746e69
    1634:	74697865 	strbtvc	r7, [r9], #-2149	; 0x865
    1638:	746e6900 	strbtvc	r6, [lr], #-2304	; 0x900
    163c:	75727265 	ldrbvc	r7, [r2, #-613]!	; 0x265
    1640:	735f7470 	cmpvc	pc, #1879048192	; 0x70000000
    1644:	6372756f 	cmnvs	r2, #465567744	; 0x1bc00000
    1648:	00655f65 	rsbeq	r5, r5, r5, ror #30
    164c:	5f6d656d 	svcpl	0x006d656d
    1650:	72657571 	rsbvc	r7, r5, #473956352	; 0x1c400000
    1654:	6e695f79 	mcrvs	15, 3, r5, cr9, cr9, {3}
    1658:	72610074 	rsbvc	r0, r1, #116	; 0x74
    165c:	612f6863 	teqvs	pc, r3, ror #16
    1660:	6d2f6d72 	stcvs	13, cr6, [pc, #-456]!	; 14a0 <print_align+0x5c>
    1664:	2d686361 	stclcs	3, cr6, [r8, #-388]!	; 0xfffffe7c
    1668:	786e7573 	stmdavc	lr!, {r0, r1, r4, r5, r6, r8, sl, ip, sp, lr}^
    166c:	6d702f69 	ldclvs	15, cr2, [r0, #-420]!	; 0xfffffe5c
    1670:	6174732f 	cmnvs	r4, pc, lsr #6
    1674:	7962646e 	stmdbvc	r2!, {r1, r2, r3, r5, r6, sl, sp, lr}^
    1678:	2f2e2e2f 	svccs	0x002e2e2f
    167c:	5f6d656d 	svcpl	0x006d656d
    1680:	2e746e69 	cdpcs	14, 7, cr6, cr4, cr9, {3}
    1684:	4e490063 	cdpmi	0, 4, cr0, cr9, cr3, {3}
    1688:	4f535f54 	svcmi	0x00535f54
    168c:	45435255 	strbmi	r5, [r3, #-597]	; 0x255
    1690:	554f545f 	strbpl	r5, [pc, #-1119]	; 1239 <serial_exit+0x1>
    1694:	4e504843 	cdpmi	8, 5, cr4, cr0, cr3, {2}
    1698:	6947004c 	stmdbvs	r7, {r2, r3, r6}^
    169c:	69444363 	stmdbvs	r4, {r0, r1, r5, r6, r8, r9, lr}^
    16a0:	49006373 	stmdbmi	r0, {r0, r1, r4, r5, r6, r8, r9, sp, lr}
    16a4:	535f544e 	cmppl	pc, #1308622848	; 0x4e000000
    16a8:	4352554f 	cmpmi	r2, #331350016	; 0x13c00000
    16ac:	534d5f45 	movtpl	r5, #57157	; 0xdf45
    16b0:	4f425f47 	svcmi	0x00425f47
    16b4:	656d0058 	strbvs	r0, [sp, #-88]!	; 0x58
    16b8:	6e695f6d 	cdpvs	15, 6, cr5, cr9, cr13, {3}
    16bc:	6e695f74 	mcrvs	15, 3, r5, cr9, cr4, {3}
    16c0:	49007469 	stmdbmi	r0, {r0, r3, r5, r6, sl, ip, sp, lr}
    16c4:	535f544e 	cmppl	pc, #1308622848	; 0x4e000000
    16c8:	4352554f 	cmpmi	r2, #331350016	; 0x13c00000
    16cc:	49545f45 	ldmdbmi	r4, {r0, r2, r6, r8, r9, sl, fp, ip, lr}^
    16d0:	3052454d 	subscc	r4, r2, sp, asr #10
    16d4:	544e4900 	strbpl	r4, [lr], #-2304	; 0x900
    16d8:	554f535f 	strbpl	r5, [pc, #-863]	; 1381 <serial_gets+0x85>
    16dc:	5f454352 	svcpl	0x00454352
    16e0:	454d4954 	strbmi	r4, [sp, #-2388]	; 0x954
    16e4:	49003152 	stmdbmi	r0, {r1, r4, r6, r8, ip, sp}
    16e8:	535f544e 	cmppl	pc, #1308622848	; 0x4e000000
    16ec:	4352554f 	cmpmi	r2, #331350016	; 0x13c00000
    16f0:	58455f45 	stmdapl	r5, {r0, r2, r6, r8, r9, sl, fp, ip, lr}^
    16f4:	494d4e54 	stmdbmi	sp, {r2, r4, r6, r9, sl, fp, lr}^
    16f8:	616e6500 	cmnvs	lr, r0, lsl #10
    16fc:	5f656c62 	svcpl	0x00656c62
    1700:	00746962 	rsbseq	r6, r4, r2, ror #18
    1704:	75736572 	ldrbvc	r6, [r3, #-1394]!	; 0x572
    1708:	4900746c 	stmdbmi	r0, {r2, r3, r5, r6, sl, ip, sp, lr}
    170c:	535f544e 	cmppl	pc, #1308622848	; 0x4e000000
    1710:	4352554f 	cmpmi	r2, #331350016	; 0x13c00000
    1714:	524c5f45 	subpl	r5, ip, #276	; 0x114
    1718:	00434441 	subeq	r4, r3, r1, asr #8
    171c:	47706d74 			; <UNDEFINED> instruction: 0x47706d74
    1720:	74007072 	strvc	r7, [r0], #-114	; 0x72
    1724:	7253706d 	subsvc	r7, r3, #109	; 0x6d
    1728:	656d0063 	strbvs	r0, [sp, #-99]!	; 0x63
    172c:	6e655f6d 	cdpvs	15, 6, cr5, cr5, cr13, {3}
    1730:	656c6261 	strbvs	r6, [ip, #-609]!	; 0x261
    1734:	746e695f 	strbtvc	r6, [lr], #-2399	; 0x95f
    1738:	63694700 	cmnvs	r9, #0
    173c:	73694444 	cmnvc	r9, #1140850688	; 0x44000000
    1740:	44570063 	ldrbmi	r0, [r7], #-99	; 0x63
    1744:	5f31676f 	svcpl	0x0031676f
    1748:	5f717249 	svcpl	0x00717249
    174c:	00617453 	rsbeq	r7, r1, r3, asr r4
    1750:	31737641 	cmncc	r3, r1, asr #12
    1754:	00746e43 	rsbseq	r6, r4, r3, asr #28
    1758:	43746e49 	cmnmi	r4, #1168	; 0x490
    175c:	54006c74 	strpl	r6, [r0], #-3188	; 0xc74
    1760:	4930726d 	ldmdbmi	r0!, {r0, r2, r3, r5, r6, r9, ip, sp, lr}
    1764:	6156746e 	cmpvs	r6, lr, ror #8
    1768:	4457006c 	ldrbmi	r0, [r7], #-108	; 0x6c
    176c:	5f31676f 	svcpl	0x0031676f
    1770:	6c727443 	cfldrdvs	mvd7, [r2], #-268	; 0xfffffef4
    1774:	6765525f 			; <UNDEFINED> instruction: 0x6765525f
    1778:	726d5400 	rsbvc	r5, sp, #0
    177c:	6c744331 	ldclvs	3, cr4, [r4], #-196	; 0xffffff3c
    1780:	726d5400 	rsbvc	r5, sp, #0
    1784:	746e4330 	strbtvc	r4, [lr], #-816	; 0x330
    1788:	006c6156 	rsbeq	r6, ip, r6, asr r1
    178c:	35726d54 	ldrbcc	r6, [r2, #-3412]!	; 0xd54
    1790:	006c7443 	rsbeq	r7, ip, r3, asr #8
    1794:	32726d54 	rsbscc	r6, r2, #5376	; 0x1500
    1798:	56746e49 	ldrbtpl	r6, [r4], -r9, asr #28
    179c:	5f006c61 	svcpl	0x00006c61
    17a0:	6d656d5f 	stclvs	13, cr6, [r5, #-380]!	; 0xfffffe84
    17a4:	726d745f 	rsbvc	r7, sp, #1593835520	; 0x5f000000
    17a8:	6765725f 			; <UNDEFINED> instruction: 0x6765725f
    17ac:	5400745f 	strpl	r7, [r0], #-1119	; 0x45f
    17b0:	4332726d 	teqmi	r2, #-805306362	; 0xd0000006
    17b4:	6156746e 	cmpvs	r6, lr, ror #8
    17b8:	6157006c 	cmpvs	r7, ip, rrx
    17bc:	44686374 	strbtmi	r6, [r8], #-884	; 0x374
    17c0:	5f31676f 	svcpl	0x0031676f
    17c4:	5f717249 	svcpl	0x00717249
    17c8:	425f6e45 	subsmi	r6, pc, #1104	; 0x450
    17cc:	6d006b61 	vstrvs	d6, [r0, #-388]	; 0xfffffe7c
    17d0:	745f6d65 	ldrbvc	r6, [pc], #-3429	; 17d8 <printk+0x204>
    17d4:	655f726d 	ldrbvs	r7, [pc, #-621]	; 156f <itoa.constprop.0+0x83>
    17d8:	00746978 	rsbseq	r6, r4, r8, ror r9
    17dc:	68637261 	stmdavs	r3!, {r0, r5, r6, r9, ip, sp, lr}^
    17e0:	6d72612f 	ldfvse	f6, [r2, #-188]!	; 0xffffff44
    17e4:	63616d2f 	cmnvs	r1, #3008	; 0xbc0
    17e8:	75732d68 	ldrbvc	r2, [r3, #-3432]!	; 0xd68
    17ec:	2f69786e 	svccs	0x0069786e
    17f0:	732f6d70 	teqvc	pc, #7168	; 0x1c00
    17f4:	646e6174 	strbtvs	r6, [lr], #-372	; 0x174
    17f8:	2e2f7962 	cdpcs	9, 2, cr7, cr15, cr2, {3}
    17fc:	656d2f2e 	strbvs	r2, [sp, #-3886]!	; 0xf2e
    1800:	6d745f6d 	ldclvs	15, cr5, [r4, #-436]!	; 0xfffffe4c
    1804:	00632e72 	rsbeq	r2, r3, r2, ror lr
    1808:	34726d54 	ldrbtcc	r6, [r2], #-3412	; 0xd54
    180c:	56746e49 	ldrbtpl	r6, [r4], -r9, asr #28
    1810:	54006c61 	strpl	r6, [r0], #-3169	; 0xc61
    1814:	4334726d 	teqmi	r4, #-805306362	; 0xd0000006
    1818:	6156746e 	cmpvs	r6, lr, ror #8
    181c:	6157006c 	cmpvs	r7, ip, rrx
    1820:	44686374 	strbtmi	r6, [r8], #-884	; 0x374
    1824:	5f31676f 	svcpl	0x0031676f
    1828:	666e6f43 	strbtvs	r6, [lr], -r3, asr #30
    182c:	525f6769 	subspl	r6, pc, #27525120	; 0x1a40000
    1830:	425f6765 	subsmi	r6, pc, #26476544	; 0x1940000
    1834:	72006b61 	andvc	r6, r0, #99328	; 0x18400
    1838:	72657365 	rsbvc	r7, r5, #-1811939327	; 0x94000001
    183c:	38646576 	stmdacc	r4!, {r1, r2, r4, r5, r6, r8, sl, sp, lr}^
    1840:	726d5400 	rsbvc	r5, sp, #0
    1844:	6c744332 	ldclvs	3, cr4, [r4], #-200	; 0xffffff38
    1848:	6f445700 	svcvs	0x00445700
    184c:	4d5f3167 	ldfmie	f3, [pc, #-412]	; 16b8 <printk+0xe4>
    1850:	5f65646f 	svcpl	0x0065646f
    1854:	00676552 	rsbeq	r6, r7, r2, asr r5
    1858:	63746157 	cmnvs	r4, #-1073741803	; 0xc0000015
    185c:	676f4468 	strbvs	r4, [pc, -r8, ror #8]!
    1860:	6f4d5f31 	svcvs	0x004d5f31
    1864:	65525f64 	ldrbvs	r5, [r2, #-3940]	; 0xf64
    1868:	61425f67 	cmpvs	r2, r7, ror #30
    186c:	656d006b 	strbvs	r0, [sp, #-107]!	; 0x6b
    1870:	6d745f6d 	ldclvs	15, cr5, [r4, #-436]!	; 0xfffffe4c
    1874:	6e655f72 	mcrvs	15, 3, r5, cr5, cr2, {3}
    1878:	656c6261 	strbvs	r6, [ip, #-609]!	; 0x261
    187c:	7461775f 	strbtvc	r7, [r1], #-1887	; 0x75f
    1880:	6f646863 	svcvs	0x00646863
    1884:	656d0067 	strbvs	r0, [sp, #-103]!	; 0x67
    1888:	6d745f6d 	ldclvs	15, cr5, [r4, #-436]!	; 0xfffffe4c
    188c:	6e695f72 	mcrvs	15, 3, r5, cr9, cr2, {3}
    1890:	57007469 	strpl	r7, [r0, -r9, ror #8]
    1894:	31676f44 	cmncc	r7, r4, asr #30
    1898:	7172495f 	cmnvc	r2, pc, asr r9
    189c:	006e455f 	rsbeq	r4, lr, pc, asr r5
    18a0:	5f6d656d 	svcpl	0x006d656d
    18a4:	5f726d74 	svcpl	0x00726d74
    18a8:	74736572 	ldrbtvc	r6, [r3], #-1394	; 0x572
    18ac:	0065726f 	rsbeq	r7, r5, pc, ror #4
    18b0:	454d5f5f 	strbmi	r5, [sp, #-3935]	; 0xf5f
    18b4:	4d545f4d 	ldclmi	15, cr5, [r4, #-308]	; 0xfffffecc
    18b8:	45525f52 	ldrbmi	r5, [r2, #-3922]	; 0xf52
    18bc:	656d0047 	strbvs	r0, [sp, #-71]!	; 0x47
    18c0:	6d745f6d 	ldclvs	15, cr5, [r4, #-436]!	; 0xfffffe4c
    18c4:	69645f72 	stmdbvs	r4!, {r1, r4, r5, r6, r8, r9, sl, fp, ip, lr}^
    18c8:	6c626173 	stfvse	f6, [r2], #-460	; 0xfffffe34
    18cc:	61775f65 	cmnvs	r7, r5, ror #30
    18d0:	64686374 	strbtvs	r6, [r8], #-884	; 0x374
    18d4:	5400676f 	strpl	r6, [r0], #-1903	; 0x76f
    18d8:	4931726d 	ldmdbmi	r1!, {r0, r2, r3, r5, r6, r9, ip, sp, lr}
    18dc:	6156746e 	cmpvs	r6, lr, ror #8
    18e0:	7470006c 	ldrbtvc	r0, [r0], #-108	; 0x6c
    18e4:	735f726d 	cmpvc	pc, #-805306362	; 0xd0000006
    18e8:	65746174 	ldrbvs	r6, [r4, #-372]!	; 0x174
    18ec:	73764100 	cmnvc	r6, #0
    18f0:	00766944 	rsbseq	r6, r6, r4, asr #18
    18f4:	33726d54 	cmncc	r2, #5376	; 0x1500
    18f8:	006c7443 	rsbeq	r7, ip, r3, asr #8
    18fc:	43737641 	cmnmi	r3, #68157440	; 0x4100000
    1900:	49006c74 	stmdbmi	r0, {r2, r4, r5, r6, sl, fp, sp, lr}
    1904:	7453746e 	ldrbvc	r7, [r3], #-1134	; 0x46e
    1908:	6d540061 	ldclvs	0, cr0, [r4, #-388]	; 0xfffffe7c
    190c:	6e433172 	mcrvs	1, 2, r3, cr3, cr2, {3}
    1910:	6c615674 	stclvs	6, cr5, [r1], #-464	; 0xfffffe30
    1914:	726d5400 	rsbvc	r5, sp, #0
    1918:	746e4933 	strbtvc	r4, [lr], #-2355	; 0x933
    191c:	006c6156 	rsbeq	r6, ip, r6, asr r1
    1920:	676f4457 			; <UNDEFINED> instruction: 0x676f4457
    1924:	66435f31 			; <UNDEFINED> instruction: 0x66435f31
    1928:	65525f67 	ldrbvs	r5, [r2, #-3943]	; 0xf67
    192c:	76410067 	strbvc	r0, [r1], -r7, rrx
    1930:	6e433073 	mcrvs	0, 2, r3, cr3, cr3, {3}
    1934:	6d540074 	ldclvs	0, cr0, [r4, #-464]	; 0xfffffe30
    1938:	6e493572 	mcrvs	5, 2, r3, cr9, cr2, {3}
    193c:	6c615674 	stclvs	6, cr5, [r1], #-464	; 0xfffffe30
    1940:	726d5400 	rsbvc	r5, sp, #0
    1944:	746e4335 	strbtvc	r4, [lr], #-821	; 0x335
    1948:	006c6156 	rsbeq	r6, ip, r6, asr r1
    194c:	52726d54 	rsbspl	r6, r2, #5376	; 0x1500
    1950:	54006765 	strpl	r6, [r0], #-1893	; 0x765
    1954:	4330726d 	teqmi	r0, #-805306362	; 0xd0000006
    1958:	54006c74 	strpl	r6, [r0], #-3188	; 0xc74
    195c:	4334726d 	teqmi	r4, #-805306362	; 0xd0000006
    1960:	6d006c74 	stcvs	12, cr6, [r0, #-464]	; 0xfffffe30
    1964:	745f6d65 	ldrbvc	r6, [pc], #-3429	; 196c <printk_nommu+0xc8>
    1968:	735f726d 	cmpvc	pc, #-805306362	; 0xd0000006
    196c:	00657661 	rsbeq	r7, r5, r1, ror #12
    1970:	68637261 	stmdavs	r3!, {r0, r5, r6, r9, ip, sp, lr}^
    1974:	6d72612f 	ldfvse	f6, [r2, #-188]!	; 0xffffff44
    1978:	63616d2f 	cmnvs	r1, #3008	; 0xbc0
    197c:	75732d68 	ldrbvc	r2, [r3, #-3432]!	; 0xd68
    1980:	2f69786e 	svccs	0x0069786e
    1984:	732f6d70 	teqvc	pc, #7168	; 0x1c00
    1988:	646e6174 	strbtvs	r6, [lr], #-372	; 0x174
    198c:	2e2f7962 	cdpcs	9, 2, cr7, cr15, cr2, {3}
    1990:	656d2f2e 	strbvs	r2, [sp, #-3886]!	; 0xf2e
    1994:	6d745f6d 	ldclvs	15, cr5, [r4, #-436]!	; 0xfffffe4c
    1998:	706d7473 	rsbvc	r7, sp, r3, ror r4
    199c:	6100632e 	tstvs	r0, lr, lsr #6
    19a0:	2f686372 	svccs	0x00686372
    19a4:	2f6d7261 	svccs	0x006d7261
    19a8:	6863616d 	stmdavs	r3!, {r0, r2, r3, r5, r6, r8, sp, lr}^
    19ac:	6e75732d 	cdpvs	3, 7, cr7, cr5, cr13, {1}
    19b0:	702f6978 	eorvc	r6, pc, r8, ror r9	; <UNPREDICTABLE>
    19b4:	74732f6d 	ldrbtvc	r2, [r3], #-3949	; 0xf6d
    19b8:	62646e61 	rsbvs	r6, r4, #1552	; 0x610
    19bc:	2e2e2f79 	mcrcs	15, 1, r2, cr14, cr9, {3}
    19c0:	6d656d2f 	stclvs	13, cr6, [r5, #-188]!	; 0xffffff44
    19c4:	7377685f 	cmnvc	r7, #6225920	; 0x5f0000
    19c8:	6c6e6970 	stclvs	9, cr6, [lr], #-448	; 0xfffffe40
    19cc:	2e6b636f 	cdpcs	3, 6, cr6, cr11, cr15, {3}
    19d0:	656d0063 	strbvs	r0, [sp, #-99]!	; 0x63
    19d4:	6c635f6d 	stclvs	15, cr5, [r3], #-436	; 0xfffffe4c
    19d8:	65675f6b 	strbvs	r5, [r7, #-3947]!	; 0xf6b
    19dc:	696d5f74 	stmdbvs	sp!, {r2, r4, r5, r6, r8, r9, sl, fp, ip, lr}^
    19e0:	61006373 	tstvs	r0, r3, ror r3
    19e4:	2f686372 	svccs	0x00686372
    19e8:	2f6d7261 	svccs	0x006d7261
    19ec:	6863616d 	stmdavs	r3!, {r0, r2, r3, r5, r6, r8, sp, lr}^
    19f0:	6e75732d 	cdpvs	3, 7, cr7, cr5, cr13, {1}
    19f4:	702f6978 	eorvc	r6, pc, r8, ror r9	; <UNPREDICTABLE>
    19f8:	74732f6d 	ldrbtvc	r2, [r3], #-3949	; 0xf6d
    19fc:	62646e61 	rsbvs	r6, r4, #1552	; 0x610
    1a00:	2e2e2f79 	mcrcs	15, 1, r2, cr14, cr9, {3}
    1a04:	6d656d2f 	stclvs	13, cr6, [r5, #-188]!	; 0xffffff44
    1a08:	6b6c635f 	blvs	1b1a78c <__bss_end+0x1b17ecc>
    1a0c:	6d00632e 	stcvs	3, cr6, [r0, #-184]	; 0xffffff48
    1a10:	635f6d65 	cmpvs	pc, #6464	; 0x1940
    1a14:	695f6b6c 	ldmdbvs	pc, {r2, r3, r5, r6, r8, r9, fp, sp, lr}^	; <UNPREDICTABLE>
    1a18:	0074696e 	rsbseq	r6, r4, lr, ror #18
    1a1c:	5f6d656d 	svcpl	0x006d656d
    1a20:	5f6b6c63 	svcpl	0x006b6c63
    1a24:	5f746573 	svcpl	0x00746573
    1a28:	6373696d 	cmnvs	r3, #1785856	; 0x1b4000
    1a2c:	756d4300 	strbvc	r4, [sp, #-768]!	; 0x300
    1a30:	5f676552 	svcpl	0x00676552
    1a34:	316c6c50 	cmncc	ip, r0, asr ip
    1a38:	5f6c7443 	svcpl	0x006c7443
    1a3c:	00706d74 	rsbseq	r6, r0, r4, ror sp
    1a40:	5f6d656d 	svcpl	0x006d656d
    1a44:	5f6b6c63 	svcpl	0x006b6c63
    1a48:	5f746567 	svcpl	0x00746567
    1a4c:	5f757063 	svcpl	0x00757063
    1a50:	71657266 	cmnvc	r5, r6, ror #4
    1a54:	6d656d00 	stclvs	13, cr6, [r5, #-0]
    1a58:	6b6c635f 	blvs	1b1a7dc <__bss_end+0x1b17f1c>
    1a5c:	7465675f 	strbtvc	r6, [r5], #-1887	; 0x75f
    1a60:	00766964 	rsbseq	r6, r6, r4, ror #18
    1a64:	5f6d656d 	svcpl	0x006d656d
    1a68:	5f6b6c63 	svcpl	0x006b6c63
    1a6c:	65766173 	ldrbvs	r6, [r6, #-371]!	; 0x173
    1a70:	75636300 	strbvc	r6, [r3, #-768]!	; 0x300
    1a74:	6765725f 			; <UNDEFINED> instruction: 0x6765725f
    1a78:	6361625f 	cmnvs	r1, #-268435451	; 0xf0000005
    1a7c:	656d006b 	strbvs	r0, [sp, #-107]!	; 0x6b
    1a80:	6c635f6d 	stclvs	15, cr5, [r3], #-436	; 0xfffffe4c
    1a84:	65735f6b 	ldrbvs	r5, [r3, #-3947]!	; 0xf6b
    1a88:	6c705f74 	ldclvs	15, cr5, [r0], #-464	; 0xfffffe30
    1a8c:	61665f6c 	cmnvs	r6, ip, ror #30
    1a90:	726f7463 	rsbvc	r7, pc, #1660944384	; 0x63000000
    1a94:	6d656d00 	stclvs	13, cr6, [r5, #-0]
    1a98:	6b6c635f 	blvs	1b1a81c <__bss_end+0x1b17f5c>
    1a9c:	7465675f 	strbtvc	r6, [r5], #-1887	; 0x75f
    1aa0:	6c6c705f 	stclvs	0, cr7, [ip], #-380	; 0xfffffe84
    1aa4:	6361665f 	cmnvs	r1, #99614720	; 0x5f00000
    1aa8:	00726f74 	rsbseq	r6, r2, r4, ror pc
    1aac:	5f676572 	svcpl	0x00676572
    1ab0:	006c6176 	rsbeq	r6, ip, r6, ror r1
    1ab4:	5f6d656d 	svcpl	0x006d656d
    1ab8:	5f6b6c63 	svcpl	0x006b6c63
    1abc:	64746573 	ldrbtvs	r6, [r4], #-1395	; 0x573
    1ac0:	6d007669 	stcvs	6, cr7, [r0, #-420]	; 0xfffffe5c
    1ac4:	675f6d65 	ldrbvs	r6, [pc, -r5, ror #26]
    1ac8:	625f7465 	subsvs	r7, pc, #1694498816	; 0x65000000
    1acc:	63700061 	cmnvs	r0, #97	; 0x61
    1ad0:	735f6b6c 	cmpvc	pc, #110592	; 0x1b000
    1ad4:	65746174 	ldrbvs	r6, [r4, #-372]!	; 0x174
    1ad8:	6d656d00 	stclvs	13, cr6, [r5, #-0]
    1adc:	6b6c635f 	blvs	1b1a860 <__bss_end+0x1b17fa0>
    1ae0:	7365725f 	cmnvc	r5, #-268435451	; 0xf0000005
    1ae4:	65726f74 	ldrbvs	r6, [r2, #-3956]!	; 0xf74
    1ae8:	756d4300 	strbvc	r4, [sp, #-768]!	; 0x300
    1aec:	5f676552 	svcpl	0x00676552
    1af0:	43737953 	cmnmi	r3, #1359872	; 0x14c000
    1af4:	69446b6c 	stmdbvs	r4, {r2, r3, r5, r6, r8, r9, fp, sp, lr}^
    1af8:	6d745f76 	ldclvs	15, cr5, [r4, #-472]!	; 0xfffffe28
    1afc:	Address 0x00001afc is out of bounds.


Disassembly of section .comment:

00000000 <.comment>:
   0:	3a434347 	bcc	10d0d24 <__bss_end+0x10ce464>
   4:	72632820 	rsbvc	r2, r3, #2097152	; 0x200000
   8:	7473736f 	ldrbtvc	r7, [r3], #-879	; 0x36f
   c:	2d6c6f6f 	stclcs	15, cr6, [ip, #-444]!	; 0xfffffe44
  10:	6c20474e 	stcvs	7, cr4, [r0], #-312	; 0xfffffec8
  14:	72616e69 	rsbvc	r6, r1, #1680	; 0x690
  18:	2e312d6f 	cdpcs	13, 3, cr2, cr1, cr15, {3}
  1c:	312e3331 	teqcc	lr, r1, lsr r3
  20:	3130322d 	teqcc	r0, sp, lsr #4
  24:	32302e32 	eorscc	r2, r0, #800	; 0x320
  28:	3130322d 	teqcc	r0, sp, lsr #4
  2c:	32323032 	eorscc	r3, r2, #50	; 0x32
  30:	202d2032 	eorcs	r2, sp, r2, lsr r0
  34:	616e694c 	cmnvs	lr, ip, asr #18
  38:	47206f72 			; <UNDEFINED> instruction: 0x47206f72
  3c:	32204343 	eorcc	r4, r0, #201326593	; 0xc000001
  40:	2e323130 	mrccs	1, 1, r3, cr2, cr0, {1}
  44:	20293230 	eorcs	r3, r9, r0, lsr r2
  48:	2e362e34 	mrccs	14, 1, r2, cr6, cr4, {1}
  4c:	30322033 	eorscc	r2, r2, r3, lsr r0
  50:	32303231 	eorscc	r3, r0, #268435459	; 0x10000003
  54:	28203130 	stmdacs	r0!, {r4, r5, r8, ip, sp}
  58:	72657270 	rsbvc	r7, r5, #7
  5c:	61656c65 	cmnvs	r5, r5, ror #24
  60:	00296573 	eoreq	r6, r9, r3, ror r5

Disassembly of section .ARM.attributes:

00000000 <.ARM.attributes>:
   0:	00003241 	andeq	r3, r0, r1, asr #4
   4:	61656100 	cmnvs	r5, r0, lsl #2
   8:	01006962 	tsteq	r0, r2, ror #18
   c:	00000028 	andeq	r0, r0, r8, lsr #32
  10:	412d3705 	teqmi	sp, r5, lsl #14
  14:	070a0600 	streq	r0, [sl, -r0, lsl #12]
  18:	09010841 	stmdbeq	r1, {r0, r6, fp}
  1c:	12040a02 	andne	r0, r4, #8192	; 0x2000
  20:	15011404 	strne	r1, [r1, #-1028]	; 0x404
  24:	18031701 	stmdane	r3, {r0, r8, r9, sl, ip}
  28:	1b021a01 	blne	86834 <__bss_end+0x83f74>
  2c:	22021e03 	andcs	r1, r2, #48	; 0x30
  30:	Address 0x00000030 is out of bounds.


Disassembly of section .debug_aranges:

00000000 <.debug_aranges>:
   0:	0000001c 	andeq	r0, r0, ip, lsl r0
   4:	01400002 	cmpeq	r0, r2
   8:	00040000 	andeq	r0, r4, r0
   c:	00000000 	andeq	r0, r0, r0
  10:	00000030 	andeq	r0, r0, r0, lsr r0
  14:	000000a0 	andeq	r0, r0, r0, lsr #1
	...
  20:	0000001c 	andeq	r0, r0, ip, lsl r0
  24:	01c40002 	biceq	r0, r4, r2
  28:	00040000 	andeq	r0, r4, r0
  2c:	00000000 	andeq	r0, r0, r0
  30:	000000d0 	ldrdeq	r0, [r0], -r0	; <UNPREDICTABLE>
  34:	00000028 	andeq	r0, r0, r8, lsr #32
	...
  40:	0000001c 	andeq	r0, r0, ip, lsl r0
  44:	02f20002 	rscseq	r0, r2, #2
  48:	00040000 	andeq	r0, r4, r0
  4c:	00000000 	andeq	r0, r0, r0
  50:	000000f8 	strdeq	r0, [r0], -r8
  54:	00000028 	andeq	r0, r0, r8, lsr #32
	...
  60:	0000001c 	andeq	r0, r0, ip, lsl r0
  64:	04a20002 	strteq	r0, [r2], #2
  68:	00040000 	andeq	r0, r4, r0
  6c:	00000000 	andeq	r0, r0, r0
  70:	00000120 	andeq	r0, r0, r0, lsr #2
  74:	000001fc 	strdeq	r0, [r0], -ip
	...
  80:	0000001c 	andeq	r0, r0, ip, lsl r0
  84:	19d40002 	ldmibne	r4, {r1}^
  88:	00040000 	andeq	r0, r4, r0
  8c:	00000000 	andeq	r0, r0, r0
  90:	0000031c 	andeq	r0, r0, ip, lsl r3
  94:	00000178 	andeq	r0, r0, r8, ror r1
	...
  a0:	0000001c 	andeq	r0, r0, ip, lsl r0
  a4:	1c630002 	stclne	0, cr0, [r3], #-8
  a8:	00040000 	andeq	r0, r4, r0
  ac:	00000000 	andeq	r0, r0, r0
  b0:	00000494 	muleq	r0, r4, r4
  b4:	000001bc 			; <UNDEFINED> instruction: 0x000001bc
	...
  c0:	0000001c 	andeq	r0, r0, ip, lsl r0
  c4:	20d40002 	sbcscs	r0, r4, r2
  c8:	00040000 	andeq	r0, r4, r0
  cc:	00000000 	andeq	r0, r0, r0
  d0:	00000660 	andeq	r0, r0, r0, ror #12
  d4:	000000a0 	andeq	r0, r0, r0, lsr #1
	...
  e0:	0000001c 	andeq	r0, r0, ip, lsl r0
  e4:	221c0002 	andscs	r0, ip, #2
  e8:	00040000 	andeq	r0, r4, r0
  ec:	00000000 	andeq	r0, r0, r0
  f0:	00000700 	andeq	r0, r0, r0, lsl #14
  f4:	00000530 	andeq	r0, r0, r0, lsr r5
	...
 100:	0000001c 	andeq	r0, r0, ip, lsl r0
 104:	229d0002 	addscs	r0, sp, #2
 108:	00040000 	andeq	r0, r4, r0
 10c:	00000000 	andeq	r0, r0, r0
 110:	00000c40 	andeq	r0, r0, r0, asr #24
 114:	000002dc 	ldrdeq	r0, [r0], -ip
	...
 120:	0000001c 	andeq	r0, r0, ip, lsl r0
 124:	27bd0002 	ldrcs	r0, [sp, r2]!
 128:	00040000 	andeq	r0, r4, r0
 12c:	00000000 	andeq	r0, r0, r0
 130:	00000f1c 	andeq	r0, r0, ip, lsl pc
 134:	0000046c 	andeq	r0, r0, ip, ror #8
	...
 140:	0000001c 	andeq	r0, r0, ip, lsl r0
 144:	3df00002 	ldclcc	0, cr0, [r0, #8]!
 148:	00040000 	andeq	r0, r4, r0
 14c:	00000000 	andeq	r0, r0, r0
 150:	00001388 	andeq	r1, r0, r8, lsl #7
 154:	000007ec 	andeq	r0, r0, ip, ror #15
	...
 160:	0000001c 	andeq	r0, r0, ip, lsl r0
 164:	45c70002 	strbmi	r0, [r7, #2]
 168:	00040000 	andeq	r0, r4, r0
 16c:	00000000 	andeq	r0, r0, r0
 170:	00001b74 	andeq	r1, r0, r4, ror fp
 174:	000001dc 	ldrdeq	r0, [r0], -ip
	...
 180:	0000001c 	andeq	r0, r0, ip, lsl r0
 184:	46440002 	strbmi	r0, [r4], -r2
 188:	00040000 	andeq	r0, r4, r0
 18c:	00000000 	andeq	r0, r0, r0
 190:	00001d50 	andeq	r1, r0, r0, asr sp
 194:	00000058 	andeq	r0, r0, r8, asr r0
	...
 1a0:	0000001c 	andeq	r0, r0, ip, lsl r0
 1a4:	47370002 	ldrmi	r0, [r7, -r2]!
 1a8:	00040000 	andeq	r0, r4, r0
 1ac:	00000000 	andeq	r0, r0, r0
 1b0:	00001da8 	andeq	r1, r0, r8, lsr #27
 1b4:	0000018c 	andeq	r0, r0, ip, lsl #3
	...
 1c0:	0000001c 	andeq	r0, r0, ip, lsl r0
 1c4:	49170002 	ldmdbmi	r7, {r1}
 1c8:	00040000 	andeq	r0, r4, r0
 1cc:	00000000 	andeq	r0, r0, r0
 1d0:	00001f34 	andeq	r1, r0, r4, lsr pc
 1d4:	00000198 	muleq	r0, r8, r1
	...
 1e0:	0000001c 	andeq	r0, r0, ip, lsl r0
 1e4:	4dcd0002 	stclmi	0, cr0, [sp, #8]
 1e8:	00040000 	andeq	r0, r4, r0
 1ec:	00000000 	andeq	r0, r0, r0
 1f0:	000020cc 	andeq	r2, r0, ip, asr #1
 1f4:	00000350 	andeq	r0, r0, r0, asr r3
	...

Disassembly of section .debug_loc:

00000000 <.debug_loc>:
       0:	00000000 	andeq	r0, r0, r0
       4:	00000010 	andeq	r0, r0, r0, lsl r0
       8:	00500001 	subseq	r0, r0, r1
	...
      14:	10000000 	andne	r0, r0, r0
      18:	01000000 	mrseq	r0, (UNDEF: 0)
      1c:	00005100 	andeq	r5, r0, r0, lsl #2
	...
      28:	00040000 	andeq	r0, r4, r0
      2c:	00010000 	andeq	r0, r1, r0
      30:	00000452 	andeq	r0, r0, r2, asr r4
      34:	00000800 	andeq	r0, r0, r0, lsl #16
      38:	72000300 	andvc	r0, r0, #0
      3c:	00089f7d 	andeq	r9, r8, sp, ror pc
      40:	00140000 	andseq	r0, r4, r0
      44:	00010000 	andeq	r0, r1, r0
      48:	00000052 	andeq	r0, r0, r2, asr r0
      4c:	00000000 	andeq	r0, r0, r0
      50:	00000800 	andeq	r0, r0, r0, lsl #16
      54:	00001400 	andeq	r1, r0, r0, lsl #8
      58:	51000100 	mrspl	r0, (UNDEF: 16)
	...
      68:	00000004 	andeq	r0, r0, r4
      6c:	007d0002 	rsbseq	r0, sp, r2
      70:	00000004 	andeq	r0, r0, r4
      74:	000000e8 	andeq	r0, r0, r8, ror #1
      78:	087d0002 	ldmdaeq	sp!, {r1}^
	...
      84:	000000e8 	andeq	r0, r0, r8, ror #1
      88:	000000ec 	andeq	r0, r0, ip, ror #1
      8c:	007d0002 	rsbseq	r0, sp, r2
      90:	000000ec 	andeq	r0, r0, ip, ror #1
      94:	000001fc 	strdeq	r0, [r0], -ip
      98:	107d0002 	rsbsne	r0, sp, r2
	...
      a4:	00000124 	andeq	r0, r0, r4, lsr #2
      a8:	00000127 	andeq	r0, r0, r7, lsr #2
      ac:	27500001 	ldrbcs	r0, [r0, -r1]
      b0:	b8000001 	stmdalt	r0, {r0}
      b4:	01000001 	tsteq	r0, r1
      b8:	01e45400 	mvneq	r5, r0, lsl #8
      bc:	01fc0000 	mvnseq	r0, r0
      c0:	00010000 	andeq	r0, r1, r0
      c4:	00000054 	andeq	r0, r0, r4, asr r0
      c8:	00000000 	andeq	r0, r0, r0
      cc:	0000e800 	andeq	lr, r0, r0, lsl #16
      d0:	0000f000 	andeq	pc, r0, r0
      d4:	30000200 	andcc	r0, r0, r0, lsl #4
      d8:	0000f09f 	muleq	r0, pc, r0	; <UNPREDICTABLE>
      dc:	0000f400 	andeq	pc, r0, r0, lsl #8
      e0:	70000500 	andvc	r0, r0, r0, lsl #10
      e4:	9f1a3300 	svcls	0x001a3300
      e8:	000000f4 	strdeq	r0, [r0], -r4
      ec:	00000118 	andeq	r0, r0, r8, lsl r1
      f0:	18500001 	ldmdane	r0, {r0}^
      f4:	1f000001 	svcne	0x00000001
      f8:	02000001 	andeq	r0, r0, #1
      fc:	b87c7300 	ldmdalt	ip!, {r8, r9, ip, sp, lr}^
     100:	c8000001 	stmdagt	r0, {r0}
     104:	01000001 	tsteq	r0, r1
     108:	01c85000 	biceq	r5, r8, r0
     10c:	01d00000 	bicseq	r0, r0, r0
     110:	00060000 	andeq	r0, r6, r0
     114:	90808070 	addls	r8, r0, r0, ror r0
     118:	01d09f7c 	bicseq	r9, r0, ip, ror pc
     11c:	01d40000 	bicseq	r0, r4, r0
     120:	00060000 	andeq	r0, r6, r0
     124:	8fffbf70 	svchi	0x00ffbf70
     128:	00009f7c 	andeq	r9, r0, ip, ror pc
	...
     134:	00040000 	andeq	r0, r4, r0
     138:	00020000 	andeq	r0, r2, r0
     13c:	0004007d 	andeq	r0, r4, sp, ror r0
     140:	00200000 	eoreq	r0, r0, r0
     144:	00020000 	andeq	r0, r2, r0
     148:	0000087d 	andeq	r0, r0, sp, ror r8
     14c:	00000000 	andeq	r0, r0, r0
     150:	00300000 	eorseq	r0, r0, r0
     154:	00400000 	subeq	r0, r0, r0
     158:	00020000 	andeq	r0, r2, r0
     15c:	00409f30 	subeq	r9, r0, r0, lsr pc
     160:	00440000 	subeq	r0, r4, r0
     164:	00020000 	andeq	r0, r2, r0
     168:	00449f31 	subeq	r9, r4, r1, lsr pc
     16c:	00480000 	subeq	r0, r8, r0
     170:	00020000 	andeq	r0, r2, r0
     174:	00489f32 	subeq	r9, r8, r2, lsr pc
     178:	004c0000 	subeq	r0, ip, r0
     17c:	00020000 	andeq	r0, r2, r0
     180:	004c9f33 	subeq	r9, ip, r3, lsr pc
     184:	00500000 	subseq	r0, r0, r0
     188:	00020000 	andeq	r0, r2, r0
     18c:	00009f34 	andeq	r9, r0, r4, lsr pc
     190:	00000000 	andeq	r0, r0, r0
     194:	00540000 	subseq	r0, r4, r0
     198:	00580000 	subseq	r0, r8, r0
     19c:	00020000 	andeq	r0, r2, r0
     1a0:	0058007d 	subseq	r0, r8, sp, ror r0
     1a4:	007c0000 	rsbseq	r0, ip, r0
     1a8:	00020000 	andeq	r0, r2, r0
     1ac:	0000087d 	andeq	r0, r0, sp, ror r8
     1b0:	00000000 	andeq	r0, r0, r0
     1b4:	008c0000 	addeq	r0, ip, r0
     1b8:	00900000 	addseq	r0, r0, r0
     1bc:	00020000 	andeq	r0, r2, r0
     1c0:	0090007d 	addseq	r0, r0, sp, ror r0
     1c4:	00c40000 	sbceq	r0, r4, r0
     1c8:	00020000 	andeq	r0, r2, r0
     1cc:	0000107d 	andeq	r1, r0, sp, ror r0
     1d0:	00000000 	andeq	r0, r0, r0
     1d4:	008c0000 	addeq	r0, ip, r0
     1d8:	00a00000 	adceq	r0, r0, r0
     1dc:	00020000 	andeq	r0, r2, r0
     1e0:	00009f30 	andeq	r9, r0, r0, lsr pc
     1e4:	00000000 	andeq	r0, r0, r0
     1e8:	00c40000 	sbceq	r0, r4, r0
     1ec:	00c80000 	sbceq	r0, r8, r0
     1f0:	00020000 	andeq	r0, r2, r0
     1f4:	00c8007d 	sbceq	r0, r8, sp, ror r0
     1f8:	00e00000 	rsceq	r0, r0, r0
     1fc:	00020000 	andeq	r0, r2, r0
     200:	0000087d 	andeq	r0, r0, sp, ror r8
     204:	00000000 	andeq	r0, r0, r0
     208:	00e00000 	rsceq	r0, r0, r0
     20c:	00e40000 	rsceq	r0, r4, r0
     210:	00020000 	andeq	r0, r2, r0
     214:	00e4007d 	rsceq	r0, r4, sp, ror r0
     218:	00fc0000 	rscseq	r0, ip, r0
     21c:	00020000 	andeq	r0, r2, r0
     220:	0000087d 	andeq	r0, r0, sp, ror r8
     224:	00000000 	andeq	r0, r0, r0
     228:	01440000 	mrseq	r0, (UNDEF: 68)
     22c:	01480000 	mrseq	r0, (UNDEF: 72)
     230:	00020000 	andeq	r0, r2, r0
     234:	0148007d 	hvceq	32781	; 0x800d
     238:	01780000 	cmneq	r8, r0
     23c:	00020000 	andeq	r0, r2, r0
     240:	0000107d 	andeq	r1, r0, sp, ror r0
     244:	00000000 	andeq	r0, r0, r0
     248:	01440000 	mrseq	r0, (UNDEF: 68)
     24c:	015c0000 	cmpeq	ip, r0
     250:	00010000 	andeq	r0, r1, r0
     254:	00000050 	andeq	r0, r0, r0, asr r0
     258:	00000000 	andeq	r0, r0, r0
     25c:	00016000 	andeq	r6, r1, r0
     260:	00017000 	andeq	r7, r1, r0
     264:	56000100 	strpl	r0, [r0], -r0, lsl #2
     268:	00000170 	andeq	r0, r0, r0, ror r1
     26c:	00000178 	andeq	r0, r0, r8, ror r1
     270:	00550001 	subseq	r0, r5, r1
	...
     27c:	08000000 	stmdaeq	r0, {}	; <UNPREDICTABLE>
     280:	01000000 	mrseq	r0, (UNDEF: 0)
     284:	00005000 	andeq	r5, r0, r0
	...
     290:	000c0000 	andeq	r0, ip, r0
     294:	00020000 	andeq	r0, r2, r0
     298:	000c9f31 	andeq	r9, ip, r1, lsr pc
     29c:	00140000 	andseq	r0, r4, r0
     2a0:	00010000 	andeq	r0, r1, r0
     2a4:	00001450 	andeq	r1, r0, r0, asr r4
     2a8:	00001800 	andeq	r1, r0, r0, lsl #16
     2ac:	70000500 	andvc	r0, r0, r0, lsl #10
     2b0:	9f214000 	svcls	0x00214000
     2b4:	00000018 	andeq	r0, r0, r8, lsl r0
     2b8:	0000001c 	andeq	r0, r0, ip, lsl r0
     2bc:	1c500001 	mrrcne	0, 0, r0, r0, cr1	; <UNPREDICTABLE>
     2c0:	2c000000 	stccs	0, cr0, [r0], {-0}
     2c4:	06000000 	streq	r0, [r0], -r0
     2c8:	0f049e00 	svceq	0x00049e00
     2cc:	00800000 	addeq	r0, r0, r0
     2d0:	00000000 	andeq	r0, r0, r0
     2d4:	74000000 	strvc	r0, [r0], #-0
     2d8:	78000000 	stmdavc	r0, {}	; <UNPREDICTABLE>
     2dc:	02000000 	andeq	r0, r0, #0
     2e0:	789f3000 	ldmvc	pc, {ip, sp}	; <UNPREDICTABLE>
     2e4:	7c000000 	stcvc	0, cr0, [r0], {-0}
     2e8:	05000000 	streq	r0, [r0, #-0]
     2ec:	34007300 	strcc	r7, [r0], #-768	; 0x300
     2f0:	007c9f21 	rsbseq	r9, ip, r1, lsr #30
     2f4:	00840000 	addeq	r0, r4, r0
     2f8:	00010000 	andeq	r0, r1, r0
     2fc:	00000053 	andeq	r0, r0, r3, asr r0
     300:	00000000 	andeq	r0, r0, r0
     304:	00008400 	andeq	r8, r0, r0, lsl #8
     308:	00008800 	andeq	r8, r0, r0, lsl #16
     30c:	7d000200 	sfmvc	f0, 4, [r0, #-0]
     310:	00008800 	andeq	r8, r0, r0, lsl #16
     314:	0000ac00 	andeq	sl, r0, r0, lsl #24
     318:	7d000200 	sfmvc	f0, 4, [r0, #-0]
     31c:	00000008 	andeq	r0, r0, r8
     320:	00000000 	andeq	r0, r0, r0
     324:	00008400 	andeq	r8, r0, r0, lsl #8
     328:	00008c00 	andeq	r8, r0, r0, lsl #24
     32c:	30000200 	andcc	r0, r0, r0, lsl #4
     330:	0000009f 	muleq	r0, pc, r0	; <UNPREDICTABLE>
     334:	00000000 	andeq	r0, r0, r0
     338:	00008c00 	andeq	r8, r0, r0, lsl #24
     33c:	00009800 	andeq	r9, r0, r0, lsl #16
     340:	53000100 	movwpl	r0, #256	; 0x100
	...
     34c:	00000090 	muleq	r0, r0, r0
     350:	000000a3 	andeq	r0, r0, r3, lsr #1
     354:	00520001 	subseq	r0, r2, r1
     358:	00000000 	andeq	r0, r0, r0
     35c:	ac000000 	stcge	0, cr0, [r0], {-0}
     360:	b0000000 	andlt	r0, r0, r0
     364:	02000000 	andeq	r0, r0, #0
     368:	b0007d00 	andlt	r7, r0, r0, lsl #26
     36c:	2c000000 	stccs	0, cr0, [r0], {-0}
     370:	02000001 	andeq	r0, r0, #1
     374:	00107d00 	andseq	r7, r0, r0, lsl #26
     378:	00000000 	andeq	r0, r0, r0
     37c:	ac000000 	stcge	0, cr0, [r0], {-0}
     380:	bc000000 	stclt	0, cr0, [r0], {-0}
     384:	01000000 	mrseq	r0, (UNDEF: 0)
     388:	00bc5000 	adcseq	r5, ip, r0
     38c:	00c40000 	sbceq	r0, r4, r0
     390:	00010000 	andeq	r0, r1, r0
     394:	0000d055 	andeq	sp, r0, r5, asr r0
     398:	0000e400 	andeq	lr, r0, r0, lsl #8
     39c:	55000100 	strpl	r0, [r0, #-256]	; 0x100
	...
     3a8:	000000ac 	andeq	r0, r0, ip, lsr #1
     3ac:	000000c4 	andeq	r0, r0, r4, asr #1
     3b0:	9f300002 	svcls	0x00300002
     3b4:	000000d0 	ldrdeq	r0, [r0], -r0	; <UNPREDICTABLE>
     3b8:	000000d8 	ldrdeq	r0, [r0], -r8
     3bc:	9f300002 	svcls	0x00300002
     3c0:	000000d8 	ldrdeq	r0, [r0], -r8
     3c4:	000000e4 	andeq	r0, r0, r4, ror #1
     3c8:	01700006 	cmneq	r0, r6
     3cc:	9f1e0075 	svcls	0x001e0075
	...
     3d8:	000000ac 	andeq	r0, r0, ip, lsr #1
     3dc:	000000c4 	andeq	r0, r0, r4, asr #1
     3e0:	9f300002 	svcls	0x00300002
     3e4:	000000d0 	ldrdeq	r0, [r0], -r0	; <UNPREDICTABLE>
     3e8:	000000dc 	ldrdeq	r0, [r0], -ip
     3ec:	9f300002 	svcls	0x00300002
     3f0:	00000110 	andeq	r0, r0, r0, lsl r1
     3f4:	00000114 	andeq	r0, r0, r4, lsl r1
     3f8:	18530001 	ldmdane	r3, {r0}^
     3fc:	1c000001 	stcne	0, cr0, [r0], {1}
     400:	01000001 	tsteq	r0, r1
     404:	00005300 	andeq	r5, r0, r0, lsl #6
     408:	00000000 	andeq	r0, r0, r0
     40c:	00ac0000 	adceq	r0, ip, r0
     410:	00c40000 	sbceq	r0, r4, r0
     414:	00020000 	andeq	r0, r2, r0
     418:	00d09f30 	sbcseq	r9, r0, r0, lsr pc
     41c:	00ec0000 	rsceq	r0, ip, r0
     420:	00020000 	andeq	r0, r2, r0
     424:	00ec9f30 	rsceq	r9, ip, r0, lsr pc
     428:	012c0000 	teqeq	ip, r0
     42c:	00010000 	andeq	r0, r1, r0
     430:	00000055 	andeq	r0, r0, r5, asr r0
     434:	00000000 	andeq	r0, r0, r0
     438:	0000ac00 	andeq	sl, r0, r0, lsl #24
     43c:	0000c400 	andeq	ip, r0, r0, lsl #8
     440:	30000200 	andcc	r0, r0, r0, lsl #4
     444:	0000d09f 	muleq	r0, pc, r0	; <UNPREDICTABLE>
     448:	0000f000 	andeq	pc, r0, r0
     44c:	30000200 	andcc	r0, r0, r0, lsl #4
     450:	0000f09f 	muleq	r0, pc, r0	; <UNPREDICTABLE>
     454:	0000f400 	andeq	pc, r0, r0, lsl #8
     458:	52000100 	andpl	r0, r0, #0
	...
     464:	000000fc 	strdeq	r0, [r0], -ip
     468:	00000114 	andeq	r0, r0, r4, lsl r1
     46c:	9f300002 	svcls	0x00300002
	...
     478:	000000fc 	strdeq	r0, [r0], -ip
     47c:	00000114 	andeq	r0, r0, r4, lsl r1
     480:	9f310002 	svcls	0x00310002
	...
     48c:	000000fc 	strdeq	r0, [r0], -ip
     490:	00000104 	andeq	r0, r0, r4, lsl #2
     494:	9f470002 	svcls	0x00470002
     498:	00000104 	andeq	r0, r0, r4, lsl #2
     49c:	00000114 	andeq	r0, r0, r4, lsl r1
     4a0:	049e0006 	ldreq	r0, [lr], #6
     4a4:	8000000f 	andhi	r0, r0, pc
	...
     4b0:	00000118 	andeq	r0, r0, r8, lsl r1
     4b4:	0000011c 	andeq	r0, r0, ip, lsl r1
     4b8:	00530001 	subseq	r0, r3, r1
     4bc:	00000000 	andeq	r0, r0, r0
     4c0:	2c000000 	stccs	0, cr0, [r0], {-0}
     4c4:	34000001 	strcc	r0, [r0], #-1
     4c8:	01000001 	tsteq	r0, r1
     4cc:	00005000 	andeq	r5, r0, r0
     4d0:	00000000 	andeq	r0, r0, r0
     4d4:	01380000 	teqeq	r8, r0
     4d8:	01400000 	mrseq	r0, (UNDEF: 64)
     4dc:	00010000 	andeq	r0, r1, r0
     4e0:	00000050 	andeq	r0, r0, r0, asr r0
     4e4:	00000000 	andeq	r0, r0, r0
     4e8:	00013800 	andeq	r3, r1, r0, lsl #16
     4ec:	00014400 	andeq	r4, r1, r0, lsl #8
     4f0:	31000200 	mrscc	r0, R8_usr
     4f4:	0001449f 	muleq	r1, pc, r4	; <UNPREDICTABLE>
     4f8:	00014c00 	andeq	r4, r1, r0, lsl #24
     4fc:	50000100 	andpl	r0, r0, r0, lsl #2
     500:	0000014c 	andeq	r0, r0, ip, asr #2
     504:	00000150 	andeq	r0, r0, r0, asr r1
     508:	00700005 	rsbseq	r0, r0, r5
     50c:	509f2140 	addspl	r2, pc, r0, asr #2
     510:	54000001 	strpl	r0, [r0], #-1
     514:	01000001 	tsteq	r0, r1
     518:	01545000 	cmpeq	r4, r0
     51c:	01640000 	cmneq	r4, r0
     520:	00060000 	andeq	r0, r6, r0
     524:	000f049e 	muleq	pc, lr, r4	; <UNPREDICTABLE>
     528:	00008000 	andeq	r8, r0, r0
     52c:	00000000 	andeq	r0, r0, r0
     530:	01640000 	cmneq	r4, r0
     534:	01740000 	cmneq	r4, r0
     538:	00020000 	andeq	r0, r2, r0
     53c:	00009f30 	andeq	r9, r0, r0, lsr pc
     540:	00000000 	andeq	r0, r0, r0
     544:	01900000 	orrseq	r0, r0, r0
     548:	01940000 	orrseq	r0, r4, r0
     54c:	00010000 	andeq	r0, r1, r0
     550:	00019450 	andeq	r9, r1, r0, asr r4
     554:	0001bc00 	andeq	fp, r1, r0, lsl #24
     558:	70000300 	andvc	r0, r0, r0, lsl #6
     55c:	00009f02 	andeq	r9, r0, r2, lsl #30
     560:	00000000 	andeq	r0, r0, r0
     564:	01900000 	orrseq	r0, r0, r0
     568:	01a40000 			; <UNDEFINED> instruction: 0x01a40000
     56c:	00020000 	andeq	r0, r2, r0
     570:	01a49f30 			; <UNDEFINED> instruction: 0x01a49f30
     574:	01bc0000 			; <UNDEFINED> instruction: 0x01bc0000
     578:	00010000 	andeq	r0, r1, r0
     57c:	00000053 	andeq	r0, r0, r3, asr r0
     580:	00000000 	andeq	r0, r0, r0
     584:	00019000 	andeq	r9, r1, r0
     588:	0001ac00 	andeq	sl, r1, r0, lsl #24
     58c:	30000200 	andcc	r0, r0, r0, lsl #4
     590:	0001ac9f 	muleq	r1, pc, ip	; <UNPREDICTABLE>
     594:	0001bc00 	andeq	fp, r1, r0, lsl #24
     598:	50000100 	andpl	r0, r0, r0, lsl #2
	...
     5a4:	000001ec 	andeq	r0, r0, ip, ror #3
     5a8:	000001f0 	strdeq	r0, [r0], -r0	; <UNPREDICTABLE>
     5ac:	00720006 	rsbseq	r0, r2, r6
     5b0:	9f1afc09 	svcls	0x001afc09
     5b4:	000001f0 	strdeq	r0, [r0], -r0	; <UNPREDICTABLE>
     5b8:	000001f8 	strdeq	r0, [r0], -r8
     5bc:	00520001 	subseq	r0, r2, r1
     5c0:	00000000 	andeq	r0, r0, r0
     5c4:	cc000000 	stcgt	0, cr0, [r0], {-0}
     5c8:	d0000002 	andle	r0, r0, r2
     5cc:	02000002 	andeq	r0, r0, #2
     5d0:	d09f3000 	addsle	r3, pc, r0
     5d4:	dc000002 	stcle	0, cr0, [r0], {2}
     5d8:	01000002 	tsteq	r0, r2
     5dc:	00005300 	andeq	r5, r0, r0, lsl #6
	...
     5e8:	00040000 	andeq	r0, r4, r0
     5ec:	00020000 	andeq	r0, r2, r0
     5f0:	0004007d 	andeq	r0, r4, sp, ror r0
     5f4:	00c00000 	sbceq	r0, r0, r0
     5f8:	00020000 	andeq	r0, r2, r0
     5fc:	0000107d 	andeq	r1, r0, sp, ror r0
	...
     608:	000b0000 	andeq	r0, fp, r0
     60c:	00010000 	andeq	r0, r1, r0
     610:	00000b50 	andeq	r0, r0, r0, asr fp
     614:	00004c00 	andeq	r4, r0, r0, lsl #24
     618:	54000100 	strpl	r0, [r0], #-256	; 0x100
	...
     628:	00000028 	andeq	r0, r0, r8, lsr #32
     62c:	9f300002 	svcls	0x00300002
     630:	00000028 	andeq	r0, r0, r8, lsr #32
     634:	00000043 	andeq	r0, r0, r3, asr #32
     638:	00500001 	subseq	r0, r0, r1
     63c:	00000000 	andeq	r0, r0, r0
     640:	60000000 	andvs	r0, r0, r0
     644:	8f000000 	svchi	0x00000000
     648:	01000000 	mrseq	r0, (UNDEF: 0)
     64c:	008f5000 	addeq	r5, pc, r0
     650:	00c00000 	sbceq	r0, r0, r0
     654:	00010000 	andeq	r0, r1, r0
     658:	00000055 	andeq	r0, r0, r5, asr r0
     65c:	00000000 	andeq	r0, r0, r0
     660:	00007400 	andeq	r7, r0, r0, lsl #8
     664:	00009800 	andeq	r9, r0, r0, lsl #16
     668:	0c000600 	stceq	6, cr0, [r0], {-0}
     66c:	01c202d8 	ldrdeq	r0, [r2, #40]	; 0x28
     670:	0000989f 	muleq	r0, pc, r8	; <UNPREDICTABLE>
     674:	0000c000 	andeq	ip, r0, r0
     678:	0c000600 	stceq	6, cr0, [r0], {-0}
     67c:	01c2006c 	biceq	r0, r2, ip, rrx
     680:	0000009f 	muleq	r0, pc, r0	; <UNPREDICTABLE>
     684:	00000000 	andeq	r0, r0, r0
     688:	00001000 	andeq	r1, r0, r0
     68c:	00002400 	andeq	r2, r0, r0, lsl #8
     690:	50000100 	andpl	r0, r0, r0, lsl #2
     694:	00000024 	andeq	r0, r0, r4, lsr #32
     698:	00000030 	andeq	r0, r0, r0, lsr r0
     69c:	00530001 	subseq	r0, r3, r1
     6a0:	00000000 	andeq	r0, r0, r0
     6a4:	c0000000 	andgt	r0, r0, r0
     6a8:	c4000000 	strgt	r0, [r0], #-0
     6ac:	02000000 	andeq	r0, r0, #0
     6b0:	c4007d00 	strgt	r7, [r0], #-3328	; 0xd00
     6b4:	60000000 	andvs	r0, r0, r0
     6b8:	02000001 	andeq	r0, r0, #1
     6bc:	00107d00 	andseq	r7, r0, r0, lsl #26
     6c0:	00000000 	andeq	r0, r0, r0
     6c4:	08000000 	stmdaeq	r0, {}	; <UNPREDICTABLE>
     6c8:	30000001 	andcc	r0, r0, r1
     6cc:	05000001 	streq	r0, [r0, #-1]
     6d0:	44007300 	strmi	r7, [r0], #-768	; 0x300
     6d4:	00009f25 	andeq	r9, r0, r5, lsr #30
     6d8:	00000000 	andeq	r0, r0, r0
     6dc:	01100000 	tsteq	r0, r0
     6e0:	01280000 	teqeq	r8, r0
     6e4:	00010000 	andeq	r0, r1, r0
     6e8:	00000050 	andeq	r0, r0, r0, asr r0
     6ec:	00000000 	andeq	r0, r0, r0
     6f0:	0000f400 	andeq	pc, r0, r0, lsl #8
     6f4:	0000fc00 	andeq	pc, r0, r0, lsl #24
     6f8:	50000100 	andpl	r0, r0, r0, lsl #2
     6fc:	000000fc 	strdeq	r0, [r0], -ip
     700:	00000110 	andeq	r0, r0, r0, lsl r1
     704:	80700005 	rsbshi	r0, r0, r5
     708:	009f47e0 	addseq	r4, pc, r0, ror #15
     70c:	00000000 	andeq	r0, r0, r0
     710:	60000000 	andvs	r0, r0, r0
     714:	68000001 	stmdavs	r0, {r0}
     718:	02000001 	andeq	r0, r0, #1
     71c:	68007d00 	stmdavs	r0, {r8, sl, fp, ip, sp, lr}
     720:	f0000001 			; <UNDEFINED> instruction: 0xf0000001
     724:	02000001 	andeq	r0, r0, #1
     728:	00047d00 	andeq	r7, r4, r0, lsl #26
     72c:	00000000 	andeq	r0, r0, r0
     730:	60000000 	andvs	r0, r0, r0
     734:	74000001 	strvc	r0, [r0], #-1
     738:	01000001 	tsteq	r0, r1
     73c:	01785000 	cmneq	r8, r0
     740:	018c0000 	orreq	r0, ip, r0
     744:	00010000 	andeq	r0, r1, r0
     748:	00018c50 	andeq	r8, r1, r0, asr ip
     74c:	00019400 	andeq	r9, r1, r0, lsl #8
     750:	70000300 	andvc	r0, r0, r0, lsl #6
     754:	00009f01 	andeq	r9, r0, r1, lsl #30
     758:	00000000 	andeq	r0, r0, r0
     75c:	01a00000 	moveq	r0, r0
     760:	01c40000 	biceq	r0, r4, r0
     764:	00010000 	andeq	r0, r1, r0
     768:	0000005c 	andeq	r0, r0, ip, asr r0
     76c:	00000000 	andeq	r0, r0, r0
     770:	0001f000 	andeq	pc, r1, r0
     774:	0001f800 	andeq	pc, r1, r0, lsl #16
     778:	7d000200 	sfmvc	f0, 4, [r0, #-0]
     77c:	0001f800 	andeq	pc, r1, r0, lsl #16
     780:	00027c00 	andeq	r7, r2, r0, lsl #24
     784:	7d000200 	sfmvc	f0, 4, [r0, #-0]
     788:	00000004 	andeq	r0, r0, r4
     78c:	00000000 	andeq	r0, r0, r0
     790:	0001f000 	andeq	pc, r1, r0
     794:	00020400 	andeq	r0, r2, r0, lsl #8
     798:	50000100 	andpl	r0, r0, r0, lsl #2
	...
     7a4:	00000210 	andeq	r0, r0, r0, lsl r2
     7a8:	00000228 	andeq	r0, r0, r8, lsr #4
     7ac:	9f300002 	svcls	0x00300002
     7b0:	0000026c 	andeq	r0, r0, ip, ror #4
     7b4:	0000027c 	andeq	r0, r0, ip, ror r2
     7b8:	00540001 	subseq	r0, r4, r1
     7bc:	00000000 	andeq	r0, r0, r0
     7c0:	30000000 	andcc	r0, r0, r0
     7c4:	34000002 	strcc	r0, [r0], #-2
     7c8:	01000002 	tsteq	r0, r2
     7cc:	02345300 	eorseq	r5, r4, #0
     7d0:	02380000 	eorseq	r0, r8, #0
     7d4:	00030000 	andeq	r0, r3, r0
     7d8:	389f0173 	ldmcc	pc, {r0, r1, r4, r5, r6, r8}	; <UNPREDICTABLE>
     7dc:	4c000002 	stcmi	0, cr0, [r0], {2}
     7e0:	01000002 	tsteq	r0, r2
     7e4:	00005300 	andeq	r5, r0, r0, lsl #6
     7e8:	00000000 	andeq	r0, r0, r0
     7ec:	027c0000 	rsbseq	r0, ip, #0
     7f0:	02800000 	addeq	r0, r0, #0
     7f4:	00020000 	andeq	r0, r2, r0
     7f8:	0280007d 	addeq	r0, r0, #125	; 0x7d
     7fc:	031c0000 	tsteq	ip, #0
     800:	00020000 	andeq	r0, r2, r0
     804:	0000107d 	andeq	r1, r0, sp, ror r0
     808:	00000000 	andeq	r0, r0, r0
     80c:	02b00000 	adcseq	r0, r0, #0
     810:	02b80000 	adcseq	r0, r8, #0
     814:	00010000 	andeq	r0, r1, r0
     818:	0002b850 	andeq	fp, r2, r0, asr r8
     81c:	0002cc00 	andeq	ip, r2, r0, lsl #24
     820:	70000500 	andvc	r0, r0, r0, lsl #10
     824:	9f47e080 	svcls	0x0047e080
	...
     830:	000002c4 	andeq	r0, r0, r4, asr #5
     834:	000002ec 	andeq	r0, r0, ip, ror #5
     838:	00730005 	rsbseq	r0, r3, r5
     83c:	009f2544 	addseq	r2, pc, r4, asr #10
     840:	00000000 	andeq	r0, r0, r0
     844:	cc000000 	stcgt	0, cr0, [r0], {-0}
     848:	e4000002 	str	r0, [r0], #-2
     84c:	01000002 	tsteq	r0, r2
     850:	00005000 	andeq	r5, r0, r0
     854:	00000000 	andeq	r0, r0, r0
     858:	03500000 	cmpeq	r0, #0
     85c:	03580000 	cmpeq	r8, #0
     860:	00020000 	andeq	r0, r2, r0
     864:	0358007d 	cmpeq	r8, #125	; 0x7d
     868:	03e00000 	mvneq	r0, #0
     86c:	00020000 	andeq	r0, r2, r0
     870:	0000047d 	andeq	r0, r0, sp, ror r4
     874:	00000000 	andeq	r0, r0, r0
     878:	03500000 	cmpeq	r0, #0
     87c:	03640000 	cmneq	r4, #0
     880:	00010000 	andeq	r0, r1, r0
     884:	00036850 	andeq	r6, r3, r0, asr r8
     888:	00037c00 	andeq	r7, r3, r0, lsl #24
     88c:	50000100 	andpl	r0, r0, r0, lsl #2
     890:	0000037c 	andeq	r0, r0, ip, ror r3
     894:	00000384 	andeq	r0, r0, r4, lsl #7
     898:	01700003 	cmneq	r0, r3
     89c:	0000009f 	muleq	r0, pc, r0	; <UNPREDICTABLE>
     8a0:	00000000 	andeq	r0, r0, r0
     8a4:	00039000 	andeq	r9, r3, r0
     8a8:	0003b400 	andeq	fp, r3, r0, lsl #8
     8ac:	5c000100 	stfpls	f0, [r0], {-0}
	...
     8b8:	000003e0 	andeq	r0, r0, r0, ror #7
     8bc:	000003e8 	andeq	r0, r0, r8, ror #7
     8c0:	007d0002 	rsbseq	r0, sp, r2
     8c4:	000003e8 	andeq	r0, r0, r8, ror #7
     8c8:	0000046c 	andeq	r0, r0, ip, ror #8
     8cc:	047d0002 	ldrbteq	r0, [sp], #-2
	...
     8d8:	000003e0 	andeq	r0, r0, r0, ror #7
     8dc:	000003f4 	strdeq	r0, [r0], -r4
     8e0:	00500001 	subseq	r0, r0, r1
	...
     8ec:	18000004 	stmdane	r0, {r2}
     8f0:	02000004 	andeq	r0, r0, #4
     8f4:	5c9f3000 	ldcpl	0, cr3, [pc], {0}
     8f8:	6c000004 	stcvs	0, cr0, [r0], {4}
     8fc:	01000004 	tsteq	r0, r4
     900:	00005400 	andeq	r5, r0, r0, lsl #8
     904:	00000000 	andeq	r0, r0, r0
     908:	04200000 	strteq	r0, [r0], #-0
     90c:	04240000 	strteq	r0, [r4], #-0
     910:	00010000 	andeq	r0, r1, r0
     914:	00042453 	andeq	r2, r4, r3, asr r4
     918:	00042800 	andeq	r2, r4, r0, lsl #16
     91c:	73000300 	movwvc	r0, #768	; 0x300
     920:	04289f01 	strteq	r9, [r8], #-3841	; 0xf01
     924:	043c0000 	ldrteq	r0, [ip], #-0
     928:	00010000 	andeq	r0, r1, r0
     92c:	00000053 	andeq	r0, r0, r3, asr r0
	...
     938:	00000400 	andeq	r0, r0, r0, lsl #8
     93c:	7d000200 	sfmvc	f0, 4, [r0, #-0]
     940:	00000400 	andeq	r0, r0, r0, lsl #8
     944:	00001c00 	andeq	r1, r0, r0, lsl #24
     948:	7d000200 	sfmvc	f0, 4, [r0, #-0]
     94c:	00001c1c 	andeq	r1, r0, ip, lsl ip
     950:	0000bc00 	andeq	fp, r0, r0, lsl #24
     954:	7d000300 	stcvc	3, cr0, [r0, #-0]
     958:	000000c8 	andeq	r0, r0, r8, asr #1
	...
     964:	002c0000 	eoreq	r0, ip, r0
     968:	00010000 	andeq	r0, r1, r0
     96c:	00002c50 	andeq	r2, r0, r0, asr ip
     970:	00004c00 	andeq	r4, r0, r0, lsl #24
     974:	54000100 	strpl	r0, [r0], #-256	; 0x100
     978:	0000004c 	andeq	r0, r0, ip, asr #32
     97c:	00000050 	andeq	r0, r0, r0, asr r0
     980:	78500001 	ldmdavc	r0, {r0}^
     984:	ac000000 	stcge	0, cr0, [r0], {-0}
     988:	01000000 	mrseq	r0, (UNDEF: 0)
     98c:	00005000 	andeq	r5, r0, r0
	...
     998:	002c0000 	eoreq	r0, ip, r0
     99c:	00010000 	andeq	r0, r1, r0
     9a0:	00002c51 	andeq	r2, r0, r1, asr ip
     9a4:	0000bc00 	andeq	fp, r0, r0, lsl #24
     9a8:	57000100 	strpl	r0, [r0, -r0, lsl #2]
	...
     9b8:	0000002c 	andeq	r0, r0, ip, lsr #32
     9bc:	2c520001 	mrrccs	0, 0, r0, r2, cr1
     9c0:	bc000000 	stclt	0, cr0, [r0], {-0}
     9c4:	01000000 	mrseq	r0, (UNDEF: 0)
     9c8:	00005500 	andeq	r5, r0, r0, lsl #10
     9cc:	00000000 	andeq	r0, r0, r0
     9d0:	004c0000 	subeq	r0, ip, r0
     9d4:	00500000 	subseq	r0, r0, r0
     9d8:	00010000 	andeq	r0, r1, r0
     9dc:	00008053 	andeq	r8, r0, r3, asr r0
     9e0:	00008400 	andeq	r8, r0, r0, lsl #8
     9e4:	53000100 	movwpl	r0, #256	; 0x100
     9e8:	00000084 	andeq	r0, r0, r4, lsl #1
     9ec:	00000090 	muleq	r0, r0, r0
     9f0:	00580001 	subseq	r0, r8, r1
     9f4:	00000000 	andeq	r0, r0, r0
     9f8:	84000000 	strhi	r0, [r0], #-0
     9fc:	90000000 	andls	r0, r0, r0
     a00:	02000000 	andeq	r0, r0, #0
     a04:	009f3000 	addseq	r3, pc, r0
     a08:	00000000 	andeq	r0, r0, r0
     a0c:	bc000000 	stclt	0, cr0, [r0], {-0}
     a10:	c0000000 	andgt	r0, r0, r0
     a14:	02000000 	andeq	r0, r0, #0
     a18:	c0007d00 	andgt	r7, r0, r0, lsl #26
     a1c:	d8000000 	stmdale	r0, {}	; <UNPREDICTABLE>
     a20:	02000000 	andeq	r0, r0, #0
     a24:	d8107d00 	ldmdale	r0, {r8, sl, fp, ip, sp, lr}
     a28:	64000000 	strvs	r0, [r0], #-0
     a2c:	02000001 	andeq	r0, r0, #1
     a30:	00287d00 	eoreq	r7, r8, r0, lsl #26
     a34:	00000000 	andeq	r0, r0, r0
     a38:	bc000000 	stclt	0, cr0, [r0], {-0}
     a3c:	e0000000 	and	r0, r0, r0
     a40:	01000000 	mrseq	r0, (UNDEF: 0)
     a44:	00e05000 	rsceq	r5, r0, r0
     a48:	01140000 	tsteq	r4, r0
     a4c:	00010000 	andeq	r0, r1, r0
     a50:	00000055 	andeq	r0, r0, r5, asr r0
     a54:	00000000 	andeq	r0, r0, r0
     a58:	0000bc00 	andeq	fp, r0, r0, lsl #24
     a5c:	0000e000 	andeq	lr, r0, r0
     a60:	51000100 	mrspl	r0, (UNDEF: 16)
     a64:	000000e0 	andeq	r0, r0, r0, ror #1
     a68:	00000164 	andeq	r0, r0, r4, ror #2
     a6c:	00570001 	subseq	r0, r7, r1
     a70:	00000000 	andeq	r0, r0, r0
     a74:	bc000000 	stclt	0, cr0, [r0], {-0}
     a78:	e0000000 	and	r0, r0, r0
     a7c:	01000000 	mrseq	r0, (UNDEF: 0)
     a80:	00e05200 	rsceq	r5, r0, r0, lsl #4
     a84:	01640000 	cmneq	r4, r0
     a88:	00010000 	andeq	r0, r1, r0
     a8c:	00000056 	andeq	r0, r0, r6, asr r0
     a90:	00000000 	andeq	r0, r0, r0
     a94:	00010000 	andeq	r0, r1, r0
     a98:	00013000 	andeq	r3, r1, r0
     a9c:	50000100 	andpl	r0, r0, r0, lsl #2
     aa0:	00000130 	andeq	r0, r0, r0, lsr r1
     aa4:	00000148 	andeq	r0, r0, r8, asr #2
     aa8:	48510001 	ldmdami	r1, {r0}^
     aac:	4c000001 	stcmi	0, cr0, [r0], {1}
     ab0:	03000001 	movweq	r0, #1
     ab4:	9f7f7100 	svcls	0x007f7100
     ab8:	0000014c 	andeq	r0, r0, ip, asr #2
     abc:	00000154 	andeq	r0, r0, r4, asr r1
     ac0:	00510001 	subseq	r0, r1, r1
	...
     acc:	2c000001 	stccs	0, cr0, [r0], {1}
     ad0:	03000001 	movweq	r0, #1
     ad4:	9f707c00 	svcls	0x00707c00
     ad8:	0000012c 	andeq	r0, r0, ip, lsr #2
     adc:	00000130 	andeq	r0, r0, r0, lsr r1
     ae0:	54910003 	ldrpl	r0, [r1], #3
     ae4:	0000009f 	muleq	r0, pc, r0	; <UNPREDICTABLE>
     ae8:	00000000 	andeq	r0, r0, r0
     aec:	00010000 	andeq	r0, r1, r0
     af0:	00011400 	andeq	r1, r1, r0, lsl #8
     af4:	55000100 	strpl	r0, [r0, #-256]	; 0x100
     af8:	00000114 	andeq	r0, r0, r4, lsl r1
     afc:	00000118 	andeq	r0, r0, r8, lsl r1
     b00:	18530001 	ldmdane	r3, {r0}^
     b04:	20000001 	andcs	r0, r0, r1
     b08:	01000001 	tsteq	r0, r1
     b0c:	01205500 	teqeq	r0, r0, lsl #10
     b10:	01280000 	teqeq	r8, r0
     b14:	00010000 	andeq	r0, r1, r0
     b18:	00012853 	andeq	r2, r1, r3, asr r8
     b1c:	00013000 	andeq	r3, r1, r0
     b20:	55000100 	strpl	r0, [r0, #-256]	; 0x100
     b24:	00000130 	andeq	r0, r0, r0, lsr r1
     b28:	00000134 	andeq	r0, r0, r4, lsr r1
     b2c:	34530001 	ldrbcc	r0, [r3], #-1
     b30:	44000001 	strmi	r0, [r0], #-1
     b34:	01000001 	tsteq	r0, r1
     b38:	01445500 	cmpeq	r4, r0, lsl #10
     b3c:	01540000 	cmpeq	r4, r0
     b40:	00010000 	andeq	r0, r1, r0
     b44:	00000053 	andeq	r0, r0, r3, asr r0
     b48:	00000000 	andeq	r0, r0, r0
     b4c:	00010000 	andeq	r0, r1, r0
     b50:	00011400 	andeq	r1, r1, r0, lsl #8
     b54:	55000100 	strpl	r0, [r0, #-256]	; 0x100
	...
     b60:	00000164 	andeq	r0, r0, r4, ror #2
     b64:	00000168 	andeq	r0, r0, r8, ror #2
     b68:	007d0002 	rsbseq	r0, sp, r2
     b6c:	00000168 	andeq	r0, r0, r8, ror #2
     b70:	0000017c 	andeq	r0, r0, ip, ror r1
     b74:	147d0002 	ldrbtne	r0, [sp], #-2
     b78:	0000017c 	andeq	r0, r0, ip, ror r1
     b7c:	0000024c 	andeq	r0, r0, ip, asr #4
     b80:	c07d0003 	rsbsgt	r0, sp, r3
	...
     b8c:	00016400 	andeq	r6, r1, r0, lsl #8
     b90:	00018400 	andeq	r8, r1, r0, lsl #8
     b94:	50000100 	andpl	r0, r0, r0, lsl #2
     b98:	00000184 	andeq	r0, r0, r4, lsl #3
     b9c:	000001d8 	ldrdeq	r0, [r0], -r8
     ba0:	d85c0001 	ldmdale	ip, {r0}^
     ba4:	e8000001 	stmda	r0, {r0}
     ba8:	01000001 	tsteq	r0, r1
     bac:	01e85200 	mvneq	r5, r0, lsl #4
     bb0:	01fc0000 	mvnseq	r0, r0
     bb4:	00010000 	andeq	r0, r1, r0
     bb8:	0000005c 	andeq	r0, r0, ip, asr r0
     bbc:	00000000 	andeq	r0, r0, r0
     bc0:	00016400 	andeq	r6, r1, r0, lsl #8
     bc4:	00018400 	andeq	r8, r1, r0, lsl #8
     bc8:	51000100 	mrspl	r0, (UNDEF: 16)
     bcc:	00000184 	andeq	r0, r0, r4, lsl #3
     bd0:	0000024c 	andeq	r0, r0, ip, asr #4
     bd4:	00560001 	subseq	r0, r6, r1
     bd8:	00000000 	andeq	r0, r0, r0
     bdc:	64000000 	strvs	r0, [r0], #-0
     be0:	a0000001 	andge	r0, r0, r1
     be4:	02000001 	andeq	r0, r0, #1
     be8:	a09f3000 	addsge	r3, pc, r0
     bec:	b0000001 	andlt	r0, r0, r1
     bf0:	02000001 	andeq	r0, r0, #1
     bf4:	b09f3100 	addslt	r3, pc, r0, lsl #2
     bf8:	04000001 	streq	r0, [r0], #-1
     bfc:	01000002 	tsteq	r0, r2
     c00:	00005700 	andeq	r5, r0, r0, lsl #14
     c04:	00000000 	andeq	r0, r0, r0
     c08:	01b00000 	movseq	r0, r0
     c0c:	01c00000 	biceq	r0, r0, r0
     c10:	00020000 	andeq	r0, r2, r0
     c14:	01c09f30 	biceq	r9, r0, r0, lsr pc
     c18:	01c40000 	biceq	r0, r4, r0
     c1c:	00010000 	andeq	r0, r1, r0
     c20:	0001d854 	andeq	sp, r1, r4, asr r8
     c24:	00020800 	andeq	r0, r2, r0, lsl #16
     c28:	54000100 	strpl	r0, [r0], #-256	; 0x100
     c2c:	00000208 	andeq	r0, r0, r8, lsl #4
     c30:	00000230 	andeq	r0, r0, r0, lsr r2
     c34:	00530001 	subseq	r0, r3, r1
     c38:	00000000 	andeq	r0, r0, r0
     c3c:	fc000000 	stc2	0, cr0, [r0], {-0}
     c40:	08000001 	stmdaeq	r0, {r0}
     c44:	02000002 	andeq	r0, r0, #2
     c48:	089f3000 	ldmeq	pc, {ip, sp}	; <UNPREDICTABLE>
     c4c:	14000002 	strne	r0, [r0], #-2
     c50:	01000002 	tsteq	r0, r2
     c54:	00005700 	andeq	r5, r0, r0, lsl #14
     c58:	00000000 	andeq	r0, r0, r0
     c5c:	024c0000 	subeq	r0, ip, #0
     c60:	02500000 	subseq	r0, r0, #0
     c64:	00020000 	andeq	r0, r2, r0
     c68:	0250007d 	subseq	r0, r0, #125	; 0x7d
     c6c:	02540000 	subseq	r0, r4, #0
     c70:	00020000 	andeq	r0, r2, r0
     c74:	0254107d 	subseq	r1, r4, #125	; 0x7d
     c78:	02580000 	subseq	r0, r8, #0
     c7c:	00020000 	andeq	r0, r2, r0
     c80:	0258307d 	subseq	r3, r8, #125	; 0x7d
     c84:	051c0000 	ldreq	r0, [ip, #-0]
     c88:	00030000 	andeq	r0, r3, r0
     c8c:	0000c87d 	andeq	ip, r0, sp, ror r8
     c90:	00000000 	andeq	r0, r0, r0
     c94:	4c000000 	stcmi	0, cr0, [r0], {-0}
     c98:	64000002 	strvs	r0, [r0], #-2
     c9c:	02000002 	andeq	r0, r0, #2
     ca0:	64709100 	ldrbtvs	r9, [r0], #-256	; 0x100
     ca4:	88000002 	stmdahi	r0, {r1}
     ca8:	02000002 	andeq	r0, r0, #2
     cac:	88489100 	stmdahi	r8, {r8, ip, pc}^
     cb0:	a4000002 	strge	r0, [r0], #-2
     cb4:	01000002 	tsteq	r0, r2
     cb8:	02a45400 	adceq	r5, r4, #0
     cbc:	02bc0000 	adcseq	r0, ip, #0
     cc0:	00030000 	andeq	r0, r3, r0
     cc4:	c49f0174 	ldrgt	r0, [pc], #372	; ccc <__save_processor_state+0x8c>
     cc8:	1c000002 	stcne	0, cr0, [r0], {2}
     ccc:	01000005 	tsteq	r0, r5
     cd0:	00005400 	andeq	r5, r0, r0, lsl #8
     cd4:	00000000 	andeq	r0, r0, r0
     cd8:	024c0000 	subeq	r0, ip, #0
     cdc:	02880000 	addeq	r0, r8, #0
     ce0:	00060000 	andeq	r0, r6, r0
     ce4:	0025dc03 	eoreq	sp, r5, r3, lsl #24
     ce8:	02889f00 	addeq	r9, r8, #0
     cec:	02980000 	addseq	r0, r8, #0
     cf0:	00010000 	andeq	r0, r1, r0
     cf4:	00033855 	andeq	r3, r3, r5, asr r8
     cf8:	00035000 	andeq	r5, r3, r0
     cfc:	55000100 	strpl	r0, [r0, #-256]	; 0x100
     d00:	000003bc 			; <UNDEFINED> instruction: 0x000003bc
     d04:	000003c0 	andeq	r0, r0, r0, asr #7
     d08:	0c550001 	mrrceq	0, 0, r0, r5, cr1
     d0c:	10000004 	andne	r0, r0, r4
     d10:	01000004 	tsteq	r0, r4
     d14:	047c5500 	ldrbteq	r5, [ip], #-1280	; 0x500
     d18:	04800000 	streq	r0, [r0], #0
     d1c:	00010000 	andeq	r0, r1, r0
     d20:	00049c55 	andeq	r9, r4, r5, asr ip
     d24:	0004a800 	andeq	sl, r4, r0, lsl #16
     d28:	75000300 	strvc	r0, [r0, #-768]	; 0x300
     d2c:	04a89f01 	strteq	r9, [r8], #3841	; 0xf01
     d30:	04ac0000 	strteq	r0, [ip], #0
     d34:	00010000 	andeq	r0, r1, r0
     d38:	00051455 	andeq	r1, r5, r5, asr r4
     d3c:	00051c00 	andeq	r1, r5, r0, lsl #24
     d40:	55000100 	strpl	r0, [r0, #-256]	; 0x100
	...
     d4c:	000003d4 	ldrdeq	r0, [r0], -r4
     d50:	00000410 	andeq	r0, r0, r0, lsl r4
     d54:	a4910004 	ldrge	r0, [r1], #4
     d58:	0000067f 	andeq	r0, r0, pc, ror r6
     d5c:	00000000 	andeq	r0, r0, r0
     d60:	02c00000 	sbceq	r0, r0, #0
     d64:	032c0000 	teqeq	ip, #0
     d68:	00010000 	andeq	r0, r1, r0
     d6c:	00035057 	andeq	r5, r3, r7, asr r0
     d70:	00051c00 	andeq	r1, r5, r0, lsl #24
     d74:	57000100 	strpl	r0, [r0, -r0, lsl #2]
	...
     d80:	0000024c 	andeq	r0, r0, ip, asr #4
     d84:	00000288 	andeq	r0, r0, r8, lsl #5
     d88:	9f300002 	svcls	0x00300002
     d8c:	0000038c 	andeq	r0, r0, ip, lsl #7
     d90:	000003a4 	andeq	r0, r0, r4, lsr #7
     d94:	a45a0001 	ldrbge	r0, [sl], #-1
     d98:	c0000003 	andgt	r0, r0, r3
     d9c:	01000003 	tsteq	r0, r3
     da0:	044c5000 	strbeq	r5, [ip], #-0
     da4:	04640000 	strbteq	r0, [r4], #-0
     da8:	00010000 	andeq	r0, r1, r0
     dac:	0004645a 	andeq	r6, r4, sl, asr r4
     db0:	00048000 	andeq	r8, r4, r0
     db4:	50000100 	andpl	r0, r0, r0, lsl #2
     db8:	000004e4 	andeq	r0, r0, r4, ror #9
     dbc:	000004fc 	strdeq	r0, [r0], -ip
     dc0:	fc5a0001 	mrrc2	0, 0, r0, sl, cr1
     dc4:	1c000004 	stcne	0, cr0, [r0], {4}
     dc8:	01000005 	tsteq	r0, r5
     dcc:	00005000 	andeq	r5, r0, r0
     dd0:	00000000 	andeq	r0, r0, r0
     dd4:	036c0000 	cmneq	ip, #0
     dd8:	03c00000 	biceq	r0, r0, #0
     ddc:	00010000 	andeq	r0, r1, r0
     de0:	00000056 	andeq	r0, r0, r6, asr r0
     de4:	00000000 	andeq	r0, r0, r0
     de8:	00036c00 	andeq	r6, r3, r0, lsl #24
     dec:	00037c00 	andeq	r7, r3, r0, lsl #24
     df0:	56000100 	strpl	r0, [r0], -r0, lsl #2
     df4:	0000037c 	andeq	r0, r0, ip, ror r3
     df8:	00000380 	andeq	r0, r0, r0, lsl #7
     dfc:	805a0001 	subshi	r0, sl, r1
     e00:	8c000003 	stchi	0, cr0, [r0], {3}
     e04:	03000003 	movweq	r0, #3
     e08:	9f7f7a00 	svcls	0x007f7a00
	...
     e14:	000003a4 	andeq	r0, r0, r4, lsr #7
     e18:	000003a8 	andeq	r0, r0, r8, lsr #7
     e1c:	00560001 	subseq	r0, r6, r1
     e20:	00000000 	andeq	r0, r0, r0
     e24:	a4000000 	strge	r0, [r0], #-0
     e28:	a8000003 	stmdage	r0, {r0, r1}
     e2c:	01000003 	tsteq	r0, r3
     e30:	03a85500 			; <UNDEFINED> instruction: 0x03a85500
     e34:	03c00000 	biceq	r0, r0, #0
     e38:	00010000 	andeq	r0, r1, r0
     e3c:	00000051 	andeq	r0, r0, r1, asr r0
     e40:	00000000 	andeq	r0, r0, r0
     e44:	0003a400 	andeq	sl, r3, r0, lsl #8
     e48:	0003bc00 	andeq	fp, r3, r0, lsl #24
     e4c:	55000100 	strpl	r0, [r0, #-256]	; 0x100
	...
     e58:	000003d4 	ldrdeq	r0, [r0], -r4
     e5c:	000003d8 	ldrdeq	r0, [r0], -r8
     e60:	a4910004 	ldrge	r0, [r1], #4
     e64:	0000067f 	andeq	r0, r0, pc, ror r6
     e68:	00000000 	andeq	r0, r0, r0
     e6c:	03d40000 	bicseq	r0, r4, #0
     e70:	03d80000 	bicseq	r0, r8, #0
     e74:	00010000 	andeq	r0, r1, r0
     e78:	0003d855 	andeq	sp, r3, r5, asr r8
     e7c:	00041000 	andeq	r1, r4, r0
     e80:	51000100 	mrspl	r0, (UNDEF: 16)
	...
     e8c:	000003d4 	ldrdeq	r0, [r0], -r4
     e90:	0000040c 	andeq	r0, r0, ip, lsl #8
     e94:	00550001 	subseq	r0, r5, r1
     e98:	00000000 	andeq	r0, r0, r0
     e9c:	e8000000 	stmda	r0, {}	; <UNPREDICTABLE>
     ea0:	f8000003 			; <UNDEFINED> instruction: 0xf8000003
     ea4:	04000003 	streq	r0, [r0], #-3
     ea8:	7fa49100 	svcvc	0x00a49100
     eac:	0003f806 	andeq	pc, r3, r6, lsl #16
     eb0:	0003fc00 	andeq	pc, r3, r0, lsl #24
     eb4:	53000100 	movwpl	r0, #256	; 0x100
     eb8:	000003fc 	strdeq	r0, [r0], -ip
     ebc:	00000408 	andeq	r0, r0, r8, lsl #8
     ec0:	7f730003 	svcvc	0x00730003
     ec4:	0000009f 	muleq	r0, pc, r0	; <UNPREDICTABLE>
     ec8:	00000000 	andeq	r0, r0, r0
     ecc:	00042c00 	andeq	r2, r4, r0, lsl #24
     ed0:	00048000 	andeq	r8, r4, r0
     ed4:	56000100 	strpl	r0, [r0], -r0, lsl #2
	...
     ee0:	0000042c 	andeq	r0, r0, ip, lsr #8
     ee4:	0000043c 	andeq	r0, r0, ip, lsr r4
     ee8:	3c560001 	mrrccc	0, 0, r0, r6, cr1
     eec:	40000004 	andmi	r0, r0, r4
     ef0:	01000004 	tsteq	r0, r4
     ef4:	04405a00 	strbeq	r5, [r0], #-2560	; 0xa00
     ef8:	044c0000 	strbeq	r0, [ip], #-0
     efc:	00030000 	andeq	r0, r3, r0
     f00:	009f7f7a 	addseq	r7, pc, sl, ror pc	; <UNPREDICTABLE>
     f04:	00000000 	andeq	r0, r0, r0
     f08:	64000000 	strvs	r0, [r0], #-0
     f0c:	68000004 	stmdavs	r0, {r2}
     f10:	01000004 	tsteq	r0, r4
     f14:	00005600 	andeq	r5, r0, r0, lsl #12
     f18:	00000000 	andeq	r0, r0, r0
     f1c:	04640000 	strbteq	r0, [r4], #-0
     f20:	04680000 	strbteq	r0, [r8], #-0
     f24:	00010000 	andeq	r0, r1, r0
     f28:	00046855 	andeq	r6, r4, r5, asr r8
     f2c:	00048000 	andeq	r8, r4, r0
     f30:	51000100 	mrspl	r0, (UNDEF: 16)
	...
     f3c:	00000464 	andeq	r0, r0, r4, ror #8
     f40:	0000047c 	andeq	r0, r0, ip, ror r4
     f44:	00550001 	subseq	r0, r5, r1
     f48:	00000000 	andeq	r0, r0, r0
     f4c:	c4000000 	strgt	r0, [r0], #-0
     f50:	d4000004 	strle	r0, [r0], #-4
     f54:	01000004 	tsteq	r0, r4
     f58:	04d45600 	ldrbeq	r5, [r4], #1536	; 0x600
     f5c:	04d80000 	ldrbeq	r0, [r8], #0
     f60:	00010000 	andeq	r0, r1, r0
     f64:	0004d85a 	andeq	sp, r4, sl, asr r8
     f68:	0004e400 	andeq	lr, r4, r0, lsl #8
     f6c:	7a000300 	bvc	1b74 <standby_delay>
     f70:	00009f7f 	andeq	r9, r0, pc, ror pc
     f74:	00000000 	andeq	r0, r0, r0
     f78:	04fc0000 	ldrbteq	r0, [ip], #0
     f7c:	05000000 	streq	r0, [r0, #-0]
     f80:	00010000 	andeq	r0, r1, r0
     f84:	00000056 	andeq	r0, r0, r6, asr r0
     f88:	00000000 	andeq	r0, r0, r0
     f8c:	0004fc00 	andeq	pc, r4, r0, lsl #24
     f90:	00050000 	andeq	r0, r5, r0
     f94:	55000100 	strpl	r0, [r0, #-256]	; 0x100
     f98:	00000500 	andeq	r0, r0, r0, lsl #10
     f9c:	0000051c 	andeq	r0, r0, ip, lsl r5
     fa0:	00510001 	subseq	r0, r1, r1
     fa4:	00000000 	andeq	r0, r0, r0
     fa8:	fc000000 	stc2	0, cr0, [r0], {-0}
     fac:	14000004 	strne	r0, [r0], #-4
     fb0:	01000005 	tsteq	r0, r5
     fb4:	00005500 	andeq	r5, r0, r0, lsl #10
     fb8:	00000000 	andeq	r0, r0, r0
     fbc:	051c0000 	ldreq	r0, [ip, #-0]
     fc0:	05200000 	streq	r0, [r0, #-0]!
     fc4:	00020000 	andeq	r0, r2, r0
     fc8:	0520007d 	streq	r0, [r0, #-125]!	; 0x7d
     fcc:	05240000 	streq	r0, [r4, #-0]!
     fd0:	00020000 	andeq	r0, r2, r0
     fd4:	0524107d 	streq	r1, [r4, #-125]!	; 0x7d
     fd8:	05280000 	streq	r0, [r8, #-0]!
     fdc:	00020000 	andeq	r0, r2, r0
     fe0:	0528307d 	streq	r3, [r8, #-125]!	; 0x7d
     fe4:	07ec0000 	strbeq	r0, [ip, r0]!
     fe8:	00030000 	andeq	r0, r3, r0
     fec:	0000c87d 	andeq	ip, r0, sp, ror r8
     ff0:	00000000 	andeq	r0, r0, r0
     ff4:	1c000000 	stcne	0, cr0, [r0], {-0}
     ff8:	34000005 	strcc	r0, [r0], #-5
     ffc:	02000005 	andeq	r0, r0, #5
    1000:	34709100 	ldrbtcc	r9, [r0], #-256	; 0x100
    1004:	58000005 	stmdapl	r0, {r0, r2}
    1008:	02000005 	andeq	r0, r0, #5
    100c:	58489100 	stmdapl	r8, {r8, ip, pc}^
    1010:	74000005 	strvc	r0, [r0], #-5
    1014:	01000005 	tsteq	r0, r5
    1018:	05745400 	ldrbeq	r5, [r4, #-1024]!	; 0x400
    101c:	058c0000 	streq	r0, [ip]
    1020:	00030000 	andeq	r0, r3, r0
    1024:	949f0174 	ldrls	r0, [pc], #372	; 102c <serial_init_nommu+0x50>
    1028:	ec000005 	stc	0, cr0, [r0], {5}
    102c:	01000007 	tsteq	r0, r7
    1030:	00005400 	andeq	r5, r0, r0, lsl #8
    1034:	00000000 	andeq	r0, r0, r0
    1038:	051c0000 	ldreq	r0, [ip, #-0]
    103c:	05580000 	ldrbeq	r0, [r8, #-0]
    1040:	00060000 	andeq	r0, r6, r0
    1044:	0025dc03 	eoreq	sp, r5, r3, lsl #24
    1048:	05589f00 	ldrbeq	r9, [r8, #-3840]	; 0xf00
    104c:	05680000 	strbeq	r0, [r8, #-0]!
    1050:	00010000 	andeq	r0, r1, r0
    1054:	00060855 	andeq	r0, r6, r5, asr r8
    1058:	00062000 	andeq	r2, r6, r0
    105c:	55000100 	strpl	r0, [r0, #-256]	; 0x100
    1060:	0000068c 	andeq	r0, r0, ip, lsl #13
    1064:	00000690 	muleq	r0, r0, r6
    1068:	dc550001 	mrrcle	0, 0, r0, r5, cr1
    106c:	e0000006 	and	r0, r0, r6
    1070:	01000006 	tsteq	r0, r6
    1074:	074c5500 	strbeq	r5, [ip, -r0, lsl #10]
    1078:	07500000 	ldrbeq	r0, [r0, -r0]
    107c:	00010000 	andeq	r0, r1, r0
    1080:	00076c55 	andeq	r6, r7, r5, asr ip
    1084:	00077800 	andeq	r7, r7, r0, lsl #16
    1088:	75000300 	strvc	r0, [r0, #-768]	; 0x300
    108c:	07789f01 	ldrbeq	r9, [r8, -r1, lsl #30]!
    1090:	077c0000 	ldrbeq	r0, [ip, -r0]!
    1094:	00010000 	andeq	r0, r1, r0
    1098:	0007e455 	andeq	lr, r7, r5, asr r4
    109c:	0007ec00 	andeq	lr, r7, r0, lsl #24
    10a0:	55000100 	strpl	r0, [r0, #-256]	; 0x100
	...
    10ac:	000006a4 	andeq	r0, r0, r4, lsr #13
    10b0:	000006e0 	andeq	r0, r0, r0, ror #13
    10b4:	a4910004 	ldrge	r0, [r1], #4
    10b8:	0000067f 	andeq	r0, r0, pc, ror r6
    10bc:	00000000 	andeq	r0, r0, r0
    10c0:	05900000 	ldreq	r0, [r0]
    10c4:	05fc0000 	ldrbeq	r0, [ip, #0]!
    10c8:	00010000 	andeq	r0, r1, r0
    10cc:	00062057 	andeq	r2, r6, r7, asr r0
    10d0:	0007ec00 	andeq	lr, r7, r0, lsl #24
    10d4:	57000100 	strpl	r0, [r0, -r0, lsl #2]
	...
    10e0:	0000051c 	andeq	r0, r0, ip, lsl r5
    10e4:	00000558 	andeq	r0, r0, r8, asr r5
    10e8:	9f300002 	svcls	0x00300002
    10ec:	0000065c 	andeq	r0, r0, ip, asr r6
    10f0:	00000674 	andeq	r0, r0, r4, ror r6
    10f4:	745a0001 	ldrbvc	r0, [sl], #-1
    10f8:	90000006 	andls	r0, r0, r6
    10fc:	01000006 	tsteq	r0, r6
    1100:	071c5000 	ldreq	r5, [ip, -r0]
    1104:	07340000 	ldreq	r0, [r4, -r0]!
    1108:	00010000 	andeq	r0, r1, r0
    110c:	0007345a 	andeq	r3, r7, sl, asr r4
    1110:	00075000 	andeq	r5, r7, r0
    1114:	50000100 	andpl	r0, r0, r0, lsl #2
    1118:	000007b4 			; <UNDEFINED> instruction: 0x000007b4
    111c:	000007cc 	andeq	r0, r0, ip, asr #15
    1120:	cc5a0001 	mrrcgt	0, 0, r0, sl, cr1
    1124:	ec000007 	stc	0, cr0, [r0], {7}
    1128:	01000007 	tsteq	r0, r7
    112c:	00005000 	andeq	r5, r0, r0
    1130:	00000000 	andeq	r0, r0, r0
    1134:	063c0000 	ldrteq	r0, [ip], -r0
    1138:	06900000 	ldreq	r0, [r0], r0
    113c:	00010000 	andeq	r0, r1, r0
    1140:	00000056 	andeq	r0, r0, r6, asr r0
    1144:	00000000 	andeq	r0, r0, r0
    1148:	00063c00 	andeq	r3, r6, r0, lsl #24
    114c:	00064c00 	andeq	r4, r6, r0, lsl #24
    1150:	56000100 	strpl	r0, [r0], -r0, lsl #2
    1154:	0000064c 	andeq	r0, r0, ip, asr #12
    1158:	00000650 	andeq	r0, r0, r0, asr r6
    115c:	505a0001 	subspl	r0, sl, r1
    1160:	5c000006 	stcpl	0, cr0, [r0], {6}
    1164:	03000006 	movweq	r0, #6
    1168:	9f7f7a00 	svcls	0x007f7a00
	...
    1174:	00000674 	andeq	r0, r0, r4, ror r6
    1178:	00000678 	andeq	r0, r0, r8, ror r6
    117c:	00560001 	subseq	r0, r6, r1
    1180:	00000000 	andeq	r0, r0, r0
    1184:	74000000 	strvc	r0, [r0], #-0
    1188:	78000006 	stmdavc	r0, {r1, r2}
    118c:	01000006 	tsteq	r0, r6
    1190:	06785500 	ldrbteq	r5, [r8], -r0, lsl #10
    1194:	06900000 	ldreq	r0, [r0], r0
    1198:	00010000 	andeq	r0, r1, r0
    119c:	00000051 	andeq	r0, r0, r1, asr r0
    11a0:	00000000 	andeq	r0, r0, r0
    11a4:	00067400 	andeq	r7, r6, r0, lsl #8
    11a8:	00068c00 	andeq	r8, r6, r0, lsl #24
    11ac:	55000100 	strpl	r0, [r0, #-256]	; 0x100
	...
    11b8:	000006a4 	andeq	r0, r0, r4, lsr #13
    11bc:	000006a8 	andeq	r0, r0, r8, lsr #13
    11c0:	a4910004 	ldrge	r0, [r1], #4
    11c4:	0000067f 	andeq	r0, r0, pc, ror r6
    11c8:	00000000 	andeq	r0, r0, r0
    11cc:	06a40000 	strteq	r0, [r4], r0
    11d0:	06a80000 	strteq	r0, [r8], r0
    11d4:	00010000 	andeq	r0, r1, r0
    11d8:	0006a855 	andeq	sl, r6, r5, asr r8
    11dc:	0006e000 	andeq	lr, r6, r0
    11e0:	51000100 	mrspl	r0, (UNDEF: 16)
	...
    11ec:	000006a4 	andeq	r0, r0, r4, lsr #13
    11f0:	000006dc 	ldrdeq	r0, [r0], -ip
    11f4:	00550001 	subseq	r0, r5, r1
    11f8:	00000000 	andeq	r0, r0, r0
    11fc:	b8000000 	stmdalt	r0, {}	; <UNPREDICTABLE>
    1200:	c8000006 	stmdagt	r0, {r1, r2}
    1204:	04000006 	streq	r0, [r0], #-6
    1208:	7fa49100 	svcvc	0x00a49100
    120c:	0006c806 	andeq	ip, r6, r6, lsl #16
    1210:	0006cc00 	andeq	ip, r6, r0, lsl #24
    1214:	53000100 	movwpl	r0, #256	; 0x100
    1218:	000006cc 	andeq	r0, r0, ip, asr #13
    121c:	000006d8 	ldrdeq	r0, [r0], -r8
    1220:	7f730003 	svcvc	0x00730003
    1224:	0000009f 	muleq	r0, pc, r0	; <UNPREDICTABLE>
    1228:	00000000 	andeq	r0, r0, r0
    122c:	0006fc00 	andeq	pc, r6, r0, lsl #24
    1230:	00075000 	andeq	r5, r7, r0
    1234:	56000100 	strpl	r0, [r0], -r0, lsl #2
	...
    1240:	000006fc 	strdeq	r0, [r0], -ip
    1244:	0000070c 	andeq	r0, r0, ip, lsl #14
    1248:	0c560001 	mrrceq	0, 0, r0, r6, cr1
    124c:	10000007 	andne	r0, r0, r7
    1250:	01000007 	tsteq	r0, r7
    1254:	07105a00 	ldreq	r5, [r0, -r0, lsl #20]
    1258:	071c0000 	ldreq	r0, [ip, -r0]
    125c:	00030000 	andeq	r0, r3, r0
    1260:	009f7f7a 	addseq	r7, pc, sl, ror pc	; <UNPREDICTABLE>
    1264:	00000000 	andeq	r0, r0, r0
    1268:	34000000 	strcc	r0, [r0], #-0
    126c:	38000007 	stmdacc	r0, {r0, r1, r2}
    1270:	01000007 	tsteq	r0, r7
    1274:	00005600 	andeq	r5, r0, r0, lsl #12
    1278:	00000000 	andeq	r0, r0, r0
    127c:	07340000 	ldreq	r0, [r4, -r0]!
    1280:	07380000 	ldreq	r0, [r8, -r0]!
    1284:	00010000 	andeq	r0, r1, r0
    1288:	00073855 	andeq	r3, r7, r5, asr r8
    128c:	00075000 	andeq	r5, r7, r0
    1290:	51000100 	mrspl	r0, (UNDEF: 16)
	...
    129c:	00000734 	andeq	r0, r0, r4, lsr r7
    12a0:	0000074c 	andeq	r0, r0, ip, asr #14
    12a4:	00550001 	subseq	r0, r5, r1
    12a8:	00000000 	andeq	r0, r0, r0
    12ac:	94000000 	strls	r0, [r0], #-0
    12b0:	a4000007 	strge	r0, [r0], #-7
    12b4:	01000007 	tsteq	r0, r7
    12b8:	07a45600 	streq	r5, [r4, r0, lsl #12]!
    12bc:	07a80000 	streq	r0, [r8, r0]!
    12c0:	00010000 	andeq	r0, r1, r0
    12c4:	0007a85a 	andeq	sl, r7, sl, asr r8
    12c8:	0007b400 	andeq	fp, r7, r0, lsl #8
    12cc:	7a000300 	bvc	1ed4 <mem_enable_int+0x48>
    12d0:	00009f7f 	andeq	r9, r0, pc, ror pc
    12d4:	00000000 	andeq	r0, r0, r0
    12d8:	07cc0000 	strbeq	r0, [ip, r0]
    12dc:	07d00000 	ldrbeq	r0, [r0, r0]
    12e0:	00010000 	andeq	r0, r1, r0
    12e4:	00000056 	andeq	r0, r0, r6, asr r0
    12e8:	00000000 	andeq	r0, r0, r0
    12ec:	0007cc00 	andeq	ip, r7, r0, lsl #24
    12f0:	0007d000 	andeq	sp, r7, r0
    12f4:	55000100 	strpl	r0, [r0, #-256]	; 0x100
    12f8:	000007d0 	ldrdeq	r0, [r0], -r0	; <UNPREDICTABLE>
    12fc:	000007ec 	andeq	r0, r0, ip, ror #15
    1300:	00510001 	subseq	r0, r1, r1
    1304:	00000000 	andeq	r0, r0, r0
    1308:	cc000000 	stcgt	0, cr0, [r0], {-0}
    130c:	e4000007 	str	r0, [r0], #-7
    1310:	01000007 	tsteq	r0, r7
    1314:	00005500 	andeq	r5, r0, r0, lsl #10
    1318:	00000000 	andeq	r0, r0, r0
    131c:	000c0000 	andeq	r0, ip, r0
    1320:	00540000 	subseq	r0, r4, r0
    1324:	00010000 	andeq	r0, r1, r0
    1328:	00000050 	andeq	r0, r0, r0, asr r0
    132c:	00000000 	andeq	r0, r0, r0
    1330:	00000c00 	andeq	r0, r0, r0, lsl #24
    1334:	00002000 	andeq	r2, r0, r0
    1338:	51000100 	mrspl	r0, (UNDEF: 16)
	...
    1344:	0000000c 	andeq	r0, r0, ip
    1348:	00000020 	andeq	r0, r0, r0, lsr #32
    134c:	20510001 	subscs	r0, r1, r1
    1350:	24000000 	strcs	r0, [r0], #-0
    1354:	05000000 	streq	r0, [r0, #-0]
    1358:	31007100 	mrscc	r7, (UNDEF: 16)
    135c:	00249f24 	eoreq	r9, r4, r4, lsr #30
    1360:	00280000 	eoreq	r0, r8, r0
    1364:	00010000 	andeq	r0, r1, r0
    1368:	00003051 	andeq	r3, r0, r1, asr r0
    136c:	00005800 	andeq	r5, r0, r0, lsl #16
    1370:	51000100 	mrspl	r0, (UNDEF: 16)
	...
    137c:	0000000c 	andeq	r0, r0, ip
    1380:	00000030 	andeq	r0, r0, r0, lsr r0
    1384:	9f300002 	svcls	0x00300002
    1388:	00000030 	andeq	r0, r0, r0, lsr r0
    138c:	00000040 	andeq	r0, r0, r0, asr #32
    1390:	44520001 	ldrbmi	r0, [r2], #-1
    1394:	50000000 	andpl	r0, r0, r0
    1398:	01000000 	mrseq	r0, (UNDEF: 0)
    139c:	00005200 	andeq	r5, r0, r0, lsl #4
    13a0:	00000000 	andeq	r0, r0, r0
    13a4:	000c0000 	andeq	r0, ip, r0
    13a8:	00200000 	eoreq	r0, r0, r0
    13ac:	00020000 	andeq	r0, r2, r0
    13b0:	00289f30 	eoreq	r9, r8, r0, lsr pc
    13b4:	002c0000 	eoreq	r0, ip, r0
    13b8:	00010000 	andeq	r0, r1, r0
    13bc:	00003053 	andeq	r3, r0, r3, asr r0
    13c0:	00004800 	andeq	r4, r0, r0, lsl #16
    13c4:	53000100 	movwpl	r0, #256	; 0x100
	...
    13d4:	00000010 	andeq	r0, r0, r0, lsl r0
    13d8:	007d0002 	rsbseq	r0, sp, r2
    13dc:	00000010 	andeq	r0, r0, r0, lsl r0
    13e0:	00000090 	muleq	r0, r0, r0
    13e4:	087d0002 	ldmdaeq	sp!, {r1}^
	...
    13f4:	00000030 	andeq	r0, r0, r0, lsr r0
    13f8:	9f300002 	svcls	0x00300002
    13fc:	0000006c 	andeq	r0, r0, ip, rrx
    1400:	0000007f 	andeq	r0, r0, pc, ror r0
    1404:	00510001 	subseq	r0, r1, r1
    1408:	00000000 	andeq	r0, r0, r0
    140c:	90000000 	andls	r0, r0, r0
    1410:	98000000 	stmdals	r0, {}	; <UNPREDICTABLE>
    1414:	02000000 	andeq	r0, r0, #0
    1418:	98007d00 	stmdals	r0, {r8, sl, fp, ip, sp, lr}
    141c:	e4000000 	str	r0, [r0], #-0
    1420:	02000000 	andeq	r0, r0, #0
    1424:	00087d00 	andeq	r7, r8, r0, lsl #26
    1428:	00000000 	andeq	r0, r0, r0
    142c:	90000000 	andls	r0, r0, r0
    1430:	b0000000 	andlt	r0, r0, r0
    1434:	02000000 	andeq	r0, r0, #0
    1438:	cc9f3000 	ldcgt	0, cr3, [pc], {0}
    143c:	e4000000 	str	r0, [r0], #-0
    1440:	01000000 	mrseq	r0, (UNDEF: 0)
    1444:	00005300 	andeq	r5, r0, r0, lsl #6
    1448:	00000000 	andeq	r0, r0, r0
    144c:	00a00000 	adceq	r0, r0, r0
    1450:	00b40000 	adcseq	r0, r4, r0
    1454:	00020000 	andeq	r0, r2, r0
    1458:	00b47491 	umlalseq	r7, r4, r1, r4
    145c:	00bc0000 	adcseq	r0, ip, r0
    1460:	00010000 	andeq	r0, r1, r0
    1464:	0000bc51 	andeq	fp, r0, r1, asr ip
    1468:	0000e400 	andeq	lr, r0, r0, lsl #8
    146c:	91000200 	mrsls	r0, R8_usr
    1470:	00000074 	andeq	r0, r0, r4, ror r0
    1474:	00000000 	andeq	r0, r0, r0
    1478:	0000e400 	andeq	lr, r0, r0, lsl #8
    147c:	0000ec00 	andeq	lr, r0, r0, lsl #24
    1480:	7d000200 	sfmvc	f0, 4, [r0, #-0]
    1484:	0000ec00 	andeq	lr, r0, r0, lsl #24
    1488:	00013c00 	andeq	r3, r1, r0, lsl #24
    148c:	7d000200 	sfmvc	f0, 4, [r0, #-0]
    1490:	00000008 	andeq	r0, r0, r8
    1494:	00000000 	andeq	r0, r0, r0
    1498:	0000e400 	andeq	lr, r0, r0, lsl #8
    149c:	00012400 	andeq	r2, r1, r0, lsl #8
    14a0:	50000100 	andpl	r0, r0, r0, lsl #2
	...
    14ac:	000000e4 	andeq	r0, r0, r4, ror #1
    14b0:	00000124 	andeq	r0, r0, r4, lsr #2
    14b4:	00700005 	rsbseq	r0, r0, r5
    14b8:	009f2535 	addseq	r2, pc, r5, lsr r5	; <UNPREDICTABLE>
    14bc:	00000000 	andeq	r0, r0, r0
    14c0:	e4000000 	str	r0, [r0], #-0
    14c4:	24000000 	strcs	r0, [r0], #-0
    14c8:	05000001 	streq	r0, [r0, #-1]
    14cc:	4f007000 	svcmi	0x00007000
    14d0:	01249f1a 	teqeq	r4, sl, lsl pc
    14d4:	013c0000 	teqeq	ip, r0
    14d8:	00010000 	andeq	r0, r1, r0
    14dc:	00000055 	andeq	r0, r0, r5, asr r0
    14e0:	00000000 	andeq	r0, r0, r0
    14e4:	00013c00 	andeq	r3, r1, r0, lsl #24
    14e8:	00016c00 	andeq	r6, r1, r0, lsl #24
    14ec:	50000100 	andpl	r0, r0, r0, lsl #2
	...
    14f8:	0000013c 	andeq	r0, r0, ip, lsr r1
    14fc:	00000170 	andeq	r0, r0, r0, ror r1
    1500:	9f300002 	svcls	0x00300002
	...
    150c:	0000013c 	andeq	r0, r0, ip, lsr r1
    1510:	0000016c 	andeq	r0, r0, ip, ror #2
    1514:	00700005 	rsbseq	r0, r0, r5
    1518:	009f2535 	addseq	r2, pc, r5, lsr r5	; <UNPREDICTABLE>
    151c:	00000000 	andeq	r0, r0, r0
    1520:	3c000000 	stccc	0, cr0, [r0], {-0}
    1524:	6c000001 	stcvs	0, cr0, [r0], {1}
    1528:	05000001 	streq	r0, [r0, #-1]
    152c:	4f007000 	svcmi	0x00007000
    1530:	016c9f1a 	cmneq	ip, sl, lsl pc
    1534:	01840000 	orreq	r0, r4, r0
    1538:	00010000 	andeq	r0, r1, r0
    153c:	00000050 	andeq	r0, r0, r0, asr r0
	...
    1548:	00001000 	andeq	r1, r0, r0
    154c:	50000100 	andpl	r0, r0, r0, lsl #2
    1550:	00000010 	andeq	r0, r0, r0, lsl r0
    1554:	00000060 	andeq	r0, r0, r0, rrx
    1558:	00520001 	subseq	r0, r2, r1
    155c:	00000000 	andeq	r0, r0, r0
    1560:	60000000 	andvs	r0, r0, r0
    1564:	78000000 	stmdavc	r0, {}	; <UNPREDICTABLE>
    1568:	01000000 	mrseq	r0, (UNDEF: 0)
    156c:	00785000 	rsbseq	r5, r8, r0
    1570:	00a80000 	adceq	r0, r8, r0
    1574:	00010000 	andeq	r0, r1, r0
    1578:	00000052 	andeq	r0, r0, r2, asr r0
	...
    1584:	00001c00 	andeq	r1, r0, r0, lsl #24
    1588:	50000100 	andpl	r0, r0, r0, lsl #2
	...
    1594:	00000040 	andeq	r0, r0, r0, asr #32
    1598:	00000050 	andeq	r0, r0, r0, asr r0
    159c:	50500001 	subspl	r0, r0, r1
    15a0:	7c000000 	stcvc	0, cr0, [r0], {-0}
    15a4:	01000000 	mrseq	r0, (UNDEF: 0)
    15a8:	00005200 	andeq	r5, r0, r0, lsl #4
    15ac:	00000000 	andeq	r0, r0, r0
    15b0:	007c0000 	rsbseq	r0, ip, r0
    15b4:	00940000 	addseq	r0, r4, r0
    15b8:	00010000 	andeq	r0, r1, r0
    15bc:	00009450 	andeq	r9, r0, r0, asr r4
    15c0:	0000a800 	andeq	sl, r0, r0, lsl #16
    15c4:	52000100 	andpl	r0, r0, #0
	...
    15d0:	000000b0 	strheq	r0, [r0], -r0	; <UNPREDICTABLE>
    15d4:	000000b4 	strheq	r0, [r0], -r4
    15d8:	007d0002 	rsbseq	r0, sp, r2
    15dc:	000000b4 	strheq	r0, [r0], -r4
    15e0:	00000118 	andeq	r0, r0, r8, lsl r1
    15e4:	107d0002 	rsbsne	r0, sp, r2
	...
    15f0:	000000b0 	strheq	r0, [r0], -r0	; <UNPREDICTABLE>
    15f4:	000000d0 	ldrdeq	r0, [r0], -r0	; <UNPREDICTABLE>
    15f8:	d0500001 	subsle	r0, r0, r1
    15fc:	18000000 	stmdane	r0, {}	; <UNPREDICTABLE>
    1600:	01000001 	tsteq	r0, r1
    1604:	00005400 	andeq	r5, r0, r0, lsl #8
    1608:	00000000 	andeq	r0, r0, r0
    160c:	01180000 	tsteq	r8, r0
    1610:	01200000 	teqeq	r0, r0
    1614:	00020000 	andeq	r0, r2, r0
    1618:	0120007d 	teqeq	r0, sp, ror r0
    161c:	01600000 	cmneq	r0, r0
    1620:	00020000 	andeq	r0, r2, r0
    1624:	0000047d 	andeq	r0, r0, sp, ror r4
    1628:	00000000 	andeq	r0, r0, r0
    162c:	01180000 	tsteq	r8, r0
    1630:	01240000 	teqeq	r4, r0
    1634:	00010000 	andeq	r0, r1, r0
    1638:	00012450 	andeq	r2, r1, r0, asr r4
    163c:	00016000 	andeq	r6, r1, r0
    1640:	52000100 	andpl	r0, r0, #0
	...
    164c:	00000160 	andeq	r0, r0, r0, ror #2
    1650:	00000178 	andeq	r0, r0, r8, ror r1
    1654:	007d0002 	rsbseq	r0, sp, r2
    1658:	00000178 	andeq	r0, r0, r8, ror r1
    165c:	000001c0 	andeq	r0, r0, r0, asr #3
    1660:	047d0002 	ldrbteq	r0, [sp], #-2
	...
    166c:	00000160 	andeq	r0, r0, r0, ror #2
    1670:	00000180 	andeq	r0, r0, r0, lsl #3
    1674:	80500001 	subshi	r0, r0, r1
    1678:	ac000001 	stcge	0, cr0, [r0], {1}
    167c:	01000001 	tsteq	r0, r1
    1680:	00005100 	andeq	r5, r0, r0, lsl #2
    1684:	00000000 	andeq	r0, r0, r0
    1688:	01c00000 	biceq	r0, r0, r0
    168c:	01d40000 	bicseq	r0, r4, r0
    1690:	00020000 	andeq	r0, r2, r0
    1694:	01d4007d 	bicseq	r0, r4, sp, ror r0
    1698:	02100000 	andseq	r0, r0, #0
    169c:	00020000 	andeq	r0, r2, r0
    16a0:	00000c7d 	andeq	r0, r0, sp, ror ip
    16a4:	00000000 	andeq	r0, r0, r0
    16a8:	01c00000 	biceq	r0, r0, r0
    16ac:	01e00000 	mvneq	r0, r0
    16b0:	00010000 	andeq	r0, r1, r0
    16b4:	0001e050 	andeq	lr, r1, r0, asr r0
    16b8:	00021000 	andeq	r1, r2, r0
    16bc:	52000100 	andpl	r0, r0, #0
	...
    16c8:	00000210 	andeq	r0, r0, r0, lsl r2
    16cc:	00000218 	andeq	r0, r0, r8, lsl r2
    16d0:	18500001 	ldmdane	r0, {r0}^
    16d4:	6c000002 	stcvs	0, cr0, [r0], {2}
    16d8:	01000002 	tsteq	r0, r2
    16dc:	00005200 	andeq	r5, r0, r0, lsl #4
    16e0:	00000000 	andeq	r0, r0, r0
    16e4:	02840000 	addeq	r0, r4, #0
    16e8:	02940000 	addseq	r0, r4, #0
    16ec:	00010000 	andeq	r0, r1, r0
    16f0:	00029450 	andeq	r9, r2, r0, asr r4
    16f4:	0002e400 	andeq	lr, r2, r0, lsl #8
    16f8:	52000100 	andpl	r0, r0, #0
	...
    1704:	000002e4 	andeq	r0, r0, r4, ror #5
    1708:	00000320 	andeq	r0, r0, r0, lsr #6
    170c:	9f310002 	svcls	0x00310002
    1710:	00000320 	andeq	r0, r0, r0, lsr #6
    1714:	00000343 	andeq	r0, r0, r3, asr #6
    1718:	fd03000e 	stc2	0, cr0, [r3, #-56]	; 0xffffffc8
    171c:	94000026 	strls	r0, [r0], #-38	; 0x26
    1720:	48244801 	stmdami	r4!, {r0, fp, lr}
    1724:	9f012325 	svcls	0x00012325
    1728:	00000344 	andeq	r0, r0, r4, asr #6
    172c:	00000350 	andeq	r0, r0, r0, asr r3
    1730:	9f310002 	svcls	0x00310002
	...
    173c:	000002e4 	andeq	r0, r0, r4, ror #5
    1740:	00000320 	andeq	r0, r0, r0, lsr #6
    1744:	9f310002 	svcls	0x00310002
    1748:	00000344 	andeq	r0, r0, r4, asr #6
    174c:	00000350 	andeq	r0, r0, r0, asr r3
    1750:	9f310002 	svcls	0x00310002
	...
    175c:	000002e4 	andeq	r0, r0, r4, ror #5
    1760:	00000320 	andeq	r0, r0, r0, lsr #6
    1764:	9f310002 	svcls	0x00310002
    1768:	00000320 	andeq	r0, r0, r0, lsr #6
    176c:	00000343 	andeq	r0, r0, r3, asr #6
    1770:	fc03000e 	stc2	0, cr0, [r3], {14}
    1774:	94000026 	strls	r0, [r0], #-38	; 0x26
    1778:	48244801 	stmdami	r4!, {r0, fp, lr}
    177c:	9f012325 	svcls	0x00012325
    1780:	00000344 	andeq	r0, r0, r4, asr #6
    1784:	00000350 	andeq	r0, r0, r0, asr r3
    1788:	9f310002 	svcls	0x00310002
	...
    1794:	000002e4 	andeq	r0, r0, r4, ror #5
    1798:	00000320 	andeq	r0, r0, r0, lsr #6
    179c:	9f310002 	svcls	0x00310002
    17a0:	00000320 	andeq	r0, r0, r0, lsr #6
    17a4:	00000343 	andeq	r0, r0, r3, asr #6
    17a8:	0331000e 	teqeq	r1, #14
    17ac:	000026fe 	strdeq	r2, [r0], -lr
    17b0:	24480194 	strbcs	r0, [r8], #-404	; 0x194
    17b4:	9f242548 	svcls	0x00242548
    17b8:	00000344 	andeq	r0, r0, r4, asr #6
    17bc:	00000350 	andeq	r0, r0, r0, asr r3
    17c0:	9f310002 	svcls	0x00310002
	...
    17cc:	000002e4 	andeq	r0, r0, r4, ror #5
    17d0:	000002f4 	strdeq	r0, [r0], -r4
    17d4:	9f300002 	svcls	0x00300002
    17d8:	000002f4 	strdeq	r0, [r0], -r4
    17dc:	00000328 	andeq	r0, r0, r8, lsr #6
    17e0:	44510001 	ldrbmi	r0, [r1], #-1
    17e4:	50000003 	andpl	r0, r0, r3
    17e8:	01000003 	tsteq	r0, r3
    17ec:	00005100 	andeq	r5, r0, r0, lsl #2
    17f0:	00000000 	andeq	r0, r0, r0
    17f4:	02e40000 	rsceq	r0, r4, #0
    17f8:	03480000 	movteq	r0, #32768	; 0x8000
    17fc:	00020000 	andeq	r0, r2, r0
    1800:	03489f30 	movteq	r9, #36656	; 0x8f30
    1804:	03500000 	cmpeq	r0, #0
    1808:	00010000 	andeq	r0, r1, r0
    180c:	00000050 	andeq	r0, r0, r0, asr r0
    1810:	00000000 	andeq	r0, r0, r0
	...

Disassembly of section .debug_frame:

00000000 <.debug_frame>:
   0:	0000000c 	andeq	r0, r0, ip
   4:	ffffffff 			; <UNDEFINED> instruction: 0xffffffff
   8:	7c020001 	stcvc	0, cr0, [r2], {1}
   c:	000d0c0e 	andeq	r0, sp, lr, lsl #24
  10:	0000000c 	andeq	r0, r0, ip
  14:	00000000 	andeq	r0, r0, r0
  18:	000000d0 	ldrdeq	r0, [r0], -r0	; <UNPREDICTABLE>
  1c:	00000028 	andeq	r0, r0, r8, lsr #32
  20:	0000000c 	andeq	r0, r0, ip
  24:	ffffffff 			; <UNDEFINED> instruction: 0xffffffff
  28:	7c020001 	stcvc	0, cr0, [r2], {1}
  2c:	000d0c0e 	andeq	r0, sp, lr, lsl #24
  30:	00000014 	andeq	r0, r0, r4, lsl r0
  34:	00000020 	andeq	r0, r0, r0, lsr #32
  38:	00000120 	andeq	r0, r0, r0, lsr #2
  3c:	000000e8 	andeq	r0, r0, r8, ror #1
  40:	8e080e42 	cdphi	14, 0, cr0, cr8, cr2, {2}
  44:	00028401 	andeq	r8, r2, r1, lsl #8
  48:	00000018 	andeq	r0, r0, r8, lsl r0
  4c:	00000020 	andeq	r0, r0, r0, lsr #32
  50:	00000208 	andeq	r0, r0, r8, lsl #4
  54:	00000114 	andeq	r0, r0, r4, lsl r1
  58:	8e100e42 	cdphi	14, 1, cr0, cr0, cr2, {2}
  5c:	84028501 	strhi	r8, [r2], #-1281	; 0x501
  60:	00048303 	andeq	r8, r4, r3, lsl #6
  64:	0000000c 	andeq	r0, r0, ip
  68:	ffffffff 			; <UNDEFINED> instruction: 0xffffffff
  6c:	7c020001 	stcvc	0, cr0, [r2], {1}
  70:	000d0c0e 	andeq	r0, sp, lr, lsl #24
  74:	00000010 	andeq	r0, r0, r0, lsl r0
  78:	00000064 	andeq	r0, r0, r4, rrx
  7c:	0000031c 	andeq	r0, r0, ip, lsl r3
  80:	00000020 	andeq	r0, r0, r0, lsr #32
  84:	00080e42 	andeq	r0, r8, r2, asr #28
  88:	0000000c 	andeq	r0, r0, ip
  8c:	00000064 	andeq	r0, r0, r4, rrx
  90:	0000033c 	andeq	r0, r0, ip, lsr r3
  94:	00000004 	andeq	r0, r0, r4
  98:	0000000c 	andeq	r0, r0, ip
  9c:	00000064 	andeq	r0, r0, r4, rrx
  a0:	00000340 	andeq	r0, r0, r0, asr #6
  a4:	00000004 	andeq	r0, r0, r4
  a8:	0000000c 	andeq	r0, r0, ip
  ac:	00000064 	andeq	r0, r0, r4, rrx
  b0:	00000344 	andeq	r0, r0, r4, asr #6
  b4:	00000004 	andeq	r0, r0, r4
  b8:	0000000c 	andeq	r0, r0, ip
  bc:	00000064 	andeq	r0, r0, r4, rrx
  c0:	00000348 	andeq	r0, r0, r8, asr #6
  c4:	00000004 	andeq	r0, r0, r4
  c8:	0000000c 	andeq	r0, r0, ip
  cc:	00000064 	andeq	r0, r0, r4, rrx
  d0:	0000034c 	andeq	r0, r0, ip, asr #6
  d4:	00000020 	andeq	r0, r0, r0, lsr #32
  d8:	0000000c 	andeq	r0, r0, ip
  dc:	00000064 	andeq	r0, r0, r4, rrx
  e0:	0000036c 	andeq	r0, r0, ip, ror #6
  e4:	00000004 	andeq	r0, r0, r4
  e8:	00000010 	andeq	r0, r0, r0, lsl r0
  ec:	00000064 	andeq	r0, r0, r4, rrx
  f0:	00000370 	andeq	r0, r0, r0, ror r3
  f4:	00000028 	andeq	r0, r0, r8, lsr #32
  f8:	00080e42 	andeq	r0, r8, r2, asr #28
  fc:	0000000c 	andeq	r0, r0, ip
 100:	00000064 	andeq	r0, r0, r4, rrx
 104:	00000398 	muleq	r0, r8, r3
 108:	00000010 	andeq	r0, r0, r0, lsl r0
 10c:	00000018 	andeq	r0, r0, r8, lsl r0
 110:	00000064 	andeq	r0, r0, r4, rrx
 114:	000003a8 	andeq	r0, r0, r8, lsr #7
 118:	00000038 	andeq	r0, r0, r8, lsr r0
 11c:	8e100e42 	cdphi	14, 1, cr0, cr0, cr2, {2}
 120:	84028501 	strhi	r8, [r2], #-1281	; 0x501
 124:	00048303 	andeq	r8, r4, r3, lsl #6
 128:	00000010 	andeq	r0, r0, r0, lsl r0
 12c:	00000064 	andeq	r0, r0, r4, rrx
 130:	000003e0 	andeq	r0, r0, r0, ror #7
 134:	0000001c 	andeq	r0, r0, ip, lsl r0
 138:	00080e42 	andeq	r0, r8, r2, asr #28
 13c:	00000010 	andeq	r0, r0, r0, lsl r0
 140:	00000064 	andeq	r0, r0, r4, rrx
 144:	000003fc 	strdeq	r0, [r0], -ip
 148:	0000001c 	andeq	r0, r0, ip, lsl r0
 14c:	00080e42 	andeq	r0, r8, r2, asr #28
 150:	0000000c 	andeq	r0, r0, ip
 154:	00000064 	andeq	r0, r0, r4, rrx
 158:	00000418 	andeq	r0, r0, r8, lsl r4
 15c:	00000018 	andeq	r0, r0, r8, lsl r0
 160:	0000000c 	andeq	r0, r0, ip
 164:	00000064 	andeq	r0, r0, r4, rrx
 168:	00000430 	andeq	r0, r0, r0, lsr r4
 16c:	00000018 	andeq	r0, r0, r8, lsl r0
 170:	0000000c 	andeq	r0, r0, ip
 174:	00000064 	andeq	r0, r0, r4, rrx
 178:	00000448 	andeq	r0, r0, r8, asr #8
 17c:	00000018 	andeq	r0, r0, r8, lsl r0
 180:	00000018 	andeq	r0, r0, r8, lsl r0
 184:	00000064 	andeq	r0, r0, r4, rrx
 188:	00000460 	andeq	r0, r0, r0, ror #8
 18c:	00000034 	andeq	r0, r0, r4, lsr r0
 190:	8e100e42 	cdphi	14, 1, cr0, cr0, cr2, {2}
 194:	85028601 	strhi	r8, [r2, #-1537]	; 0x601
 198:	00048403 	andeq	r8, r4, r3, lsl #8
 19c:	0000000c 	andeq	r0, r0, ip
 1a0:	ffffffff 			; <UNDEFINED> instruction: 0xffffffff
 1a4:	7c020001 	stcvc	0, cr0, [r2], {1}
 1a8:	000d0c0e 	andeq	r0, sp, lr, lsl #24
 1ac:	0000000c 	andeq	r0, r0, ip
 1b0:	0000019c 	muleq	r0, ip, r1
 1b4:	00000494 	muleq	r0, r4, r4
 1b8:	0000002c 	andeq	r0, r0, ip, lsr #32
 1bc:	0000000c 	andeq	r0, r0, ip
 1c0:	0000019c 	muleq	r0, ip, r1
 1c4:	000004c0 	andeq	r0, r0, r0, asr #9
 1c8:	0000001c 	andeq	r0, r0, ip, lsl r0
 1cc:	0000000c 	andeq	r0, r0, ip
 1d0:	0000019c 	muleq	r0, ip, r1
 1d4:	000004dc 	ldrdeq	r0, [r0], -ip
 1d8:	00000024 	andeq	r0, r0, r4, lsr #32
 1dc:	0000000c 	andeq	r0, r0, ip
 1e0:	0000019c 	muleq	r0, ip, r1
 1e4:	00000500 	andeq	r0, r0, r0, lsl #10
 1e8:	00000008 	andeq	r0, r0, r8
 1ec:	0000000c 	andeq	r0, r0, ip
 1f0:	0000019c 	muleq	r0, ip, r1
 1f4:	00000508 	andeq	r0, r0, r8, lsl #10
 1f8:	00000010 	andeq	r0, r0, r0, lsl r0
 1fc:	00000014 	andeq	r0, r0, r4, lsl r0
 200:	0000019c 	muleq	r0, ip, r1
 204:	00000518 	andeq	r0, r0, r8, lsl r5
 208:	00000028 	andeq	r0, r0, r8, lsr #32
 20c:	8e080e42 	cdphi	14, 0, cr0, cr8, cr2, {2}
 210:	00028401 	andeq	r8, r2, r1, lsl #8
 214:	00000018 	andeq	r0, r0, r8, lsl r0
 218:	0000019c 	muleq	r0, ip, r1
 21c:	00000540 	andeq	r0, r0, r0, asr #10
 220:	00000080 	andeq	r0, r0, r0, lsl #1
 224:	8e100e42 	cdphi	14, 1, cr0, cr0, cr2, {2}
 228:	84028501 	strhi	r8, [r2], #-1281	; 0x501
 22c:	00048303 	andeq	r8, r4, r3, lsl #6
 230:	0000000c 	andeq	r0, r0, ip
 234:	0000019c 	muleq	r0, ip, r1
 238:	000005c0 	andeq	r0, r0, r0, asr #11
 23c:	0000000c 	andeq	r0, r0, ip
 240:	0000000c 	andeq	r0, r0, ip
 244:	0000019c 	muleq	r0, ip, r1
 248:	000005cc 	andeq	r0, r0, ip, asr #11
 24c:	0000002c 	andeq	r0, r0, ip, lsr #32
 250:	0000000c 	andeq	r0, r0, ip
 254:	0000019c 	muleq	r0, ip, r1
 258:	000005f8 	strdeq	r0, [r0], -r8
 25c:	0000002c 	andeq	r0, r0, ip, lsr #32
 260:	0000000c 	andeq	r0, r0, ip
 264:	0000019c 	muleq	r0, ip, r1
 268:	00000624 	andeq	r0, r0, r4, lsr #12
 26c:	0000002c 	andeq	r0, r0, ip, lsr #32
 270:	0000000c 	andeq	r0, r0, ip
 274:	ffffffff 			; <UNDEFINED> instruction: 0xffffffff
 278:	7c020001 	stcvc	0, cr0, [r2], {1}
 27c:	000d0c0e 	andeq	r0, sp, lr, lsl #24
 280:	0000000c 	andeq	r0, r0, ip
 284:	00000270 	andeq	r0, r0, r0, ror r2
 288:	00000660 	andeq	r0, r0, r0, ror #12
 28c:	0000003c 	andeq	r0, r0, ip, lsr r0
 290:	0000000c 	andeq	r0, r0, ip
 294:	00000270 	andeq	r0, r0, r0, ror r2
 298:	0000069c 	muleq	r0, ip, r6
 29c:	00000064 	andeq	r0, r0, r4, rrx
 2a0:	0000000c 	andeq	r0, r0, ip
 2a4:	ffffffff 			; <UNDEFINED> instruction: 0xffffffff
 2a8:	7c020001 	stcvc	0, cr0, [r2], {1}
 2ac:	000d0c0e 	andeq	r0, sp, lr, lsl #24
 2b0:	0000000c 	andeq	r0, r0, ip
 2b4:	000002a0 	andeq	r0, r0, r0, lsr #5
 2b8:	00000c40 	andeq	r0, r0, r0, asr #24
 2bc:	0000010c 	andeq	r0, r0, ip, lsl #2
 2c0:	0000000c 	andeq	r0, r0, ip
 2c4:	000002a0 	andeq	r0, r0, r0, lsr #5
 2c8:	00000d4c 	andeq	r0, r0, ip, asr #26
 2cc:	000000d4 	ldrdeq	r0, [r0], -r4
 2d0:	0000000c 	andeq	r0, r0, ip
 2d4:	000002a0 	andeq	r0, r0, r0, lsr #5
 2d8:	00000e20 	andeq	r0, r0, r0, lsr #28
 2dc:	00000018 	andeq	r0, r0, r8, lsl r0
 2e0:	0000000c 	andeq	r0, r0, ip
 2e4:	000002a0 	andeq	r0, r0, r0, lsr #5
 2e8:	00000e38 	andeq	r0, r0, r8, lsr lr
 2ec:	000000a8 	andeq	r0, r0, r8, lsr #1
 2f0:	0000000c 	andeq	r0, r0, ip
 2f4:	000002a0 	andeq	r0, r0, r0, lsr #5
 2f8:	00000ee0 	andeq	r0, r0, r0, ror #29
 2fc:	0000000c 	andeq	r0, r0, ip
 300:	0000000c 	andeq	r0, r0, ip
 304:	000002a0 	andeq	r0, r0, r0, lsr #5
 308:	00000eec 	andeq	r0, r0, ip, ror #29
 30c:	0000000c 	andeq	r0, r0, ip
 310:	0000000c 	andeq	r0, r0, ip
 314:	000002a0 	andeq	r0, r0, r0, lsr #5
 318:	00000ef8 	strdeq	r0, [r0], -r8
 31c:	00000014 	andeq	r0, r0, r4, lsl r0
 320:	0000000c 	andeq	r0, r0, ip
 324:	000002a0 	andeq	r0, r0, r0, lsr #5
 328:	00000f0c 	andeq	r0, r0, ip, lsl #30
 32c:	00000010 	andeq	r0, r0, r0, lsl r0
 330:	0000000c 	andeq	r0, r0, ip
 334:	ffffffff 			; <UNDEFINED> instruction: 0xffffffff
 338:	7c020001 	stcvc	0, cr0, [r2], {1}
 33c:	000d0c0e 	andeq	r0, sp, lr, lsl #24
 340:	00000018 	andeq	r0, r0, r8, lsl r0
 344:	00000330 	andeq	r0, r0, r0, lsr r3
 348:	00000f1c 	andeq	r0, r0, ip, lsl pc
 34c:	000000c0 	andeq	r0, r0, r0, asr #1
 350:	8e100e42 	cdphi	14, 1, cr0, cr0, cr2, {2}
 354:	84028501 	strhi	r8, [r2], #-1281	; 0x501
 358:	00048303 	andeq	r8, r4, r3, lsl #6
 35c:	00000018 	andeq	r0, r0, r8, lsl r0
 360:	00000330 	andeq	r0, r0, r0, lsr r3
 364:	00000fdc 	ldrdeq	r0, [r0], -ip
 368:	000000a0 	andeq	r0, r0, r0, lsr #1
 36c:	8e100e42 	cdphi	14, 1, cr0, cr0, cr2, {2}
 370:	84028501 	strhi	r8, [r2], #-1281	; 0x501
 374:	00048303 	andeq	r8, r4, r3, lsl #6
 378:	00000014 	andeq	r0, r0, r4, lsl r0
 37c:	00000330 	andeq	r0, r0, r0, lsr r3
 380:	0000107c 	andeq	r1, r0, ip, ror r0
 384:	00000090 	muleq	r0, r0, r0
 388:	84040e44 	strhi	r0, [r4], #-3652	; 0xe44
 38c:	00000001 	andeq	r0, r0, r1
 390:	00000014 	andeq	r0, r0, r4, lsl r0
 394:	00000330 	andeq	r0, r0, r0, lsr r3
 398:	0000110c 	andeq	r1, r0, ip, lsl #2
 39c:	0000008c 	andeq	r0, r0, ip, lsl #1
 3a0:	84040e44 	strhi	r0, [r4], #-3652	; 0xe44
 3a4:	00000001 	andeq	r0, r0, r1
 3a8:	00000018 	andeq	r0, r0, r8, lsl r0
 3ac:	00000330 	andeq	r0, r0, r0, lsr r3
 3b0:	00001198 	muleq	r0, r8, r1
 3b4:	000000a0 	andeq	r0, r0, r0, lsr #1
 3b8:	8e100e42 	cdphi	14, 1, cr0, cr0, cr2, {2}
 3bc:	84028501 	strhi	r8, [r2], #-1281	; 0x501
 3c0:	00048303 	andeq	r8, r4, r3, lsl #6
 3c4:	0000000c 	andeq	r0, r0, ip
 3c8:	00000330 	andeq	r0, r0, r0, lsr r3
 3cc:	00001238 	andeq	r1, r0, r8, lsr r2
 3d0:	00000034 	andeq	r0, r0, r4, lsr r0
 3d4:	00000014 	andeq	r0, r0, r4, lsl r0
 3d8:	00000330 	andeq	r0, r0, r0, lsr r3
 3dc:	0000126c 	andeq	r1, r0, ip, ror #4
 3e0:	00000090 	muleq	r0, r0, r0
 3e4:	84040e44 	strhi	r0, [r4], #-3652	; 0xe44
 3e8:	00000001 	andeq	r0, r0, r1
 3ec:	00000014 	andeq	r0, r0, r4, lsl r0
 3f0:	00000330 	andeq	r0, r0, r0, lsr r3
 3f4:	000012fc 	strdeq	r1, [r0], -ip
 3f8:	0000008c 	andeq	r0, r0, ip, lsl #1
 3fc:	84040e44 	strhi	r0, [r4], #-3652	; 0xe44
 400:	00000001 	andeq	r0, r0, r1
 404:	0000000c 	andeq	r0, r0, ip
 408:	ffffffff 			; <UNDEFINED> instruction: 0xffffffff
 40c:	7c020001 	stcvc	0, cr0, [r2], {1}
 410:	000d0c0e 	andeq	r0, sp, lr, lsl #24
 414:	00000020 	andeq	r0, r0, r0, lsr #32
 418:	00000404 	andeq	r0, r0, r4, lsl #8
 41c:	00001388 	andeq	r1, r0, r8, lsl #7
 420:	000000bc 	strheq	r0, [r0], -ip
 424:	8e1c0e42 	cdphi	14, 1, cr0, cr12, cr2, {2}
 428:	88028a01 	stmdahi	r2, {r0, r9, fp, pc}
 42c:	86048703 	strhi	r8, [r4], -r3, lsl #14
 430:	84068505 	strhi	r8, [r6], #-1285	; 0x505
 434:	480e4c07 	stmdami	lr, {r0, r1, r2, sl, fp, lr}
 438:	0000001c 	andeq	r0, r0, ip, lsl r0
 43c:	00000404 	andeq	r0, r0, r4, lsl #8
 440:	00001444 	andeq	r1, r0, r4, asr #8
 444:	000000a8 	andeq	r0, r0, r8, lsr #1
 448:	87100e42 	ldrhi	r0, [r0, -r2, asr #28]
 44c:	85028601 	strhi	r8, [r2, #-1537]	; 0x601
 450:	4c048403 	cfstrsmi	mvf8, [r4], {3}
 454:	0000280e 	andeq	r2, r0, lr, lsl #16
 458:	0000001c 	andeq	r0, r0, ip, lsl r0
 45c:	00000404 	andeq	r0, r0, r4, lsl #8
 460:	000014ec 	andeq	r1, r0, ip, ror #9
 464:	000000e8 	andeq	r0, r0, r8, ror #1
 468:	88140e42 	ldmdahi	r4, {r1, r6, r9, sl, fp}
 46c:	86028701 	strhi	r8, [r2], -r1, lsl #14
 470:	84048503 	strhi	r8, [r4], #-1283	; 0x503
 474:	400e4a05 	andmi	r4, lr, r5, lsl #20
 478:	00000030 	andeq	r0, r0, r0, lsr r0
 47c:	00000404 	andeq	r0, r0, r4, lsl #8
 480:	000015d4 	ldrdeq	r1, [r0], -r4
 484:	000002d0 	ldrdeq	r0, [r0], -r0	; <UNPREDICTABLE>
 488:	83100e42 	tsthi	r0, #1056	; 0x420
 48c:	81028201 	tsthi	r2, r1, lsl #4
 490:	42048003 	andmi	r8, r4, #3
 494:	058e300e 	streq	r3, [lr, #14]
 498:	0789068a 	streq	r0, [r9, sl, lsl #13]
 49c:	09870888 	stmibeq	r7, {r3, r7, fp}
 4a0:	0b850a86 	bleq	fe142ec0 <__bss_end+0xfe140600>
 4a4:	0e420c84 	cdpeq	12, 4, cr0, cr2, cr4, {4}
 4a8:	00000048 	andeq	r0, r0, r8, asr #32
 4ac:	00000030 	andeq	r0, r0, r0, lsr r0
 4b0:	00000404 	andeq	r0, r0, r4, lsl #8
 4b4:	000018a4 	andeq	r1, r0, r4, lsr #17
 4b8:	000002d0 	ldrdeq	r0, [r0], -r0	; <UNPREDICTABLE>
 4bc:	83100e42 	tsthi	r0, #1056	; 0x420
 4c0:	81028201 	tsthi	r2, r1, lsl #4
 4c4:	42048003 	andmi	r8, r4, #3
 4c8:	058e300e 	streq	r3, [lr, #14]
 4cc:	0789068a 	streq	r0, [r9, sl, lsl #13]
 4d0:	09870888 	stmibeq	r7, {r3, r7, fp}
 4d4:	0b850a86 	bleq	fe142ef4 <__bss_end+0xfe140634>
 4d8:	0e420c84 	cdpeq	12, 4, cr0, cr2, cr4, {4}
 4dc:	00000048 	andeq	r0, r0, r8, asr #32
 4e0:	0000000c 	andeq	r0, r0, ip
 4e4:	ffffffff 			; <UNDEFINED> instruction: 0xffffffff
 4e8:	7c020001 	stcvc	0, cr0, [r2], {1}
 4ec:	000d0c0e 	andeq	r0, sp, lr, lsl #24
 4f0:	0000000c 	andeq	r0, r0, ip
 4f4:	000004e0 	andeq	r0, r0, r0, ror #9
 4f8:	00001d50 	andeq	r1, r0, r0, asr sp
 4fc:	0000000c 	andeq	r0, r0, ip
 500:	0000000c 	andeq	r0, r0, ip
 504:	000004e0 	andeq	r0, r0, r0, ror #9
 508:	00001d5c 	andeq	r1, r0, ip, asr sp
 50c:	0000004c 	andeq	r0, r0, ip, asr #32
 510:	0000000c 	andeq	r0, r0, ip
 514:	ffffffff 			; <UNDEFINED> instruction: 0xffffffff
 518:	7c020001 	stcvc	0, cr0, [r2], {1}
 51c:	000d0c0e 	andeq	r0, sp, lr, lsl #24
 520:	00000014 	andeq	r0, r0, r4, lsl r0
 524:	00000510 	andeq	r0, r0, r0, lsl r5
 528:	00001da8 	andeq	r1, r0, r8, lsr #27
 52c:	00000090 	muleq	r0, r0, r0
 530:	8e080e48 	cdphi	14, 0, cr0, cr8, cr8, {2}
 534:	00028401 	andeq	r8, r2, r1, lsl #8
 538:	00000010 	andeq	r0, r0, r0, lsl r0
 53c:	00000510 	andeq	r0, r0, r0, lsl r5
 540:	00001e38 	andeq	r1, r0, r8, lsr lr
 544:	00000054 	andeq	r0, r0, r4, asr r0
 548:	00080e44 	andeq	r0, r8, r4, asr #28
 54c:	00000014 	andeq	r0, r0, r4, lsl r0
 550:	00000510 	andeq	r0, r0, r0, lsl r5
 554:	00001e8c 	andeq	r1, r0, ip, lsl #29
 558:	00000058 	andeq	r0, r0, r8, asr r0
 55c:	85080e44 	strhi	r0, [r8, #-3652]	; 0xe44
 560:	00028401 	andeq	r8, r2, r1, lsl #8
 564:	0000000c 	andeq	r0, r0, ip
 568:	00000510 	andeq	r0, r0, r0, lsl r5
 56c:	00001ee4 	andeq	r1, r0, r4, ror #29
 570:	00000050 	andeq	r0, r0, r0, asr r0
 574:	0000000c 	andeq	r0, r0, ip
 578:	ffffffff 			; <UNDEFINED> instruction: 0xffffffff
 57c:	7c020001 	stcvc	0, cr0, [r2], {1}
 580:	000d0c0e 	andeq	r0, sp, lr, lsl #24
 584:	0000000c 	andeq	r0, r0, ip
 588:	00000574 	andeq	r0, r0, r4, ror r5
 58c:	00001f34 	andeq	r1, r0, r4, lsr pc
 590:	00000060 	andeq	r0, r0, r0, rrx
 594:	0000000c 	andeq	r0, r0, ip
 598:	00000574 	andeq	r0, r0, r4, ror r5
 59c:	00001f94 	muleq	r0, r4, pc	; <UNPREDICTABLE>
 5a0:	00000050 	andeq	r0, r0, r0, asr r0
 5a4:	0000000c 	andeq	r0, r0, ip
 5a8:	00000574 	andeq	r0, r0, r4, ror r5
 5ac:	00001fe4 	andeq	r1, r0, r4, ror #31
 5b0:	00000038 	andeq	r0, r0, r8, lsr r0
 5b4:	0000000c 	andeq	r0, r0, ip
 5b8:	00000574 	andeq	r0, r0, r4, ror r5
 5bc:	0000201c 	andeq	r2, r0, ip, lsl r0
 5c0:	00000028 	andeq	r0, r0, r8, lsr #32
 5c4:	0000000c 	andeq	r0, r0, ip
 5c8:	00000574 	andeq	r0, r0, r4, ror r5
 5cc:	00002044 	andeq	r2, r0, r4, asr #32
 5d0:	00000048 	andeq	r0, r0, r8, asr #32
 5d4:	0000000c 	andeq	r0, r0, ip
 5d8:	00000574 	andeq	r0, r0, r4, ror r5
 5dc:	0000208c 	andeq	r2, r0, ip, lsl #1
 5e0:	00000040 	andeq	r0, r0, r0, asr #32
 5e4:	0000000c 	andeq	r0, r0, ip
 5e8:	ffffffff 			; <UNDEFINED> instruction: 0xffffffff
 5ec:	7c020001 	stcvc	0, cr0, [r2], {1}
 5f0:	000d0c0e 	andeq	r0, sp, lr, lsl #24
 5f4:	0000000c 	andeq	r0, r0, ip
 5f8:	000005e4 	andeq	r0, r0, r4, ror #11
 5fc:	000020cc 	andeq	r2, r0, ip, asr #1
 600:	00000030 	andeq	r0, r0, r0, lsr r0
 604:	0000000c 	andeq	r0, r0, ip
 608:	000005e4 	andeq	r0, r0, r4, ror #11
 60c:	000020fc 	strdeq	r2, [r0], -ip
 610:	00000010 	andeq	r0, r0, r0, lsl r0
 614:	0000000c 	andeq	r0, r0, ip
 618:	000005e4 	andeq	r0, r0, r4, ror #11
 61c:	0000210c 	andeq	r2, r0, ip, lsl #2
 620:	0000003c 	andeq	r0, r0, ip, lsr r0
 624:	0000000c 	andeq	r0, r0, ip
 628:	000005e4 	andeq	r0, r0, r4, ror #11
 62c:	00002148 	andeq	r2, r0, r8, asr #2
 630:	00000034 	andeq	r0, r0, r4, lsr r0
 634:	00000018 	andeq	r0, r0, r8, lsl r0
 638:	000005e4 	andeq	r0, r0, r4, ror #11
 63c:	0000217c 	andeq	r2, r0, ip, ror r1
 640:	00000068 	andeq	r0, r0, r8, rrx
 644:	8e100e42 	cdphi	14, 1, cr0, cr0, cr2, {2}
 648:	84028501 	strhi	r8, [r2], #-1281	; 0x501
 64c:	00048303 	andeq	r8, r4, r3, lsl #6
 650:	00000014 	andeq	r0, r0, r4, lsl r0
 654:	000005e4 	andeq	r0, r0, r4, ror #11
 658:	000021e4 	andeq	r2, r0, r4, ror #3
 65c:	00000048 	andeq	r0, r0, r8, asr #32
 660:	84040e44 	strhi	r0, [r4], #-3652	; 0xe44
 664:	00000001 	andeq	r0, r0, r1
 668:	00000014 	andeq	r0, r0, r4, lsl r0
 66c:	000005e4 	andeq	r0, r0, r4, ror #11
 670:	0000222c 	andeq	r2, r0, ip, lsr #4
 674:	00000060 	andeq	r0, r0, r0, rrx
 678:	84040e4c 	strhi	r0, [r4], #-3660	; 0xe4c
 67c:	00000001 	andeq	r0, r0, r1
 680:	00000018 	andeq	r0, r0, r8, lsl r0
 684:	000005e4 	andeq	r0, r0, r4, ror #11
 688:	0000228c 	andeq	r2, r0, ip, lsl #5
 68c:	00000050 	andeq	r0, r0, r0, asr r0
 690:	860c0e4a 	strhi	r0, [ip], -sl, asr #28
 694:	84028501 	strhi	r8, [r2], #-1281	; 0x501
 698:	00000003 	andeq	r0, r0, r3
 69c:	0000000c 	andeq	r0, r0, ip
 6a0:	000005e4 	andeq	r0, r0, r4, ror #11
 6a4:	000022dc 	ldrdeq	r2, [r0], -ip
 6a8:	00000074 	andeq	r0, r0, r4, ror r0
 6ac:	0000000c 	andeq	r0, r0, ip
 6b0:	000005e4 	andeq	r0, r0, r4, ror #11
 6b4:	00002350 	andeq	r2, r0, r0, asr r3
 6b8:	00000060 	andeq	r0, r0, r0, rrx
 6bc:	0000000c 	andeq	r0, r0, ip
 6c0:	000005e4 	andeq	r0, r0, r4, ror #11
 6c4:	000023b0 			; <UNDEFINED> instruction: 0x000023b0
 6c8:	0000006c 	andeq	r0, r0, ip, rrx

Disassembly of section .debug_ranges:

00000000 <.debug_ranges>:
   0:	00000048 	andeq	r0, r0, r8, asr #32
   4:	00000058 	andeq	r0, r0, r8, asr r0
   8:	00000060 	andeq	r0, r0, r0, rrx
   c:	00000074 	andeq	r0, r0, r4, ror r0
	...
  18:	00000048 	andeq	r0, r0, r8, asr #32
  1c:	00000058 	andeq	r0, r0, r8, asr r0
  20:	00000060 	andeq	r0, r0, r0, rrx
  24:	00000074 	andeq	r0, r0, r4, ror r0
	...
  30:	000000c4 	andeq	r0, r0, r4, asr #1
  34:	000000c8 	andeq	r0, r0, r8, asr #1
  38:	000000cc 	andeq	r0, r0, ip, asr #1
  3c:	000000f0 	strdeq	r0, [r0], -r0	; <UNPREDICTABLE>
	...
  48:	000000c4 	andeq	r0, r0, r4, asr #1
  4c:	000000c8 	andeq	r0, r0, r8, asr #1
  50:	000000cc 	andeq	r0, r0, ip, asr #1
  54:	000000f0 	strdeq	r0, [r0], -r0	; <UNPREDICTABLE>
	...
  60:	00000184 	andeq	r0, r0, r4, lsl #3
  64:	00000188 	andeq	r0, r0, r8, lsl #3
  68:	0000018c 	andeq	r0, r0, ip, lsl #3
  6c:	00000194 	muleq	r0, r4, r1
  70:	000001d0 	ldrdeq	r0, [r0], -r0	; <UNPREDICTABLE>
  74:	000001f0 	strdeq	r0, [r0], -r0	; <UNPREDICTABLE>
	...
  80:	0000021c 	andeq	r0, r0, ip, lsl r2
  84:	00000220 	andeq	r0, r0, r0, lsr #4
  88:	00000224 	andeq	r0, r0, r4, lsr #4
  8c:	00000228 	andeq	r0, r0, r8, lsr #4
  90:	00000230 	andeq	r0, r0, r0, lsr r2
  94:	0000024c 	andeq	r0, r0, ip, asr #4
  98:	00000254 	andeq	r0, r0, r4, asr r2
  9c:	0000025c 	andeq	r0, r0, ip, asr r2
	...
  a8:	0000021c 	andeq	r0, r0, ip, lsl r2
  ac:	00000220 	andeq	r0, r0, r0, lsr #4
  b0:	00000224 	andeq	r0, r0, r4, lsr #4
  b4:	00000228 	andeq	r0, r0, r8, lsr #4
  b8:	00000230 	andeq	r0, r0, r0, lsr r2
  bc:	0000024c 	andeq	r0, r0, ip, asr #4
  c0:	00000254 	andeq	r0, r0, r4, asr r2
  c4:	0000025c 	andeq	r0, r0, ip, asr r2
	...
  d0:	00000280 	andeq	r0, r0, r0, lsl #5
  d4:	00000288 	andeq	r0, r0, r8, lsl #5
  d8:	0000028c 	andeq	r0, r0, ip, lsl #5
  dc:	000002ac 	andeq	r0, r0, ip, lsr #5
	...
  e8:	00000280 	andeq	r0, r0, r0, lsl #5
  ec:	00000288 	andeq	r0, r0, r8, lsl #5
  f0:	0000028c 	andeq	r0, r0, ip, lsl #5
  f4:	000002ac 	andeq	r0, r0, ip, lsr #5
	...
 100:	00000374 	andeq	r0, r0, r4, ror r3
 104:	00000378 	andeq	r0, r0, r8, ror r3
 108:	0000037c 	andeq	r0, r0, ip, ror r3
 10c:	00000384 	andeq	r0, r0, r4, lsl #7
 110:	000003c0 	andeq	r0, r0, r0, asr #7
 114:	000003e0 	andeq	r0, r0, r0, ror #7
	...
 120:	0000040c 	andeq	r0, r0, ip, lsl #8
 124:	00000410 	andeq	r0, r0, r0, lsl r4
 128:	00000414 	andeq	r0, r0, r4, lsl r4
 12c:	00000418 	andeq	r0, r0, r8, lsl r4
 130:	00000420 	andeq	r0, r0, r0, lsr #8
 134:	0000043c 	andeq	r0, r0, ip, lsr r4
 138:	00000444 	andeq	r0, r0, r4, asr #8
 13c:	0000044c 	andeq	r0, r0, ip, asr #8
	...
 148:	0000040c 	andeq	r0, r0, ip, lsl #8
 14c:	00000410 	andeq	r0, r0, r0, lsl r4
 150:	00000414 	andeq	r0, r0, r4, lsl r4
 154:	00000418 	andeq	r0, r0, r8, lsl r4
 158:	00000420 	andeq	r0, r0, r0, lsr #8
 15c:	0000043c 	andeq	r0, r0, ip, lsr r4
 160:	00000444 	andeq	r0, r0, r4, asr #8
 164:	0000044c 	andeq	r0, r0, ip, asr #8
	...
 170:	000000f8 	strdeq	r0, [r0], -r8
 174:	000000fc 	strdeq	r0, [r0], -ip
 178:	00000100 	andeq	r0, r0, r0, lsl #2
 17c:	00000154 	andeq	r0, r0, r4, asr r1
	...
 188:	000000f8 	strdeq	r0, [r0], -r8
 18c:	000000fc 	strdeq	r0, [r0], -ip
 190:	00000100 	andeq	r0, r0, r0, lsl #2
 194:	00000154 	andeq	r0, r0, r4, asr r1
	...
