
arch/arm/mach-sunxi/pm/standby/standby.elf:     file format elf32-littlearm


Disassembly of section .text:

f0000000 <standby_main>:
f0000000:	e92d40f8 	push	{r3, r4, r5, r6, r7, lr}
f0000004:	e2505000 	subs	r5, r0, #0
f0000008:	03e00000 	mvneq	r0, #0
f000000c:	08bd80f8 	popeq	{r3, r4, r5, r6, r7, pc}
f0000010:	eb000641 	bl	f000191c <mem_flush_tlb>
f0000014:	e59f33ec 	ldr	r3, [pc, #1004]	; f0000408 <standby_main+0x408>
f0000018:	e3a01000 	mov	r1, #0
f000001c:	e59f23e8 	ldr	r2, [pc, #1000]	; f000040c <standby_main+0x40c>
f0000020:	e4c31001 	strb	r1, [r3], #1
f0000024:	e1530002 	cmp	r3, r2
f0000028:	9afffffc 	bls	f0000020 <standby_main+0x20>
f000002c:	e59f63dc 	ldr	r6, [pc, #988]	; f0000410 <standby_main+0x410>
f0000030:	e59f43dc 	ldr	r4, [pc, #988]	; f0000414 <standby_main+0x414>
f0000034:	eb000591 	bl	f0001680 <save_sp>
f0000038:	e5860000 	str	r0, [r6]
f000003c:	e3a00021 	mov	r0, #33	; 0x21
f0000040:	eb0004ae 	bl	f0001300 <save_mem_status>
f0000044:	e3a0201c 	mov	r2, #28
f0000048:	e1a01005 	mov	r1, r5
f000004c:	e1a00004 	mov	r0, r4
f0000050:	eb0000ff 	bl	f0000454 <standby_memcpy>
f0000054:	eb000639 	bl	f0001940 <mem_preload_tlb>
f0000058:	e3a00001 	mov	r0, #1
f000005c:	eb000b43 	bl	f0002d70 <mem_clk_init>
f0000060:	e3a01000 	mov	r1, #0
f0000064:	e3a00001 	mov	r0, #1
f0000068:	eb0004ed 	bl	f0001424 <init_perfcounters>
f000006c:	e3a00022 	mov	r0, #34	; 0x22
f0000070:	eb0004a2 	bl	f0001300 <save_mem_status>
f0000074:	eb0002d3 	bl	f0000bc8 <standby_arisc_init>
f0000078:	eb000106 	bl	f0000498 <standby_clk_init>
f000007c:	eb000b01 	bl	f0002c88 <mem_tmr_init>
f0000080:	e3a00023 	mov	r0, #35	; 0x23
f0000084:	eb00049d 	bl	f0001300 <save_mem_status>
f0000088:	e5943008 	ldr	r3, [r4, #8]
f000008c:	e3130001 	tst	r3, #1
f0000090:	1a000092 	bne	f00002e0 <standby_main+0x2e0>
f0000094:	e3a00026 	mov	r0, #38	; 0x26
f0000098:	eb000498 	bl	f0001300 <save_mem_status>
f000009c:	e5943000 	ldr	r3, [r4]
f00000a0:	e3130001 	tst	r3, #1
f00000a4:	1a00005f 	bne	f0000228 <standby_main+0x228>
f00000a8:	e3130002 	tst	r3, #2
f00000ac:	1a000066 	bne	f000024c <standby_main+0x24c>
f00000b0:	e5943008 	ldr	r3, [r4, #8]
f00000b4:	e3130008 	tst	r3, #8
f00000b8:	1a000070 	bne	f0000280 <standby_main+0x280>
f00000bc:	e3a00025 	mov	r0, #37	; 0x25
f00000c0:	eb00048e 	bl	f0001300 <save_mem_status>
f00000c4:	e59f334c 	ldr	r3, [pc, #844]	; f0000418 <standby_main+0x418>
f00000c8:	e594c004 	ldr	ip, [r4, #4]
f00000cc:	e594100c 	ldr	r1, [r4, #12]
f00000d0:	e5942010 	ldr	r2, [r4, #16]
f00000d4:	e1a00003 	mov	r0, r3
f00000d8:	e583c000 	str	ip, [r3]
f00000dc:	e9830006 	stmib	r3, {r1, r2}
f00000e0:	eb000334 	bl	f0000db8 <standby_arisc_standby_normal>
f00000e4:	e320f003 	wfi
f00000e8:	eb0000ff 	bl	f00004ec <standby_clk_ldoenable>
f00000ec:	eb00010c 	bl	f0000524 <standby_clk_pll1enable>
f00000f0:	e3a00001 	mov	r0, #1
f00000f4:	eb0009d1 	bl	f0002840 <standby_delay_cycle>
f00000f8:	eb0000f2 	bl	f00004c8 <standby_clk_core2hosc>
f00000fc:	e59f0318 	ldr	r0, [pc, #792]	; f000041c <standby_main+0x41c>
f0000100:	eb000305 	bl	f0000d1c <standby_arisc_query_wakeup_src>
f0000104:	e3a00041 	mov	r0, #65	; 0x41
f0000108:	eb00047c 	bl	f0001300 <save_mem_status>
f000010c:	eb000af5 	bl	f0002ce8 <mem_tmr_enable_watchdog>
f0000110:	e3a00042 	mov	r0, #66	; 0x42
f0000114:	eb000479 	bl	f0001300 <save_mem_status>
f0000118:	e3a00004 	mov	r0, #4
f000011c:	eb0002bf 	bl	f0000c20 <standby_arisc_notify_restore>
f0000120:	e3a00043 	mov	r0, #67	; 0x43
f0000124:	eb000475 	bl	f0001300 <save_mem_status>
f0000128:	e3a03000 	mov	r3, #0
f000012c:	e3a00051 	mov	r0, #81	; 0x51
f0000130:	e5843000 	str	r3, [r4]
f0000134:	eb000a93 	bl	f0002b88 <mem_query_int>
f0000138:	e2707001 	rsbs	r7, r0, #1
f000013c:	e3a0003e 	mov	r0, #62	; 0x3e
f0000140:	33a07000 	movcc	r7, #0
f0000144:	e5847000 	str	r7, [r4]
f0000148:	eb000a8e 	bl	f0002b88 <mem_query_int>
f000014c:	e3500000 	cmp	r0, #0
f0000150:	03a00002 	moveq	r0, #2
f0000154:	13a00000 	movne	r0, #0
f0000158:	e1807007 	orr	r7, r0, r7
f000015c:	e3170002 	tst	r7, #2
f0000160:	e5847000 	str	r7, [r4]
f0000164:	1a00003c 	bne	f000025c <standby_main+0x25c>
f0000168:	e3a00044 	mov	r0, #68	; 0x44
f000016c:	e3a07000 	mov	r7, #0
f0000170:	eb000462 	bl	f0001300 <save_mem_status>
f0000174:	e34f71c2 	movt	r7, #61890	; 0xf1c2
f0000178:	ea000001 	b	f0000184 <standby_main+0x184>
f000017c:	e3130001 	tst	r3, #1
f0000180:	1a000037 	bne	f0000264 <standby_main+0x264>
f0000184:	eb0002c3 	bl	f0000c98 <standby_arisc_check_restore_status>
f0000188:	e3500000 	cmp	r0, #0
f000018c:	e5943008 	ldr	r3, [r4, #8]
f0000190:	1afffff9 	bne	f000017c <standby_main+0x17c>
f0000194:	e3130008 	tst	r3, #8
f0000198:	1a000069 	bne	f0000344 <standby_main+0x344>
f000019c:	e3a00045 	mov	r0, #69	; 0x45
f00001a0:	eb000456 	bl	f0001300 <save_mem_status>
f00001a4:	eb000ae1 	bl	f0002d30 <mem_tmr_disable_watchdog>
f00001a8:	e5943008 	ldr	r3, [r4, #8]
f00001ac:	e3130001 	tst	r3, #1
f00001b0:	1a000060 	bne	f0000338 <standby_main+0x338>
f00001b4:	eb000ac1 	bl	f0002cc0 <mem_tmr_exit>
f00001b8:	eb0000c0 	bl	f00004c0 <standby_clk_exit>
f00001bc:	eb00028c 	bl	f0000bf4 <standby_arisc_exit>
f00001c0:	e3a00046 	mov	r0, #70	; 0x46
f00001c4:	eb00044d 	bl	f0001300 <save_mem_status>
f00001c8:	e5943008 	ldr	r3, [r4, #8]
f00001cc:	e3130001 	tst	r3, #1
f00001d0:	1a000055 	bne	f000032c <standby_main+0x32c>
f00001d4:	e5960000 	ldr	r0, [r6]
f00001d8:	eb00052e 	bl	f0001698 <restore_sp>
f00001dc:	e5943008 	ldr	r3, [r4, #8]
f00001e0:	e3130001 	tst	r3, #1
f00001e4:	1a000048 	bne	f000030c <standby_main+0x30c>
f00001e8:	e5943004 	ldr	r3, [r4, #4]
f00001ec:	e3a00047 	mov	r0, #71	; 0x47
f00001f0:	e5942000 	ldr	r2, [r4]
f00001f4:	e885000c 	stm	r5, {r2, r3}
f00001f8:	eb000440 	bl	f0001300 <save_mem_status>
f00001fc:	e5943008 	ldr	r3, [r4, #8]
f0000200:	e2133b01 	ands	r3, r3, #1024	; 0x400
f0000204:	0a00003e 	beq	f0000304 <standby_main+0x304>
f0000208:	e3a00001 	mov	r0, #1
f000020c:	e3a01000 	mov	r1, #0
f0000210:	eb000483 	bl	f0001424 <init_perfcounters>
f0000214:	eb0004a3 	bl	f00014a8 <change_runtime_env>
f0000218:	e3a00005 	mov	r0, #5
f000021c:	eb0004cb 	bl	f0001550 <delay_ms>
f0000220:	e3a00000 	mov	r0, #0
f0000224:	e8bd80f8 	pop	{r3, r4, r5, r6, r7, pc}
f0000228:	e59f31e4 	ldr	r3, [pc, #484]	; f0000414 <standby_main+0x414>
f000022c:	e5933008 	ldr	r3, [r3, #8]
f0000230:	e3130001 	tst	r3, #1
f0000234:	1a00006d 	bne	f00003f0 <standby_main+0x3f0>
f0000238:	e3a00051 	mov	r0, #81	; 0x51
f000023c:	eb000a3b 	bl	f0002b30 <mem_enable_int>
f0000240:	e5943000 	ldr	r3, [r4]
f0000244:	e3130002 	tst	r3, #2
f0000248:	0affff98 	beq	f00000b0 <standby_main+0xb0>
f000024c:	eb0000c4 	bl	f0000564 <standby_key_init>
f0000250:	e3a0003e 	mov	r0, #62	; 0x3e
f0000254:	eb000a35 	bl	f0002b30 <mem_enable_int>
f0000258:	eaffff94 	b	f00000b0 <standby_main+0xb0>
f000025c:	eb0000d8 	bl	f00005c4 <standby_key_exit>
f0000260:	eaffffc0 	b	f0000168 <standby_main+0x168>
f0000264:	e5971050 	ldr	r1, [r7, #80]	; 0x50
f0000268:	e59f01b0 	ldr	r0, [pc, #432]	; f0000420 <standby_main+0x420>
f000026c:	eb000801 	bl	f0002278 <printk>
f0000270:	e5971000 	ldr	r1, [r7]
f0000274:	e59f01a8 	ldr	r0, [pc, #424]	; f0000424 <standby_main+0x424>
f0000278:	eb0007fe 	bl	f0002278 <printk>
f000027c:	eaffffc0 	b	f0000184 <standby_main+0x184>
f0000280:	e3a00003 	mov	r0, #3
f0000284:	eb0004bf 	bl	f0001588 <set_event_counter>
f0000288:	e3a00005 	mov	r0, #5
f000028c:	eb0004bd 	bl	f0001588 <set_event_counter>
f0000290:	e3a00001 	mov	r0, #1
f0000294:	eb0004bb 	bl	f0001588 <set_event_counter>
f0000298:	e3a00002 	mov	r0, #2
f000029c:	eb0004b9 	bl	f0001588 <set_event_counter>
f00002a0:	e3a01000 	mov	r1, #0
f00002a4:	e3a00001 	mov	r0, #1
f00002a8:	eb0004ab 	bl	f000155c <init_event_counter>
f00002ac:	e3a00003 	mov	r0, #3
f00002b0:	eb0004bf 	bl	f00015b4 <get_event_counter>
f00002b4:	e5860004 	str	r0, [r6, #4]
f00002b8:	e3a00005 	mov	r0, #5
f00002bc:	eb0004bc 	bl	f00015b4 <get_event_counter>
f00002c0:	e5860008 	str	r0, [r6, #8]
f00002c4:	e3a00002 	mov	r0, #2
f00002c8:	eb0004b9 	bl	f00015b4 <get_event_counter>
f00002cc:	e586000c 	str	r0, [r6, #12]
f00002d0:	e3a00001 	mov	r0, #1
f00002d4:	eb0004b6 	bl	f00015b4 <get_event_counter>
f00002d8:	e5860010 	str	r0, [r6, #16]
f00002dc:	eaffff76 	b	f00000bc <standby_main+0xbc>
f00002e0:	eb0006d5 	bl	f0001e3c <serial_init>
f00002e4:	e3a00024 	mov	r0, #36	; 0x24
f00002e8:	eb000404 	bl	f0001300 <save_mem_status>
f00002ec:	e5941000 	ldr	r1, [r4]
f00002f0:	e59f0130 	ldr	r0, [pc, #304]	; f0000428 <standby_main+0x428>
f00002f4:	eb0007df 	bl	f0002278 <printk>
f00002f8:	e3a00025 	mov	r0, #37	; 0x25
f00002fc:	eb0003ff 	bl	f0001300 <save_mem_status>
f0000300:	eaffff63 	b	f0000094 <standby_main+0x94>
f0000304:	e1a00003 	mov	r0, r3
f0000308:	e8bd80f8 	pop	{r3, r4, r5, r6, r7, pc}
f000030c:	e59f0118 	ldr	r0, [pc, #280]	; f000042c <standby_main+0x42c>
f0000310:	eb0007d8 	bl	f0002278 <printk>
f0000314:	e59f30f8 	ldr	r3, [pc, #248]	; f0000414 <standby_main+0x414>
f0000318:	e5933008 	ldr	r3, [r3, #8]
f000031c:	e3130001 	tst	r3, #1
f0000320:	0affffb0 	beq	f00001e8 <standby_main+0x1e8>
f0000324:	eb0006ec 	bl	f0001edc <serial_exit>
f0000328:	eaffffae 	b	f00001e8 <standby_main+0x1e8>
f000032c:	e59f00fc 	ldr	r0, [pc, #252]	; f0000430 <standby_main+0x430>
f0000330:	eb0007d0 	bl	f0002278 <printk>
f0000334:	eaffffa6 	b	f00001d4 <standby_main+0x1d4>
f0000338:	e59f00f4 	ldr	r0, [pc, #244]	; f0000434 <standby_main+0x434>
f000033c:	eb0007cd 	bl	f0002278 <printk>
f0000340:	eaffff9b 	b	f00001b4 <standby_main+0x1b4>
f0000344:	e3a00003 	mov	r0, #3
f0000348:	e59f70c0 	ldr	r7, [pc, #192]	; f0000410 <standby_main+0x410>
f000034c:	eb000498 	bl	f00015b4 <get_event_counter>
f0000350:	e5860014 	str	r0, [r6, #20]
f0000354:	e3a00005 	mov	r0, #5
f0000358:	eb000495 	bl	f00015b4 <get_event_counter>
f000035c:	e5860018 	str	r0, [r6, #24]
f0000360:	e3a00002 	mov	r0, #2
f0000364:	eb000492 	bl	f00015b4 <get_event_counter>
f0000368:	e586001c 	str	r0, [r6, #28]
f000036c:	e3a00001 	mov	r0, #1
f0000370:	eb00048f 	bl	f00015b4 <get_event_counter>
f0000374:	e5963014 	ldr	r3, [r6, #20]
f0000378:	e5860020 	str	r0, [r6, #32]
f000037c:	e3530000 	cmp	r3, #0
f0000380:	1a000007 	bne	f00003a4 <standby_main+0x3a4>
f0000384:	e5973018 	ldr	r3, [r7, #24]
f0000388:	e3530000 	cmp	r3, #0
f000038c:	1a000004 	bne	f00003a4 <standby_main+0x3a4>
f0000390:	e597301c 	ldr	r3, [r7, #28]
f0000394:	e3530000 	cmp	r3, #0
f0000398:	1a000001 	bne	f00003a4 <standby_main+0x3a4>
f000039c:	e3500000 	cmp	r0, #0
f00003a0:	0a000015 	beq	f00003fc <standby_main+0x3fc>
f00003a4:	e59f008c 	ldr	r0, [pc, #140]	; f0000438 <standby_main+0x438>
f00003a8:	eb0007b2 	bl	f0002278 <printk>
f00003ac:	e5961004 	ldr	r1, [r6, #4]
f00003b0:	e5962014 	ldr	r2, [r6, #20]
f00003b4:	e59f0080 	ldr	r0, [pc, #128]	; f000043c <standby_main+0x43c>
f00003b8:	eb0007ae 	bl	f0002278 <printk>
f00003bc:	e5961008 	ldr	r1, [r6, #8]
f00003c0:	e5962018 	ldr	r2, [r6, #24]
f00003c4:	e59f0074 	ldr	r0, [pc, #116]	; f0000440 <standby_main+0x440>
f00003c8:	eb0007aa 	bl	f0002278 <printk>
f00003cc:	e5961010 	ldr	r1, [r6, #16]
f00003d0:	e5962020 	ldr	r2, [r6, #32]
f00003d4:	e59f0068 	ldr	r0, [pc, #104]	; f0000444 <standby_main+0x444>
f00003d8:	eb0007a6 	bl	f0002278 <printk>
f00003dc:	e596100c 	ldr	r1, [r6, #12]
f00003e0:	e596201c 	ldr	r2, [r6, #28]
f00003e4:	e59f005c 	ldr	r0, [pc, #92]	; f0000448 <standby_main+0x448>
f00003e8:	eb0007a2 	bl	f0002278 <printk>
f00003ec:	eaffff6a 	b	f000019c <standby_main+0x19c>
f00003f0:	e59f0054 	ldr	r0, [pc, #84]	; f000044c <standby_main+0x44c>
f00003f4:	eb00079f 	bl	f0002278 <printk>
f00003f8:	eaffff8e 	b	f0000238 <standby_main+0x238>
f00003fc:	e59f004c 	ldr	r0, [pc, #76]	; f0000450 <standby_main+0x450>
f0000400:	eb00079c 	bl	f0002278 <printk>
f0000404:	eaffff64 	b	f000019c <standby_main+0x19c>
f0000408:	f0003444 			; <UNDEFINED> instruction: 0xf0003444
f000040c:	f000361c 			; <UNDEFINED> instruction: 0xf000361c
f0000410:	f0003444 			; <UNDEFINED> instruction: 0xf0003444
f0000414:	f00035e8 			; <UNDEFINED> instruction: 0xf00035e8
f0000418:	f0003604 			; <UNDEFINED> instruction: 0xf0003604
f000041c:	f00035ec 			; <UNDEFINED> instruction: 0xf00035ec
f0000420:	f0003174 			; <UNDEFINED> instruction: 0xf0003174
f0000424:	f0003190 			; <UNDEFINED> instruction: 0xf0003190
f0000428:	f0003128 			; <UNDEFINED> instruction: 0xf0003128
f000042c:	f000330c 			; <UNDEFINED> instruction: 0xf000330c
f0000430:	f00032f0 			; <UNDEFINED> instruction: 0xf00032f0
f0000434:	f00032cc 			; <UNDEFINED> instruction: 0xf00032cc
f0000438:	f00031ac 			; <UNDEFINED> instruction: 0xf00031ac
f000043c:	f00031f8 			; <UNDEFINED> instruction: 0xf00031f8
f0000440:	f000322c 			; <UNDEFINED> instruction: 0xf000322c
f0000444:	f000325c 			; <UNDEFINED> instruction: 0xf000325c
f0000448:	f0003290 			; <UNDEFINED> instruction: 0xf0003290
f000044c:	f0003154 			; <UNDEFINED> instruction: 0xf0003154
f0000450:	f00032c0 			; <UNDEFINED> instruction: 0xf00032c0

f0000454 <standby_memcpy>:
f0000454:	e3500000 	cmp	r0, #0
f0000458:	13510000 	cmpne	r1, #0
f000045c:	012fff1e 	bxeq	lr
f0000460:	e3520000 	cmp	r2, #0
f0000464:	d12fff1e 	bxle	lr
f0000468:	e2411001 	sub	r1, r1, #1
f000046c:	e0802002 	add	r2, r0, r2
f0000470:	e5f13001 	ldrb	r3, [r1, #1]!
f0000474:	e4c03001 	strb	r3, [r0], #1
f0000478:	e1500002 	cmp	r0, r2
f000047c:	1afffffb 	bne	f0000470 <standby_memcpy+0x1c>
f0000480:	e12fff1e 	bx	lr

f0000484 <standby_mdelay>:
f0000484:	e3033618 	movw	r3, #13848	; 0x3618
f0000488:	e34f3000 	movt	r3, #61440	; 0xf000
f000048c:	e5933000 	ldr	r3, [r3]
f0000490:	e0000093 	mul	r0, r3, r0
f0000494:	ea0008df 	b	f0002818 <standby_delay>

f0000498 <standby_clk_init>:
f0000498:	e3033468 	movw	r3, #13416	; 0x3468
f000049c:	e3a01b05 	mov	r1, #5120	; 0x1400
f00004a0:	e3a02000 	mov	r2, #0
f00004a4:	e34f3000 	movt	r3, #61440	; 0xf000
f00004a8:	e34f11f0 	movt	r1, #61936	; 0xf1f0
f00004ac:	e34f21c2 	movt	r2, #61890	; 0xf1c2
f00004b0:	e5831000 	str	r1, [r3]
f00004b4:	e3a00000 	mov	r0, #0
f00004b8:	e5832004 	str	r2, [r3, #4]
f00004bc:	e12fff1e 	bx	lr

f00004c0 <standby_clk_exit>:
f00004c0:	e3a00000 	mov	r0, #0
f00004c4:	e12fff1e 	bx	lr

f00004c8 <standby_clk_core2hosc>:
f00004c8:	e3033468 	movw	r3, #13416	; 0x3468
f00004cc:	e3a00001 	mov	r0, #1
f00004d0:	e34f3000 	movt	r3, #61440	; 0xf000
f00004d4:	e5931004 	ldr	r1, [r3, #4]
f00004d8:	e5912050 	ldr	r2, [r1, #80]	; 0x50
f00004dc:	e7d12810 	bfi	r2, r0, #16, #2
f00004e0:	e5832008 	str	r2, [r3, #8]
f00004e4:	e5812050 	str	r2, [r1, #80]	; 0x50
f00004e8:	e12fff1e 	bx	lr

f00004ec <standby_clk_ldoenable>:
f00004ec:	e3033468 	movw	r3, #13416	; 0x3468
f00004f0:	e34f3000 	movt	r3, #61440	; 0xf000
f00004f4:	e5933000 	ldr	r3, [r3]
f00004f8:	e5932044 	ldr	r2, [r3, #68]	; 0x44
f00004fc:	e3c224ff 	bic	r2, r2, #-16777216	; 0xff000000
f0000500:	e38224a7 	orr	r2, r2, #-1493172224	; 0xa7000000
f0000504:	e5832044 	str	r2, [r3, #68]	; 0x44
f0000508:	e5932044 	ldr	r2, [r3, #68]	; 0x44
f000050c:	e3822007 	orr	r2, r2, #7
f0000510:	e5832044 	str	r2, [r3, #68]	; 0x44
f0000514:	e5932044 	ldr	r2, [r3, #68]	; 0x44
f0000518:	e3c224ff 	bic	r2, r2, #-16777216	; 0xff000000
f000051c:	e5832044 	str	r2, [r3, #68]	; 0x44
f0000520:	e12fff1e 	bx	lr

f0000524 <standby_clk_pll1enable>:
f0000524:	e3033468 	movw	r3, #13416	; 0x3468
f0000528:	e34f3000 	movt	r3, #61440	; 0xf000
f000052c:	e5932004 	ldr	r2, [r3, #4]
f0000530:	e5921000 	ldr	r1, [r2]
f0000534:	e3811102 	orr	r1, r1, #-2147483648	; 0x80000000
f0000538:	e583100c 	str	r1, [r3, #12]
f000053c:	e5821000 	str	r1, [r2]
f0000540:	e12fff1e 	bx	lr

f0000544 <standby_ir_init>:
f0000544:	e3a00000 	mov	r0, #0
f0000548:	e12fff1e 	bx	lr

f000054c <standby_ir_exit>:
f000054c:	e3a00000 	mov	r0, #0
f0000550:	e12fff1e 	bx	lr

f0000554 <standby_ir_detect>:
f0000554:	e3a00000 	mov	r0, #0
f0000558:	e12fff1e 	bx	lr

f000055c <standby_ir_verify>:
f000055c:	e3e00000 	mvn	r0, #0
f0000560:	e12fff1e 	bx	lr

f0000564 <standby_key_init>:
f0000564:	e92d4038 	push	{r3, r4, r5, lr}
f0000568:	e3a03a02 	mov	r3, #8192	; 0x2000
f000056c:	e34f31c2 	movt	r3, #61890	; 0xf1c2
f0000570:	e3034478 	movw	r4, #13432	; 0x3478
f0000574:	e34f4000 	movt	r4, #61440	; 0xf000
f0000578:	e3a01b0a 	mov	r1, #10240	; 0x2800
f000057c:	e5932800 	ldr	r2, [r3, #2048]	; 0x800
f0000580:	e34f11c2 	movt	r1, #61890	; 0xf1c2
f0000584:	e3a05000 	mov	r5, #0
f0000588:	e5841000 	str	r1, [r4]
f000058c:	e3a0000a 	mov	r0, #10
f0000590:	e5842004 	str	r2, [r4, #4]
f0000594:	e5932804 	ldr	r2, [r3, #2052]	; 0x804
f0000598:	e5842008 	str	r2, [r4, #8]
f000059c:	e5835800 	str	r5, [r3, #2048]	; 0x800
f00005a0:	ebffffb7 	bl	f0000484 <standby_mdelay>
f00005a4:	e5943000 	ldr	r3, [r4]
f00005a8:	e3a02002 	mov	r2, #2
f00005ac:	e3a01041 	mov	r1, #65	; 0x41
f00005b0:	e1a00005 	mov	r0, r5
f00005b4:	e5831000 	str	r1, [r3]
f00005b8:	e5832004 	str	r2, [r3, #4]
f00005bc:	e5832008 	str	r2, [r3, #8]
f00005c0:	e8bd8038 	pop	{r3, r4, r5, pc}

f00005c4 <standby_key_exit>:
f00005c4:	e3033478 	movw	r3, #13432	; 0x3478
f00005c8:	e3a00000 	mov	r0, #0
f00005cc:	e34f3000 	movt	r3, #61440	; 0xf000
f00005d0:	e5932000 	ldr	r2, [r3]
f00005d4:	e993000a 	ldmib	r3, {r1, r3}
f00005d8:	e5821000 	str	r1, [r2]
f00005dc:	e5823004 	str	r3, [r2, #4]
f00005e0:	e12fff1e 	bx	lr

f00005e4 <standby_query_key>:
f00005e4:	e59f301c 	ldr	r3, [pc, #28]	; f0000608 <standby_query_key+0x24>
f00005e8:	e5933000 	ldr	r3, [r3]
f00005ec:	e5932008 	ldr	r2, [r3, #8]
f00005f0:	e3120002 	tst	r2, #2
f00005f4:	13a02002 	movne	r2, #2
f00005f8:	13a00000 	movne	r0, #0
f00005fc:	15832008 	strne	r2, [r3, #8]
f0000600:	03e00000 	mvneq	r0, #0
f0000604:	e12fff1e 	bx	lr
f0000608:	f0003478 			; <UNDEFINED> instruction: 0xf0003478

f000060c <standby_set_voltage>:
f000060c:	e59f3194 	ldr	r3, [pc, #404]	; f00007a8 <standby_set_voltage+0x19c>
f0000610:	e92d40f0 	push	{r4, r5, r6, r7, lr}
f0000614:	e24dd00c 	sub	sp, sp, #12
f0000618:	e5932000 	ldr	r2, [r3]
f000061c:	e1500002 	cmp	r0, r2
f0000620:	0a00000c 	beq	f0000658 <standby_set_voltage+0x4c>
f0000624:	e3a0c001 	mov	ip, #1
f0000628:	e1a0200c 	mov	r2, ip
f000062c:	e06c418c 	rsb	r4, ip, ip, lsl #3
f0000630:	e2822001 	add	r2, r2, #1
f0000634:	e1a0c002 	mov	ip, r2
f0000638:	e7935104 	ldr	r5, [r3, r4, lsl #2]
f000063c:	e0834104 	add	r4, r3, r4, lsl #2
f0000640:	e1500005 	cmp	r0, r5
f0000644:	0a000004 	beq	f000065c <standby_set_voltage+0x50>
f0000648:	e3520006 	cmp	r2, #6
f000064c:	1afffff6 	bne	f000062c <standby_set_voltage+0x20>
f0000650:	e28dd00c 	add	sp, sp, #12
f0000654:	e8bd80f0 	pop	{r4, r5, r6, r7, pc}
f0000658:	e1a04003 	mov	r4, r3
f000065c:	e5942004 	ldr	r2, [r4, #4]
f0000660:	e1510002 	cmp	r1, r2
f0000664:	bafffff9 	blt	f0000650 <standby_set_voltage+0x44>
f0000668:	e5943008 	ldr	r3, [r4, #8]
f000066c:	e1510003 	cmp	r1, r3
f0000670:	cafffff6 	bgt	f0000650 <standby_set_voltage+0x44>
f0000674:	e3500006 	cmp	r0, #6
f0000678:	0a000021 	beq	f0000704 <standby_set_voltage+0xf8>
f000067c:	e594300c 	ldr	r3, [r4, #12]
f0000680:	e0622001 	rsb	r2, r2, r1
f0000684:	e0820003 	add	r0, r2, r3
f0000688:	e1a01003 	mov	r1, r3
f000068c:	e2400001 	sub	r0, r0, #1
f0000690:	eb0008da 	bl	f0002a00 <raw_lib_udiv>
f0000694:	e594c014 	ldr	ip, [r4, #20]
f0000698:	e6ef7070 	uxtb	r7, r0
f000069c:	e1a07c17 	lsl	r7, r7, ip
f00006a0:	e6ef7077 	uxtb	r7, r7
f00006a4:	e5946018 	ldr	r6, [r4, #24]
f00006a8:	e3a05001 	mov	r5, #1
f00006ac:	e5d42010 	ldrb	r2, [r4, #16]
f00006b0:	e28d3007 	add	r3, sp, #7
f00006b4:	e3a00000 	mov	r0, #0
f00006b8:	e3a01034 	mov	r1, #52	; 0x34
f00006bc:	e1a06615 	lsl	r6, r5, r6
f00006c0:	e2466001 	sub	r6, r6, #1
f00006c4:	e1a06c16 	lsl	r6, r6, ip
f00006c8:	eb000089 	bl	f00008f4 <twi_byte_rw>
f00006cc:	e5dd3007 	ldrb	r3, [sp, #7]
f00006d0:	e6ef6076 	uxtb	r6, r6
f00006d4:	e0062003 	and	r2, r6, r3
f00006d8:	e1520007 	cmp	r2, r7
f00006dc:	0affffdb 	beq	f0000650 <standby_set_voltage+0x44>
f00006e0:	e1c33006 	bic	r3, r3, r6
f00006e4:	e1a00005 	mov	r0, r5
f00006e8:	e1837007 	orr	r7, r3, r7
f00006ec:	e3a01034 	mov	r1, #52	; 0x34
f00006f0:	e5d42010 	ldrb	r2, [r4, #16]
f00006f4:	e28d3007 	add	r3, sp, #7
f00006f8:	e5cd7007 	strb	r7, [sp, #7]
f00006fc:	eb00007c 	bl	f00008f4 <twi_byte_rw>
f0000700:	eaffffd2 	b	f0000650 <standby_set_voltage+0x44>
f0000704:	e30132d0 	movw	r3, #4816	; 0x12d0
f0000708:	e3403013 	movt	r3, #19
f000070c:	e1510003 	cmp	r1, r3
f0000710:	0a00000f 	beq	f0000754 <standby_set_voltage+0x148>
f0000714:	e594200c 	ldr	r2, [r4, #12]
f0000718:	e30b007f 	movw	r0, #45183	; 0xb07f
f000071c:	e34f0fed 	movt	r0, #65517	; 0xffed
f0000720:	e0823001 	add	r3, r2, r1
f0000724:	e1a01002 	mov	r1, r2
f0000728:	e0830000 	add	r0, r3, r0
f000072c:	eb0008b3 	bl	f0002a00 <raw_lib_udiv>
f0000730:	e6ef0070 	uxtb	r0, r0
f0000734:	e594c014 	ldr	ip, [r4, #20]
f0000738:	e3500010 	cmp	r0, #16
f000073c:	9a000007 	bls	f0000760 <standby_set_voltage+0x154>
f0000740:	e2400006 	sub	r0, r0, #6
f0000744:	e6ef7070 	uxtb	r7, r0
f0000748:	e1a07c17 	lsl	r7, r7, ip
f000074c:	e6ef7077 	uxtb	r7, r7
f0000750:	eaffffd3 	b	f00006a4 <standby_set_voltage+0x98>
f0000754:	e594c014 	ldr	ip, [r4, #20]
f0000758:	e3a07000 	mov	r7, #0
f000075c:	eaffffd0 	b	f00006a4 <standby_set_voltage+0x98>
f0000760:	e350000d 	cmp	r0, #13
f0000764:	8a00000a 	bhi	f0000794 <standby_set_voltage+0x188>
f0000768:	03a07009 	moveq	r7, #9
f000076c:	01a07c17 	lsleq	r7, r7, ip
f0000770:	06ef7077 	uxtbeq	r7, r7
f0000774:	0affffca 	beq	f00006a4 <standby_set_voltage+0x98>
f0000778:	e3500008 	cmp	r0, #8
f000077c:	83a07008 	movhi	r7, #8
f0000780:	91a00c10 	lslls	r0, r0, ip
f0000784:	81a07c17 	lslhi	r7, r7, ip
f0000788:	96ef7070 	uxtbls	r7, r0
f000078c:	86ef7077 	uxtbhi	r7, r7
f0000790:	eaffffc3 	b	f00006a4 <standby_set_voltage+0x98>
f0000794:	e2400005 	sub	r0, r0, #5
f0000798:	e6ef7070 	uxtb	r7, r0
f000079c:	e1a07c17 	lsl	r7, r7, ip
f00007a0:	e6ef7077 	uxtb	r7, r7
f00007a4:	eaffffbe 	b	f00006a4 <standby_set_voltage+0x98>
f00007a8:	f0003398 			; <UNDEFINED> instruction: 0xf0003398

f00007ac <standby_get_voltage>:
f00007ac:	e59f30a8 	ldr	r3, [pc, #168]	; f000085c <standby_get_voltage+0xb0>
f00007b0:	e92d4030 	push	{r4, r5, lr}
f00007b4:	e1a04000 	mov	r4, r0
f00007b8:	e24dd00c 	sub	sp, sp, #12
f00007bc:	e5932000 	ldr	r2, [r3]
f00007c0:	e1500002 	cmp	r0, r2
f00007c4:	0a00000d 	beq	f0000800 <standby_get_voltage+0x54>
f00007c8:	e3a01001 	mov	r1, #1
f00007cc:	e1a02001 	mov	r2, r1
f00007d0:	e0615181 	rsb	r5, r1, r1, lsl #3
f00007d4:	e2822001 	add	r2, r2, #1
f00007d8:	e1a01002 	mov	r1, r2
f00007dc:	e7930105 	ldr	r0, [r3, r5, lsl #2]
f00007e0:	e0835105 	add	r5, r3, r5, lsl #2
f00007e4:	e1540000 	cmp	r4, r0
f00007e8:	0a000005 	beq	f0000804 <standby_get_voltage+0x58>
f00007ec:	e3520006 	cmp	r2, #6
f00007f0:	1afffff6 	bne	f00007d0 <standby_get_voltage+0x24>
f00007f4:	e3e00000 	mvn	r0, #0
f00007f8:	e28dd00c 	add	sp, sp, #12
f00007fc:	e8bd8030 	pop	{r4, r5, pc}
f0000800:	e1a05003 	mov	r5, r3
f0000804:	e3a01034 	mov	r1, #52	; 0x34
f0000808:	e5d52010 	ldrb	r2, [r5, #16]
f000080c:	e28d3007 	add	r3, sp, #7
f0000810:	e3a00000 	mov	r0, #0
f0000814:	eb000036 	bl	f00008f4 <twi_byte_rw>
f0000818:	e5952018 	ldr	r2, [r5, #24]
f000081c:	e3e00000 	mvn	r0, #0
f0000820:	e5953014 	ldr	r3, [r5, #20]
f0000824:	e3540006 	cmp	r4, #6
f0000828:	e5dd1007 	ldrb	r1, [sp, #7]
f000082c:	e1e02210 	mvn	r2, r0, lsl r2
f0000830:	1595000c 	ldrne	r0, [r5, #12]
f0000834:	03a00ffa 	moveq	r0, #1000	; 0x3e8
f0000838:	e0012312 	and	r2, r1, r2, lsl r3
f000083c:	e1a03352 	asr	r3, r2, r3
f0000840:	059f2018 	ldreq	r2, [pc, #24]	; f0000860 <standby_get_voltage+0xb4>
f0000844:	15952004 	ldrne	r2, [r5, #4]
f0000848:	e6ef3073 	uxtb	r3, r3
f000084c:	07923103 	ldreq	r3, [r2, r3, lsl #2]
f0000850:	10202390 	mlane	r0, r0, r3, r2
f0000854:	00000390 	muleq	r0, r0, r3
f0000858:	eaffffe6 	b	f00007f8 <standby_get_voltage+0x4c>
f000085c:	f0003398 			; <UNDEFINED> instruction: 0xf0003398
f0000860:	f00030c0 			; <UNDEFINED> instruction: 0xf00030c0

f0000864 <standby_twi_init>:
f0000864:	e59f203c 	ldr	r2, [pc, #60]	; f00008a8 <standby_twi_init+0x44>
f0000868:	e3a01028 	mov	r1, #40	; 0x28
f000086c:	e59f3038 	ldr	r3, [pc, #56]	; f00008ac <standby_twi_init+0x48>
f0000870:	e7922100 	ldr	r2, [r2, r0, lsl #2]
f0000874:	e592c014 	ldr	ip, [r2, #20]
f0000878:	e592000c 	ldr	r0, [r2, #12]
f000087c:	e5821014 	str	r1, [r2, #20]
f0000880:	e5921018 	ldr	r1, [r2, #24]
f0000884:	e2000080 	and	r0, r0, #128	; 0x80
f0000888:	e8831004 	stm	r3, {r2, ip}
f000088c:	e5830008 	str	r0, [r3, #8]
f0000890:	e3811001 	orr	r1, r1, #1
f0000894:	e5821018 	str	r1, [r2, #24]
f0000898:	e5920018 	ldr	r0, [r2, #24]
f000089c:	e2100001 	ands	r0, r0, #1
f00008a0:	1afffffc 	bne	f0000898 <standby_twi_init+0x34>
f00008a4:	e12fff1e 	bx	lr
f00008a8:	f0003100 			; <UNDEFINED> instruction: 0xf0003100
f00008ac:	f0003484 			; <UNDEFINED> instruction: 0xf0003484

f00008b0 <standby_twi_exit>:
f00008b0:	e92d4010 	push	{r4, lr}
f00008b4:	e3034484 	movw	r4, #13444	; 0x3484
f00008b8:	e34f4000 	movt	r4, #61440	; 0xf000
f00008bc:	e3a0000a 	mov	r0, #10
f00008c0:	e5943000 	ldr	r3, [r4]
f00008c4:	e5932018 	ldr	r2, [r3, #24]
f00008c8:	e3822001 	orr	r2, r2, #1
f00008cc:	e5832018 	str	r2, [r3, #24]
f00008d0:	ebfffeeb 	bl	f0000484 <standby_mdelay>
f00008d4:	e5943000 	ldr	r3, [r4]
f00008d8:	e3a00000 	mov	r0, #0
f00008dc:	e9940006 	ldmib	r4, {r1, r2}
f00008e0:	e5831014 	str	r1, [r3, #20]
f00008e4:	e593100c 	ldr	r1, [r3, #12]
f00008e8:	e1812002 	orr	r2, r1, r2
f00008ec:	e583200c 	str	r2, [r3, #12]
f00008f0:	e8bd8010 	pop	{r4, pc}

f00008f4 <twi_byte_rw>:
f00008f4:	e59fc2a8 	ldr	ip, [pc, #680]	; f0000ba4 <twi_byte_rw+0x2b0>
f00008f8:	e92d0030 	push	{r4, r5}
f00008fc:	e3a04000 	mov	r4, #0
f0000900:	e59cc000 	ldr	ip, [ip]
f0000904:	e58c401c 	str	r4, [ip, #28]
f0000908:	e59c4010 	ldr	r4, [ip, #16]
f000090c:	e6ef4074 	uxtb	r4, r4
f0000910:	e35400f8 	cmp	r4, #248	; 0xf8
f0000914:	1a00006b 	bne	f0000ac8 <twi_byte_rw+0x1d4>
f0000918:	e59c500c 	ldr	r5, [ip, #12]
f000091c:	e30042ff 	movw	r4, #767	; 0x2ff
f0000920:	e3855020 	orr	r5, r5, #32
f0000924:	e58c500c 	str	r5, [ip, #12]
f0000928:	ea000001 	b	f0000934 <twi_byte_rw+0x40>
f000092c:	e2544001 	subs	r4, r4, #1
f0000930:	3a000004 	bcc	f0000948 <twi_byte_rw+0x54>
f0000934:	e59c500c 	ldr	r5, [ip, #12]
f0000938:	e3150008 	tst	r5, #8
f000093c:	0afffffa 	beq	f000092c <twi_byte_rw+0x38>
f0000940:	e3540000 	cmp	r4, #0
f0000944:	0a00005f 	beq	f0000ac8 <twi_byte_rw+0x1d4>
f0000948:	e59c4010 	ldr	r4, [ip, #16]
f000094c:	e6ef4074 	uxtb	r4, r4
f0000950:	e3540008 	cmp	r4, #8
f0000954:	1a00005b 	bne	f0000ac8 <twi_byte_rw+0x1d4>
f0000958:	e1a01081 	lsl	r1, r1, #1
f000095c:	e30042ff 	movw	r4, #767	; 0x2ff
f0000960:	e58c1008 	str	r1, [ip, #8]
f0000964:	e59c500c 	ldr	r5, [ip, #12]
f0000968:	e20550f7 	and	r5, r5, #247	; 0xf7
f000096c:	e58c500c 	str	r5, [ip, #12]
f0000970:	ea000001 	b	f000097c <twi_byte_rw+0x88>
f0000974:	e2544001 	subs	r4, r4, #1
f0000978:	3a000004 	bcc	f0000990 <twi_byte_rw+0x9c>
f000097c:	e59c500c 	ldr	r5, [ip, #12]
f0000980:	e3150008 	tst	r5, #8
f0000984:	0afffffa 	beq	f0000974 <twi_byte_rw+0x80>
f0000988:	e3540000 	cmp	r4, #0
f000098c:	0a00004d 	beq	f0000ac8 <twi_byte_rw+0x1d4>
f0000990:	e59c4010 	ldr	r4, [ip, #16]
f0000994:	e6ef4074 	uxtb	r4, r4
f0000998:	e3540018 	cmp	r4, #24
f000099c:	1a000049 	bne	f0000ac8 <twi_byte_rw+0x1d4>
f00009a0:	e58c2008 	str	r2, [ip, #8]
f00009a4:	e30022ff 	movw	r2, #767	; 0x2ff
f00009a8:	e59c400c 	ldr	r4, [ip, #12]
f00009ac:	e20440f7 	and	r4, r4, #247	; 0xf7
f00009b0:	e58c400c 	str	r4, [ip, #12]
f00009b4:	ea000001 	b	f00009c0 <twi_byte_rw+0xcc>
f00009b8:	e2522001 	subs	r2, r2, #1
f00009bc:	3a000004 	bcc	f00009d4 <twi_byte_rw+0xe0>
f00009c0:	e59c400c 	ldr	r4, [ip, #12]
f00009c4:	e3140008 	tst	r4, #8
f00009c8:	0afffffa 	beq	f00009b8 <twi_byte_rw+0xc4>
f00009cc:	e3520000 	cmp	r2, #0
f00009d0:	0a00003c 	beq	f0000ac8 <twi_byte_rw+0x1d4>
f00009d4:	e59c2010 	ldr	r2, [ip, #16]
f00009d8:	e6ef2072 	uxtb	r2, r2
f00009dc:	e3520028 	cmp	r2, #40	; 0x28
f00009e0:	1a000038 	bne	f0000ac8 <twi_byte_rw+0x1d4>
f00009e4:	e3500001 	cmp	r0, #1
f00009e8:	0a000057 	beq	f0000b4c <twi_byte_rw+0x258>
f00009ec:	e59c000c 	ldr	r0, [ip, #12]
f00009f0:	e30022ff 	movw	r2, #767	; 0x2ff
f00009f4:	e20000c0 	and	r0, r0, #192	; 0xc0
f00009f8:	e3800020 	orr	r0, r0, #32
f00009fc:	e58c000c 	str	r0, [ip, #12]
f0000a00:	ea000001 	b	f0000a0c <twi_byte_rw+0x118>
f0000a04:	e2522001 	subs	r2, r2, #1
f0000a08:	3a000004 	bcc	f0000a20 <twi_byte_rw+0x12c>
f0000a0c:	e59c000c 	ldr	r0, [ip, #12]
f0000a10:	e3100008 	tst	r0, #8
f0000a14:	0afffffa 	beq	f0000a04 <twi_byte_rw+0x110>
f0000a18:	e3520000 	cmp	r2, #0
f0000a1c:	0a000029 	beq	f0000ac8 <twi_byte_rw+0x1d4>
f0000a20:	e59c2010 	ldr	r2, [ip, #16]
f0000a24:	e6ef2072 	uxtb	r2, r2
f0000a28:	e3520010 	cmp	r2, #16
f0000a2c:	1a000025 	bne	f0000ac8 <twi_byte_rw+0x1d4>
f0000a30:	e3811001 	orr	r1, r1, #1
f0000a34:	e30022ff 	movw	r2, #767	; 0x2ff
f0000a38:	e58c1008 	str	r1, [ip, #8]
f0000a3c:	e59c100c 	ldr	r1, [ip, #12]
f0000a40:	e20110f7 	and	r1, r1, #247	; 0xf7
f0000a44:	e58c100c 	str	r1, [ip, #12]
f0000a48:	ea000001 	b	f0000a54 <twi_byte_rw+0x160>
f0000a4c:	e2522001 	subs	r2, r2, #1
f0000a50:	3a000004 	bcc	f0000a68 <twi_byte_rw+0x174>
f0000a54:	e59c100c 	ldr	r1, [ip, #12]
f0000a58:	e3110008 	tst	r1, #8
f0000a5c:	0afffffa 	beq	f0000a4c <twi_byte_rw+0x158>
f0000a60:	e3520000 	cmp	r2, #0
f0000a64:	0a000017 	beq	f0000ac8 <twi_byte_rw+0x1d4>
f0000a68:	e59c2010 	ldr	r2, [ip, #16]
f0000a6c:	e6ef2072 	uxtb	r2, r2
f0000a70:	e3520040 	cmp	r2, #64	; 0x40
f0000a74:	1a000013 	bne	f0000ac8 <twi_byte_rw+0x1d4>
f0000a78:	e59c100c 	ldr	r1, [ip, #12]
f0000a7c:	e30022ff 	movw	r2, #767	; 0x2ff
f0000a80:	e20110f7 	and	r1, r1, #247	; 0xf7
f0000a84:	e58c100c 	str	r1, [ip, #12]
f0000a88:	ea000001 	b	f0000a94 <twi_byte_rw+0x1a0>
f0000a8c:	e2522001 	subs	r2, r2, #1
f0000a90:	3a000004 	bcc	f0000aa8 <twi_byte_rw+0x1b4>
f0000a94:	e59c100c 	ldr	r1, [ip, #12]
f0000a98:	e3110008 	tst	r1, #8
f0000a9c:	0afffffa 	beq	f0000a8c <twi_byte_rw+0x198>
f0000aa0:	e3520000 	cmp	r2, #0
f0000aa4:	0a000007 	beq	f0000ac8 <twi_byte_rw+0x1d4>
f0000aa8:	e59c2008 	ldr	r2, [ip, #8]
f0000aac:	e5c32000 	strb	r2, [r3]
f0000ab0:	e59c3010 	ldr	r3, [ip, #16]
f0000ab4:	e6ef3073 	uxtb	r3, r3
f0000ab8:	e3530058 	cmp	r3, #88	; 0x58
f0000abc:	03a00000 	moveq	r0, #0
f0000ac0:	13e00000 	mvnne	r0, #0
f0000ac4:	ea000000 	b	f0000acc <twi_byte_rw+0x1d8>
f0000ac8:	e3e00000 	mvn	r0, #0
f0000acc:	e59c200c 	ldr	r2, [ip, #12]
f0000ad0:	e30032ff 	movw	r3, #767	; 0x2ff
f0000ad4:	e20220c0 	and	r2, r2, #192	; 0xc0
f0000ad8:	e3822010 	orr	r2, r2, #16
f0000adc:	e58c200c 	str	r2, [ip, #12]
f0000ae0:	e59c200c 	ldr	r2, [ip, #12]
f0000ae4:	ea000001 	b	f0000af0 <twi_byte_rw+0x1fc>
f0000ae8:	e2533001 	subs	r3, r3, #1
f0000aec:	3a00002a 	bcc	f0000b9c <twi_byte_rw+0x2a8>
f0000af0:	e59c200c 	ldr	r2, [ip, #12]
f0000af4:	e3120010 	tst	r2, #16
f0000af8:	1afffffa 	bne	f0000ae8 <twi_byte_rw+0x1f4>
f0000afc:	e3530000 	cmp	r3, #0
f0000b00:	130032ff 	movwne	r3, #767	; 0x2ff
f0000b04:	1a000003 	bne	f0000b18 <twi_byte_rw+0x224>
f0000b08:	e8bd0030 	pop	{r4, r5}
f0000b0c:	e12fff1e 	bx	lr
f0000b10:	e2533001 	subs	r3, r3, #1
f0000b14:	3a000004 	bcc	f0000b2c <twi_byte_rw+0x238>
f0000b18:	e59c2010 	ldr	r2, [ip, #16]
f0000b1c:	e35200f8 	cmp	r2, #248	; 0xf8
f0000b20:	1afffffa 	bne	f0000b10 <twi_byte_rw+0x21c>
f0000b24:	e3530000 	cmp	r3, #0
f0000b28:	0afffff6 	beq	f0000b08 <twi_byte_rw+0x214>
f0000b2c:	e3a03c03 	mov	r3, #768	; 0x300
f0000b30:	ea000001 	b	f0000b3c <twi_byte_rw+0x248>
f0000b34:	e2533001 	subs	r3, r3, #1
f0000b38:	0afffff2 	beq	f0000b08 <twi_byte_rw+0x214>
f0000b3c:	e59c2020 	ldr	r2, [ip, #32]
f0000b40:	e352003a 	cmp	r2, #58	; 0x3a
f0000b44:	1afffffa 	bne	f0000b34 <twi_byte_rw+0x240>
f0000b48:	eaffffee 	b	f0000b08 <twi_byte_rw+0x214>
f0000b4c:	e5d32000 	ldrb	r2, [r3]
f0000b50:	e30032ff 	movw	r3, #767	; 0x2ff
f0000b54:	e58c2008 	str	r2, [ip, #8]
f0000b58:	e59c200c 	ldr	r2, [ip, #12]
f0000b5c:	e20220f7 	and	r2, r2, #247	; 0xf7
f0000b60:	e58c200c 	str	r2, [ip, #12]
f0000b64:	ea000001 	b	f0000b70 <twi_byte_rw+0x27c>
f0000b68:	e2533001 	subs	r3, r3, #1
f0000b6c:	3a000004 	bcc	f0000b84 <twi_byte_rw+0x290>
f0000b70:	e59c200c 	ldr	r2, [ip, #12]
f0000b74:	e3120008 	tst	r2, #8
f0000b78:	0afffffa 	beq	f0000b68 <twi_byte_rw+0x274>
f0000b7c:	e3530000 	cmp	r3, #0
f0000b80:	0affffd0 	beq	f0000ac8 <twi_byte_rw+0x1d4>
f0000b84:	e59c3010 	ldr	r3, [ip, #16]
f0000b88:	e6ef3073 	uxtb	r3, r3
f0000b8c:	e3530028 	cmp	r3, #40	; 0x28
f0000b90:	03a00000 	moveq	r0, #0
f0000b94:	13e00000 	mvnne	r0, #0
f0000b98:	eaffffcb 	b	f0000acc <twi_byte_rw+0x1d8>
f0000b9c:	e2833c03 	add	r3, r3, #768	; 0x300
f0000ba0:	eaffffdc 	b	f0000b18 <twi_byte_rw+0x224>
f0000ba4:	f0003484 			; <UNDEFINED> instruction: 0xf0003484

f0000ba8 <standby_usb_init>:
f0000ba8:	e3a00000 	mov	r0, #0
f0000bac:	e12fff1e 	bx	lr

f0000bb0 <standby_usb_exit>:
f0000bb0:	e3a00000 	mov	r0, #0
f0000bb4:	e12fff1e 	bx	lr

f0000bb8 <standby_is_usb_status_change>:
f0000bb8:	e3a00000 	mov	r0, #0
f0000bbc:	e12fff1e 	bx	lr

f0000bc0 <standby_query_usb_event>:
f0000bc0:	e3e00000 	mvn	r0, #0
f0000bc4:	e12fff1e 	bx	lr

f0000bc8 <standby_arisc_init>:
f0000bc8:	e3033490 	movw	r3, #13456	; 0x3490
f0000bcc:	e92d4010 	push	{r4, lr}
f0000bd0:	e34f3000 	movt	r3, #61440	; 0xf000
f0000bd4:	e3a04000 	mov	r4, #0
f0000bd8:	e5834000 	str	r4, [r3]
f0000bdc:	e5834004 	str	r4, [r3, #4]
f0000be0:	eb000160 	bl	f0001168 <arisc_hwspinlock_init>
f0000be4:	eb000091 	bl	f0000e30 <arisc_hwmsgbox_init>
f0000be8:	eb000173 	bl	f00011bc <arisc_message_manager_init>
f0000bec:	e1a00004 	mov	r0, r4
f0000bf0:	e8bd8010 	pop	{r4, pc}

f0000bf4 <standby_arisc_exit>:
f0000bf4:	e92d4008 	push	{r3, lr}
f0000bf8:	eb000179 	bl	f00011e4 <arisc_message_manager_exit>
f0000bfc:	eb00008d 	bl	f0000e38 <arisc_hwmsgbox_exit>
f0000c00:	eb00015a 	bl	f0001170 <arisc_hwspinlock_exit>
f0000c04:	e3033490 	movw	r3, #13456	; 0x3490
f0000c08:	e3a02000 	mov	r2, #0
f0000c0c:	e34f3000 	movt	r3, #61440	; 0xf000
f0000c10:	e1a00002 	mov	r0, r2
f0000c14:	e5832004 	str	r2, [r3, #4]
f0000c18:	e5832000 	str	r2, [r3]
f0000c1c:	e8bd8008 	pop	{r3, pc}

f0000c20 <standby_arisc_notify_restore>:
f0000c20:	e92d4038 	push	{r3, r4, r5, lr}
f0000c24:	e1a05000 	mov	r5, r0
f0000c28:	e3a00000 	mov	r0, #0
f0000c2c:	eb00016e 	bl	f00011ec <arisc_message_allocate>
f0000c30:	e2504000 	subs	r4, r0, #0
f0000c34:	0a000015 	beq	f0000c90 <standby_arisc_notify_restore+0x70>
f0000c38:	e2155002 	ands	r5, r5, #2
f0000c3c:	0a00000a 	beq	f0000c6c <standby_arisc_notify_restore+0x4c>
f0000c40:	e3a03002 	mov	r3, #2
f0000c44:	e3a02014 	mov	r2, #20
f0000c48:	e5c42002 	strb	r2, [r4, #2]
f0000c4c:	e3a0100a 	mov	r1, #10
f0000c50:	e5c43001 	strb	r3, [r4, #1]
f0000c54:	e5c43000 	strb	r3, [r4]
f0000c58:	eb000078 	bl	f0000e40 <arisc_hwmsgbox_send_message>
f0000c5c:	e1a00004 	mov	r0, r4
f0000c60:	eb000186 	bl	f0001280 <arisc_message_free>
f0000c64:	e3a00000 	mov	r0, #0
f0000c68:	e8bd8038 	pop	{r3, r4, r5, pc}
f0000c6c:	e3a03014 	mov	r3, #20
f0000c70:	e3a0100a 	mov	r1, #10
f0000c74:	e5c43002 	strb	r3, [r4, #2]
f0000c78:	e3a03002 	mov	r3, #2
f0000c7c:	e5c45001 	strb	r5, [r4, #1]
f0000c80:	e5c43000 	strb	r3, [r4]
f0000c84:	eb00006d 	bl	f0000e40 <arisc_hwmsgbox_send_message>
f0000c88:	e1a00005 	mov	r0, r5
f0000c8c:	e8bd8038 	pop	{r3, r4, r5, pc}
f0000c90:	e3e0000b 	mvn	r0, #11
f0000c94:	e8bd8038 	pop	{r3, r4, r5, pc}

f0000c98 <standby_arisc_check_restore_status>:
f0000c98:	e92d4010 	push	{r4, lr}
f0000c9c:	e59f4074 	ldr	r4, [pc, #116]	; f0000d18 <standby_arisc_check_restore_status+0x80>
f0000ca0:	e5943004 	ldr	r3, [r4, #4]
f0000ca4:	e3530000 	cmp	r3, #0
f0000ca8:	13a00000 	movne	r0, #0
f0000cac:	18bd8010 	popne	{r4, pc}
f0000cb0:	eb0000e4 	bl	f0001048 <arisc_hwmsgbox_query_message>
f0000cb4:	e2503000 	subs	r3, r0, #0
f0000cb8:	03e00015 	mvneq	r0, #21
f0000cbc:	08bd8010 	popeq	{r4, pc}
f0000cc0:	e5d32002 	ldrb	r2, [r3, #2]
f0000cc4:	e3520015 	cmp	r2, #21
f0000cc8:	1a000010 	bne	f0000d10 <standby_arisc_check_restore_status+0x78>
f0000ccc:	e3a02005 	mov	r2, #5
f0000cd0:	e5c32000 	strb	r2, [r3]
f0000cd4:	e5d32001 	ldrb	r2, [r3, #1]
f0000cd8:	e3120001 	tst	r2, #1
f0000cdc:	1a000002 	bne	f0000cec <standby_arisc_check_restore_status+0x54>
f0000ce0:	e5d32001 	ldrb	r2, [r3, #1]
f0000ce4:	e3120002 	tst	r2, #2
f0000ce8:	0a000006 	beq	f0000d08 <standby_arisc_check_restore_status+0x70>
f0000cec:	e1a00003 	mov	r0, r3
f0000cf0:	e3a0100a 	mov	r1, #10
f0000cf4:	eb000082 	bl	f0000f04 <arisc_hwmsgbox_feedback_message>
f0000cf8:	e3a03001 	mov	r3, #1
f0000cfc:	e3a00000 	mov	r0, #0
f0000d00:	e5843004 	str	r3, [r4, #4]
f0000d04:	e8bd8010 	pop	{r4, pc}
f0000d08:	eb00015c 	bl	f0001280 <arisc_message_free>
f0000d0c:	eafffff9 	b	f0000cf8 <standby_arisc_check_restore_status+0x60>
f0000d10:	e3e00015 	mvn	r0, #21
f0000d14:	e8bd8010 	pop	{r4, pc}
f0000d18:	f0003490 			; <UNDEFINED> instruction: 0xf0003490

f0000d1c <standby_arisc_query_wakeup_src>:
f0000d1c:	e92d4038 	push	{r3, r4, r5, lr}
f0000d20:	e2505000 	subs	r5, r0, #0
f0000d24:	0a000020 	beq	f0000dac <standby_arisc_query_wakeup_src+0x90>
f0000d28:	e59f4084 	ldr	r4, [pc, #132]	; f0000db4 <standby_arisc_query_wakeup_src+0x98>
f0000d2c:	e5943000 	ldr	r3, [r4]
f0000d30:	e3530000 	cmp	r3, #0
f0000d34:	15853000 	strne	r3, [r5]
f0000d38:	13a00000 	movne	r0, #0
f0000d3c:	18bd8038 	popne	{r3, r4, r5, pc}
f0000d40:	eb0000c0 	bl	f0001048 <arisc_hwmsgbox_query_message>
f0000d44:	e2503000 	subs	r3, r0, #0
f0000d48:	0a000017 	beq	f0000dac <standby_arisc_query_wakeup_src+0x90>
f0000d4c:	e5d32002 	ldrb	r2, [r3, #2]
f0000d50:	e3520013 	cmp	r2, #19
f0000d54:	1a000012 	bne	f0000da4 <standby_arisc_query_wakeup_src+0x88>
f0000d58:	e3a02005 	mov	r2, #5
f0000d5c:	e5931014 	ldr	r1, [r3, #20]
f0000d60:	e5c32000 	strb	r2, [r3]
f0000d64:	e5d32001 	ldrb	r2, [r3, #1]
f0000d68:	e5841000 	str	r1, [r4]
f0000d6c:	e3120001 	tst	r2, #1
f0000d70:	1a000002 	bne	f0000d80 <standby_arisc_query_wakeup_src+0x64>
f0000d74:	e5d32001 	ldrb	r2, [r3, #1]
f0000d78:	e3120002 	tst	r2, #2
f0000d7c:	0a000006 	beq	f0000d9c <standby_arisc_query_wakeup_src+0x80>
f0000d80:	e1a00003 	mov	r0, r3
f0000d84:	e3a0100a 	mov	r1, #10
f0000d88:	eb00005d 	bl	f0000f04 <arisc_hwmsgbox_feedback_message>
f0000d8c:	e5943000 	ldr	r3, [r4]
f0000d90:	e3a00000 	mov	r0, #0
f0000d94:	e5853000 	str	r3, [r5]
f0000d98:	e8bd8038 	pop	{r3, r4, r5, pc}
f0000d9c:	eb000137 	bl	f0001280 <arisc_message_free>
f0000da0:	eafffff9 	b	f0000d8c <standby_arisc_query_wakeup_src+0x70>
f0000da4:	e3e00015 	mvn	r0, #21
f0000da8:	e8bd8038 	pop	{r3, r4, r5, pc}
f0000dac:	e3e00015 	mvn	r0, #21
f0000db0:	e8bd8038 	pop	{r3, r4, r5, pc}
f0000db4:	f0003490 			; <UNDEFINED> instruction: 0xf0003490

f0000db8 <standby_arisc_standby_normal>:
f0000db8:	e92d4038 	push	{r3, r4, r5, lr}
f0000dbc:	e1a05000 	mov	r5, r0
f0000dc0:	e3a00000 	mov	r0, #0
f0000dc4:	eb000108 	bl	f00011ec <arisc_message_allocate>
f0000dc8:	e2504000 	subs	r4, r0, #0
f0000dcc:	03e0400b 	mvneq	r4, #11
f0000dd0:	0a00000e 	beq	f0000e10 <standby_arisc_standby_normal+0x58>
f0000dd4:	e3a03012 	mov	r3, #18
f0000dd8:	e2840014 	add	r0, r4, #20
f0000ddc:	e5c43002 	strb	r3, [r4, #2]
f0000de0:	e1a01005 	mov	r1, r5
f0000de4:	e3a02014 	mov	r2, #20
f0000de8:	ebfffd99 	bl	f0000454 <standby_memcpy>
f0000dec:	e3a03002 	mov	r3, #2
f0000df0:	e1a00004 	mov	r0, r4
f0000df4:	e5c43000 	strb	r3, [r4]
f0000df8:	e3a0100a 	mov	r1, #10
f0000dfc:	eb00000f 	bl	f0000e40 <arisc_hwmsgbox_send_message>
f0000e00:	e5d43001 	ldrb	r3, [r4, #1]
f0000e04:	e3530000 	cmp	r3, #0
f0000e08:	01a04003 	moveq	r4, r3
f0000e0c:	1a000001 	bne	f0000e18 <standby_arisc_standby_normal+0x60>
f0000e10:	e1a00004 	mov	r0, r4
f0000e14:	e8bd8038 	pop	{r3, r4, r5, pc}
f0000e18:	e5d43003 	ldrb	r3, [r4, #3]
f0000e1c:	e1a00004 	mov	r0, r4
f0000e20:	e1a04003 	mov	r4, r3
f0000e24:	eb000115 	bl	f0001280 <arisc_message_free>
f0000e28:	e1a00004 	mov	r0, r4
f0000e2c:	e8bd8038 	pop	{r3, r4, r5, pc}

f0000e30 <arisc_hwmsgbox_init>:
f0000e30:	e3a00000 	mov	r0, #0
f0000e34:	e12fff1e 	bx	lr

f0000e38 <arisc_hwmsgbox_exit>:
f0000e38:	e3a00000 	mov	r0, #0
f0000e3c:	e12fff1e 	bx	lr

f0000e40 <arisc_hwmsgbox_send_message>:
f0000e40:	e3500000 	cmp	r0, #0
f0000e44:	e24dd008 	sub	sp, sp, #8
f0000e48:	03e00015 	mvneq	r0, #21
f0000e4c:	0a00001a 	beq	f0000ebc <arisc_hwmsgbox_send_message+0x7c>
f0000e50:	e5d03001 	ldrb	r3, [r0, #1]
f0000e54:	e3071fff 	movw	r1, #32767	; 0x7fff
f0000e58:	e34f11c1 	movt	r1, #61889	; 0xf1c1
f0000e5c:	e3130002 	tst	r3, #2
f0000e60:	0a000017 	beq	f0000ec4 <arisc_hwmsgbox_send_message+0x84>
f0000e64:	e5112eef 	ldr	r2, [r1, #-3823]	; 0xeef
f0000e68:	e3073fff 	movw	r3, #32767	; 0x7fff
f0000e6c:	e34f31c1 	movt	r3, #61889	; 0xf1c1
f0000e70:	e3520001 	cmp	r2, #1
f0000e74:	0afffffa 	beq	f0000e64 <arisc_hwmsgbox_send_message+0x24>
f0000e78:	e59f2080 	ldr	r2, [pc, #128]	; f0000f00 <arisc_hwmsgbox_send_message+0xc0>
f0000e7c:	e1a01003 	mov	r1, r3
f0000e80:	e5922000 	ldr	r2, [r2]
f0000e84:	e0620000 	rsb	r0, r2, r0
f0000e88:	e58d0004 	str	r0, [sp, #4]
f0000e8c:	e59d2004 	ldr	r2, [sp, #4]
f0000e90:	e5032e6f 	str	r2, [r3, #-3695]	; 0xe6f
f0000e94:	e5112eab 	ldr	r2, [r1, #-3755]	; 0xeab
f0000e98:	e3073fff 	movw	r3, #32767	; 0x7fff
f0000e9c:	e34f31c1 	movt	r3, #61889	; 0xf1c1
f0000ea0:	e3520000 	cmp	r2, #0
f0000ea4:	0afffffa 	beq	f0000e94 <arisc_hwmsgbox_send_message+0x54>
f0000ea8:	e5132e6b 	ldr	r2, [r3, #-3691]	; 0xe6b
f0000eac:	e59d3004 	ldr	r3, [sp, #4]
f0000eb0:	e1520003 	cmp	r2, r3
f0000eb4:	03a00000 	moveq	r0, #0
f0000eb8:	13e00015 	mvnne	r0, #21
f0000ebc:	e28dd008 	add	sp, sp, #8
f0000ec0:	e12fff1e 	bx	lr
f0000ec4:	e5112efb 	ldr	r2, [r1, #-3835]	; 0xefb
f0000ec8:	e3073fff 	movw	r3, #32767	; 0x7fff
f0000ecc:	e34f31c1 	movt	r3, #61889	; 0xf1c1
f0000ed0:	e3520001 	cmp	r2, #1
f0000ed4:	0afffffa 	beq	f0000ec4 <arisc_hwmsgbox_send_message+0x84>
f0000ed8:	e59f2020 	ldr	r2, [pc, #32]	; f0000f00 <arisc_hwmsgbox_send_message+0xc0>
f0000edc:	e5922000 	ldr	r2, [r2]
f0000ee0:	e0622000 	rsb	r2, r2, r0
f0000ee4:	e58d2004 	str	r2, [sp, #4]
f0000ee8:	e59d2004 	ldr	r2, [sp, #4]
f0000eec:	e5032e7b 	str	r2, [r3, #-3707]	; 0xe7b
f0000ef0:	e5d00001 	ldrb	r0, [r0, #1]
f0000ef4:	e2100001 	ands	r0, r0, #1
f0000ef8:	13e00015 	mvnne	r0, #21
f0000efc:	eaffffee 	b	f0000ebc <arisc_hwmsgbox_send_message+0x7c>
f0000f00:	f0003440 			; <UNDEFINED> instruction: 0xf0003440

f0000f04 <arisc_hwmsgbox_feedback_message>:
f0000f04:	e5d03001 	ldrb	r3, [r0, #1]
f0000f08:	e24dd008 	sub	sp, sp, #8
f0000f0c:	e3130002 	tst	r3, #2
f0000f10:	0a000010 	beq	f0000f58 <arisc_hwmsgbox_feedback_message+0x54>
f0000f14:	e3071fff 	movw	r1, #32767	; 0x7fff
f0000f18:	e34f11c1 	movt	r1, #61889	; 0xf1c1
f0000f1c:	e5112ef3 	ldr	r2, [r1, #-3827]	; 0xef3
f0000f20:	e3073fff 	movw	r3, #32767	; 0x7fff
f0000f24:	e34f31c1 	movt	r3, #61889	; 0xf1c1
f0000f28:	e3520001 	cmp	r2, #1
f0000f2c:	0afffffa 	beq	f0000f1c <arisc_hwmsgbox_feedback_message+0x18>
f0000f30:	e59f106c 	ldr	r1, [pc, #108]	; f0000fa4 <arisc_hwmsgbox_feedback_message+0xa0>
f0000f34:	e3a02000 	mov	r2, #0
f0000f38:	e5911000 	ldr	r1, [r1]
f0000f3c:	e0610000 	rsb	r0, r1, r0
f0000f40:	e58d0004 	str	r0, [sp, #4]
f0000f44:	e59d1004 	ldr	r1, [sp, #4]
f0000f48:	e5031e73 	str	r1, [r3, #-3699]	; 0xe73
f0000f4c:	e1a00002 	mov	r0, r2
f0000f50:	e28dd008 	add	sp, sp, #8
f0000f54:	e12fff1e 	bx	lr
f0000f58:	e5d03001 	ldrb	r3, [r0, #1]
f0000f5c:	e3130001 	tst	r3, #1
f0000f60:	03e02015 	mvneq	r2, #21
f0000f64:	0afffff8 	beq	f0000f4c <arisc_hwmsgbox_feedback_message+0x48>
f0000f68:	e3071fff 	movw	r1, #32767	; 0x7fff
f0000f6c:	e34f11c1 	movt	r1, #61889	; 0xf1c1
f0000f70:	e5112efb 	ldr	r2, [r1, #-3835]	; 0xefb
f0000f74:	e3073fff 	movw	r3, #32767	; 0x7fff
f0000f78:	e34f31c1 	movt	r3, #61889	; 0xf1c1
f0000f7c:	e3520001 	cmp	r2, #1
f0000f80:	0afffffa 	beq	f0000f70 <arisc_hwmsgbox_feedback_message+0x6c>
f0000f84:	e59f1018 	ldr	r1, [pc, #24]	; f0000fa4 <arisc_hwmsgbox_feedback_message+0xa0>
f0000f88:	e3a02000 	mov	r2, #0
f0000f8c:	e5911000 	ldr	r1, [r1]
f0000f90:	e0610000 	rsb	r0, r1, r0
f0000f94:	e58d0004 	str	r0, [sp, #4]
f0000f98:	e59d1004 	ldr	r1, [sp, #4]
f0000f9c:	e5031e7b 	str	r1, [r3, #-3707]	; 0xe7b
f0000fa0:	eaffffe9 	b	f0000f4c <arisc_hwmsgbox_feedback_message+0x48>
f0000fa4:	f0003440 			; <UNDEFINED> instruction: 0xf0003440

f0000fa8 <arisc_hwmsgbox_enable_receiver_int>:
f0000fa8:	e3003b82 	movw	r3, #2946	; 0xb82
f0000fac:	e24dd008 	sub	sp, sp, #8
f0000fb0:	e340378e 	movt	r3, #1934	; 0x78e
f0000fb4:	e1a00080 	lsl	r0, r0, #1
f0000fb8:	e0813003 	add	r3, r1, r3
f0000fbc:	e1a03283 	lsl	r3, r3, #5
f0000fc0:	e3a02001 	mov	r2, #1
f0000fc4:	e1a02012 	lsl	r2, r2, r0
f0000fc8:	e3a00000 	mov	r0, #0
f0000fcc:	e5931000 	ldr	r1, [r3]
f0000fd0:	e58d1004 	str	r1, [sp, #4]
f0000fd4:	e59d1004 	ldr	r1, [sp, #4]
f0000fd8:	e1c11002 	bic	r1, r1, r2
f0000fdc:	e58d1004 	str	r1, [sp, #4]
f0000fe0:	e59d1004 	ldr	r1, [sp, #4]
f0000fe4:	e1822001 	orr	r2, r2, r1
f0000fe8:	e58d2004 	str	r2, [sp, #4]
f0000fec:	e59d2004 	ldr	r2, [sp, #4]
f0000ff0:	e5832000 	str	r2, [r3]
f0000ff4:	e28dd008 	add	sp, sp, #8
f0000ff8:	e12fff1e 	bx	lr

f0000ffc <arisc_hwmsgbox_query_receiver_pending>:
f0000ffc:	e3073050 	movw	r3, #28752	; 0x7050
f0001000:	e24dd008 	sub	sp, sp, #8
f0001004:	e34f31c1 	movt	r3, #61889	; 0xf1c1
f0001008:	e1a00080 	lsl	r0, r0, #1
f000100c:	e7933281 	ldr	r3, [r3, r1, lsl #5]
f0001010:	e3a02001 	mov	r2, #1
f0001014:	e58d3004 	str	r3, [sp, #4]
f0001018:	e59d3004 	ldr	r3, [sp, #4]
f000101c:	e0030012 	and	r0, r3, r2, lsl r0
f0001020:	e28dd008 	add	sp, sp, #8
f0001024:	e12fff1e 	bx	lr

f0001028 <arisc_hwmsgbox_clear_receiver_pending>:
f0001028:	e1a00080 	lsl	r0, r0, #1
f000102c:	e3a02001 	mov	r2, #1
f0001030:	e3073050 	movw	r3, #28752	; 0x7050
f0001034:	e1a00012 	lsl	r0, r2, r0
f0001038:	e34f31c1 	movt	r3, #61889	; 0xf1c1
f000103c:	e7830281 	str	r0, [r3, r1, lsl #5]
f0001040:	e3a00000 	mov	r0, #0
f0001044:	e12fff1e 	bx	lr

f0001048 <arisc_hwmsgbox_query_message>:
f0001048:	e3073fff 	movw	r3, #32767	; 0x7fff
f000104c:	e24dd008 	sub	sp, sp, #8
f0001050:	e34f31c1 	movt	r3, #61889	; 0xf1c1
f0001054:	e5130ebf 	ldr	r0, [r3, #-3775]	; 0xebf
f0001058:	e3500000 	cmp	r0, #0
f000105c:	0a000016 	beq	f00010bc <arisc_hwmsgbox_query_message+0x74>
f0001060:	e5133e7f 	ldr	r3, [r3, #-3711]	; 0xe7f
f0001064:	e58d3004 	str	r3, [sp, #4]
f0001068:	e59f30c0 	ldr	r3, [pc, #192]	; f0001130 <arisc_hwmsgbox_query_message+0xe8>
f000106c:	e59d2004 	ldr	r2, [sp, #4]
f0001070:	e5933000 	ldr	r3, [r3]
f0001074:	e2831a13 	add	r1, r3, #77824	; 0x13000
f0001078:	e0830002 	add	r0, r3, r2
f000107c:	e1500001 	cmp	r0, r1
f0001080:	3a000028 	bcc	f0001128 <arisc_hwmsgbox_query_message+0xe0>
f0001084:	e2831905 	add	r1, r3, #81920	; 0x14000
f0001088:	e1500001 	cmp	r0, r1
f000108c:	2a000025 	bcs	f0001128 <arisc_hwmsgbox_query_message+0xe0>
f0001090:	e7d31002 	ldrb	r1, [r3, r2]
f0001094:	e3510005 	cmp	r1, #5
f0001098:	03a01006 	moveq	r1, #6
f000109c:	13a01003 	movne	r1, #3
f00010a0:	e7c31002 	strb	r1, [r3, r2]
f00010a4:	e3073fff 	movw	r3, #32767	; 0x7fff
f00010a8:	e34f31c1 	movt	r3, #61889	; 0xf1c1
f00010ac:	e3a02001 	mov	r2, #1
f00010b0:	e5032f8f 	str	r2, [r3, #-3983]	; 0xf8f
f00010b4:	e28dd008 	add	sp, sp, #8
f00010b8:	e12fff1e 	bx	lr
f00010bc:	e5132eb7 	ldr	r2, [r3, #-3767]	; 0xeb7
f00010c0:	e3520000 	cmp	r2, #0
f00010c4:	01a00002 	moveq	r0, r2
f00010c8:	0afffff9 	beq	f00010b4 <arisc_hwmsgbox_query_message+0x6c>
f00010cc:	e5133e77 	ldr	r3, [r3, #-3703]	; 0xe77
f00010d0:	e58d3004 	str	r3, [sp, #4]
f00010d4:	e59f3054 	ldr	r3, [pc, #84]	; f0001130 <arisc_hwmsgbox_query_message+0xe8>
f00010d8:	e59d2004 	ldr	r2, [sp, #4]
f00010dc:	e5933000 	ldr	r3, [r3]
f00010e0:	e283ca13 	add	ip, r3, #77824	; 0x13000
f00010e4:	e0831002 	add	r1, r3, r2
f00010e8:	e151000c 	cmp	r1, ip
f00010ec:	3afffff0 	bcc	f00010b4 <arisc_hwmsgbox_query_message+0x6c>
f00010f0:	e283c905 	add	ip, r3, #81920	; 0x14000
f00010f4:	e151000c 	cmp	r1, ip
f00010f8:	2affffed 	bcs	f00010b4 <arisc_hwmsgbox_query_message+0x6c>
f00010fc:	e7d3c002 	ldrb	ip, [r3, r2]
f0001100:	e1a00001 	mov	r0, r1
f0001104:	e35c0005 	cmp	ip, #5
f0001108:	03a01006 	moveq	r1, #6
f000110c:	13a01003 	movne	r1, #3
f0001110:	e7c31002 	strb	r1, [r3, r2]
f0001114:	e3073fff 	movw	r3, #32767	; 0x7fff
f0001118:	e34f31c1 	movt	r3, #61889	; 0xf1c1
f000111c:	e3a02010 	mov	r2, #16
f0001120:	e5032f8f 	str	r2, [r3, #-3983]	; 0xf8f
f0001124:	eaffffe2 	b	f00010b4 <arisc_hwmsgbox_query_message+0x6c>
f0001128:	e3a00000 	mov	r0, #0
f000112c:	eaffffe0 	b	f00010b4 <arisc_hwmsgbox_query_message+0x6c>
f0001130:	f0003440 			; <UNDEFINED> instruction: 0xf0003440

f0001134 <arisc_message_valid>:
f0001134:	e59f3028 	ldr	r3, [pc, #40]	; f0001164 <arisc_message_valid+0x30>
f0001138:	e5933000 	ldr	r3, [r3]
f000113c:	e2832a13 	add	r2, r3, #77824	; 0x13000
f0001140:	e1500002 	cmp	r0, r2
f0001144:	3a000004 	bcc	f000115c <arisc_message_valid+0x28>
f0001148:	e2833905 	add	r3, r3, #81920	; 0x14000
f000114c:	e1500003 	cmp	r0, r3
f0001150:	23a00000 	movcs	r0, #0
f0001154:	33a00001 	movcc	r0, #1
f0001158:	e12fff1e 	bx	lr
f000115c:	e3a00000 	mov	r0, #0
f0001160:	e12fff1e 	bx	lr
f0001164:	f0003440 			; <UNDEFINED> instruction: 0xf0003440

f0001168 <arisc_hwspinlock_init>:
f0001168:	e3a00000 	mov	r0, #0
f000116c:	e12fff1e 	bx	lr

f0001170 <arisc_hwspinlock_exit>:
f0001170:	e3a00000 	mov	r0, #0
f0001174:	e12fff1e 	bx	lr

f0001178 <arisc_hwspin_lock_timeout>:
f0001178:	e3063040 	movw	r3, #24640	; 0x6040
f000117c:	e3433c70 	movt	r3, #15472	; 0x3c70
f0001180:	e0803003 	add	r3, r0, r3
f0001184:	e1a03103 	lsl	r3, r3, #2
f0001188:	e5932000 	ldr	r2, [r3]
f000118c:	e3520001 	cmp	r2, #1
f0001190:	0afffffc 	beq	f0001188 <arisc_hwspin_lock_timeout+0x10>
f0001194:	e3a00000 	mov	r0, #0
f0001198:	e12fff1e 	bx	lr

f000119c <arisc_hwspin_unlock>:
f000119c:	e3063040 	movw	r3, #24640	; 0x6040
f00011a0:	e3a02000 	mov	r2, #0
f00011a4:	e3433c70 	movt	r3, #15472	; 0x3c70
f00011a8:	e0803003 	add	r3, r0, r3
f00011ac:	e1a00002 	mov	r0, r2
f00011b0:	e1a03103 	lsl	r3, r3, #2
f00011b4:	e5832000 	str	r2, [r3]
f00011b8:	e12fff1e 	bx	lr

f00011bc <arisc_message_manager_init>:
f00011bc:	e3032440 	movw	r2, #13376	; 0x3440
f00011c0:	e3033498 	movw	r3, #13464	; 0x3498
f00011c4:	e34f2000 	movt	r2, #61440	; 0xf000
f00011c8:	e34f3000 	movt	r3, #61440	; 0xf000
f00011cc:	e5922000 	ldr	r2, [r2]
f00011d0:	e3a00000 	mov	r0, #0
f00011d4:	e2821a13 	add	r1, r2, #77824	; 0x13000
f00011d8:	e2822905 	add	r2, r2, #81920	; 0x14000
f00011dc:	e8830006 	stm	r3, {r1, r2}
f00011e0:	e12fff1e 	bx	lr

f00011e4 <arisc_message_manager_exit>:
f00011e4:	e3a00000 	mov	r0, #0
f00011e8:	e12fff1e 	bx	lr

f00011ec <arisc_message_allocate>:
f00011ec:	e92d4038 	push	{r3, r4, r5, lr}
f00011f0:	e3a0100a 	mov	r1, #10
f00011f4:	e1a04000 	mov	r4, r0
f00011f8:	e3a00000 	mov	r0, #0
f00011fc:	ebffffdd 	bl	f0001178 <arisc_hwspin_lock_timeout>
f0001200:	e59f2074 	ldr	r2, [pc, #116]	; f000127c <arisc_message_allocate+0x90>
f0001204:	e5923000 	ldr	r3, [r2]
f0001208:	e5921004 	ldr	r1, [r2, #4]
f000120c:	e1530001 	cmp	r3, r1
f0001210:	2a00000a 	bcs	f0001240 <arisc_message_allocate+0x54>
f0001214:	e5d32000 	ldrb	r2, [r3]
f0001218:	e3520000 	cmp	r2, #0
f000121c:	1a000004 	bne	f0001234 <arisc_message_allocate+0x48>
f0001220:	ea00000a 	b	f0001250 <arisc_message_allocate+0x64>
f0001224:	e5d32040 	ldrb	r2, [r3, #64]	; 0x40
f0001228:	e1a03005 	mov	r3, r5
f000122c:	e3520000 	cmp	r2, #0
f0001230:	0a000007 	beq	f0001254 <arisc_message_allocate+0x68>
f0001234:	e2835040 	add	r5, r3, #64	; 0x40
f0001238:	e1550001 	cmp	r5, r1
f000123c:	3afffff8 	bcc	f0001224 <arisc_message_allocate+0x38>
f0001240:	e3a00000 	mov	r0, #0
f0001244:	ebffffd4 	bl	f000119c <arisc_hwspin_unlock>
f0001248:	e3a00000 	mov	r0, #0
f000124c:	e8bd8038 	pop	{r3, r4, r5, pc}
f0001250:	e1a05003 	mov	r5, r3
f0001254:	e3a03001 	mov	r3, #1
f0001258:	e3a00000 	mov	r0, #0
f000125c:	e5c53000 	strb	r3, [r5]
f0001260:	e6ef4074 	uxtb	r4, r4
f0001264:	ebffffcc 	bl	f000119c <arisc_hwspin_unlock>
f0001268:	e3a03000 	mov	r3, #0
f000126c:	e1a00005 	mov	r0, r5
f0001270:	e5853004 	str	r3, [r5, #4]
f0001274:	e5c54001 	strb	r4, [r5, #1]
f0001278:	e8bd8038 	pop	{r3, r4, r5, pc}
f000127c:	f0003498 			; <UNDEFINED> instruction: 0xf0003498

f0001280 <arisc_message_free>:
f0001280:	e92d4010 	push	{r4, lr}
f0001284:	e3a0100a 	mov	r1, #10
f0001288:	e1a04000 	mov	r4, r0
f000128c:	e3a00000 	mov	r0, #0
f0001290:	ebffffb8 	bl	f0001178 <arisc_hwspin_lock_timeout>
f0001294:	e3a03000 	mov	r3, #0
f0001298:	e5c43000 	strb	r3, [r4]
f000129c:	e1a00003 	mov	r0, r3
f00012a0:	e5843004 	str	r3, [r4, #4]
f00012a4:	e8bd4010 	pop	{r4, lr}
f00012a8:	eaffffbb 	b	f000119c <arisc_hwspin_unlock>

f00012ac <busy_waiting>:
f00012ac:	e24dd008 	sub	sp, sp, #8
f00012b0:	e3a03001 	mov	r3, #1
f00012b4:	e58d3004 	str	r3, [sp, #4]
f00012b8:	e59d3004 	ldr	r3, [sp, #4]
f00012bc:	e3530001 	cmp	r3, #1
f00012c0:	0afffffc 	beq	f00012b8 <busy_waiting+0xc>
f00012c4:	e28dd008 	add	sp, sp, #8
f00012c8:	e12fff1e 	bx	lr

f00012cc <save_mem_flag>:
f00012cc:	e12fff1e 	bx	lr

f00012d0 <clear_mem_flag>:
f00012d0:	e12fff1e 	bx	lr

f00012d4 <mem_status_init>:
f00012d4:	e12fff1e 	bx	lr

f00012d8 <mem_status_init_nommu>:
f00012d8:	e12fff1e 	bx	lr

f00012dc <mem_status_clear>:
f00012dc:	e3a03000 	mov	r3, #0
f00012e0:	e1a02003 	mov	r2, r3
f00012e4:	e34f31f0 	movt	r3, #61936	; 0xf1f0
f00012e8:	e5832100 	str	r2, [r3, #256]	; 0x100
f00012ec:	e5832104 	str	r2, [r3, #260]	; 0x104
f00012f0:	e5832108 	str	r2, [r3, #264]	; 0x108
f00012f4:	e583210c 	str	r2, [r3, #268]	; 0x10c
f00012f8:	e12fff1e 	bx	lr

f00012fc <mem_status_exit>:
f00012fc:	e12fff1e 	bx	lr

f0001300 <save_mem_status>:
f0001300:	e24dd008 	sub	sp, sp, #8
f0001304:	e3a03000 	mov	r3, #0
f0001308:	e58d0004 	str	r0, [sp, #4]
f000130c:	e34f31f0 	movt	r3, #61936	; 0xf1f0
f0001310:	e59d2004 	ldr	r2, [sp, #4]
f0001314:	e5832104 	str	r2, [r3, #260]	; 0x104
f0001318:	f57ff04f 	dsb	sy
f000131c:	f57ff06f 	isb	sy
f0001320:	e28dd008 	add	sp, sp, #8
f0001324:	e12fff1e 	bx	lr

f0001328 <get_mem_status>:
f0001328:	e3a03000 	mov	r3, #0
f000132c:	e34f31f0 	movt	r3, #61936	; 0xf1f0
f0001330:	e5930104 	ldr	r0, [r3, #260]	; 0x104
f0001334:	e12fff1e 	bx	lr

f0001338 <show_mem_status>:
f0001338:	e92d4038 	push	{r3, r4, r5, lr}
f000133c:	e3a04c01 	mov	r4, #256	; 0x100
f0001340:	e3a05e11 	mov	r5, #272	; 0x110
f0001344:	e34f41f0 	movt	r4, #61936	; 0xf1f0
f0001348:	e34f51f0 	movt	r5, #61936	; 0xf1f0
f000134c:	e5942000 	ldr	r2, [r4]
f0001350:	e1a01004 	mov	r1, r4
f0001354:	e59f0010 	ldr	r0, [pc, #16]	; f000136c <show_mem_status+0x34>
f0001358:	e2844004 	add	r4, r4, #4
f000135c:	eb0003c5 	bl	f0002278 <printk>
f0001360:	e1540005 	cmp	r4, r5
f0001364:	1afffff8 	bne	f000134c <show_mem_status+0x14>
f0001368:	e8bd8038 	pop	{r3, r4, r5, pc}
f000136c:	f0003320 			; <UNDEFINED> instruction: 0xf0003320

f0001370 <save_mem_status_nommu>:
f0001370:	e24dd008 	sub	sp, sp, #8
f0001374:	e3a0361f 	mov	r3, #32505856	; 0x1f00000
f0001378:	e58d0004 	str	r0, [sp, #4]
f000137c:	e59d2004 	ldr	r2, [sp, #4]
f0001380:	e5832104 	str	r2, [r3, #260]	; 0x104
f0001384:	e28dd008 	add	sp, sp, #8
f0001388:	e12fff1e 	bx	lr

f000138c <save_cpux_mem_status_nommu>:
f000138c:	e24dd008 	sub	sp, sp, #8
f0001390:	e3a0361f 	mov	r3, #32505856	; 0x1f00000
f0001394:	e58d0004 	str	r0, [sp, #4]
f0001398:	e59d2004 	ldr	r2, [sp, #4]
f000139c:	e5832100 	str	r2, [r3, #256]	; 0x100
f00013a0:	e28dd008 	add	sp, sp, #8
f00013a4:	e12fff1e 	bx	lr

f00013a8 <io_init>:
f00013a8:	e3a03000 	mov	r3, #0
f00013ac:	e3012111 	movw	r2, #4369	; 0x1111
f00013b0:	e34f31c2 	movt	r3, #61890	; 0xf1c2
f00013b4:	e3402011 	movt	r2, #17
f00013b8:	e5832890 	str	r2, [r3, #2192]	; 0x890
f00013bc:	e12fff1e 	bx	lr

f00013c0 <io_init_high>:
f00013c0:	e3a03000 	mov	r3, #0
f00013c4:	e34f31c2 	movt	r3, #61890	; 0xf1c2
f00013c8:	e59328a0 	ldr	r2, [r3, #2208]	; 0x8a0
f00013cc:	e382203f 	orr	r2, r2, #63	; 0x3f
f00013d0:	e58328a0 	str	r2, [r3, #2208]	; 0x8a0
f00013d4:	e12fff1e 	bx	lr

f00013d8 <io_init_low>:
f00013d8:	e3a03000 	mov	r3, #0
f00013dc:	e34f31c2 	movt	r3, #61890	; 0xf1c2
f00013e0:	e59328a0 	ldr	r2, [r3, #2208]	; 0x8a0
f00013e4:	e3c2203f 	bic	r2, r2, #63	; 0x3f
f00013e8:	e58328a0 	str	r2, [r3, #2208]	; 0x8a0
f00013ec:	e12fff1e 	bx	lr

f00013f0 <io_high>:
f00013f0:	e92d4070 	push	{r4, r5, r6, lr}
f00013f4:	e3a04000 	mov	r4, #0
f00013f8:	e34f41c2 	movt	r4, #61890	; 0xf1c2
f00013fc:	e3a05001 	mov	r5, #1
f0001400:	e1a05015 	lsl	r5, r5, r0
f0001404:	e3020710 	movw	r0, #10000	; 0x2710
f0001408:	e59468a0 	ldr	r6, [r4, #2208]	; 0x8a0
f000140c:	e1c66005 	bic	r6, r6, r5
f0001410:	e58468a0 	str	r6, [r4, #2208]	; 0x8a0
f0001414:	e1865005 	orr	r5, r6, r5
f0001418:	eb00002c 	bl	f00014d0 <delay_us>
f000141c:	e58458a0 	str	r5, [r4, #2208]	; 0x8a0
f0001420:	e8bd8070 	pop	{r4, r5, r6, pc}

f0001424 <init_perfcounters>:
f0001424:	e3500000 	cmp	r0, #0
f0001428:	13a00007 	movne	r0, #7
f000142c:	03a00001 	moveq	r0, #1
f0001430:	e3510000 	cmp	r1, #0
f0001434:	13800008 	orrne	r0, r0, #8
f0001438:	e3800010 	orr	r0, r0, #16
f000143c:	ee090f1c 	mcr	15, 0, r0, cr9, cr12, {0}
f0001440:	e3a0313e 	mov	r3, #-2147483633	; 0x8000000f
f0001444:	ee093f3c 	mcr	15, 0, r3, cr9, cr12, {1}
f0001448:	ee093f7c 	mcr	15, 0, r3, cr9, cr12, {3}
f000144c:	e12fff1e 	bx	lr

f0001450 <backup_perfcounter>:
f0001450:	ee192f1c 	mrc	15, 0, r2, cr9, cr12, {0}
f0001454:	e30334a4 	movw	r3, #13476	; 0x34a4
f0001458:	e34f3000 	movt	r3, #61440	; 0xf000
f000145c:	e5832000 	str	r2, [r3]
f0001460:	ee192f3c 	mrc	15, 0, r2, cr9, cr12, {1}
f0001464:	e5832004 	str	r2, [r3, #4]
f0001468:	e12fff1e 	bx	lr

f000146c <restore_perfcounter>:
f000146c:	e30334a4 	movw	r3, #13476	; 0x34a4
f0001470:	e34f3000 	movt	r3, #61440	; 0xf000
f0001474:	e5933000 	ldr	r3, [r3]
f0001478:	ee093f1c 	mcr	15, 0, r3, cr9, cr12, {0}
f000147c:	e30334a4 	movw	r3, #13476	; 0x34a4
f0001480:	e34f3000 	movt	r3, #61440	; 0xf000
f0001484:	e5933004 	ldr	r3, [r3, #4]
f0001488:	ee093f3c 	mcr	15, 0, r3, cr9, cr12, {1}
f000148c:	e12fff1e 	bx	lr

f0001490 <get_cyclecount>:
f0001490:	ee190f1d 	mrc	15, 0, r0, cr9, cr13, {0}
f0001494:	e12fff1e 	bx	lr

f0001498 <reset_counter>:
f0001498:	ee193f1c 	mrc	15, 0, r3, cr9, cr12, {0}
f000149c:	e3833004 	orr	r3, r3, #4
f00014a0:	ee093f1c 	mcr	15, 0, r3, cr9, cr12, {0}
f00014a4:	e12fff1e 	bx	lr

f00014a8 <change_runtime_env>:
f00014a8:	e92d4010 	push	{r4, lr}
f00014ac:	ee193f1d 	mrc	15, 0, r3, cr9, cr13, {0}
f00014b0:	ee192f1d 	mrc	15, 0, r2, cr9, cr13, {0}
f00014b4:	e30344a4 	movw	r4, #13476	; 0x34a4
f00014b8:	e0633002 	rsb	r3, r3, r2
f00014bc:	e34f4000 	movt	r4, #61440	; 0xf000
f00014c0:	e5843008 	str	r3, [r4, #8]
f00014c4:	eb0006e2 	bl	f0003054 <mem_clk_get_cpu_freq>
f00014c8:	e584000c 	str	r0, [r4, #12]
f00014cc:	e8bd8010 	pop	{r4, pc}

f00014d0 <delay_us>:
f00014d0:	e92d4038 	push	{r3, r4, r5, lr}
f00014d4:	e1a05000 	mov	r5, r0
f00014d8:	e59f406c 	ldr	r4, [pc, #108]	; f000154c <delay_us+0x7c>
f00014dc:	e594000c 	ldr	r0, [r4, #12]
f00014e0:	e3500ffa 	cmp	r0, #1000	; 0x3e8
f00014e4:	8a000002 	bhi	f00014f4 <delay_us+0x24>
f00014e8:	f57ff05f 	dmb	sy
f00014ec:	f57ff06f 	isb	sy
f00014f0:	e8bd8038 	pop	{r3, r4, r5, pc}
f00014f4:	e3a01ffa 	mov	r1, #1000	; 0x3e8
f00014f8:	eb000540 	bl	f0002a00 <raw_lib_udiv>
f00014fc:	ee193f1d 	mrc	15, 0, r3, cr9, cr13, {0}
f0001500:	e5942008 	ldr	r2, [r4, #8]
f0001504:	e0255590 	mla	r5, r0, r5, r5
f0001508:	e0622003 	rsb	r2, r2, r3
f000150c:	e0825005 	add	r5, r2, r5
f0001510:	ee192f3c 	mrc	15, 0, r2, cr9, cr12, {1}
f0001514:	e202213e 	and	r2, r2, #-2147483633	; 0x8000000f
f0001518:	e352013e 	cmp	r2, #-2147483633	; 0x8000000f
f000151c:	0a000006 	beq	f000153c <delay_us+0x6c>
f0001520:	e3a02017 	mov	r2, #23
f0001524:	ee092f1c 	mcr	15, 0, r2, cr9, cr12, {0}
f0001528:	e3a0213e 	mov	r2, #-2147483633	; 0x8000000f
f000152c:	ee092f3c 	mcr	15, 0, r2, cr9, cr12, {1}
f0001530:	ee092f7c 	mcr	15, 0, r2, cr9, cr12, {3}
f0001534:	ea000000 	b	f000153c <delay_us+0x6c>
f0001538:	ee193f1d 	mrc	15, 0, r3, cr9, cr13, {0}
f000153c:	e0653003 	rsb	r3, r5, r3
f0001540:	e3530000 	cmp	r3, #0
f0001544:	bafffffb 	blt	f0001538 <delay_us+0x68>
f0001548:	eaffffe6 	b	f00014e8 <delay_us+0x18>
f000154c:	f00034a4 			; <UNDEFINED> instruction: 0xf00034a4

f0001550 <delay_ms>:
f0001550:	e3a03ffa 	mov	r3, #1000	; 0x3e8
f0001554:	e0000093 	mul	r0, r3, r0
f0001558:	eaffffdc 	b	f00014d0 <delay_us>

f000155c <init_event_counter>:
f000155c:	e3500000 	cmp	r0, #0
f0001560:	13a00007 	movne	r0, #7
f0001564:	03a00001 	moveq	r0, #1
f0001568:	e3510000 	cmp	r1, #0
f000156c:	13800008 	orrne	r0, r0, #8
f0001570:	e3800010 	orr	r0, r0, #16
f0001574:	ee090f1c 	mcr	15, 0, r0, cr9, cr12, {0}
f0001578:	e3a0313e 	mov	r3, #-2147483633	; 0x8000000f
f000157c:	ee093f3c 	mcr	15, 0, r3, cr9, cr12, {1}
f0001580:	ee093f7c 	mcr	15, 0, r3, cr9, cr12, {3}
f0001584:	e12fff1e 	bx	lr

f0001588 <set_event_counter>:
f0001588:	e2403002 	sub	r3, r0, #2
f000158c:	e3530003 	cmp	r3, #3
f0001590:	959f2018 	ldrls	r2, [pc, #24]	; f00015b0 <set_event_counter+0x28>
f0001594:	83a03000 	movhi	r3, #0
f0001598:	97923103 	ldrls	r3, [r2, r3, lsl #2]
f000159c:	ee093fbc 	mcr	15, 0, r3, cr9, cr12, {5}
f00015a0:	ee090f3d 	mcr	15, 0, r0, cr9, cr13, {1}
f00015a4:	f57ff04f 	dsb	sy
f00015a8:	f57ff06f 	isb	sy
f00015ac:	e12fff1e 	bx	lr
f00015b0:	f000310c 			; <UNDEFINED> instruction: 0xf000310c

f00015b4 <get_event_counter>:
f00015b4:	e2400002 	sub	r0, r0, #2
f00015b8:	e3500003 	cmp	r0, #3
f00015bc:	959f3018 	ldrls	r3, [pc, #24]	; f00015dc <get_event_counter+0x28>
f00015c0:	83a03000 	movhi	r3, #0
f00015c4:	97933100 	ldrls	r3, [r3, r0, lsl #2]
f00015c8:	ee093fbc 	mcr	15, 0, r3, cr9, cr12, {5}
f00015cc:	ee190f5d 	mrc	15, 0, r0, cr9, cr13, {2}
f00015d0:	f57ff04f 	dsb	sy
f00015d4:	f57ff06f 	isb	sy
f00015d8:	e12fff1e 	bx	lr
f00015dc:	f000310c 			; <UNDEFINED> instruction: 0xf000310c

f00015e0 <save_mmu_state>:
f00015e0:	ee503f10 	mrc	15, 2, r3, cr0, cr0, {0}
f00015e4:	e5803000 	str	r3, [r0]
f00015e8:	ee113f50 	mrc	15, 0, r3, cr1, cr0, {2}
f00015ec:	e5803008 	str	r3, [r0, #8]
f00015f0:	ee133f10 	mrc	15, 0, r3, cr3, cr0, {0}
f00015f4:	e5803018 	str	r3, [r0, #24]
f00015f8:	ee123f10 	mrc	15, 0, r3, cr2, cr0, {0}
f00015fc:	e580300c 	str	r3, [r0, #12]
f0001600:	ee123f30 	mrc	15, 0, r3, cr2, cr0, {1}
f0001604:	e5803010 	str	r3, [r0, #16]
f0001608:	ee123f50 	mrc	15, 0, r3, cr2, cr0, {2}
f000160c:	e5803014 	str	r3, [r0, #20]
f0001610:	ee113f10 	mrc	15, 0, r3, cr1, cr0, {0}
f0001614:	e5803004 	str	r3, [r0, #4]
f0001618:	e12fff1e 	bx	lr

f000161c <restore_mmu_state>:
f000161c:	e5903000 	ldr	r3, [r0]
f0001620:	ee403f10 	mcr	15, 2, r3, cr0, cr0, {0}
f0001624:	e5903008 	ldr	r3, [r0, #8]
f0001628:	ee013f50 	mcr	15, 0, r3, cr1, cr0, {2}
f000162c:	e5903018 	ldr	r3, [r0, #24]
f0001630:	ee033f10 	mcr	15, 0, r3, cr3, cr0, {0}
f0001634:	e5903010 	ldr	r3, [r0, #16]
f0001638:	ee023f10 	mcr	15, 0, r3, cr2, cr0, {0}
f000163c:	ee023f30 	mcr	15, 0, r3, cr2, cr0, {1}
f0001640:	e5903014 	ldr	r3, [r0, #20]
f0001644:	ee023f50 	mcr	15, 0, r3, cr2, cr0, {2}
f0001648:	ea000004 	b	f0001660 <__turn_mmu_on>
f000164c:	e320f000 	nop	{0}
f0001650:	e320f000 	nop	{0}
f0001654:	e320f000 	nop	{0}
f0001658:	e320f000 	nop	{0}
f000165c:	e320f000 	nop	{0}

f0001660 <__turn_mmu_on>:
f0001660:	e1a00000 	nop			; (mov r0, r0)
f0001664:	e5903004 	ldr	r3, [r0, #4]
f0001668:	ee013f10 	mcr	15, 0, r3, cr1, cr0, {0}
f000166c:	ee103f10 	mrc	15, 0, r3, cr0, cr0, {0}
f0001670:	e1a03003 	mov	r3, r3
f0001674:	e1a03003 	mov	r3, r3
f0001678:	f57ff06f 	isb	sy
f000167c:	e12fff1e 	bx	lr

f0001680 <save_sp>:
f0001680:	e1a0000d 	mov	r0, sp
f0001684:	e59fd49c 	ldr	sp, [pc, #1180]	; f0001b28 <jump_to_resume0_nommu+0x28>
f0001688:	e1a0f00e 	mov	pc, lr

f000168c <save_sp_nommu>:
f000168c:	e1a0000d 	mov	r0, sp
f0001690:	e59fd494 	ldr	sp, [pc, #1172]	; f0001b2c <jump_to_resume0_nommu+0x2c>
f0001694:	e1a0f00e 	mov	pc, lr

f0001698 <restore_sp>:
f0001698:	e1a0d000 	mov	sp, r0
f000169c:	e1a0f00e 	mov	pc, lr

f00016a0 <get_sp>:
f00016a0:	e1a0000d 	mov	r0, sp
f00016a4:	e1a0f00e 	mov	pc, lr
f00016a8:	e320f000 	nop	{0}
f00016ac:	e320f000 	nop	{0}

f00016b0 <invalidate_dcache>:
f00016b0:	f57ff05f 	dmb	sy
f00016b4:	ee300f30 	mrc	15, 1, r0, cr0, cr0, {1}
f00016b8:	e2103407 	ands	r3, r0, #117440512	; 0x7000000
f00016bc:	e1a03ba3 	lsr	r3, r3, #23
f00016c0:	0a00001a 	beq	f0001730 <inv_finished>
f00016c4:	e3a0a000 	mov	sl, #0

f00016c8 <inv_loop1>:
f00016c8:	e08a20aa 	add	r2, sl, sl, lsr #1
f00016cc:	e1a01230 	lsr	r1, r0, r2
f00016d0:	e2011007 	and	r1, r1, #7
f00016d4:	e3510002 	cmp	r1, #2
f00016d8:	ba000011 	blt	f0001724 <inv_skip>
f00016dc:	ee40af10 	mcr	15, 2, sl, cr0, cr0, {0}
f00016e0:	f57ff06f 	isb	sy
f00016e4:	ee301f10 	mrc	15, 1, r1, cr0, cr0, {0}
f00016e8:	e2012007 	and	r2, r1, #7
f00016ec:	e2822004 	add	r2, r2, #4
f00016f0:	e59f4438 	ldr	r4, [pc, #1080]	; f0001b30 <jump_to_resume0_nommu+0x30>
f00016f4:	e01441a1 	ands	r4, r4, r1, lsr #3
f00016f8:	e16f5f14 	clz	r5, r4
f00016fc:	e59f7430 	ldr	r7, [pc, #1072]	; f0001b34 <jump_to_resume0_nommu+0x34>
f0001700:	e01776a1 	ands	r7, r7, r1, lsr #13

f0001704 <inv_loop2>:
f0001704:	e1a09004 	mov	r9, r4

f0001708 <inv_loop3>:
f0001708:	e18ab519 	orr	fp, sl, r9, lsl r5
f000170c:	e18bb217 	orr	fp, fp, r7, lsl r2
f0001710:	ee07bf56 	mcr	15, 0, fp, cr7, cr6, {2}
f0001714:	e2599001 	subs	r9, r9, #1
f0001718:	aafffffa 	bge	f0001708 <inv_loop3>
f000171c:	e2577001 	subs	r7, r7, #1
f0001720:	aafffff7 	bge	f0001704 <inv_loop2>

f0001724 <inv_skip>:
f0001724:	e28aa002 	add	sl, sl, #2
f0001728:	e153000a 	cmp	r3, sl
f000172c:	caffffe5 	bgt	f00016c8 <inv_loop1>

f0001730 <inv_finished>:
f0001730:	e3a0a000 	mov	sl, #0
f0001734:	ee40af10 	mcr	15, 2, sl, cr0, cr0, {0}
f0001738:	f57ff04f 	dsb	sy
f000173c:	f57ff06f 	isb	sy
f0001740:	e1a0f00e 	mov	pc, lr

f0001744 <invalidate_icache>:
f0001744:	e3a00000 	mov	r0, #0
f0001748:	ee070f11 	mcr	15, 0, r0, cr7, cr1, {0}
f000174c:	ee070f15 	mcr	15, 0, r0, cr7, cr5, {0}
f0001750:	f57ff04f 	dsb	sy
f0001754:	f57ff06f 	isb	sy
f0001758:	e1a0f00e 	mov	pc, lr

f000175c <flush_dcache>:
f000175c:	e92d1fff 	push	{r0, r1, r2, r3, r4, r5, r6, r7, r8, r9, sl, fp, ip}
f0001760:	f57ff05f 	dmb	sy
f0001764:	ee300f30 	mrc	15, 1, r0, cr0, cr0, {1}
f0001768:	e2103407 	ands	r3, r0, #117440512	; 0x7000000
f000176c:	e1a03ba3 	lsr	r3, r3, #23
f0001770:	0a00001a 	beq	f00017e0 <finished>
f0001774:	e3a0a000 	mov	sl, #0

f0001778 <loop1>:
f0001778:	e08a20aa 	add	r2, sl, sl, lsr #1
f000177c:	e1a01230 	lsr	r1, r0, r2
f0001780:	e2011007 	and	r1, r1, #7
f0001784:	e3510002 	cmp	r1, #2
f0001788:	ba000011 	blt	f00017d4 <skip>
f000178c:	ee40af10 	mcr	15, 2, sl, cr0, cr0, {0}
f0001790:	f57ff06f 	isb	sy
f0001794:	ee301f10 	mrc	15, 1, r1, cr0, cr0, {0}
f0001798:	e2012007 	and	r2, r1, #7
f000179c:	e2822004 	add	r2, r2, #4
f00017a0:	e59f4388 	ldr	r4, [pc, #904]	; f0001b30 <jump_to_resume0_nommu+0x30>
f00017a4:	e01441a1 	ands	r4, r4, r1, lsr #3
f00017a8:	e16f5f14 	clz	r5, r4
f00017ac:	e59f7380 	ldr	r7, [pc, #896]	; f0001b34 <jump_to_resume0_nommu+0x34>
f00017b0:	e01776a1 	ands	r7, r7, r1, lsr #13

f00017b4 <loop2>:
f00017b4:	e1a09004 	mov	r9, r4

f00017b8 <loop3>:
f00017b8:	e18ab519 	orr	fp, sl, r9, lsl r5
f00017bc:	e18bb217 	orr	fp, fp, r7, lsl r2
f00017c0:	ee07bf5e 	mcr	15, 0, fp, cr7, cr14, {2}
f00017c4:	e2599001 	subs	r9, r9, #1
f00017c8:	aafffffa 	bge	f00017b8 <loop3>
f00017cc:	e2577001 	subs	r7, r7, #1
f00017d0:	aafffff7 	bge	f00017b4 <loop2>

f00017d4 <skip>:
f00017d4:	e28aa002 	add	sl, sl, #2
f00017d8:	e153000a 	cmp	r3, sl
f00017dc:	caffffe5 	bgt	f0001778 <loop1>

f00017e0 <finished>:
f00017e0:	e3a0a000 	mov	sl, #0
f00017e4:	ee40af10 	mcr	15, 2, sl, cr0, cr0, {0}
f00017e8:	f57ff04f 	dsb	sy
f00017ec:	f57ff06f 	isb	sy
f00017f0:	e8bd1fff 	pop	{r0, r1, r2, r3, r4, r5, r6, r7, r8, r9, sl, fp, ip}
f00017f4:	e1a0f00e 	mov	pc, lr

f00017f8 <flush_icache>:
f00017f8:	e92d000f 	push	{r0, r1, r2, r3}
f00017fc:	e3a00000 	mov	r0, #0
f0001800:	ee070f15 	mcr	15, 0, r0, cr7, cr5, {0}
f0001804:	ee070f11 	mcr	15, 0, r0, cr7, cr1, {0}
f0001808:	ee070fd1 	mcr	15, 0, r0, cr7, cr1, {6}
f000180c:	f57ff06f 	isb	sy
f0001810:	f57ff04f 	dsb	sy
f0001814:	e8bd000f 	pop	{r0, r1, r2, r3}
f0001818:	e1a0f00e 	mov	pc, lr

f000181c <disable_cache>:
f000181c:	e92d000f 	push	{r0, r1, r2, r3}
f0001820:	ee110f10 	mrc	15, 0, r0, cr1, cr0, {0}
f0001824:	e3c00a01 	bic	r0, r0, #4096	; 0x1000
f0001828:	e3c00004 	bic	r0, r0, #4
f000182c:	ee010f10 	mcr	15, 0, r0, cr1, cr0, {0}
f0001830:	f57ff06f 	isb	sy
f0001834:	e8bd000f 	pop	{r0, r1, r2, r3}
f0001838:	e1a0f00e 	mov	pc, lr

f000183c <disable_dcache>:
f000183c:	e92d000f 	push	{r0, r1, r2, r3}
f0001840:	ee110f10 	mrc	15, 0, r0, cr1, cr0, {0}
f0001844:	e3c00004 	bic	r0, r0, #4
f0001848:	ee010f10 	mcr	15, 0, r0, cr1, cr0, {0}
f000184c:	f57ff06f 	isb	sy
f0001850:	e8bd000f 	pop	{r0, r1, r2, r3}
f0001854:	e1a0f00e 	mov	pc, lr

f0001858 <disable_icache>:
f0001858:	e92d000f 	push	{r0, r1, r2, r3}
f000185c:	ee110f10 	mrc	15, 0, r0, cr1, cr0, {0}
f0001860:	e3c00a01 	bic	r0, r0, #4096	; 0x1000
f0001864:	ee010f10 	mcr	15, 0, r0, cr1, cr0, {0}
f0001868:	f57ff06f 	isb	sy
f000186c:	e8bd000f 	pop	{r0, r1, r2, r3}
f0001870:	e1a0f00e 	mov	pc, lr

f0001874 <disable_l2cache>:
f0001874:	e92d000f 	push	{r0, r1, r2, r3}
f0001878:	ee110f30 	mrc	15, 0, r0, cr1, cr0, {1}
f000187c:	e3c00002 	bic	r0, r0, #2
f0001880:	ee010f30 	mcr	15, 0, r0, cr1, cr0, {1}
f0001884:	f57ff06f 	isb	sy
f0001888:	e8bd000f 	pop	{r0, r1, r2, r3}
f000188c:	e1a0f00e 	mov	pc, lr

f0001890 <enable_cache>:
f0001890:	e92d000f 	push	{r0, r1, r2, r3}
f0001894:	ee110f10 	mrc	15, 0, r0, cr1, cr0, {0}
f0001898:	e3800a01 	orr	r0, r0, #4096	; 0x1000
f000189c:	e3800004 	orr	r0, r0, #4
f00018a0:	ee010f10 	mcr	15, 0, r0, cr1, cr0, {0}
f00018a4:	f57ff06f 	isb	sy
f00018a8:	e8bd000f 	pop	{r0, r1, r2, r3}
f00018ac:	e1a0f00e 	mov	pc, lr

f00018b0 <enable_icache>:
f00018b0:	e92d000f 	push	{r0, r1, r2, r3}
f00018b4:	ee110f10 	mrc	15, 0, r0, cr1, cr0, {0}
f00018b8:	e3800a01 	orr	r0, r0, #4096	; 0x1000
f00018bc:	ee010f10 	mcr	15, 0, r0, cr1, cr0, {0}
f00018c0:	f57ff06f 	isb	sy
f00018c4:	e8bd000f 	pop	{r0, r1, r2, r3}
f00018c8:	e1a0f00e 	mov	pc, lr

f00018cc <invalidate_branch_predictor>:
f00018cc:	e92d000f 	push	{r0, r1, r2, r3}
f00018d0:	e3a00000 	mov	r0, #0
f00018d4:	ee070fd5 	mcr	15, 0, r0, cr7, cr5, {6}
f00018d8:	f57ff06f 	isb	sy
f00018dc:	e8bd000f 	pop	{r0, r1, r2, r3}
f00018e0:	e1a0f00e 	mov	pc, lr

f00018e4 <disable_program_flow_prediction>:
f00018e4:	e92d000f 	push	{r0, r1, r2, r3}
f00018e8:	ee110f10 	mrc	15, 0, r0, cr1, cr0, {0}
f00018ec:	e3c00b02 	bic	r0, r0, #2048	; 0x800
f00018f0:	ee010f10 	mcr	15, 0, r0, cr1, cr0, {0}
f00018f4:	f57ff06f 	isb	sy
f00018f8:	e8bd000f 	pop	{r0, r1, r2, r3}
f00018fc:	e1a0f00e 	mov	pc, lr

f0001900 <enable_program_flow_prediction>:
f0001900:	e92d000f 	push	{r0, r1, r2, r3}
f0001904:	ee110f10 	mrc	15, 0, r0, cr1, cr0, {0}
f0001908:	e3800b02 	orr	r0, r0, #2048	; 0x800
f000190c:	ee010f10 	mcr	15, 0, r0, cr1, cr0, {0}
f0001910:	f57ff06f 	isb	sy
f0001914:	e8bd000f 	pop	{r0, r1, r2, r3}
f0001918:	e1a0f00e 	mov	pc, lr

f000191c <mem_flush_tlb>:
f000191c:	e92d000f 	push	{r0, r1, r2, r3}
f0001920:	e3a00000 	mov	r0, #0
f0001924:	ee080f15 	mcr	15, 0, r0, cr8, cr5, {0}
f0001928:	ee080f16 	mcr	15, 0, r0, cr8, cr6, {0}
f000192c:	ee080f13 	mcr	15, 0, r0, cr8, cr3, {0}
f0001930:	f57ff04f 	dsb	sy
f0001934:	f57ff06f 	isb	sy
f0001938:	e8bd000f 	pop	{r0, r1, r2, r3}
f000193c:	e1a0f00e 	mov	pc, lr

f0001940 <mem_preload_tlb>:
f0001940:	e92d000f 	push	{r0, r1, r2, r3}
f0001944:	e3a0020f 	mov	r0, #-268435456	; 0xf0000000
f0001948:	e5901000 	ldr	r1, [r0]
f000194c:	e59f01e4 	ldr	r0, [pc, #484]	; f0001b38 <jump_to_resume0_nommu+0x38>
f0001950:	e5901000 	ldr	r1, [r0]
f0001954:	e59f01e0 	ldr	r0, [pc, #480]	; f0001b3c <jump_to_resume0_nommu+0x3c>
f0001958:	e5901000 	ldr	r1, [r0]
f000195c:	e59f01dc 	ldr	r0, [pc, #476]	; f0001b40 <jump_to_resume0_nommu+0x40>
f0001960:	e5901000 	ldr	r1, [r0]
f0001964:	e59f01d8 	ldr	r0, [pc, #472]	; f0001b44 <jump_to_resume0_nommu+0x44>
f0001968:	e5901000 	ldr	r1, [r0]
f000196c:	e59f01d4 	ldr	r0, [pc, #468]	; f0001b48 <jump_to_resume0_nommu+0x48>
f0001970:	e5901000 	ldr	r1, [r0]
f0001974:	e59f01d0 	ldr	r0, [pc, #464]	; f0001b4c <jump_to_resume0_nommu+0x4c>
f0001978:	e5901000 	ldr	r1, [r0]
f000197c:	e59f01cc 	ldr	r0, [pc, #460]	; f0001b50 <jump_to_resume0_nommu+0x50>
f0001980:	e5901000 	ldr	r1, [r0]
f0001984:	e59f01c8 	ldr	r0, [pc, #456]	; f0001b54 <jump_to_resume0_nommu+0x54>
f0001988:	e5901000 	ldr	r1, [r0]
f000198c:	e59f01c4 	ldr	r0, [pc, #452]	; f0001b58 <jump_to_resume0_nommu+0x58>
f0001990:	e5901000 	ldr	r1, [r0]
f0001994:	e59f01c0 	ldr	r0, [pc, #448]	; f0001b5c <jump_to_resume0_nommu+0x5c>
f0001998:	e5901000 	ldr	r1, [r0]
f000199c:	e59f01bc 	ldr	r0, [pc, #444]	; f0001b60 <jump_to_resume0_nommu+0x60>
f00019a0:	e5901000 	ldr	r1, [r0]
f00019a4:	e59f01b8 	ldr	r0, [pc, #440]	; f0001b64 <jump_to_resume0_nommu+0x64>
f00019a8:	e5901000 	ldr	r1, [r0]
f00019ac:	e59f01b4 	ldr	r0, [pc, #436]	; f0001b68 <jump_to_resume0_nommu+0x68>
f00019b0:	e5901000 	ldr	r1, [r0]
f00019b4:	e59f01b0 	ldr	r0, [pc, #432]	; f0001b6c <jump_to_resume0_nommu+0x6c>
f00019b8:	e5901000 	ldr	r1, [r0]
f00019bc:	e59f01ac 	ldr	r0, [pc, #428]	; f0001b70 <jump_to_resume0_nommu+0x70>
f00019c0:	e5901000 	ldr	r1, [r0]
f00019c4:	e59f01a8 	ldr	r0, [pc, #424]	; f0001b74 <jump_to_resume0_nommu+0x74>
f00019c8:	e5901000 	ldr	r1, [r0]
f00019cc:	e59f01a4 	ldr	r0, [pc, #420]	; f0001b78 <jump_to_resume0_nommu+0x78>
f00019d0:	e5901000 	ldr	r1, [r0]
f00019d4:	e59f01a0 	ldr	r0, [pc, #416]	; f0001b7c <jump_to_resume0_nommu+0x7c>
f00019d8:	e5901000 	ldr	r1, [r0]
f00019dc:	e59f019c 	ldr	r0, [pc, #412]	; f0001b80 <jump_to_resume0_nommu+0x80>
f00019e0:	e5901000 	ldr	r1, [r0]
f00019e4:	e59f0198 	ldr	r0, [pc, #408]	; f0001b84 <jump_to_resume0_nommu+0x84>
f00019e8:	e5901000 	ldr	r1, [r0]
f00019ec:	e59f0194 	ldr	r0, [pc, #404]	; f0001b88 <jump_to_resume0_nommu+0x88>
f00019f0:	e5901000 	ldr	r1, [r0]
f00019f4:	e59f0190 	ldr	r0, [pc, #400]	; f0001b8c <jump_to_resume0_nommu+0x8c>
f00019f8:	e5901000 	ldr	r1, [r0]
f00019fc:	e59f018c 	ldr	r0, [pc, #396]	; f0001b90 <jump_to_resume0_nommu+0x90>
f0001a00:	e5901000 	ldr	r1, [r0]
f0001a04:	e59f0188 	ldr	r0, [pc, #392]	; f0001b94 <jump_to_resume0_nommu+0x94>
f0001a08:	e5901000 	ldr	r1, [r0]
f0001a0c:	e59f0184 	ldr	r0, [pc, #388]	; f0001b98 <jump_to_resume0_nommu+0x98>
f0001a10:	e5901000 	ldr	r1, [r0]
f0001a14:	e59f0180 	ldr	r0, [pc, #384]	; f0001b9c <jump_to_resume0_nommu+0x9c>
f0001a18:	e5901000 	ldr	r1, [r0]
f0001a1c:	e59f017c 	ldr	r0, [pc, #380]	; f0001ba0 <jump_to_resume0_nommu+0xa0>
f0001a20:	e5901000 	ldr	r1, [r0]
f0001a24:	e59f0178 	ldr	r0, [pc, #376]	; f0001ba4 <jump_to_resume0_nommu+0xa4>
f0001a28:	e5901000 	ldr	r1, [r0]
f0001a2c:	e59f0174 	ldr	r0, [pc, #372]	; f0001ba8 <jump_to_resume0_nommu+0xa8>
f0001a30:	e5901000 	ldr	r1, [r0]
f0001a34:	e59f0170 	ldr	r0, [pc, #368]	; f0001bac <jump_to_resume0_nommu+0xac>
f0001a38:	e5901000 	ldr	r1, [r0]
f0001a3c:	f57ff04f 	dsb	sy
f0001a40:	f57ff06f 	isb	sy
f0001a44:	e8bd000f 	pop	{r0, r1, r2, r3}
f0001a48:	e1a0f00e 	mov	pc, lr

f0001a4c <disable_mmu>:
f0001a4c:	ee111f10 	mrc	15, 0, r1, cr1, cr0, {0}
f0001a50:	e3c11a01 	bic	r1, r1, #4096	; 0x1000
f0001a54:	e3c11005 	bic	r1, r1, #5
f0001a58:	ea000000 	b	f0001a60 <__turn_mmu_off>
f0001a5c:	e320f000 	nop	{0}

f0001a60 <__turn_mmu_off>:
f0001a60:	ee011f10 	mcr	15, 0, r1, cr1, cr0, {0}
f0001a64:	ee103f10 	mrc	15, 0, r3, cr0, cr0, {0}
f0001a68:	e1a03003 	mov	r3, r3
f0001a6c:	e1a03003 	mov	r3, r3
f0001a70:	e1a0f00e 	mov	pc, lr

f0001a74 <enable_mmu>:
f0001a74:	ee111f10 	mrc	15, 0, r1, cr1, cr0, {0}
f0001a78:	e3811a01 	orr	r1, r1, #4096	; 0x1000
f0001a7c:	e3811005 	orr	r1, r1, #5
f0001a80:	ea000006 	b	f0001aa0 <__turn_mmu_on>
f0001a84:	e320f000 	nop	{0}
f0001a88:	e320f000 	nop	{0}
f0001a8c:	e320f000 	nop	{0}
f0001a90:	e320f000 	nop	{0}
f0001a94:	e320f000 	nop	{0}
f0001a98:	e320f000 	nop	{0}
f0001a9c:	e320f000 	nop	{0}

f0001aa0 <__turn_mmu_on>:
f0001aa0:	ee011f10 	mcr	15, 0, r1, cr1, cr0, {0}
f0001aa4:	ee103f10 	mrc	15, 0, r3, cr0, cr0, {0}
f0001aa8:	e1a03003 	mov	r3, r3
f0001aac:	e1a03003 	mov	r3, r3
f0001ab0:	e1a0f00e 	mov	pc, lr

f0001ab4 <jump_to_suspend>:
f0001ab4:	ee020f10 	mcr	15, 0, r0, cr2, cr0, {0}
f0001ab8:	f57ff04f 	dsb	sy
f0001abc:	f57ff06f 	isb	sy
f0001ac0:	e1a0f001 	mov	pc, r1
f0001ac4:	e320f000 	nop	{0}
f0001ac8:	e320f000 	nop	{0}
f0001acc:	e320f000 	nop	{0}

f0001ad0 <jump_to_resume>:
f0001ad0:	e1a0c000 	mov	ip, r0
f0001ad4:	e1a08001 	mov	r8, r1
f0001ad8:	ebfffef4 	bl	f00016b0 <invalidate_dcache>
f0001adc:	e1a01008 	mov	r1, r8
f0001ae0:	e1a0e00c 	mov	lr, ip
f0001ae4:	e8913fff 	ldm	r1, {r0, r1, r2, r3, r4, r5, r6, r7, r8, r9, sl, fp, ip, sp}
f0001ae8:	e1a0f00e 	mov	pc, lr
f0001aec:	e320f000 	nop	{0}

f0001af0 <jump_to_resume0>:
f0001af0:	e1a0e000 	mov	lr, r0
f0001af4:	e1a0f00e 	mov	pc, lr
f0001af8:	e320f000 	nop	{0}
f0001afc:	e320f000 	nop	{0}

f0001b00 <jump_to_resume0_nommu>:
f0001b00:	ee111f10 	mrc	15, 0, r1, cr1, cr0, {0}
f0001b04:	e3c11a01 	bic	r1, r1, #4096	; 0x1000
f0001b08:	e3c11007 	bic	r1, r1, #7
f0001b0c:	ee011f10 	mcr	15, 0, r1, cr1, cr0, {0}
f0001b10:	ee103f10 	mrc	15, 0, r3, cr0, cr0, {0}
f0001b14:	e1a03003 	mov	r3, r3
f0001b18:	e1a03003 	mov	r3, r3
f0001b1c:	e1a0e000 	mov	lr, r0
f0001b20:	f57ff06f 	isb	sy
f0001b24:	e1a0f00e 	mov	pc, lr
f0001b28:	f0003ffc 			; <UNDEFINED> instruction: 0xf0003ffc
f0001b2c:	00003ffc 	strdeq	r3, [r0], -ip
f0001b30:	000003ff 	strdeq	r0, [r0], -pc	; <UNPREDICTABLE>
f0001b34:	00007fff 	strdeq	r7, [r0], -pc	; <UNPREDICTABLE>
f0001b38:	f0001000 			; <UNDEFINED> instruction: 0xf0001000
f0001b3c:	f0002000 			; <UNDEFINED> instruction: 0xf0002000
f0001b40:	f0003000 			; <UNDEFINED> instruction: 0xf0003000
f0001b44:	f0040000 			; <UNDEFINED> instruction: 0xf0040000
f0001b48:	f0041000 			; <UNDEFINED> instruction: 0xf0041000
f0001b4c:	f0042000 			; <UNDEFINED> instruction: 0xf0042000
f0001b50:	f0043000 			; <UNDEFINED> instruction: 0xf0043000
f0001b54:	f0044000 			; <UNDEFINED> instruction: 0xf0044000
f0001b58:	f0045000 			; <UNDEFINED> instruction: 0xf0045000
f0001b5c:	f0046000 			; <UNDEFINED> instruction: 0xf0046000
f0001b60:	f0047000 			; <UNDEFINED> instruction: 0xf0047000
f0001b64:	f0048000 			; <UNDEFINED> instruction: 0xf0048000
f0001b68:	f0049000 			; <UNDEFINED> instruction: 0xf0049000
f0001b6c:	f004a000 			; <UNDEFINED> instruction: 0xf004a000
f0001b70:	f004b000 			; <UNDEFINED> instruction: 0xf004b000
f0001b74:	f004c000 			; <UNDEFINED> instruction: 0xf004c000
f0001b78:	f004d000 			; <UNDEFINED> instruction: 0xf004d000
f0001b7c:	f004e000 			; <UNDEFINED> instruction: 0xf004e000
f0001b80:	f004f000 			; <UNDEFINED> instruction: 0xf004f000
f0001b84:	f0050000 			; <UNDEFINED> instruction: 0xf0050000
f0001b88:	f0051000 			; <UNDEFINED> instruction: 0xf0051000
f0001b8c:	f0052000 			; <UNDEFINED> instruction: 0xf0052000
f0001b90:	f0053000 			; <UNDEFINED> instruction: 0xf0053000
f0001b94:	f1c17000 			; <UNDEFINED> instruction: 0xf1c17000
f0001b98:	f1c18000 			; <UNDEFINED> instruction: 0xf1c18000
f0001b9c:	f1c20800 			; <UNDEFINED> instruction: 0xf1c20800
f0001ba0:	f1f01400 			; <UNDEFINED> instruction: 0xf1f01400
f0001ba4:	f1c28000 			; <UNDEFINED> instruction: 0xf1c28000
f0001ba8:	f1f00000 			; <UNDEFINED> instruction: 0xf1f00000
f0001bac:	f1c20000 			; <UNDEFINED> instruction: 0xf1c20000
f0001bb0:	e320f000 	nop	{0}
f0001bb4:	e320f000 	nop	{0}
f0001bb8:	e320f000 	nop	{0}
f0001bbc:	e320f000 	nop	{0}

f0001bc0 <set_serial_clk>:
f0001bc0:	e92d4038 	push	{r3, r4, r5, lr}
f0001bc4:	e1a04000 	mov	r4, r0
f0001bc8:	eb000474 	bl	f0002da0 <mem_get_ba>
f0001bcc:	e1a03000 	mov	r3, r0
f0001bd0:	e5902058 	ldr	r2, [r0, #88]	; 0x58
f0001bd4:	e7e12c52 	ubfx	r2, r2, #24, #2
f0001bd8:	e3520003 	cmp	r2, #3
f0001bdc:	159f1094 	ldrne	r1, [pc, #148]	; f0001c78 <set_serial_clk+0xb8>
f0001be0:	03a00000 	moveq	r0, #0
f0001be4:	17910102 	ldrne	r0, [r1, r2, lsl #2]
f0001be8:	e5931058 	ldr	r1, [r3, #88]	; 0x58
f0001bec:	e5933058 	ldr	r3, [r3, #88]	; 0x58
f0001bf0:	e201101f 	and	r1, r1, #31
f0001bf4:	e7e13853 	ubfx	r3, r3, #16, #2
f0001bf8:	e2811001 	add	r1, r1, #1
f0001bfc:	e1a01311 	lsl	r1, r1, r3
f0001c00:	eb000315 	bl	f000285c <__aeabi_uidiv>
f0001c04:	e3540000 	cmp	r4, #0
f0001c08:	e3a04000 	mov	r4, #0
f0001c0c:	134f41c2 	movtne	r4, #61890	; 0xf1c2
f0001c10:	159f3064 	ldrne	r3, [pc, #100]	; f0001c7c <set_serial_clk+0xbc>
f0001c14:	1594206c 	ldrne	r2, [r4, #108]	; 0x6c
f0001c18:	034041c2 	movteq	r4, #450	; 0x1c2
f0001c1c:	e1a05000 	mov	r5, r0
f0001c20:	15832000 	strne	r2, [r3]
f0001c24:	159422d8 	ldrne	r2, [r4, #728]	; 0x2d8
f0001c28:	15832004 	strne	r2, [r3, #4]
f0001c2c:	159428b4 	ldrne	r2, [r4, #2228]	; 0x8b4
f0001c30:	15832008 	strne	r2, [r3, #8]
f0001c34:	e59432d8 	ldr	r3, [r4, #728]	; 0x2d8
f0001c38:	e3c33801 	bic	r3, r3, #65536	; 0x10000
f0001c3c:	e58432d8 	str	r3, [r4, #728]	; 0x2d8
f0001c40:	e59432d8 	ldr	r3, [r4, #728]	; 0x2d8
f0001c44:	e3833801 	orr	r3, r3, #65536	; 0x10000
f0001c48:	e58432d8 	str	r3, [r4, #728]	; 0x2d8
f0001c4c:	ebfffe15 	bl	f00014a8 <change_runtime_env>
f0001c50:	e3a00001 	mov	r0, #1
f0001c54:	ebfffe1d 	bl	f00014d0 <delay_us>
f0001c58:	e594306c 	ldr	r3, [r4, #108]	; 0x6c
f0001c5c:	e1a00005 	mov	r0, r5
f0001c60:	e3c33801 	bic	r3, r3, #65536	; 0x10000
f0001c64:	e584306c 	str	r3, [r4, #108]	; 0x6c
f0001c68:	e594306c 	ldr	r3, [r4, #108]	; 0x6c
f0001c6c:	e3833801 	orr	r3, r3, #65536	; 0x10000
f0001c70:	e584306c 	str	r3, [r4, #108]	; 0x6c
f0001c74:	e8bd8038 	pop	{r3, r4, r5, pc}
f0001c78:	f000311c 			; <UNDEFINED> instruction: 0xf000311c
f0001c7c:	f00034b4 			; <UNDEFINED> instruction: 0xf00034b4

f0001c80 <serial_init_nommu>:
f0001c80:	e92d4038 	push	{r3, r4, r5, lr}
f0001c84:	e3a03000 	mov	r3, #0
f0001c88:	e1a00003 	mov	r0, r3
f0001c8c:	e34031c2 	movt	r3, #450	; 0x1c2
f0001c90:	e59328b4 	ldr	r2, [r3, #2228]	; 0x8b4
f0001c94:	e3c22807 	bic	r2, r2, #458752	; 0x70000
f0001c98:	e3c22c07 	bic	r2, r2, #1792	; 0x700
f0001c9c:	e58328b4 	str	r2, [r3, #2228]	; 0x8b4
f0001ca0:	e59328b4 	ldr	r2, [r3, #2228]	; 0x8b4
f0001ca4:	e3822803 	orr	r2, r2, #196608	; 0x30000
f0001ca8:	e3822c03 	orr	r2, r2, #768	; 0x300
f0001cac:	e58328b4 	str	r2, [r3, #2228]	; 0x8b4
f0001cb0:	ebffffc2 	bl	f0001bc0 <set_serial_clk>
f0001cb4:	e30b33c5 	movw	r3, #46021	; 0xb3c5
f0001cb8:	e2800ae1 	add	r0, r0, #921600	; 0xe1000
f0001cbc:	e34931a2 	movt	r3, #37282	; 0x91a2
f0001cc0:	e3a02902 	mov	r2, #32768	; 0x8000
f0001cc4:	e0831093 	umull	r1, r3, r3, r0
f0001cc8:	e34021c2 	movt	r2, #450	; 0x1c2
f0001ccc:	e592000c 	ldr	r0, [r2, #12]
f0001cd0:	e3a0c001 	mov	ip, #1
f0001cd4:	e582c0a4 	str	ip, [r2, #164]	; 0xa4
f0001cd8:	e30314b4 	movw	r1, #13492	; 0x34b4
f0001cdc:	e34f1000 	movt	r1, #61440	; 0xf000
f0001ce0:	e3805080 	orr	r5, r0, #128	; 0x80
f0001ce4:	e3c00080 	bic	r0, r0, #128	; 0x80
f0001ce8:	e1a04e23 	lsr	r4, r3, #28
f0001cec:	e7e73a53 	ubfx	r3, r3, #20, #8
f0001cf0:	e582500c 	str	r5, [r2, #12]
f0001cf4:	e5824004 	str	r4, [r2, #4]
f0001cf8:	e5823000 	str	r3, [r2]
f0001cfc:	e3a03000 	mov	r3, #0
f0001d00:	e582000c 	str	r0, [r2, #12]
f0001d04:	e58230a4 	str	r3, [r2, #164]	; 0xa4
f0001d08:	e3a03003 	mov	r3, #3
f0001d0c:	e582300c 	str	r3, [r2, #12]
f0001d10:	e3a030e1 	mov	r3, #225	; 0xe1
f0001d14:	e5823008 	str	r3, [r2, #8]
f0001d18:	e581c00c 	str	ip, [r1, #12]
f0001d1c:	e8bd8038 	pop	{r3, r4, r5, pc}

f0001d20 <serial_puts_nommu>:
f0001d20:	e59f3084 	ldr	r3, [pc, #132]	; f0001dac <serial_puts_nommu+0x8c>
f0001d24:	e52d4004 	push	{r4}		; (str r4, [sp, #-4]!)
f0001d28:	e593300c 	ldr	r3, [r3, #12]
f0001d2c:	e3530000 	cmp	r3, #0
f0001d30:	03e00000 	mvneq	r0, #0
f0001d34:	0a000013 	beq	f0001d88 <serial_puts_nommu+0x68>
f0001d38:	e5d03000 	ldrb	r3, [r0]
f0001d3c:	e3530000 	cmp	r3, #0
f0001d40:	0a00000f 	beq	f0001d84 <serial_puts_nommu+0x64>
f0001d44:	e3a01902 	mov	r1, #32768	; 0x8000
f0001d48:	e2400001 	sub	r0, r0, #1
f0001d4c:	e34011c2 	movt	r1, #450	; 0x1c2
f0001d50:	e3a0400d 	mov	r4, #13
f0001d54:	e353000a 	cmp	r3, #10
f0001d58:	0a00000c 	beq	f0001d90 <serial_puts_nommu+0x70>
f0001d5c:	e5f0c001 	ldrb	ip, [r0, #1]!
f0001d60:	e591207c 	ldr	r2, [r1, #124]	; 0x7c
f0001d64:	e3a03902 	mov	r3, #32768	; 0x8000
f0001d68:	e34031c2 	movt	r3, #450	; 0x1c2
f0001d6c:	e3120002 	tst	r2, #2
f0001d70:	0afffffa 	beq	f0001d60 <serial_puts_nommu+0x40>
f0001d74:	e583c000 	str	ip, [r3]
f0001d78:	e5d03001 	ldrb	r3, [r0, #1]
f0001d7c:	e3530000 	cmp	r3, #0
f0001d80:	1afffff3 	bne	f0001d54 <serial_puts_nommu+0x34>
f0001d84:	e1a00003 	mov	r0, r3
f0001d88:	e8bd0010 	pop	{r4}
f0001d8c:	e12fff1e 	bx	lr
f0001d90:	e591207c 	ldr	r2, [r1, #124]	; 0x7c
f0001d94:	e3a03902 	mov	r3, #32768	; 0x8000
f0001d98:	e34031c2 	movt	r3, #450	; 0x1c2
f0001d9c:	e3120002 	tst	r2, #2
f0001da0:	0afffffa 	beq	f0001d90 <serial_puts_nommu+0x70>
f0001da4:	e5834000 	str	r4, [r3]
f0001da8:	eaffffeb 	b	f0001d5c <serial_puts_nommu+0x3c>
f0001dac:	f00034b4 			; <UNDEFINED> instruction: 0xf00034b4

f0001db0 <serial_gets_nommu>:
f0001db0:	e59f3080 	ldr	r3, [pc, #128]	; f0001e38 <serial_gets_nommu+0x88>
f0001db4:	e52d4004 	push	{r4}		; (str r4, [sp, #-4]!)
f0001db8:	e593300c 	ldr	r3, [r3, #12]
f0001dbc:	e3530000 	cmp	r3, #0
f0001dc0:	03e00000 	mvneq	r0, #0
f0001dc4:	1a000001 	bne	f0001dd0 <serial_gets_nommu+0x20>
f0001dc8:	e8bd0010 	pop	{r4}
f0001dcc:	e12fff1e 	bx	lr
f0001dd0:	e3510000 	cmp	r1, #0
f0001dd4:	03a00001 	moveq	r0, #1
f0001dd8:	0afffffa 	beq	f0001dc8 <serial_gets_nommu+0x18>
f0001ddc:	e3a0c902 	mov	ip, #32768	; 0x8000
f0001de0:	e3a04000 	mov	r4, #0
f0001de4:	e340c1c2 	movt	ip, #450	; 0x1c2
f0001de8:	e30f3fff 	movw	r3, #65535	; 0xffff
f0001dec:	ea000001 	b	f0001df8 <serial_gets_nommu+0x48>
f0001df0:	e2533001 	subs	r3, r3, #1
f0001df4:	3a000006 	bcc	f0001e14 <serial_gets_nommu+0x64>
f0001df8:	e59c207c 	ldr	r2, [ip, #124]	; 0x7c
f0001dfc:	e3120008 	tst	r2, #8
f0001e00:	0afffffa 	beq	f0001df0 <serial_gets_nommu+0x40>
f0001e04:	e3530000 	cmp	r3, #0
f0001e08:	1a000001 	bne	f0001e14 <serial_gets_nommu+0x64>
f0001e0c:	e2840001 	add	r0, r4, #1
f0001e10:	eaffffec 	b	f0001dc8 <serial_gets_nommu+0x18>
f0001e14:	e59c3000 	ldr	r3, [ip]
f0001e18:	e6ef3073 	uxtb	r3, r3
f0001e1c:	e3530000 	cmp	r3, #0
f0001e20:	0afffff9 	beq	f0001e0c <serial_gets_nommu+0x5c>
f0001e24:	e7c03004 	strb	r3, [r0, r4]
f0001e28:	e2844001 	add	r4, r4, #1
f0001e2c:	e1540001 	cmp	r4, r1
f0001e30:	1affffec 	bne	f0001de8 <serial_gets_nommu+0x38>
f0001e34:	eafffff4 	b	f0001e0c <serial_gets_nommu+0x5c>
f0001e38:	f00034b4 			; <UNDEFINED> instruction: 0xf00034b4

f0001e3c <serial_init>:
f0001e3c:	e92d4038 	push	{r3, r4, r5, lr}
f0001e40:	e3a03000 	mov	r3, #0
f0001e44:	e34f31c2 	movt	r3, #61890	; 0xf1c2
f0001e48:	e3a00001 	mov	r0, #1
f0001e4c:	e59328b4 	ldr	r2, [r3, #2228]	; 0x8b4
f0001e50:	e3c22807 	bic	r2, r2, #458752	; 0x70000
f0001e54:	e3c22c07 	bic	r2, r2, #1792	; 0x700
f0001e58:	e58328b4 	str	r2, [r3, #2228]	; 0x8b4
f0001e5c:	e59328b4 	ldr	r2, [r3, #2228]	; 0x8b4
f0001e60:	e3822803 	orr	r2, r2, #196608	; 0x30000
f0001e64:	e3822c03 	orr	r2, r2, #768	; 0x300
f0001e68:	e58328b4 	str	r2, [r3, #2228]	; 0x8b4
f0001e6c:	ebffff53 	bl	f0001bc0 <set_serial_clk>
f0001e70:	e30b33c5 	movw	r3, #46021	; 0xb3c5
f0001e74:	e2800ae1 	add	r0, r0, #921600	; 0xe1000
f0001e78:	e34931a2 	movt	r3, #37282	; 0x91a2
f0001e7c:	e3a02902 	mov	r2, #32768	; 0x8000
f0001e80:	e0831093 	umull	r1, r3, r3, r0
f0001e84:	e34f21c2 	movt	r2, #61890	; 0xf1c2
f0001e88:	e592000c 	ldr	r0, [r2, #12]
f0001e8c:	e3a0c001 	mov	ip, #1
f0001e90:	e582c0a4 	str	ip, [r2, #164]	; 0xa4
f0001e94:	e30314b4 	movw	r1, #13492	; 0x34b4
f0001e98:	e34f1000 	movt	r1, #61440	; 0xf000
f0001e9c:	e3805080 	orr	r5, r0, #128	; 0x80
f0001ea0:	e3c00080 	bic	r0, r0, #128	; 0x80
f0001ea4:	e1a04e23 	lsr	r4, r3, #28
f0001ea8:	e7e73a53 	ubfx	r3, r3, #20, #8
f0001eac:	e582500c 	str	r5, [r2, #12]
f0001eb0:	e5824004 	str	r4, [r2, #4]
f0001eb4:	e5823000 	str	r3, [r2]
f0001eb8:	e3a03000 	mov	r3, #0
f0001ebc:	e582000c 	str	r0, [r2, #12]
f0001ec0:	e58230a4 	str	r3, [r2, #164]	; 0xa4
f0001ec4:	e3a03003 	mov	r3, #3
f0001ec8:	e582300c 	str	r3, [r2, #12]
f0001ecc:	e3a030e1 	mov	r3, #225	; 0xe1
f0001ed0:	e5823008 	str	r3, [r2, #8]
f0001ed4:	e581c00c 	str	ip, [r1, #12]
f0001ed8:	e8bd8038 	pop	{r3, r4, r5, pc}

f0001edc <serial_exit>:
f0001edc:	e30334b4 	movw	r3, #13492	; 0x34b4
f0001ee0:	e3a02000 	mov	r2, #0
f0001ee4:	e34f3000 	movt	r3, #61440	; 0xf000
f0001ee8:	e34f21c2 	movt	r2, #61890	; 0xf1c2
f0001eec:	e5931000 	ldr	r1, [r3]
f0001ef0:	e582106c 	str	r1, [r2, #108]	; 0x6c
f0001ef4:	e5931004 	ldr	r1, [r3, #4]
f0001ef8:	e58212d8 	str	r1, [r2, #728]	; 0x2d8
f0001efc:	e5931008 	ldr	r1, [r3, #8]
f0001f00:	e58218b4 	str	r1, [r2, #2228]	; 0x8b4
f0001f04:	e3a02000 	mov	r2, #0
f0001f08:	e583200c 	str	r2, [r3, #12]
f0001f0c:	e12fff1e 	bx	lr

f0001f10 <serial_puts>:
f0001f10:	e59f3084 	ldr	r3, [pc, #132]	; f0001f9c <serial_puts+0x8c>
f0001f14:	e52d4004 	push	{r4}		; (str r4, [sp, #-4]!)
f0001f18:	e593300c 	ldr	r3, [r3, #12]
f0001f1c:	e3530000 	cmp	r3, #0
f0001f20:	03e00000 	mvneq	r0, #0
f0001f24:	0a000013 	beq	f0001f78 <serial_puts+0x68>
f0001f28:	e5d03000 	ldrb	r3, [r0]
f0001f2c:	e3530000 	cmp	r3, #0
f0001f30:	0a00000f 	beq	f0001f74 <serial_puts+0x64>
f0001f34:	e3a01902 	mov	r1, #32768	; 0x8000
f0001f38:	e2400001 	sub	r0, r0, #1
f0001f3c:	e34f11c2 	movt	r1, #61890	; 0xf1c2
f0001f40:	e3a0400d 	mov	r4, #13
f0001f44:	e353000a 	cmp	r3, #10
f0001f48:	0a00000c 	beq	f0001f80 <serial_puts+0x70>
f0001f4c:	e5f0c001 	ldrb	ip, [r0, #1]!
f0001f50:	e591207c 	ldr	r2, [r1, #124]	; 0x7c
f0001f54:	e3a03902 	mov	r3, #32768	; 0x8000
f0001f58:	e34f31c2 	movt	r3, #61890	; 0xf1c2
f0001f5c:	e3120002 	tst	r2, #2
f0001f60:	0afffffa 	beq	f0001f50 <serial_puts+0x40>
f0001f64:	e583c000 	str	ip, [r3]
f0001f68:	e5d03001 	ldrb	r3, [r0, #1]
f0001f6c:	e3530000 	cmp	r3, #0
f0001f70:	1afffff3 	bne	f0001f44 <serial_puts+0x34>
f0001f74:	e1a00003 	mov	r0, r3
f0001f78:	e8bd0010 	pop	{r4}
f0001f7c:	e12fff1e 	bx	lr
f0001f80:	e591207c 	ldr	r2, [r1, #124]	; 0x7c
f0001f84:	e3a03902 	mov	r3, #32768	; 0x8000
f0001f88:	e34f31c2 	movt	r3, #61890	; 0xf1c2
f0001f8c:	e3120002 	tst	r2, #2
f0001f90:	0afffffa 	beq	f0001f80 <serial_puts+0x70>
f0001f94:	e5834000 	str	r4, [r3]
f0001f98:	eaffffeb 	b	f0001f4c <serial_puts+0x3c>
f0001f9c:	f00034b4 			; <UNDEFINED> instruction: 0xf00034b4

f0001fa0 <serial_gets>:
f0001fa0:	e59f3080 	ldr	r3, [pc, #128]	; f0002028 <serial_gets+0x88>
f0001fa4:	e52d4004 	push	{r4}		; (str r4, [sp, #-4]!)
f0001fa8:	e593300c 	ldr	r3, [r3, #12]
f0001fac:	e3530000 	cmp	r3, #0
f0001fb0:	03e00000 	mvneq	r0, #0
f0001fb4:	1a000001 	bne	f0001fc0 <serial_gets+0x20>
f0001fb8:	e8bd0010 	pop	{r4}
f0001fbc:	e12fff1e 	bx	lr
f0001fc0:	e3510000 	cmp	r1, #0
f0001fc4:	03a00001 	moveq	r0, #1
f0001fc8:	0afffffa 	beq	f0001fb8 <serial_gets+0x18>
f0001fcc:	e3a0c902 	mov	ip, #32768	; 0x8000
f0001fd0:	e3a04000 	mov	r4, #0
f0001fd4:	e34fc1c2 	movt	ip, #61890	; 0xf1c2
f0001fd8:	e30f3fff 	movw	r3, #65535	; 0xffff
f0001fdc:	ea000001 	b	f0001fe8 <serial_gets+0x48>
f0001fe0:	e2533001 	subs	r3, r3, #1
f0001fe4:	3a000006 	bcc	f0002004 <serial_gets+0x64>
f0001fe8:	e59c207c 	ldr	r2, [ip, #124]	; 0x7c
f0001fec:	e3120008 	tst	r2, #8
f0001ff0:	0afffffa 	beq	f0001fe0 <serial_gets+0x40>
f0001ff4:	e3530000 	cmp	r3, #0
f0001ff8:	1a000001 	bne	f0002004 <serial_gets+0x64>
f0001ffc:	e2840001 	add	r0, r4, #1
f0002000:	eaffffec 	b	f0001fb8 <serial_gets+0x18>
f0002004:	e59c3000 	ldr	r3, [ip]
f0002008:	e6ef3073 	uxtb	r3, r3
f000200c:	e3530000 	cmp	r3, #0
f0002010:	0afffff9 	beq	f0001ffc <serial_gets+0x5c>
f0002014:	e7c03004 	strb	r3, [r0, r4]
f0002018:	e2844001 	add	r4, r4, #1
f000201c:	e1540001 	cmp	r4, r1
f0002020:	1affffec 	bne	f0001fd8 <serial_gets+0x38>
f0002024:	eafffff4 	b	f0001ffc <serial_gets+0x5c>
f0002028:	f00034b4 			; <UNDEFINED> instruction: 0xf00034b4

f000202c <utoa>:
f000202c:	e92d45f0 	push	{r4, r5, r6, r7, r8, sl, lr}
f0002030:	e3500000 	cmp	r0, #0
f0002034:	e59f60a8 	ldr	r6, [pc, #168]	; f00020e4 <utoa+0xb8>
f0002038:	e1a07001 	mov	r7, r1
f000203c:	e1a04000 	mov	r4, r0
f0002040:	e1a05002 	mov	r5, r2
f0002044:	e24dd02c 	sub	sp, sp, #44	; 0x2c
f0002048:	13a08000 	movne	r8, #0
f000204c:	e28dc004 	add	ip, sp, #4
f0002050:	128da018 	addne	sl, sp, #24
f0002054:	e8b6000f 	ldm	r6!, {r0, r1, r2, r3}
f0002058:	e5966000 	ldr	r6, [r6]
f000205c:	e8ac000f 	stmia	ip!, {r0, r1, r2, r3}
f0002060:	03a03030 	moveq	r3, #48	; 0x30
f0002064:	05c74001 	strbeq	r4, [r7, #1]
f0002068:	e5cc6000 	strb	r6, [ip]
f000206c:	05c73000 	strbeq	r3, [r7]
f0002070:	1a000001 	bne	f000207c <utoa+0x50>
f0002074:	ea000017 	b	f00020d8 <utoa+0xac>
f0002078:	e1a08003 	mov	r8, r3
f000207c:	e1a00004 	mov	r0, r4
f0002080:	e1a01005 	mov	r1, r5
f0002084:	eb00024e 	bl	f00029c4 <__aeabi_uidivmod>
f0002088:	e28d3028 	add	r3, sp, #40	; 0x28
f000208c:	e1a00004 	mov	r0, r4
f0002090:	e0831001 	add	r1, r3, r1
f0002094:	e5516024 	ldrb	r6, [r1, #-36]	; 0x24
f0002098:	e1a01005 	mov	r1, r5
f000209c:	e7ca6008 	strb	r6, [sl, r8]
f00020a0:	eb0001ed 	bl	f000285c <__aeabi_uidiv>
f00020a4:	e2504000 	subs	r4, r0, #0
f00020a8:	e2883001 	add	r3, r8, #1
f00020ac:	1afffff1 	bne	f0002078 <utoa+0x4c>
f00020b0:	e2472001 	sub	r2, r7, #1
f00020b4:	e08a3008 	add	r3, sl, r8
f00020b8:	ea000000 	b	f00020c0 <utoa+0x94>
f00020bc:	e5736001 	ldrb	r6, [r3, #-1]!
f00020c0:	e153000a 	cmp	r3, sl
f00020c4:	e5e26001 	strb	r6, [r2, #1]!
f00020c8:	1afffffb 	bne	f00020bc <utoa+0x90>
f00020cc:	e0878008 	add	r8, r7, r8
f00020d0:	e3a03000 	mov	r3, #0
f00020d4:	e5c83001 	strb	r3, [r8, #1]
f00020d8:	e1a00007 	mov	r0, r7
f00020dc:	e28dd02c 	add	sp, sp, #44	; 0x2c
f00020e0:	e8bd85f0 	pop	{r4, r5, r6, r7, r8, sl, pc}
f00020e4:	f0003338 			; <UNDEFINED> instruction: 0xf0003338

f00020e8 <print_align>:
f00020e8:	e92d00f0 	push	{r4, r5, r6, r7}
f00020ec:	e1510002 	cmp	r1, r2
f00020f0:	e59f4094 	ldr	r4, [pc, #148]	; f000218c <print_align+0xa4>
f00020f4:	e1a07001 	mov	r7, r1
f00020f8:	e1a06002 	mov	r6, r2
f00020fc:	e1a05000 	mov	r5, r0
f0002100:	e24dd018 	sub	sp, sp, #24
f0002104:	e28dc004 	add	ip, sp, #4
f0002108:	e8b4000f 	ldm	r4!, {r0, r1, r2, r3}
f000210c:	e5944000 	ldr	r4, [r4]
f0002110:	e8ac000f 	stmia	ip!, {r0, r1, r2, r3}
f0002114:	a3a00000 	movge	r0, #0
f0002118:	e5cc4000 	strb	r4, [ip]
f000211c:	aa000017 	bge	f0002180 <print_align+0x98>
f0002120:	e0670006 	rsb	r0, r7, r6
f0002124:	e3500000 	cmp	r0, #0
f0002128:	e1a01000 	mov	r1, r0
f000212c:	0a000013 	beq	f0002180 <print_align+0x98>
f0002130:	e5d53000 	ldrb	r3, [r5]
f0002134:	e3530000 	cmp	r3, #0
f0002138:	0a000005 	beq	f0002154 <print_align+0x6c>
f000213c:	e1a03005 	mov	r3, r5
f0002140:	e2833001 	add	r3, r3, #1
f0002144:	e5d32000 	ldrb	r2, [r3]
f0002148:	e1a05003 	mov	r5, r3
f000214c:	e3520000 	cmp	r2, #0
f0002150:	1afffffa 	bne	f0002140 <print_align+0x58>
f0002154:	e28dc003 	add	ip, sp, #3
f0002158:	ea000000 	b	f0002160 <print_align+0x78>
f000215c:	e1a05003 	mov	r5, r3
f0002160:	e5fc2001 	ldrb	r2, [ip, #1]!
f0002164:	e1a03005 	mov	r3, r5
f0002168:	e3520000 	cmp	r2, #0
f000216c:	e4c32001 	strb	r2, [r3], #1
f0002170:	0a000002 	beq	f0002180 <print_align+0x98>
f0002174:	e2511001 	subs	r1, r1, #1
f0002178:	1afffff7 	bne	f000215c <print_align+0x74>
f000217c:	e5c51001 	strb	r1, [r5, #1]
f0002180:	e28dd018 	add	sp, sp, #24
f0002184:	e8bd00f0 	pop	{r4, r5, r6, r7}
f0002188:	e12fff1e 	bx	lr
f000218c:	f000334c 			; <UNDEFINED> instruction: 0xf000334c

f0002190 <itoa.constprop.0>:
f0002190:	e92d01f0 	push	{r4, r5, r6, r7, r8}
f0002194:	e3500000 	cmp	r0, #0
f0002198:	e59f50d4 	ldr	r5, [pc, #212]	; f0002274 <itoa.constprop.0+0xe4>
f000219c:	e1a06001 	mov	r6, r1
f00021a0:	e1a0c000 	mov	ip, r0
f00021a4:	e24dd02c 	sub	sp, sp, #44	; 0x2c
f00021a8:	e28d4004 	add	r4, sp, #4
f00021ac:	e8b5000f 	ldm	r5!, {r0, r1, r2, r3}
f00021b0:	e5955000 	ldr	r5, [r5]
f00021b4:	e8a4000f 	stmia	r4!, {r0, r1, r2, r3}
f00021b8:	03a03030 	moveq	r3, #48	; 0x30
f00021bc:	05c6c001 	strbeq	ip, [r6, #1]
f00021c0:	e5c45000 	strb	r5, [r4]
f00021c4:	05c63000 	strbeq	r3, [r6]
f00021c8:	0a000025 	beq	f0002264 <itoa.constprop.0+0xd4>
f00021cc:	e3065667 	movw	r5, #26215	; 0x6667
f00021d0:	b26cc000 	rsblt	ip, ip, #0
f00021d4:	b3a07001 	movlt	r7, #1
f00021d8:	a3a07000 	movge	r7, #0
f00021dc:	e3a03000 	mov	r3, #0
f00021e0:	e28d0018 	add	r0, sp, #24
f00021e4:	e3465666 	movt	r5, #26214	; 0x6666
f00021e8:	ea000000 	b	f00021f0 <itoa.constprop.0+0x60>
f00021ec:	e1a03004 	mov	r3, r4
f00021f0:	e0c12c95 	smull	r2, r1, r5, ip
f00021f4:	e1a02fcc 	asr	r2, ip, #31
f00021f8:	e28d8028 	add	r8, sp, #40	; 0x28
f00021fc:	e2834001 	add	r4, r3, #1
f0002200:	e0622141 	rsb	r2, r2, r1, asr #2
f0002204:	e0821102 	add	r1, r2, r2, lsl #2
f0002208:	e04c1081 	sub	r1, ip, r1, lsl #1
f000220c:	e252c000 	subs	ip, r2, #0
f0002210:	e0882001 	add	r2, r8, r1
f0002214:	e5522024 	ldrb	r2, [r2, #-36]	; 0x24
f0002218:	e7c02003 	strb	r2, [r0, r3]
f000221c:	1afffff2 	bne	f00021ec <itoa.constprop.0+0x5c>
f0002220:	e3570000 	cmp	r7, #0
f0002224:	e1a0c003 	mov	ip, r3
f0002228:	13a0102d 	movne	r1, #45	; 0x2d
f000222c:	13a07001 	movne	r7, #1
f0002230:	15c61000 	strbne	r1, [r6]
f0002234:	e2471001 	sub	r1, r7, #1
f0002238:	e0861001 	add	r1, r6, r1
f000223c:	ea000000 	b	f0002244 <itoa.constprop.0+0xb4>
f0002240:	e7d02003 	ldrb	r2, [r0, r3]
f0002244:	e2433001 	sub	r3, r3, #1
f0002248:	e5e12001 	strb	r2, [r1, #1]!
f000224c:	e3730001 	cmn	r3, #1
f0002250:	1afffffa 	bne	f0002240 <itoa.constprop.0+0xb0>
f0002254:	e2877001 	add	r7, r7, #1
f0002258:	e3a03000 	mov	r3, #0
f000225c:	e0867007 	add	r7, r6, r7
f0002260:	e7c7300c 	strb	r3, [r7, ip]
f0002264:	e1a00006 	mov	r0, r6
f0002268:	e28dd02c 	add	sp, sp, #44	; 0x2c
f000226c:	e8bd01f0 	pop	{r4, r5, r6, r7, r8}
f0002270:	e12fff1e 	bx	lr
f0002274:	f0003338 			; <UNDEFINED> instruction: 0xf0003338

f0002278 <printk>:
f0002278:	e92d000f 	push	{r0, r1, r2, r3}
f000227c:	e92d47f0 	push	{r4, r5, r6, r7, r8, r9, sl, lr}
f0002280:	e24dd018 	sub	sp, sp, #24
f0002284:	e28d303c 	add	r3, sp, #60	; 0x3c
f0002288:	e59d4038 	ldr	r4, [sp, #56]	; 0x38
f000228c:	e58d3014 	str	r3, [sp, #20]
f0002290:	e59f82ac 	ldr	r8, [pc, #684]	; f0002544 <printk+0x2cc>
f0002294:	e5d43000 	ldrb	r3, [r4]
f0002298:	e3530000 	cmp	r3, #0
f000229c:	01a05008 	moveq	r5, r8
f00022a0:	0a00002c 	beq	f0002358 <printk+0xe0>
f00022a4:	e3a09025 	mov	r9, #37	; 0x25
f00022a8:	e28d6004 	add	r6, sp, #4
f00022ac:	e1a05008 	mov	r5, r8
f00022b0:	ea000003 	b	f00022c4 <printk+0x4c>
f00022b4:	e5d43001 	ldrb	r3, [r4, #1]
f00022b8:	e2844001 	add	r4, r4, #1
f00022bc:	e3530000 	cmp	r3, #0
f00022c0:	0a000024 	beq	f0002358 <printk+0xe0>
f00022c4:	e3530025 	cmp	r3, #37	; 0x25
f00022c8:	14c53001 	strbne	r3, [r5], #1
f00022cc:	1afffff8 	bne	f00022b4 <printk+0x3c>
f00022d0:	e5d43001 	ldrb	r3, [r4, #1]
f00022d4:	e2432031 	sub	r2, r3, #49	; 0x31
f00022d8:	e3520008 	cmp	r2, #8
f00022dc:	92437030 	subls	r7, r3, #48	; 0x30
f00022e0:	95d43002 	ldrbls	r3, [r4, #2]
f00022e4:	82844001 	addhi	r4, r4, #1
f00022e8:	83a07000 	movhi	r7, #0
f00022ec:	92844002 	addls	r4, r4, #2
f00022f0:	e2433063 	sub	r3, r3, #99	; 0x63
f00022f4:	e3530015 	cmp	r3, #21
f00022f8:	979ff103 	ldrls	pc, [pc, r3, lsl #2]
f00022fc:	ea000070 	b	f00024c4 <printk+0x24c>
f0002300:	f00024ac 			; <UNDEFINED> instruction: 0xf00024ac
f0002304:	f00024d8 			; <UNDEFINED> instruction: 0xf00024d8
f0002308:	f00024c4 			; <UNDEFINED> instruction: 0xf00024c4
f000230c:	f00024c4 			; <UNDEFINED> instruction: 0xf00024c4
f0002310:	f00024c4 			; <UNDEFINED> instruction: 0xf00024c4
f0002314:	f00024c4 			; <UNDEFINED> instruction: 0xf00024c4
f0002318:	f00024c4 			; <UNDEFINED> instruction: 0xf00024c4
f000231c:	f00024c4 			; <UNDEFINED> instruction: 0xf00024c4
f0002320:	f00024c4 			; <UNDEFINED> instruction: 0xf00024c4
f0002324:	f00024c4 			; <UNDEFINED> instruction: 0xf00024c4
f0002328:	f00024c4 			; <UNDEFINED> instruction: 0xf00024c4
f000232c:	f00024c4 			; <UNDEFINED> instruction: 0xf00024c4
f0002330:	f00024c4 			; <UNDEFINED> instruction: 0xf00024c4
f0002334:	f000243c 			; <UNDEFINED> instruction: 0xf000243c
f0002338:	f00024c4 			; <UNDEFINED> instruction: 0xf00024c4
f000233c:	f00024c4 			; <UNDEFINED> instruction: 0xf00024c4
f0002340:	f00023ec 			; <UNDEFINED> instruction: 0xf00023ec
f0002344:	f00024c4 			; <UNDEFINED> instruction: 0xf00024c4
f0002348:	f000237c 			; <UNDEFINED> instruction: 0xf000237c
f000234c:	f00024c4 			; <UNDEFINED> instruction: 0xf00024c4
f0002350:	f00024c4 			; <UNDEFINED> instruction: 0xf00024c4
f0002354:	f000243c 			; <UNDEFINED> instruction: 0xf000243c
f0002358:	e3a03000 	mov	r3, #0
f000235c:	e59f01e0 	ldr	r0, [pc, #480]	; f0002544 <printk+0x2cc>
f0002360:	e4c53001 	strb	r3, [r5], #1
f0002364:	ebfffee9 	bl	f0001f10 <serial_puts>
f0002368:	e0680005 	rsb	r0, r8, r5
f000236c:	e28dd018 	add	sp, sp, #24
f0002370:	e8bd47f0 	pop	{r4, r5, r6, r7, r8, r9, sl, lr}
f0002374:	e28dd010 	add	sp, sp, #16
f0002378:	e12fff1e 	bx	lr
f000237c:	e59d0014 	ldr	r0, [sp, #20]
f0002380:	e1a01006 	mov	r1, r6
f0002384:	e3a0200a 	mov	r2, #10
f0002388:	e2803004 	add	r3, r0, #4
f000238c:	e5900000 	ldr	r0, [r0]
f0002390:	e58d3014 	str	r3, [sp, #20]
f0002394:	ebffff24 	bl	f000202c <utoa>
f0002398:	e5d6a000 	ldrb	sl, [r6]
f000239c:	e35a0000 	cmp	sl, #0
f00023a0:	0a000004 	beq	f00023b8 <printk+0x140>
f00023a4:	e1a0a006 	mov	sl, r6
f00023a8:	e5fa3001 	ldrb	r3, [sl, #1]!
f00023ac:	e3530000 	cmp	r3, #0
f00023b0:	1afffffc 	bne	f00023a8 <printk+0x130>
f00023b4:	e066a00a 	rsb	sl, r6, sl
f00023b8:	e1a0100a 	mov	r1, sl
f00023bc:	e1a00006 	mov	r0, r6
f00023c0:	e1a02007 	mov	r2, r7
f00023c4:	ebffff47 	bl	f00020e8 <print_align>
f00023c8:	e28d3003 	add	r3, sp, #3
f00023cc:	e080000a 	add	r0, r0, sl
f00023d0:	e1a01005 	mov	r1, r5
f00023d4:	e5f32001 	ldrb	r2, [r3, #1]!
f00023d8:	e3520000 	cmp	r2, #0
f00023dc:	e4c12001 	strb	r2, [r1], #1
f00023e0:	1afffffb 	bne	f00023d4 <printk+0x15c>
f00023e4:	e0855000 	add	r5, r5, r0
f00023e8:	eaffffb1 	b	f00022b4 <printk+0x3c>
f00023ec:	e59d3014 	ldr	r3, [sp, #20]
f00023f0:	e1a01005 	mov	r1, r5
f00023f4:	e2832004 	add	r2, r3, #4
f00023f8:	e58d2014 	str	r2, [sp, #20]
f00023fc:	e5930000 	ldr	r0, [r3]
f0002400:	e2402001 	sub	r2, r0, #1
f0002404:	e5f23001 	ldrb	r3, [r2, #1]!
f0002408:	e3530000 	cmp	r3, #0
f000240c:	e4c13001 	strb	r3, [r1], #1
f0002410:	1afffffb 	bne	f0002404 <printk+0x18c>
f0002414:	e5d03000 	ldrb	r3, [r0]
f0002418:	e3530000 	cmp	r3, #0
f000241c:	0a000004 	beq	f0002434 <printk+0x1bc>
f0002420:	e1a03000 	mov	r3, r0
f0002424:	e5f32001 	ldrb	r2, [r3, #1]!
f0002428:	e3520000 	cmp	r2, #0
f000242c:	1afffffc 	bne	f0002424 <printk+0x1ac>
f0002430:	e0603003 	rsb	r3, r0, r3
f0002434:	e0855003 	add	r5, r5, r3
f0002438:	eaffff9d 	b	f00022b4 <printk+0x3c>
f000243c:	e59d0014 	ldr	r0, [sp, #20]
f0002440:	e1a01006 	mov	r1, r6
f0002444:	e3a02010 	mov	r2, #16
f0002448:	e2803004 	add	r3, r0, #4
f000244c:	e5900000 	ldr	r0, [r0]
f0002450:	e58d3014 	str	r3, [sp, #20]
f0002454:	ebfffef4 	bl	f000202c <utoa>
f0002458:	e5d6a000 	ldrb	sl, [r6]
f000245c:	e35a0000 	cmp	sl, #0
f0002460:	0a000004 	beq	f0002478 <printk+0x200>
f0002464:	e1a0a006 	mov	sl, r6
f0002468:	e5fa3001 	ldrb	r3, [sl, #1]!
f000246c:	e3530000 	cmp	r3, #0
f0002470:	1afffffc 	bne	f0002468 <printk+0x1f0>
f0002474:	e066a00a 	rsb	sl, r6, sl
f0002478:	e1a0100a 	mov	r1, sl
f000247c:	e1a00006 	mov	r0, r6
f0002480:	e1a02007 	mov	r2, r7
f0002484:	ebffff17 	bl	f00020e8 <print_align>
f0002488:	e28d3003 	add	r3, sp, #3
f000248c:	e080000a 	add	r0, r0, sl
f0002490:	e1a01005 	mov	r1, r5
f0002494:	e5f32001 	ldrb	r2, [r3, #1]!
f0002498:	e3520000 	cmp	r2, #0
f000249c:	e4c12001 	strb	r2, [r1], #1
f00024a0:	1afffffb 	bne	f0002494 <printk+0x21c>
f00024a4:	e0855000 	add	r5, r5, r0
f00024a8:	eaffff81 	b	f00022b4 <printk+0x3c>
f00024ac:	e59d3014 	ldr	r3, [sp, #20]
f00024b0:	e5932000 	ldr	r2, [r3]
f00024b4:	e2833004 	add	r3, r3, #4
f00024b8:	e58d3014 	str	r3, [sp, #20]
f00024bc:	e5c52000 	strb	r2, [r5]
f00024c0:	eaffff7b 	b	f00022b4 <printk+0x3c>
f00024c4:	e5c59000 	strb	r9, [r5]
f00024c8:	e5d43000 	ldrb	r3, [r4]
f00024cc:	e5c53001 	strb	r3, [r5, #1]
f00024d0:	e2855002 	add	r5, r5, #2
f00024d4:	eaffff76 	b	f00022b4 <printk+0x3c>
f00024d8:	e59d2014 	ldr	r2, [sp, #20]
f00024dc:	e1a01006 	mov	r1, r6
f00024e0:	e2823004 	add	r3, r2, #4
f00024e4:	e5920000 	ldr	r0, [r2]
f00024e8:	e58d3014 	str	r3, [sp, #20]
f00024ec:	ebffff27 	bl	f0002190 <itoa.constprop.0>
f00024f0:	e5d6a000 	ldrb	sl, [r6]
f00024f4:	e35a0000 	cmp	sl, #0
f00024f8:	0a000004 	beq	f0002510 <printk+0x298>
f00024fc:	e1a0a006 	mov	sl, r6
f0002500:	e5fa3001 	ldrb	r3, [sl, #1]!
f0002504:	e3530000 	cmp	r3, #0
f0002508:	1afffffc 	bne	f0002500 <printk+0x288>
f000250c:	e066a00a 	rsb	sl, r6, sl
f0002510:	e1a0100a 	mov	r1, sl
f0002514:	e1a00006 	mov	r0, r6
f0002518:	e1a02007 	mov	r2, r7
f000251c:	ebfffef1 	bl	f00020e8 <print_align>
f0002520:	e28d3003 	add	r3, sp, #3
f0002524:	e080000a 	add	r0, r0, sl
f0002528:	e1a01005 	mov	r1, r5
f000252c:	e5f32001 	ldrb	r2, [r3, #1]!
f0002530:	e3520000 	cmp	r2, #0
f0002534:	e4c12001 	strb	r2, [r1], #1
f0002538:	1afffffb 	bne	f000252c <printk+0x2b4>
f000253c:	e0855000 	add	r5, r5, r0
f0002540:	eaffff5b 	b	f00022b4 <printk+0x3c>
f0002544:	f00034c4 			; <UNDEFINED> instruction: 0xf00034c4

f0002548 <printk_nommu>:
f0002548:	e92d000f 	push	{r0, r1, r2, r3}
f000254c:	e92d47f0 	push	{r4, r5, r6, r7, r8, r9, sl, lr}
f0002550:	e24dd018 	sub	sp, sp, #24
f0002554:	e28d303c 	add	r3, sp, #60	; 0x3c
f0002558:	e59d4038 	ldr	r4, [sp, #56]	; 0x38
f000255c:	e58d3014 	str	r3, [sp, #20]
f0002560:	e59f82ac 	ldr	r8, [pc, #684]	; f0002814 <printk_nommu+0x2cc>
f0002564:	e5d43000 	ldrb	r3, [r4]
f0002568:	e3530000 	cmp	r3, #0
f000256c:	01a05008 	moveq	r5, r8
f0002570:	0a00002c 	beq	f0002628 <printk_nommu+0xe0>
f0002574:	e3a09025 	mov	r9, #37	; 0x25
f0002578:	e28d6004 	add	r6, sp, #4
f000257c:	e1a05008 	mov	r5, r8
f0002580:	ea000003 	b	f0002594 <printk_nommu+0x4c>
f0002584:	e5d43001 	ldrb	r3, [r4, #1]
f0002588:	e2844001 	add	r4, r4, #1
f000258c:	e3530000 	cmp	r3, #0
f0002590:	0a000024 	beq	f0002628 <printk_nommu+0xe0>
f0002594:	e3530025 	cmp	r3, #37	; 0x25
f0002598:	14c53001 	strbne	r3, [r5], #1
f000259c:	1afffff8 	bne	f0002584 <printk_nommu+0x3c>
f00025a0:	e5d43001 	ldrb	r3, [r4, #1]
f00025a4:	e2432031 	sub	r2, r3, #49	; 0x31
f00025a8:	e3520008 	cmp	r2, #8
f00025ac:	92437030 	subls	r7, r3, #48	; 0x30
f00025b0:	95d43002 	ldrbls	r3, [r4, #2]
f00025b4:	82844001 	addhi	r4, r4, #1
f00025b8:	83a07000 	movhi	r7, #0
f00025bc:	92844002 	addls	r4, r4, #2
f00025c0:	e2433063 	sub	r3, r3, #99	; 0x63
f00025c4:	e3530015 	cmp	r3, #21
f00025c8:	979ff103 	ldrls	pc, [pc, r3, lsl #2]
f00025cc:	ea000070 	b	f0002794 <printk_nommu+0x24c>
f00025d0:	f000277c 			; <UNDEFINED> instruction: 0xf000277c
f00025d4:	f00027a8 			; <UNDEFINED> instruction: 0xf00027a8
f00025d8:	f0002794 			; <UNDEFINED> instruction: 0xf0002794
f00025dc:	f0002794 			; <UNDEFINED> instruction: 0xf0002794
f00025e0:	f0002794 			; <UNDEFINED> instruction: 0xf0002794
f00025e4:	f0002794 			; <UNDEFINED> instruction: 0xf0002794
f00025e8:	f0002794 			; <UNDEFINED> instruction: 0xf0002794
f00025ec:	f0002794 			; <UNDEFINED> instruction: 0xf0002794
f00025f0:	f0002794 			; <UNDEFINED> instruction: 0xf0002794
f00025f4:	f0002794 			; <UNDEFINED> instruction: 0xf0002794
f00025f8:	f0002794 			; <UNDEFINED> instruction: 0xf0002794
f00025fc:	f0002794 			; <UNDEFINED> instruction: 0xf0002794
f0002600:	f0002794 			; <UNDEFINED> instruction: 0xf0002794
f0002604:	f000270c 			; <UNDEFINED> instruction: 0xf000270c
f0002608:	f0002794 			; <UNDEFINED> instruction: 0xf0002794
f000260c:	f0002794 			; <UNDEFINED> instruction: 0xf0002794
f0002610:	f00026bc 			; <UNDEFINED> instruction: 0xf00026bc
f0002614:	f0002794 			; <UNDEFINED> instruction: 0xf0002794
f0002618:	f000264c 			; <UNDEFINED> instruction: 0xf000264c
f000261c:	f0002794 			; <UNDEFINED> instruction: 0xf0002794
f0002620:	f0002794 			; <UNDEFINED> instruction: 0xf0002794
f0002624:	f000270c 			; <UNDEFINED> instruction: 0xf000270c
f0002628:	e3a03000 	mov	r3, #0
f000262c:	e59f01e0 	ldr	r0, [pc, #480]	; f0002814 <printk_nommu+0x2cc>
f0002630:	e4c53001 	strb	r3, [r5], #1
f0002634:	ebfffdb9 	bl	f0001d20 <serial_puts_nommu>
f0002638:	e0680005 	rsb	r0, r8, r5
f000263c:	e28dd018 	add	sp, sp, #24
f0002640:	e8bd47f0 	pop	{r4, r5, r6, r7, r8, r9, sl, lr}
f0002644:	e28dd010 	add	sp, sp, #16
f0002648:	e12fff1e 	bx	lr
f000264c:	e59d0014 	ldr	r0, [sp, #20]
f0002650:	e1a01006 	mov	r1, r6
f0002654:	e3a0200a 	mov	r2, #10
f0002658:	e2803004 	add	r3, r0, #4
f000265c:	e5900000 	ldr	r0, [r0]
f0002660:	e58d3014 	str	r3, [sp, #20]
f0002664:	ebfffe70 	bl	f000202c <utoa>
f0002668:	e5d6a000 	ldrb	sl, [r6]
f000266c:	e35a0000 	cmp	sl, #0
f0002670:	0a000004 	beq	f0002688 <printk_nommu+0x140>
f0002674:	e1a0a006 	mov	sl, r6
f0002678:	e5fa3001 	ldrb	r3, [sl, #1]!
f000267c:	e3530000 	cmp	r3, #0
f0002680:	1afffffc 	bne	f0002678 <printk_nommu+0x130>
f0002684:	e066a00a 	rsb	sl, r6, sl
f0002688:	e1a0100a 	mov	r1, sl
f000268c:	e1a00006 	mov	r0, r6
f0002690:	e1a02007 	mov	r2, r7
f0002694:	ebfffe93 	bl	f00020e8 <print_align>
f0002698:	e28d3003 	add	r3, sp, #3
f000269c:	e080000a 	add	r0, r0, sl
f00026a0:	e1a01005 	mov	r1, r5
f00026a4:	e5f32001 	ldrb	r2, [r3, #1]!
f00026a8:	e3520000 	cmp	r2, #0
f00026ac:	e4c12001 	strb	r2, [r1], #1
f00026b0:	1afffffb 	bne	f00026a4 <printk_nommu+0x15c>
f00026b4:	e0855000 	add	r5, r5, r0
f00026b8:	eaffffb1 	b	f0002584 <printk_nommu+0x3c>
f00026bc:	e59d3014 	ldr	r3, [sp, #20]
f00026c0:	e1a01005 	mov	r1, r5
f00026c4:	e2832004 	add	r2, r3, #4
f00026c8:	e58d2014 	str	r2, [sp, #20]
f00026cc:	e5930000 	ldr	r0, [r3]
f00026d0:	e2402001 	sub	r2, r0, #1
f00026d4:	e5f23001 	ldrb	r3, [r2, #1]!
f00026d8:	e3530000 	cmp	r3, #0
f00026dc:	e4c13001 	strb	r3, [r1], #1
f00026e0:	1afffffb 	bne	f00026d4 <printk_nommu+0x18c>
f00026e4:	e5d03000 	ldrb	r3, [r0]
f00026e8:	e3530000 	cmp	r3, #0
f00026ec:	0a000004 	beq	f0002704 <printk_nommu+0x1bc>
f00026f0:	e1a03000 	mov	r3, r0
f00026f4:	e5f32001 	ldrb	r2, [r3, #1]!
f00026f8:	e3520000 	cmp	r2, #0
f00026fc:	1afffffc 	bne	f00026f4 <printk_nommu+0x1ac>
f0002700:	e0603003 	rsb	r3, r0, r3
f0002704:	e0855003 	add	r5, r5, r3
f0002708:	eaffff9d 	b	f0002584 <printk_nommu+0x3c>
f000270c:	e59d0014 	ldr	r0, [sp, #20]
f0002710:	e1a01006 	mov	r1, r6
f0002714:	e3a02010 	mov	r2, #16
f0002718:	e2803004 	add	r3, r0, #4
f000271c:	e5900000 	ldr	r0, [r0]
f0002720:	e58d3014 	str	r3, [sp, #20]
f0002724:	ebfffe40 	bl	f000202c <utoa>
f0002728:	e5d6a000 	ldrb	sl, [r6]
f000272c:	e35a0000 	cmp	sl, #0
f0002730:	0a000004 	beq	f0002748 <printk_nommu+0x200>
f0002734:	e1a0a006 	mov	sl, r6
f0002738:	e5fa3001 	ldrb	r3, [sl, #1]!
f000273c:	e3530000 	cmp	r3, #0
f0002740:	1afffffc 	bne	f0002738 <printk_nommu+0x1f0>
f0002744:	e066a00a 	rsb	sl, r6, sl
f0002748:	e1a0100a 	mov	r1, sl
f000274c:	e1a00006 	mov	r0, r6
f0002750:	e1a02007 	mov	r2, r7
f0002754:	ebfffe63 	bl	f00020e8 <print_align>
f0002758:	e28d3003 	add	r3, sp, #3
f000275c:	e080000a 	add	r0, r0, sl
f0002760:	e1a01005 	mov	r1, r5
f0002764:	e5f32001 	ldrb	r2, [r3, #1]!
f0002768:	e3520000 	cmp	r2, #0
f000276c:	e4c12001 	strb	r2, [r1], #1
f0002770:	1afffffb 	bne	f0002764 <printk_nommu+0x21c>
f0002774:	e0855000 	add	r5, r5, r0
f0002778:	eaffff81 	b	f0002584 <printk_nommu+0x3c>
f000277c:	e59d3014 	ldr	r3, [sp, #20]
f0002780:	e5932000 	ldr	r2, [r3]
f0002784:	e2833004 	add	r3, r3, #4
f0002788:	e58d3014 	str	r3, [sp, #20]
f000278c:	e5c52000 	strb	r2, [r5]
f0002790:	eaffff7b 	b	f0002584 <printk_nommu+0x3c>
f0002794:	e5c59000 	strb	r9, [r5]
f0002798:	e5d43000 	ldrb	r3, [r4]
f000279c:	e5c53001 	strb	r3, [r5, #1]
f00027a0:	e2855002 	add	r5, r5, #2
f00027a4:	eaffff76 	b	f0002584 <printk_nommu+0x3c>
f00027a8:	e59d2014 	ldr	r2, [sp, #20]
f00027ac:	e1a01006 	mov	r1, r6
f00027b0:	e2823004 	add	r3, r2, #4
f00027b4:	e5920000 	ldr	r0, [r2]
f00027b8:	e58d3014 	str	r3, [sp, #20]
f00027bc:	ebfffe73 	bl	f0002190 <itoa.constprop.0>
f00027c0:	e5d6a000 	ldrb	sl, [r6]
f00027c4:	e35a0000 	cmp	sl, #0
f00027c8:	0a000004 	beq	f00027e0 <printk_nommu+0x298>
f00027cc:	e1a0a006 	mov	sl, r6
f00027d0:	e5fa3001 	ldrb	r3, [sl, #1]!
f00027d4:	e3530000 	cmp	r3, #0
f00027d8:	1afffffc 	bne	f00027d0 <printk_nommu+0x288>
f00027dc:	e066a00a 	rsb	sl, r6, sl
f00027e0:	e1a0100a 	mov	r1, sl
f00027e4:	e1a00006 	mov	r0, r6
f00027e8:	e1a02007 	mov	r2, r7
f00027ec:	ebfffe3d 	bl	f00020e8 <print_align>
f00027f0:	e28d3003 	add	r3, sp, #3
f00027f4:	e080000a 	add	r0, r0, sl
f00027f8:	e1a01005 	mov	r1, r5
f00027fc:	e5f32001 	ldrb	r2, [r3, #1]!
f0002800:	e3520000 	cmp	r2, #0
f0002804:	e4c12001 	strb	r2, [r1], #1
f0002808:	1afffffb 	bne	f00027fc <printk_nommu+0x2b4>
f000280c:	e0855000 	add	r5, r5, r0
f0002810:	eaffff5b 	b	f0002584 <printk_nommu+0x3c>
f0002814:	f00034c4 			; <UNDEFINED> instruction: 0xf00034c4

f0002818 <standby_delay>:
f0002818:	e92d000f 	push	{r0, r1, r2, r3}
f000281c:	e3a01011 	mov	r1, #17
f0002820:	e1a03000 	mov	r3, r0

f0002824 <standby_delay_loop2>:
f0002824:	e2500001 	subs	r0, r0, #1
f0002828:	8afffffd 	bhi	f0002824 <standby_delay_loop2>
f000282c:	e1a00003 	mov	r0, r3
f0002830:	e2511001 	subs	r1, r1, #1
f0002834:	8afffffa 	bhi	f0002824 <standby_delay_loop2>
f0002838:	e8bd000f 	pop	{r0, r1, r2, r3}
f000283c:	e1a0f00e 	mov	pc, lr

f0002840 <standby_delay_cycle>:
f0002840:	e2500001 	subs	r0, r0, #1
f0002844:	8afffffd 	bhi	f0002840 <standby_delay_cycle>
f0002848:	e1a0f00e 	mov	pc, lr

f000284c <Ldiv0>:
f000284c:	e52de008 	str	lr, [sp, #-8]!
f0002850:	eb000067 	bl	f00029f4 <__mem_div0>
f0002854:	e3a00000 	mov	r0, #0
f0002858:	e49df008 	ldr	pc, [sp], #8

f000285c <__aeabi_uidiv>:
f000285c:	e2512001 	subs	r2, r1, #1
f0002860:	01a0f00e 	moveq	pc, lr
f0002864:	3afffff8 	bcc	f000284c <Ldiv0>
f0002868:	e1500001 	cmp	r0, r1
f000286c:	9a00001a 	bls	f00028dc <__aeabi_uidiv+0x80>
f0002870:	e1110002 	tst	r1, r2
f0002874:	0a00001b 	beq	f00028e8 <__aeabi_uidiv+0x8c>
f0002878:	e16f3f11 	clz	r3, r1
f000287c:	e16f2f10 	clz	r2, r0
f0002880:	e0432002 	sub	r2, r3, r2
f0002884:	e3a03001 	mov	r3, #1
f0002888:	e1a01211 	lsl	r1, r1, r2
f000288c:	e1a03213 	lsl	r3, r3, r2
f0002890:	e3a02000 	mov	r2, #0
f0002894:	e1500001 	cmp	r0, r1
f0002898:	20400001 	subcs	r0, r0, r1
f000289c:	21822003 	orrcs	r2, r2, r3
f00028a0:	e15000a1 	cmp	r0, r1, lsr #1
f00028a4:	204000a1 	subcs	r0, r0, r1, lsr #1
f00028a8:	218220a3 	orrcs	r2, r2, r3, lsr #1
f00028ac:	e1500121 	cmp	r0, r1, lsr #2
f00028b0:	20400121 	subcs	r0, r0, r1, lsr #2
f00028b4:	21822123 	orrcs	r2, r2, r3, lsr #2
f00028b8:	e15001a1 	cmp	r0, r1, lsr #3
f00028bc:	204001a1 	subcs	r0, r0, r1, lsr #3
f00028c0:	218221a3 	orrcs	r2, r2, r3, lsr #3
f00028c4:	e3500000 	cmp	r0, #0
f00028c8:	11b03223 	lsrsne	r3, r3, #4
f00028cc:	11a01221 	lsrne	r1, r1, #4
f00028d0:	1affffef 	bne	f0002894 <__aeabi_uidiv+0x38>
f00028d4:	e1a00002 	mov	r0, r2
f00028d8:	e1a0f00e 	mov	pc, lr
f00028dc:	03a00001 	moveq	r0, #1
f00028e0:	13a00000 	movne	r0, #0
f00028e4:	e1a0f00e 	mov	pc, lr
f00028e8:	e16f2f11 	clz	r2, r1
f00028ec:	e262201f 	rsb	r2, r2, #31
f00028f0:	e1a00230 	lsr	r0, r0, r2
f00028f4:	e1a0f00e 	mov	pc, lr

f00028f8 <__aeabi_idiv>:
f00028f8:	e3510000 	cmp	r1, #0
f00028fc:	e020c001 	eor	ip, r0, r1
f0002900:	0affffd1 	beq	f000284c <Ldiv0>
f0002904:	42611000 	rsbmi	r1, r1, #0
f0002908:	e2512001 	subs	r2, r1, #1
f000290c:	0a00001f 	beq	f0002990 <__aeabi_idiv+0x98>
f0002910:	e1b03000 	movs	r3, r0
f0002914:	42603000 	rsbmi	r3, r0, #0
f0002918:	e1530001 	cmp	r3, r1
f000291c:	9a00001e 	bls	f000299c <__aeabi_idiv+0xa4>
f0002920:	e1110002 	tst	r1, r2
f0002924:	0a000020 	beq	f00029ac <__aeabi_idiv+0xb4>
f0002928:	e16f2f11 	clz	r2, r1
f000292c:	e16f0f13 	clz	r0, r3
f0002930:	e0420000 	sub	r0, r2, r0
f0002934:	e3a02001 	mov	r2, #1
f0002938:	e1a01011 	lsl	r1, r1, r0
f000293c:	e1a02012 	lsl	r2, r2, r0
f0002940:	e3a00000 	mov	r0, #0
f0002944:	e1530001 	cmp	r3, r1
f0002948:	20433001 	subcs	r3, r3, r1
f000294c:	21800002 	orrcs	r0, r0, r2
f0002950:	e15300a1 	cmp	r3, r1, lsr #1
f0002954:	204330a1 	subcs	r3, r3, r1, lsr #1
f0002958:	218000a2 	orrcs	r0, r0, r2, lsr #1
f000295c:	e1530121 	cmp	r3, r1, lsr #2
f0002960:	20433121 	subcs	r3, r3, r1, lsr #2
f0002964:	21800122 	orrcs	r0, r0, r2, lsr #2
f0002968:	e15301a1 	cmp	r3, r1, lsr #3
f000296c:	204331a1 	subcs	r3, r3, r1, lsr #3
f0002970:	218001a2 	orrcs	r0, r0, r2, lsr #3
f0002974:	e3530000 	cmp	r3, #0
f0002978:	11b02222 	lsrsne	r2, r2, #4
f000297c:	11a01221 	lsrne	r1, r1, #4
f0002980:	1affffef 	bne	f0002944 <__aeabi_idiv+0x4c>
f0002984:	e35c0000 	cmp	ip, #0
f0002988:	42600000 	rsbmi	r0, r0, #0
f000298c:	e1a0f00e 	mov	pc, lr
f0002990:	e13c0000 	teq	ip, r0
f0002994:	42600000 	rsbmi	r0, r0, #0
f0002998:	e1a0f00e 	mov	pc, lr
f000299c:	33a00000 	movcc	r0, #0
f00029a0:	01a00fcc 	asreq	r0, ip, #31
f00029a4:	03800001 	orreq	r0, r0, #1
f00029a8:	e1a0f00e 	mov	pc, lr
f00029ac:	e16f2f11 	clz	r2, r1
f00029b0:	e262201f 	rsb	r2, r2, #31
f00029b4:	e35c0000 	cmp	ip, #0
f00029b8:	e1a00233 	lsr	r0, r3, r2
f00029bc:	42600000 	rsbmi	r0, r0, #0
f00029c0:	e1a0f00e 	mov	pc, lr

f00029c4 <__aeabi_uidivmod>:
f00029c4:	e92d5003 	push	{r0, r1, ip, lr}
f00029c8:	ebffffa3 	bl	f000285c <__aeabi_uidiv>
f00029cc:	e8bd5006 	pop	{r1, r2, ip, lr}
f00029d0:	e0030290 	mul	r3, r0, r2
f00029d4:	e0411003 	sub	r1, r1, r3
f00029d8:	e1a0f00e 	mov	pc, lr

f00029dc <__aeabi_idivmod>:
f00029dc:	e92d5003 	push	{r0, r1, ip, lr}
f00029e0:	ebffffc4 	bl	f00028f8 <__aeabi_idiv>
f00029e4:	e8bd5006 	pop	{r1, r2, ip, lr}
f00029e8:	e0030290 	mul	r3, r0, r2
f00029ec:	e0411003 	sub	r1, r1, r3
f00029f0:	e1a0f00e 	mov	pc, lr

f00029f4 <__mem_div0>:
f00029f4:	e3030360 	movw	r0, #13152	; 0x3360
f00029f8:	e34f0000 	movt	r0, #61440	; 0xf000
f00029fc:	eafffe1d 	b	f0002278 <printk>

f0002a00 <raw_lib_udiv>:
f0002a00:	e3510000 	cmp	r1, #0
f0002a04:	01a02001 	moveq	r2, r1
f0002a08:	0a00000d 	beq	f0002a44 <raw_lib_udiv+0x44>
f0002a0c:	e3a03000 	mov	r3, #0
f0002a10:	ba000002 	blt	f0002a20 <raw_lib_udiv+0x20>
f0002a14:	e1b01081 	lsls	r1, r1, #1
f0002a18:	e2833001 	add	r3, r3, #1
f0002a1c:	5afffffc 	bpl	f0002a14 <raw_lib_udiv+0x14>
f0002a20:	e3a02000 	mov	r2, #0
f0002a24:	e1a0c082 	lsl	ip, r2, #1
f0002a28:	e1500001 	cmp	r0, r1
f0002a2c:	20610000 	rsbcs	r0, r1, r0
f0002a30:	31a02082 	lslcc	r2, r2, #1
f0002a34:	238c2001 	orrcs	r2, ip, #1
f0002a38:	e1a010a1 	lsr	r1, r1, #1
f0002a3c:	e2533001 	subs	r3, r3, #1
f0002a40:	5afffff7 	bpl	f0002a24 <raw_lib_udiv+0x24>
f0002a44:	e1a00002 	mov	r0, r2
f0002a48:	e12fff1e 	bx	lr

f0002a4c <mem_int_init>:
f0002a4c:	e59f0080 	ldr	r0, [pc, #128]	; f0002ad4 <mem_int_init+0x88>
f0002a50:	e3013184 	movw	r3, #4484	; 0x1184
f0002a54:	e3a02d47 	mov	r2, #4544	; 0x11c0
f0002a58:	e92d4010 	push	{r4, lr}
f0002a5c:	e3a0ca02 	mov	ip, #8192	; 0x2000
f0002a60:	e3a04a01 	mov	r4, #4096	; 0x1000
f0002a64:	e34f31c8 	movt	r3, #61896	; 0xf1c8
f0002a68:	e3e01000 	mvn	r1, #0
f0002a6c:	e34f21c8 	movt	r2, #61896	; 0xf1c8
f0002a70:	e34f41c8 	movt	r4, #61896	; 0xf1c8
f0002a74:	e34fc1c8 	movt	ip, #61896	; 0xf1c8
f0002a78:	e8801010 	stm	r0, {r4, ip}
f0002a7c:	e4831004 	str	r1, [r3], #4
f0002a80:	e1530002 	cmp	r3, r2
f0002a84:	1afffffc 	bne	f0002a7c <mem_int_init+0x30>
f0002a88:	e3013284 	movw	r3, #4740	; 0x1284
f0002a8c:	e3a02d4b 	mov	r2, #4800	; 0x12c0
f0002a90:	e34f31c8 	movt	r3, #61896	; 0xf1c8
f0002a94:	e3e01000 	mvn	r1, #0
f0002a98:	e34f21c8 	movt	r2, #61896	; 0xf1c8
f0002a9c:	e4831004 	str	r1, [r3], #4
f0002aa0:	e1530002 	cmp	r3, r2
f0002aa4:	1afffffc 	bne	f0002a9c <mem_int_init+0x50>
f0002aa8:	e3a03a02 	mov	r3, #8192	; 0x2000
f0002aac:	e30023ff 	movw	r2, #1023	; 0x3ff
f0002ab0:	e34f31c8 	movt	r3, #61896	; 0xf1c8
f0002ab4:	e593100c 	ldr	r1, [r3, #12]
f0002ab8:	e1510002 	cmp	r1, r2
f0002abc:	0a000002 	beq	f0002acc <mem_int_init+0x80>
f0002ac0:	e5831010 	str	r1, [r3, #16]
f0002ac4:	e59f000c 	ldr	r0, [pc, #12]	; f0002ad8 <mem_int_init+0x8c>
f0002ac8:	ebfffdea 	bl	f0002278 <printk>
f0002acc:	e3a00000 	mov	r0, #0
f0002ad0:	e8bd8010 	pop	{r4, pc}
f0002ad4:	f00035c4 			; <UNDEFINED> instruction: 0xf00035c4
f0002ad8:	f000337c 			; <UNDEFINED> instruction: 0xf000337c

f0002adc <mem_int_exit>:
f0002adc:	e3a02000 	mov	r2, #0
f0002ae0:	e24dd008 	sub	sp, sp, #8
f0002ae4:	e1a03002 	mov	r3, r2
f0002ae8:	e58d2004 	str	r2, [sp, #4]
f0002aec:	e59f2038 	ldr	r2, [pc, #56]	; f0002b2c <mem_int_exit+0x50>
f0002af0:	e5922000 	ldr	r2, [r2]
f0002af4:	e282cc01 	add	ip, r2, #256	; 0x100
f0002af8:	e2822d0a 	add	r2, r2, #640	; 0x280
f0002afc:	e79c1003 	ldr	r1, [ip, r3]
f0002b00:	e58d1004 	str	r1, [sp, #4]
f0002b04:	e7921003 	ldr	r1, [r2, r3]
f0002b08:	e59d0004 	ldr	r0, [sp, #4]
f0002b0c:	e1c11000 	bic	r1, r1, r0
f0002b10:	e7821003 	str	r1, [r2, r3]
f0002b14:	e2833004 	add	r3, r3, #4
f0002b18:	e3530040 	cmp	r3, #64	; 0x40
f0002b1c:	1afffff6 	bne	f0002afc <mem_int_exit+0x20>
f0002b20:	e3a00000 	mov	r0, #0
f0002b24:	e28dd008 	add	sp, sp, #8
f0002b28:	e12fff1e 	bx	lr
f0002b2c:	f00035c4 			; <UNDEFINED> instruction: 0xf00035c4

f0002b30 <mem_enable_int>:
f0002b30:	e1a022a0 	lsr	r2, r0, #5
f0002b34:	e92d0030 	push	{r4, r5}
f0002b38:	e30335c4 	movw	r3, #13764	; 0x35c4
f0002b3c:	e2822040 	add	r2, r2, #64	; 0x40
f0002b40:	e3a0ca01 	mov	ip, #4096	; 0x1000
f0002b44:	e1a02102 	lsl	r2, r2, #2
f0002b48:	e3a01a02 	mov	r1, #8192	; 0x2000
f0002b4c:	e34f3000 	movt	r3, #61440	; 0xf000
f0002b50:	e24226e3 	sub	r2, r2, #238026752	; 0xe300000
f0002b54:	e34fc1c8 	movt	ip, #61896	; 0xf1c8
f0002b58:	e2422a7f 	sub	r2, r2, #520192	; 0x7f000
f0002b5c:	e34f11c8 	movt	r1, #61896	; 0xf1c8
f0002b60:	e5924000 	ldr	r4, [r2]
f0002b64:	e200501f 	and	r5, r0, #31
f0002b68:	e583c000 	str	ip, [r3]
f0002b6c:	e3a00000 	mov	r0, #0
f0002b70:	e5831004 	str	r1, [r3, #4]
f0002b74:	e3a03001 	mov	r3, #1
f0002b78:	e1843513 	orr	r3, r4, r3, lsl r5
f0002b7c:	e5823000 	str	r3, [r2]
f0002b80:	e8bd0030 	pop	{r4, r5}
f0002b84:	e12fff1e 	bx	lr

f0002b88 <mem_query_int>:
f0002b88:	e1a0c2a0 	lsr	ip, r0, #5
f0002b8c:	e59f3040 	ldr	r3, [pc, #64]	; f0002bd4 <mem_query_int+0x4c>
f0002b90:	e3a01a01 	mov	r1, #4096	; 0x1000
f0002b94:	e28cc080 	add	ip, ip, #128	; 0x80
f0002b98:	e34f11c8 	movt	r1, #61896	; 0xf1c8
f0002b9c:	e1a0c10c 	lsl	ip, ip, #2
f0002ba0:	e5831000 	str	r1, [r3]
f0002ba4:	e3a02a02 	mov	r2, #8192	; 0x2000
f0002ba8:	e24cc6e3 	sub	ip, ip, #238026752	; 0xe300000
f0002bac:	e34f21c8 	movt	r2, #61896	; 0xf1c8
f0002bb0:	e24cca7f 	sub	ip, ip, #520192	; 0x7f000
f0002bb4:	e200001f 	and	r0, r0, #31
f0002bb8:	e59c1000 	ldr	r1, [ip]
f0002bbc:	e5832004 	str	r2, [r3, #4]
f0002bc0:	e3a03001 	mov	r3, #1
f0002bc4:	e0113013 	ands	r3, r1, r3, lsl r0
f0002bc8:	03e00000 	mvneq	r0, #0
f0002bcc:	13a00000 	movne	r0, #0
f0002bd0:	e12fff1e 	bx	lr
f0002bd4:	f00035c4 			; <UNDEFINED> instruction: 0xf00035c4

f0002bd8 <mem_tmr_save>:
f0002bd8:	e3a03000 	mov	r3, #0
f0002bdc:	e1a02000 	mov	r2, r0
f0002be0:	e34f31c2 	movt	r3, #61890	; 0xf1c2
f0002be4:	e30305cc 	movw	r0, #13772	; 0x35cc
f0002be8:	e5931c00 	ldr	r1, [r3, #3072]	; 0xc00
f0002bec:	e3a0cb03 	mov	ip, #3072	; 0xc00
f0002bf0:	e34f0000 	movt	r0, #61440	; 0xf000
f0002bf4:	e34fc1c2 	movt	ip, #61890	; 0xf1c2
f0002bf8:	e580c000 	str	ip, [r0]
f0002bfc:	e3a00000 	mov	r0, #0
f0002c00:	e5821000 	str	r1, [r2]
f0002c04:	e5931c10 	ldr	r1, [r3, #3088]	; 0xc10
f0002c08:	e5821010 	str	r1, [r2, #16]
f0002c0c:	e5931c14 	ldr	r1, [r3, #3092]	; 0xc14
f0002c10:	e5821014 	str	r1, [r2, #20]
f0002c14:	e5931c18 	ldr	r1, [r3, #3096]	; 0xc18
f0002c18:	e5821018 	str	r1, [r2, #24]
f0002c1c:	e5931c20 	ldr	r1, [r3, #3104]	; 0xc20
f0002c20:	e5821020 	str	r1, [r2, #32]
f0002c24:	e5931c24 	ldr	r1, [r3, #3108]	; 0xc24
f0002c28:	e5821024 	str	r1, [r2, #36]	; 0x24
f0002c2c:	e5933c28 	ldr	r3, [r3, #3112]	; 0xc28
f0002c30:	e5823028 	str	r3, [r2, #40]	; 0x28
f0002c34:	e12fff1e 	bx	lr

f0002c38 <mem_tmr_restore>:
f0002c38:	e30335cc 	movw	r3, #13772	; 0x35cc
f0002c3c:	e5901014 	ldr	r1, [r0, #20]
f0002c40:	e34f3000 	movt	r3, #61440	; 0xf000
f0002c44:	e1a02000 	mov	r2, r0
f0002c48:	e5933000 	ldr	r3, [r3]
f0002c4c:	e3a00000 	mov	r0, #0
f0002c50:	e5831014 	str	r1, [r3, #20]
f0002c54:	e5921018 	ldr	r1, [r2, #24]
f0002c58:	e5831018 	str	r1, [r3, #24]
f0002c5c:	e5921010 	ldr	r1, [r2, #16]
f0002c60:	e5831010 	str	r1, [r3, #16]
f0002c64:	e5921024 	ldr	r1, [r2, #36]	; 0x24
f0002c68:	e5831024 	str	r1, [r3, #36]	; 0x24
f0002c6c:	e5921028 	ldr	r1, [r2, #40]	; 0x28
f0002c70:	e5831028 	str	r1, [r3, #40]	; 0x28
f0002c74:	e5921020 	ldr	r1, [r2, #32]
f0002c78:	e5831020 	str	r1, [r3, #32]
f0002c7c:	e5922000 	ldr	r2, [r2]
f0002c80:	e5832000 	str	r2, [r3]
f0002c84:	e12fff1e 	bx	lr

f0002c88 <mem_tmr_init>:
f0002c88:	e3a02000 	mov	r2, #0
f0002c8c:	e30335cc 	movw	r3, #13772	; 0x35cc
f0002c90:	e34f21c2 	movt	r2, #61890	; 0xf1c2
f0002c94:	e3a01b03 	mov	r1, #3072	; 0xc00
f0002c98:	e592ccb4 	ldr	ip, [r2, #3252]	; 0xcb4
f0002c9c:	e34f3000 	movt	r3, #61440	; 0xf000
f0002ca0:	e34f11c2 	movt	r1, #61890	; 0xf1c2
f0002ca4:	e3a00000 	mov	r0, #0
f0002ca8:	e8831002 	stm	r3, {r1, ip}
f0002cac:	e5921cb8 	ldr	r1, [r2, #3256]	; 0xcb8
f0002cb0:	e5831008 	str	r1, [r3, #8]
f0002cb4:	e5922ca0 	ldr	r2, [r2, #3232]	; 0xca0
f0002cb8:	e583200c 	str	r2, [r3, #12]
f0002cbc:	e12fff1e 	bx	lr

f0002cc0 <mem_tmr_exit>:
f0002cc0:	e30335cc 	movw	r3, #13772	; 0x35cc
f0002cc4:	e3a00000 	mov	r0, #0
f0002cc8:	e34f3000 	movt	r3, #61440	; 0xf000
f0002ccc:	e8931004 	ldm	r3, {r2, ip}
f0002cd0:	e5931008 	ldr	r1, [r3, #8]
f0002cd4:	e593300c 	ldr	r3, [r3, #12]
f0002cd8:	e582c0b4 	str	ip, [r2, #180]	; 0xb4
f0002cdc:	e58210b8 	str	r1, [r2, #184]	; 0xb8
f0002ce0:	e58230a0 	str	r3, [r2, #160]	; 0xa0
f0002ce4:	e12fff1e 	bx	lr

f0002ce8 <mem_tmr_enable_watchdog>:
f0002ce8:	e30335cc 	movw	r3, #13772	; 0x35cc
f0002cec:	e34f3000 	movt	r3, #61440	; 0xf000
f0002cf0:	e5933000 	ldr	r3, [r3]
f0002cf4:	e59320b4 	ldr	r2, [r3, #180]	; 0xb4
f0002cf8:	e3c22003 	bic	r2, r2, #3
f0002cfc:	e58320b4 	str	r2, [r3, #180]	; 0xb4
f0002d00:	e59320b4 	ldr	r2, [r3, #180]	; 0xb4
f0002d04:	e3822001 	orr	r2, r2, #1
f0002d08:	e58320b4 	str	r2, [r3, #180]	; 0xb4
f0002d0c:	e3a020b0 	mov	r2, #176	; 0xb0
f0002d10:	e58320b8 	str	r2, [r3, #184]	; 0xb8
f0002d14:	e59320a0 	ldr	r2, [r3, #160]	; 0xa0
f0002d18:	e3822001 	orr	r2, r2, #1
f0002d1c:	e58320a0 	str	r2, [r3, #160]	; 0xa0
f0002d20:	e59320b8 	ldr	r2, [r3, #184]	; 0xb8
f0002d24:	e3822001 	orr	r2, r2, #1
f0002d28:	e58320b8 	str	r2, [r3, #184]	; 0xb8
f0002d2c:	e12fff1e 	bx	lr

f0002d30 <mem_tmr_disable_watchdog>:
f0002d30:	e30335cc 	movw	r3, #13772	; 0x35cc
f0002d34:	e34f3000 	movt	r3, #61440	; 0xf000
f0002d38:	e5933000 	ldr	r3, [r3]
f0002d3c:	e59320b4 	ldr	r2, [r3, #180]	; 0xb4
f0002d40:	e3c22003 	bic	r2, r2, #3
f0002d44:	e58320b4 	str	r2, [r3, #180]	; 0xb4
f0002d48:	e59320b4 	ldr	r2, [r3, #180]	; 0xb4
f0002d4c:	e3822002 	orr	r2, r2, #2
f0002d50:	e58320b4 	str	r2, [r3, #180]	; 0xb4
f0002d54:	e59320a0 	ldr	r2, [r3, #160]	; 0xa0
f0002d58:	e3c22001 	bic	r2, r2, #1
f0002d5c:	e58320a0 	str	r2, [r3, #160]	; 0xa0
f0002d60:	e59320b8 	ldr	r2, [r3, #184]	; 0xb8
f0002d64:	e3c22001 	bic	r2, r2, #1
f0002d68:	e58320b8 	str	r2, [r3, #184]	; 0xb8
f0002d6c:	e12fff1e 	bx	lr

f0002d70 <mem_clk_init>:
f0002d70:	e3500001 	cmp	r0, #1
f0002d74:	e3a03000 	mov	r3, #0
f0002d78:	059f201c 	ldreq	r2, [pc, #28]	; f0002d9c <mem_clk_init+0x2c>
f0002d7c:	034f31c2 	movteq	r3, #61890	; 0xf1c2
f0002d80:	159f2014 	ldrne	r2, [pc, #20]	; f0002d9c <mem_clk_init+0x2c>
f0002d84:	134031c2 	movtne	r3, #450	; 0x1c2
f0002d88:	01a00003 	moveq	r0, r3
f0002d8c:	11a00003 	movne	r0, r3
f0002d90:	05823000 	streq	r3, [r2]
f0002d94:	15823000 	strne	r3, [r2]
f0002d98:	e12fff1e 	bx	lr
f0002d9c:	f00035dc 			; <UNDEFINED> instruction: 0xf00035dc

f0002da0 <mem_get_ba>:
f0002da0:	e30335dc 	movw	r3, #13788	; 0x35dc
f0002da4:	e34f3000 	movt	r3, #61440	; 0xf000
f0002da8:	e5930000 	ldr	r0, [r3]
f0002dac:	e12fff1e 	bx	lr

f0002db0 <mem_clk_save>:
f0002db0:	e3a03000 	mov	r3, #0
f0002db4:	e1a02000 	mov	r2, r0
f0002db8:	e34f31c2 	movt	r3, #61890	; 0xf1c2
f0002dbc:	e30305dc 	movw	r0, #13788	; 0x35dc
f0002dc0:	e5931050 	ldr	r1, [r3, #80]	; 0x50
f0002dc4:	e34f0000 	movt	r0, #61440	; 0xf000
f0002dc8:	e5803000 	str	r3, [r0]
f0002dcc:	e3a00000 	mov	r0, #0
f0002dd0:	e5823000 	str	r3, [r2]
f0002dd4:	e5821004 	str	r1, [r2, #4]
f0002dd8:	e5931058 	ldr	r1, [r3, #88]	; 0x58
f0002ddc:	e5821008 	str	r1, [r2, #8]
f0002de0:	e5933054 	ldr	r3, [r3, #84]	; 0x54
f0002de4:	e582300c 	str	r3, [r2, #12]
f0002de8:	e12fff1e 	bx	lr

f0002dec <mem_clk_restore>:
f0002dec:	e5903000 	ldr	r3, [r0]
f0002df0:	e30315dc 	movw	r1, #13788	; 0x35dc
f0002df4:	e590c004 	ldr	ip, [r0, #4]
f0002df8:	e1a02000 	mov	r2, r0
f0002dfc:	e34f1000 	movt	r1, #61440	; 0xf000
f0002e00:	e3a00000 	mov	r0, #0
f0002e04:	e5813000 	str	r3, [r1]
f0002e08:	e583c050 	str	ip, [r3, #80]	; 0x50
f0002e0c:	e5921008 	ldr	r1, [r2, #8]
f0002e10:	e5831058 	str	r1, [r3, #88]	; 0x58
f0002e14:	e592200c 	ldr	r2, [r2, #12]
f0002e18:	e5832054 	str	r2, [r3, #84]	; 0x54
f0002e1c:	e12fff1e 	bx	lr

f0002e20 <mem_clk_setdiv>:
f0002e20:	e92d4038 	push	{r3, r4, r5, lr}
f0002e24:	e2504000 	subs	r4, r0, #0
f0002e28:	0a000013 	beq	f0002e7c <mem_clk_setdiv+0x5c>
f0002e2c:	e59f5050 	ldr	r5, [pc, #80]	; f0002e84 <mem_clk_setdiv+0x64>
f0002e30:	e3a03000 	mov	r3, #0
f0002e34:	e34031c2 	movt	r3, #450	; 0x1c2
f0002e38:	e5941000 	ldr	r1, [r4]
f0002e3c:	e3a0000a 	mov	r0, #10
f0002e40:	e5853000 	str	r3, [r5]
f0002e44:	e5932050 	ldr	r2, [r3, #80]	; 0x50
f0002e48:	e7c12011 	bfi	r2, r1, #0, #2
f0002e4c:	e5852004 	str	r2, [r5, #4]
f0002e50:	e5832050 	str	r2, [r3, #80]	; 0x50
f0002e54:	e5942004 	ldr	r2, [r4, #4]
f0002e58:	e3c22a03 	bic	r2, r2, #12288	; 0x3000
f0002e5c:	e3822a01 	orr	r2, r2, #4096	; 0x1000
f0002e60:	e5832054 	str	r2, [r3, #84]	; 0x54
f0002e64:	ebfff999 	bl	f00014d0 <delay_us>
f0002e68:	e5953000 	ldr	r3, [r5]
f0002e6c:	e3a00000 	mov	r0, #0
f0002e70:	e5942004 	ldr	r2, [r4, #4]
f0002e74:	e5832054 	str	r2, [r3, #84]	; 0x54
f0002e78:	e8bd8038 	pop	{r3, r4, r5, pc}
f0002e7c:	e3e00000 	mvn	r0, #0
f0002e80:	e8bd8038 	pop	{r3, r4, r5, pc}
f0002e84:	f00035dc 			; <UNDEFINED> instruction: 0xf00035dc

f0002e88 <mem_clk_getdiv>:
f0002e88:	e2502000 	subs	r2, r0, #0
f0002e8c:	e52d4004 	push	{r4}		; (str r4, [sp, #-4]!)
f0002e90:	03e00000 	mvneq	r0, #0
f0002e94:	0a00000a 	beq	f0002ec4 <mem_clk_getdiv+0x3c>
f0002e98:	e59f102c 	ldr	r1, [pc, #44]	; f0002ecc <mem_clk_getdiv+0x44>
f0002e9c:	e3a03000 	mov	r3, #0
f0002ea0:	e34f31c2 	movt	r3, #61890	; 0xf1c2
f0002ea4:	e3a00000 	mov	r0, #0
f0002ea8:	e5813000 	str	r3, [r1]
f0002eac:	e593c050 	ldr	ip, [r3, #80]	; 0x50
f0002eb0:	e20c4003 	and	r4, ip, #3
f0002eb4:	e581c004 	str	ip, [r1, #4]
f0002eb8:	e5824000 	str	r4, [r2]
f0002ebc:	e5933054 	ldr	r3, [r3, #84]	; 0x54
f0002ec0:	e5823004 	str	r3, [r2, #4]
f0002ec4:	e8bd0010 	pop	{r4}
f0002ec8:	e12fff1e 	bx	lr
f0002ecc:	f00035dc 			; <UNDEFINED> instruction: 0xf00035dc

f0002ed0 <mem_clk_set_pll_factor>:
f0002ed0:	e30335dc 	movw	r3, #13788	; 0x35dc
f0002ed4:	e3a02000 	mov	r2, #0
f0002ed8:	e34f3000 	movt	r3, #61440	; 0xf000
f0002edc:	e1a01000 	mov	r1, r0
f0002ee0:	e34021c2 	movt	r2, #450	; 0x1c2
f0002ee4:	e52d4004 	push	{r4}		; (str r4, [sp, #-4]!)
f0002ee8:	e5832000 	str	r2, [r3]
f0002eec:	e3a00000 	mov	r0, #0
f0002ef0:	e5d14003 	ldrb	r4, [r1, #3]
f0002ef4:	e592c000 	ldr	ip, [r2]
f0002ef8:	e7d1c814 	bfi	ip, r4, #16, #2
f0002efc:	e583c008 	str	ip, [r3, #8]
f0002f00:	e5d14002 	ldrb	r4, [r1, #2]
f0002f04:	e7c1c014 	bfi	ip, r4, #0, #2
f0002f08:	e583c008 	str	ip, [r3, #8]
f0002f0c:	e5d14001 	ldrb	r4, [r1, #1]
f0002f10:	e7c5c214 	bfi	ip, r4, #4, #2
f0002f14:	e583c008 	str	ip, [r3, #8]
f0002f18:	e5d11000 	ldrb	r1, [r1]
f0002f1c:	e7ccc411 	bfi	ip, r1, #8, #5
f0002f20:	e583c008 	str	ip, [r3, #8]
f0002f24:	e582c000 	str	ip, [r2]
f0002f28:	e8bd0010 	pop	{r4}
f0002f2c:	e12fff1e 	bx	lr

f0002f30 <mem_clk_get_pll_factor>:
f0002f30:	e30315dc 	movw	r1, #13788	; 0x35dc
f0002f34:	e3a03000 	mov	r3, #0
f0002f38:	e34f1000 	movt	r1, #61440	; 0xf000
f0002f3c:	e34f31c2 	movt	r3, #61890	; 0xf1c2
f0002f40:	e92d0070 	push	{r4, r5, r6}
f0002f44:	e1a02000 	mov	r2, r0
f0002f48:	e5813000 	str	r3, [r1]
f0002f4c:	e3a00000 	mov	r0, #0
f0002f50:	e5933000 	ldr	r3, [r3]
f0002f54:	e7e46453 	ubfx	r6, r3, #8, #5
f0002f58:	e7e15253 	ubfx	r5, r3, #4, #2
f0002f5c:	e7e14053 	ubfx	r4, r3, #0, #2
f0002f60:	e7e1c853 	ubfx	ip, r3, #16, #2
f0002f64:	e5813008 	str	r3, [r1, #8]
f0002f68:	e5c26000 	strb	r6, [r2]
f0002f6c:	e5c25001 	strb	r5, [r2, #1]
f0002f70:	e5c24002 	strb	r4, [r2, #2]
f0002f74:	e5c2c003 	strb	ip, [r2, #3]
f0002f78:	e8bd0070 	pop	{r4, r5, r6}
f0002f7c:	e12fff1e 	bx	lr

f0002f80 <mem_clk_set_misc>:
f0002f80:	e1a02000 	mov	r2, r0
f0002f84:	e5900000 	ldr	r0, [r0]
f0002f88:	e30315dc 	movw	r1, #13788	; 0x35dc
f0002f8c:	e3a03000 	mov	r3, #0
f0002f90:	e34031c2 	movt	r3, #450	; 0x1c2
f0002f94:	e34f1000 	movt	r1, #61440	; 0xf000
f0002f98:	e5813000 	str	r3, [r1]
f0002f9c:	e5830220 	str	r0, [r3, #544]	; 0x220
f0002fa0:	e3a00000 	mov	r0, #0
f0002fa4:	e592c008 	ldr	ip, [r2, #8]
f0002fa8:	e583c250 	str	ip, [r3, #592]	; 0x250
f0002fac:	e592c014 	ldr	ip, [r2, #20]
f0002fb0:	e583c228 	str	ip, [r3, #552]	; 0x228
f0002fb4:	e592c018 	ldr	ip, [r2, #24]
f0002fb8:	e583c22c 	str	ip, [r3, #556]	; 0x22c
f0002fbc:	e592c01c 	ldr	ip, [r2, #28]
f0002fc0:	e583c288 	str	ip, [r3, #648]	; 0x288
f0002fc4:	e592c020 	ldr	ip, [r2, #32]
f0002fc8:	e583c28c 	str	ip, [r3, #652]	; 0x28c
f0002fcc:	e592c00c 	ldr	ip, [r2, #12]
f0002fd0:	e583c010 	str	ip, [r3, #16]
f0002fd4:	e3a0c001 	mov	ip, #1
f0002fd8:	e5922010 	ldr	r2, [r2, #16]
f0002fdc:	e5832018 	str	r2, [r3, #24]
f0002fe0:	e5932050 	ldr	r2, [r3, #80]	; 0x50
f0002fe4:	e7c1201c 	bfi	r2, ip, #0, #2
f0002fe8:	e5812004 	str	r2, [r1, #4]
f0002fec:	e5832050 	str	r2, [r3, #80]	; 0x50
f0002ff0:	e12fff1e 	bx	lr

f0002ff4 <mem_clk_get_misc>:
f0002ff4:	e3a03000 	mov	r3, #0
f0002ff8:	e1a02000 	mov	r2, r0
f0002ffc:	e34f31c2 	movt	r3, #61890	; 0xf1c2
f0003000:	e30305dc 	movw	r0, #13788	; 0x35dc
f0003004:	e5931220 	ldr	r1, [r3, #544]	; 0x220
f0003008:	e34f0000 	movt	r0, #61440	; 0xf000
f000300c:	e5803000 	str	r3, [r0]
f0003010:	e3a00000 	mov	r0, #0
f0003014:	e5821000 	str	r1, [r2]
f0003018:	e5931250 	ldr	r1, [r3, #592]	; 0x250
f000301c:	e5821008 	str	r1, [r2, #8]
f0003020:	e5931228 	ldr	r1, [r3, #552]	; 0x228
f0003024:	e5821014 	str	r1, [r2, #20]
f0003028:	e593122c 	ldr	r1, [r3, #556]	; 0x22c
f000302c:	e5821018 	str	r1, [r2, #24]
f0003030:	e5931288 	ldr	r1, [r3, #648]	; 0x288
f0003034:	e582101c 	str	r1, [r2, #28]
f0003038:	e593128c 	ldr	r1, [r3, #652]	; 0x28c
f000303c:	e5821020 	str	r1, [r2, #32]
f0003040:	e5931010 	ldr	r1, [r3, #16]
f0003044:	e582100c 	str	r1, [r2, #12]
f0003048:	e5933018 	ldr	r3, [r3, #24]
f000304c:	e5823010 	str	r3, [r2, #16]
f0003050:	e12fff1e 	bx	lr

f0003054 <mem_clk_get_cpu_freq>:
f0003054:	e59f2060 	ldr	r2, [pc, #96]	; f00030bc <mem_clk_get_cpu_freq+0x68>
f0003058:	e5920000 	ldr	r0, [r2]
f000305c:	e5903050 	ldr	r3, [r0, #80]	; 0x50
f0003060:	e7e11853 	ubfx	r1, r3, #16, #2
f0003064:	e5823004 	str	r3, [r2, #4]
f0003068:	e3510000 	cmp	r1, #0
f000306c:	03a00020 	moveq	r0, #32
f0003070:	012fff1e 	bxeq	lr
f0003074:	e3510001 	cmp	r1, #1
f0003078:	0a00000d 	beq	f00030b4 <mem_clk_get_cpu_freq+0x60>
f000307c:	e5903000 	ldr	r3, [r0]
f0003080:	e7e10253 	ubfx	r0, r3, #4, #2
f0003084:	e7e4c453 	ubfx	ip, r3, #8, #5
f0003088:	e2800001 	add	r0, r0, #1
f000308c:	e5823008 	str	r3, [r2, #8]
f0003090:	e020009c 	mla	r0, ip, r0, r0
f0003094:	e7e11853 	ubfx	r1, r3, #16, #2
f0003098:	e3a02001 	mov	r2, #1
f000309c:	e2033003 	and	r3, r3, #3
f00030a0:	e1a01112 	lsl	r1, r2, r1
f00030a4:	e3052dc0 	movw	r2, #24000	; 0x5dc0
f00030a8:	e0000092 	mul	r0, r2, r0
f00030ac:	e0211193 	mla	r1, r3, r1, r1
f00030b0:	eafffe52 	b	f0002a00 <raw_lib_udiv>
f00030b4:	e3050dc0 	movw	r0, #24000	; 0x5dc0
f00030b8:	e12fff1e 	bx	lr
f00030bc:	f00035dc 			; <UNDEFINED> instruction: 0xf00035dc

f00030c0 <axp20_ldo4_data>:
f00030c0:	000004e2 	andeq	r0, r0, r2, ror #9
f00030c4:	00000514 	andeq	r0, r0, r4, lsl r5
f00030c8:	00000578 	andeq	r0, r0, r8, ror r5
f00030cc:	000005dc 	ldrdeq	r0, [r0], -ip
f00030d0:	00000640 	andeq	r0, r0, r0, asr #12
f00030d4:	000006a4 	andeq	r0, r0, r4, lsr #13
f00030d8:	00000708 	andeq	r0, r0, r8, lsl #14
f00030dc:	0000076c 	andeq	r0, r0, ip, ror #14
f00030e0:	000007d0 	ldrdeq	r0, [r0], -r0	; <UNPREDICTABLE>
f00030e4:	000009c4 	andeq	r0, r0, r4, asr #19
f00030e8:	00000a8c 	andeq	r0, r0, ip, lsl #21
f00030ec:	00000af0 	strdeq	r0, [r0], -r0	; <UNPREDICTABLE>
f00030f0:	00000bb8 			; <UNDEFINED> instruction: 0x00000bb8
f00030f4:	00000c1c 	andeq	r0, r0, ip, lsl ip
f00030f8:	00000c80 	andeq	r0, r0, r0, lsl #25
f00030fc:	00000ce4 	andeq	r0, r0, r4, ror #25

f0003100 <TWI_REG_BASE>:
f0003100:	f1c2ac00 			; <UNDEFINED> instruction: 0xf1c2ac00
f0003104:	f1c2b000 			; <UNDEFINED> instruction: 0xf1c2b000
f0003108:	f1c2b400 			; <UNDEFINED> instruction: 0xf1c2b400

f000310c <CSWTCH.9>:
f000310c:	00000001 	andeq	r0, r0, r1
f0003110:	00000002 	andeq	r0, r0, r2
f0003114:	00000000 	andeq	r0, r0, r0
f0003118:	00000003 	andeq	r0, r0, r3

f000311c <CSWTCH.11>:
f000311c:	00007d00 	andeq	r7, r0, r0, lsl #26
f0003120:	016e3600 	cmneq	lr, r0, lsl #12
f0003124:	23c34600 	biccs	r4, r3, #0

Disassembly of section .rodata.str1.4:

f0003128 <.rodata.str1.4>:
f0003128:	6d726f6e 	ldclvs	15, cr6, [r2, #-440]!	; 0xfffffe48
f000312c:	73206c61 	teqvc	r0, #24832	; 0x6100
f0003130:	646e6174 	strbtvs	r6, [lr], #-372	; 0x174
f0003134:	77207962 	strvc	r7, [r0, -r2, ror #18]!
f0003138:	75656b61 	strbvc	r6, [r5, #-2913]!	; 0xb61
f000313c:	72732070 	rsbsvc	r2, r3, #112	; 0x70
f0003140:	6f632063 	svcvs	0x00632063
f0003144:	6769666e 	strbvs	r6, [r9, -lr, ror #12]!
f0003148:	30203d20 	eorcc	r3, r0, r0, lsr #26
f000314c:	2e782578 	mrccs	5, 3, r2, cr8, cr8, {3}
f0003150:	00000a20 	andeq	r0, r0, r0, lsr #20
f0003154:	62616e65 	rsbvs	r6, r1, #1616	; 0x650
f0003158:	4320656c 	teqmi	r0, #452984832	; 0x1b000000
f000315c:	5f305550 	svcpl	0x00305550
f0003160:	454b4157 	strbmi	r4, [fp, #-343]	; 0x157
f0003164:	4d5f5055 	ldclmi	0, cr5, [pc, #-340]	; f0003018 <mem_clk_get_misc+0x24>
f0003168:	4f424753 	svcmi	0x00424753
f000316c:	0a202e58 	beq	f080ead4 <__bss_end+0x80b4b8>
f0003170:	00000000 	andeq	r0, r0, r0
f0003174:	31667830 	cmncc	r6, r0, lsr r8
f0003178:	30303263 	eorscc	r3, r0, r3, ror #4
f000317c:	76203035 			; <UNDEFINED> instruction: 0x76203035
f0003180:	65756c61 	ldrbvs	r6, [r5, #-3169]!	; 0xc61
f0003184:	7830203a 	ldmdavc	r0!, {r1, r3, r4, r5, sp}
f0003188:	202e7825 	eorcs	r7, lr, r5, lsr #16
f000318c:	0000000a 	andeq	r0, r0, sl
f0003190:	31667830 	cmncc	r6, r0, lsr r8
f0003194:	30303263 	eorscc	r3, r0, r3, ror #4
f0003198:	76203030 			; <UNDEFINED> instruction: 0x76203030
f000319c:	65756c61 	ldrbvs	r6, [r5, #-3169]!	; 0xc61
f00031a0:	7830203a 	ldmdavc	r0!, {r1, r3, r4, r5, sp}
f00031a4:	202e7825 	eorcs	r7, lr, r5, lsr #16
f00031a8:	0000000a 	andeq	r0, r0, sl
f00031ac:	3d3d3d3d 	ldccc	13, cr3, [sp, #-244]!	; 0xffffff0c
f00031b0:	3d3d3d3d 	ldccc	13, cr3, [sp, #-244]!	; 0xffffff0c
f00031b4:	3d3d3d3d 	ldccc	13, cr3, [sp, #-244]!	; 0xffffff0c
f00031b8:	3d3d3d3d 	ldccc	13, cr3, [sp, #-244]!	; 0xffffff0c
f00031bc:	3d3d3d3d 	ldccc	13, cr3, [sp, #-244]!	; 0xffffff0c
f00031c0:	3d3d3d3d 	ldccc	13, cr3, [sp, #-244]!	; 0xffffff0c
f00031c4:	3d3d3d3d 	ldccc	13, cr3, [sp, #-244]!	; 0xffffff0c
f00031c8:	544f4e3d 	strbpl	r4, [pc], #-3645	; f00031d0 <CSWTCH.11+0xb4>
f00031cc:	3d454349 	stclcc	3, cr4, [r5, #-292]	; 0xfffffedc
f00031d0:	3d3d3d3d 	ldccc	13, cr3, [sp, #-244]!	; 0xffffff0c
f00031d4:	3d3d3d3d 	ldccc	13, cr3, [sp, #-244]!	; 0xffffff0c
f00031d8:	3d3d3d3d 	ldccc	13, cr3, [sp, #-244]!	; 0xffffff0c
f00031dc:	3d3d3d3d 	ldccc	13, cr3, [sp, #-244]!	; 0xffffff0c
f00031e0:	3d3d3d3d 	ldccc	13, cr3, [sp, #-244]!	; 0xffffff0c
f00031e4:	3d3d3d3d 	ldccc	13, cr3, [sp, #-244]!	; 0xffffff0c
f00031e8:	3d3d3d3d 	ldccc	13, cr3, [sp, #-244]!	; 0xffffff0c
f00031ec:	3d3d3d3d 	ldccc	13, cr3, [sp, #-244]!	; 0xffffff0c
f00031f0:	2e3d3d3d 	mrccs	13, 1, r3, cr13, cr13, {1}
f00031f4:	00000a20 	andeq	r0, r0, r0, lsr #20
f00031f8:	61635f64 	cmnvs	r3, r4, ror #30
f00031fc:	5f656863 	svcpl	0x00656863
f0003200:	7373696d 	cmnvc	r3, #1785856	; 0x1b4000
f0003204:	6174735f 	cmnvs	r4, pc, asr r3
f0003208:	3d207472 	cfstrscc	mvf7, [r0, #-456]!	; 0xfffffe38
f000320c:	2c642520 	cfstr64cs	mvdx2, [r4], #-128	; 0xffffff80
f0003210:	635f6420 	cmpvs	pc, #536870912	; 0x20000000
f0003214:	65686361 	strbvs	r6, [r8, #-865]!	; 0x361
f0003218:	73696d5f 	cmnvc	r9, #6080	; 0x17c0
f000321c:	6e655f73 	mcrvs	15, 3, r5, cr5, cr3, {3}
f0003220:	25203d64 	strcs	r3, [r0, #-3428]!	; 0xd64
f0003224:	0a202e64 	beq	f080ebbc <__bss_end+0x80b5a0>
f0003228:	00000000 	andeq	r0, r0, r0
f000322c:	6c745f64 	ldclvs	15, cr5, [r4], #-400	; 0xfffffe70
f0003230:	696d5f62 	stmdbvs	sp!, {r1, r5, r6, r8, r9, sl, fp, ip, lr}^
f0003234:	735f7373 	cmpvc	pc, #-872415231	; 0xcc000001
f0003238:	74726174 	ldrbtvc	r6, [r2], #-372	; 0x174
f000323c:	25203d20 	strcs	r3, [r0, #-3360]!	; 0xd20
f0003240:	64202c64 	strtvs	r2, [r0], #-3172	; 0xc64
f0003244:	626c745f 	rsbvs	r7, ip, #1593835520	; 0x5f000000
f0003248:	73696d5f 	cmnvc	r9, #6080	; 0x17c0
f000324c:	6e655f73 	mcrvs	15, 3, r5, cr5, cr3, {3}
f0003250:	25203d64 	strcs	r3, [r0, #-3428]!	; 0xd64
f0003254:	0a202e64 	beq	f080ebec <__bss_end+0x80b5d0>
f0003258:	00000000 	andeq	r0, r0, r0
f000325c:	61635f69 	cmnvs	r3, r9, ror #30
f0003260:	5f656863 	svcpl	0x00656863
f0003264:	7373696d 	cmnvc	r3, #1785856	; 0x1b4000
f0003268:	6174735f 	cmnvs	r4, pc, asr r3
f000326c:	3d207472 	cfstrscc	mvf7, [r0, #-456]!	; 0xfffffe38
f0003270:	2c642520 	cfstr64cs	mvdx2, [r4], #-128	; 0xffffff80
f0003274:	635f6920 	cmpvs	pc, #524288	; 0x80000
f0003278:	65686361 	strbvs	r6, [r8, #-865]!	; 0x361
f000327c:	73696d5f 	cmnvc	r9, #6080	; 0x17c0
f0003280:	6e655f73 	mcrvs	15, 3, r5, cr5, cr3, {3}
f0003284:	25203d64 	strcs	r3, [r0, #-3428]!	; 0xd64
f0003288:	0a202e64 	beq	f080ec20 <__bss_end+0x80b604>
f000328c:	00000000 	andeq	r0, r0, r0
f0003290:	6c745f69 	ldclvs	15, cr5, [r4], #-420	; 0xfffffe5c
f0003294:	696d5f62 	stmdbvs	sp!, {r1, r5, r6, r8, r9, sl, fp, ip, lr}^
f0003298:	735f7373 	cmpvc	pc, #-872415231	; 0xcc000001
f000329c:	74726174 	ldrbtvc	r6, [r2], #-372	; 0x174
f00032a0:	25203d20 	strcs	r3, [r0, #-3360]!	; 0xd20
f00032a4:	69202c64 	stmdbvs	r0!, {r2, r5, r6, sl, fp, sp}
f00032a8:	626c745f 	rsbvs	r7, ip, #1593835520	; 0x5f000000
f00032ac:	73696d5f 	cmnvc	r9, #6080	; 0x17c0
f00032b0:	6e655f73 	mcrvs	15, 3, r5, cr5, cr3, {3}
f00032b4:	25203d64 	strcs	r3, [r0, #-3428]!	; 0xd64
f00032b8:	0a202e64 	beq	f080ec50 <__bss_end+0x80b634>
f00032bc:	00000000 	andeq	r0, r0, r0
f00032c0:	6d206f6e 	stcvs	15, cr6, [r0, #-440]!	; 0xfffffe48
f00032c4:	2e737369 	cdpcs	3, 7, cr7, cr3, cr9, {3}
f00032c8:	00000a20 	andeq	r0, r0, r0, lsr #20
f00032cc:	65746661 	ldrbvs	r6, [r4, #-1633]!	; 0x661
f00032d0:	656d2072 	strbvs	r2, [sp, #-114]!	; 0x72
f00032d4:	6d745f6d 	ldclvs	15, cr5, [r4, #-436]!	; 0xfffffe4c
f00032d8:	69645f72 	stmdbvs	r4!, {r1, r4, r5, r6, r8, r9, sl, fp, ip, lr}^
f00032dc:	6c626173 	stfvse	f6, [r2], #-460	; 0xfffffe34
f00032e0:	61775f65 	cmnvs	r7, r5, ror #30
f00032e4:	64686374 	strbtvs	r6, [r8], #-884	; 0x374
f00032e8:	202e676f 	eorcs	r6, lr, pc, ror #14
f00032ec:	0000000a 	andeq	r0, r0, sl
f00032f0:	65746661 	ldrbvs	r6, [r4, #-1633]!	; 0x661
f00032f4:	74732072 	ldrbtvc	r2, [r3], #-114	; 0x72
f00032f8:	62646e61 	rsbvs	r6, r4, #1552	; 0x610
f00032fc:	72615f79 	rsbvc	r5, r1, #484	; 0x1e4
f0003300:	5f637369 	svcpl	0x00637369
f0003304:	74697865 	strbtvc	r7, [r9], #-2149	; 0x865
f0003308:	000a202e 	andeq	r2, sl, lr, lsr #32
f000330c:	65746661 	ldrbvs	r6, [r4, #-1633]!	; 0x661
f0003310:	65722072 	ldrbvs	r2, [r2, #-114]!	; 0x72
f0003314:	726f7473 	rsbvc	r7, pc, #1929379840	; 0x73000000
f0003318:	70735f65 	rsbsvc	r5, r3, r5, ror #30
f000331c:	000a202e 	andeq	r2, sl, lr, lsr #32
f0003320:	72646461 	rsbvc	r6, r4, #1627389952	; 0x61000000
f0003324:	2c782520 	cfldr64cs	mvdx2, [r8], #-128	; 0xffffff80
f0003328:	6c617620 	stclvs	6, cr7, [r1], #-128	; 0xffffff80
f000332c:	3d206575 	cfstr32cc	mvfx6, [r0, #-468]!	; 0xfffffe2c
f0003330:	2e782520 	cdpcs	5, 7, cr2, cr8, cr0, {1}
f0003334:	00000a20 	andeq	r0, r0, r0, lsr #20
f0003338:	33323130 	teqcc	r2, #12
f000333c:	37363534 			; <UNDEFINED> instruction: 0x37363534
f0003340:	42413938 	submi	r3, r1, #917504	; 0xe0000
f0003344:	46454443 	strbmi	r4, [r5], -r3, asr #8
f0003348:	00000000 	andeq	r0, r0, r0
f000334c:	20202020 	eorcs	r2, r0, r0, lsr #32
f0003350:	20202020 	eorcs	r2, r0, r0, lsr #32
f0003354:	20202020 	eorcs	r2, r0, r0, lsr #32
f0003358:	20202020 	eorcs	r2, r0, r0, lsr #32
f000335c:	00000000 	andeq	r0, r0, r0
f0003360:	65747441 	ldrbvs	r7, [r4, #-1089]!	; 0x441
f0003364:	6974706d 	ldmdbvs	r4!, {r0, r2, r3, r5, r6, ip, sp, lr}^
f0003368:	6420676e 	strtvs	r6, [r0], #-1902	; 0x76e
f000336c:	73697669 	cmnvc	r9, #110100480	; 0x6900000
f0003370:	206e6f69 	rsbcs	r6, lr, r9, ror #30
f0003374:	30207962 	eorcc	r7, r0, r2, ror #18
f0003378:	00000021 	andeq	r0, r0, r1, lsr #32
f000337c:	69746f6e 	ldmdbvs	r4!, {r1, r2, r3, r5, r6, r8, r9, sl, fp, sp, lr}^
f0003380:	203a6563 	eorscs	r6, sl, r3, ror #10
f0003384:	20636967 	rsbcs	r6, r3, r7, ror #18
f0003388:	20726169 	rsbscs	r6, r2, r9, ror #2
f000338c:	30203d3d 	eorcc	r3, r0, sp, lsr sp
f0003390:	2e782578 	mrccs	5, 3, r2, cr8, cr8, {3}
f0003394:	00000a20 	andeq	r0, r0, r0, lsr #20

Disassembly of section .data:

f0003398 <axp20_info>:
f0003398:	00000003 	andeq	r0, r0, r3
f000339c:	00000514 	andeq	r0, r0, r4, lsl r5
f00033a0:	00000514 	andeq	r0, r0, r4, lsl r5
	...
f00033b4:	00000004 	andeq	r0, r0, r4
f00033b8:	00000708 	andeq	r0, r0, r8, lsl #14
f00033bc:	00000ce4 	andeq	r0, r0, r4, ror #25
f00033c0:	00000064 	andeq	r0, r0, r4, rrx
f00033c4:	00000028 	andeq	r0, r0, r8, lsr #32
f00033c8:	00000004 	andeq	r0, r0, r4
f00033cc:	00000004 	andeq	r0, r0, r4
f00033d0:	00000005 	andeq	r0, r0, r5
f00033d4:	000002bc 			; <UNDEFINED> instruction: 0x000002bc
f00033d8:	00000dac 	andeq	r0, r0, ip, lsr #27
f00033dc:	00000019 	andeq	r0, r0, r9, lsl r0
f00033e0:	00000029 	andeq	r0, r0, r9, lsr #32
f00033e4:	00000000 	andeq	r0, r0, r0
f00033e8:	00000007 	andeq	r0, r0, r7
f00033ec:	00000006 	andeq	r0, r0, r6
f00033f0:	000004e2 	andeq	r0, r0, r2, ror #9
f00033f4:	00000ce4 	andeq	r0, r0, r4, ror #25
f00033f8:	00000064 	andeq	r0, r0, r4, rrx
f00033fc:	00000028 	andeq	r0, r0, r8, lsr #32
f0003400:	00000000 	andeq	r0, r0, r0
f0003404:	00000004 	andeq	r0, r0, r4
f0003408:	00000001 	andeq	r0, r0, r1
f000340c:	000002bc 			; <UNDEFINED> instruction: 0x000002bc
f0003410:	000008e3 	andeq	r0, r0, r3, ror #17
f0003414:	00000019 	andeq	r0, r0, r9, lsl r0
f0003418:	00000023 	andeq	r0, r0, r3, lsr #32
f000341c:	00000000 	andeq	r0, r0, r0
f0003420:	00000006 	andeq	r0, r0, r6
f0003424:	00000002 	andeq	r0, r0, r2
f0003428:	000002bc 			; <UNDEFINED> instruction: 0x000002bc
f000342c:	00000dac 	andeq	r0, r0, ip, lsr #27
f0003430:	00000019 	andeq	r0, r0, r9, lsl r0
f0003434:	00000027 	andeq	r0, r0, r7, lsr #32
f0003438:	00000000 	andeq	r0, r0, r0
f000343c:	00000007 	andeq	r0, r0, r7

f0003440 <arisc_sram_a2_vbase>:
f0003440:	f0040000 			; <UNDEFINED> instruction: 0xf0040000

Disassembly of section .bss:

f0003444 <sp_backup>:
f0003444:	00000000 	andeq	r0, r0, r0

f0003448 <d_cache_miss_start>:
f0003448:	00000000 	andeq	r0, r0, r0

f000344c <d_tlb_miss_start>:
f000344c:	00000000 	andeq	r0, r0, r0

f0003450 <i_tlb_miss_start>:
f0003450:	00000000 	andeq	r0, r0, r0

f0003454 <i_cache_miss_start>:
f0003454:	00000000 	andeq	r0, r0, r0

f0003458 <d_cache_miss_end>:
f0003458:	00000000 	andeq	r0, r0, r0

f000345c <d_tlb_miss_end>:
f000345c:	00000000 	andeq	r0, r0, r0

f0003460 <i_tlb_miss_end>:
f0003460:	00000000 	andeq	r0, r0, r0

f0003464 <i_cache_miss_end>:
f0003464:	00000000 	andeq	r0, r0, r0

f0003468 <r_prcm>:
f0003468:	00000000 	andeq	r0, r0, r0

f000346c <CmuReg>:
f000346c:	00000000 	andeq	r0, r0, r0

f0003470 <CmuReg_SysClkDiv_tmp>:
f0003470:	00000000 	andeq	r0, r0, r0

f0003474 <CmuReg_Pll1Ctl_tmp>:
f0003474:	00000000 	andeq	r0, r0, r0

f0003478 <KeyReg>:
f0003478:	00000000 	andeq	r0, r0, r0

f000347c <KeyCtrl>:
f000347c:	00000000 	andeq	r0, r0, r0

f0003480 <KeyIntc>:
f0003480:	00000000 	andeq	r0, r0, r0

f0003484 <twi_reg>:
f0003484:	00000000 	andeq	r0, r0, r0

f0003488 <TwiClkRegBak>:
f0003488:	00000000 	andeq	r0, r0, r0

f000348c <TwiCtlRegBak>:
f000348c:	00000000 	andeq	r0, r0, r0

f0003490 <wakeup_event>:
f0003490:	00000000 	andeq	r0, r0, r0

f0003494 <restore_completed>:
f0003494:	00000000 	andeq	r0, r0, r0

f0003498 <message_start>:
f0003498:	00000000 	andeq	r0, r0, r0

f000349c <message_end>:
f000349c:	00000000 	andeq	r0, r0, r0

f00034a0 <print_flag>:
f00034a0:	00000000 	andeq	r0, r0, r0

f00034a4 <backup_perf_counter_ctrl_reg>:
f00034a4:	00000000 	andeq	r0, r0, r0

f00034a8 <backup_perf_counter_enable_reg>:
f00034a8:	00000000 	andeq	r0, r0, r0

f00034ac <overhead>:
f00034ac:	00000000 	andeq	r0, r0, r0

f00034b0 <cpu_freq>:
f00034b0:	00000000 	andeq	r0, r0, r0

f00034b4 <backup_ccu_uart>:
f00034b4:	00000000 	andeq	r0, r0, r0

f00034b8 <backup_ccu_uart_reset>:
f00034b8:	00000000 	andeq	r0, r0, r0

f00034bc <backup_gpio_uart>:
f00034bc:	00000000 	andeq	r0, r0, r0

f00034c0 <serial_inited_flag>:
f00034c0:	00000000 	andeq	r0, r0, r0

f00034c4 <debugger_buffer>:
	...

f00035c4 <GicDDisc>:
f00035c4:	00000000 	andeq	r0, r0, r0

f00035c8 <GicCDisc>:
f00035c8:	00000000 	andeq	r0, r0, r0

f00035cc <TmrReg>:
f00035cc:	00000000 	andeq	r0, r0, r0

f00035d0 <WatchDog1_Config_Reg_Bak>:
f00035d0:	00000000 	andeq	r0, r0, r0

f00035d4 <WatchDog1_Mod_Reg_Bak>:
f00035d4:	00000000 	andeq	r0, r0, r0

f00035d8 <WatchDog1_Irq_En_Bak>:
f00035d8:	00000000 	andeq	r0, r0, r0

f00035dc <CmuReg>:
f00035dc:	00000000 	andeq	r0, r0, r0

f00035e0 <CmuReg_SysClkDiv_tmp>:
f00035e0:	00000000 	andeq	r0, r0, r0

f00035e4 <CmuReg_Pll1Ctl_tmp>:
f00035e4:	00000000 	andeq	r0, r0, r0

f00035e8 <pm_info>:
	...

f0003604 <normal_standby_para_info>:
	...

f0003618 <cpu_ms_loopcnt>:
f0003618:	00000000 	andeq	r0, r0, r0

Disassembly of section .debug_info:

00000000 <.debug_info>:
       0:	0000054e 	andeq	r0, r0, lr, asr #10
       4:	00000002 	andeq	r0, r0, r2
       8:	01040000 	mrseq	r0, (UNDEF: 4)
       c:	000001fd 	strdeq	r0, [r0], -sp
      10:	00007201 	andeq	r7, r0, r1, lsl #4
      14:	00014000 	andeq	r4, r1, r0
      18:	00000000 	andeq	r0, r0, r0
      1c:	000454f0 	strdeq	r5, [r4], -r0
      20:	000000f0 	strdeq	r0, [r0], -r0	; <UNPREDICTABLE>
      24:	06010200 	streq	r0, [r1], -r0, lsl #4
      28:	00000268 	andeq	r0, r0, r8, ror #4
      2c:	66080102 	strvs	r0, [r8], -r2, lsl #2
      30:	02000002 	andeq	r0, r0, #2
      34:	00b80502 	adcseq	r0, r8, r2, lsl #10
      38:	02020000 	andeq	r0, r2, #0
      3c:	0003ea07 	andeq	lr, r3, r7, lsl #20
      40:	05040300 	streq	r0, [r4, #-768]	; 0x300
      44:	00746e69 	rsbseq	r6, r4, r9, ror #28
      48:	00038e04 	andeq	r8, r3, r4, lsl #28
      4c:	53130500 	tstpl	r3, #0
      50:	02000000 	andeq	r0, r0, #0
      54:	02f80704 	rscseq	r0, r8, #1048576	; 0x100000
      58:	08020000 	stmdaeq	r2, {}	; <UNPREDICTABLE>
      5c:	0001dc05 	andeq	sp, r1, r5, lsl #24
      60:	07080200 	streq	r0, [r8, -r0, lsl #4]
      64:	000002ee 	andeq	r0, r0, lr, ror #5
      68:	00049b05 	andeq	r9, r4, r5, lsl #22
      6c:	14020400 	strne	r0, [r2], #-1024	; 0x400
      70:	0000008d 	andeq	r0, r0, sp, lsl #1
      74:	00019406 	andeq	r9, r1, r6, lsl #8
      78:	e6060100 	str	r0, [r6], -r0, lsl #2
      7c:	02000004 	andeq	r0, r0, #4
      80:	00038106 	andeq	r8, r3, r6, lsl #2
      84:	5b060300 	blpl	180c8c <__standby_start+0x180c8c>
      88:	05000002 	streq	r0, [r0, #-2]
      8c:	01110500 	tsteq	r1, r0, lsl #10
      90:	03040000 	movweq	r0, #16384	; 0x4000
      94:	0000c018 	andeq	ip, r0, r8, lsl r0
      98:	04170600 	ldreq	r0, [r7], #-1536	; 0x600
      9c:	06320000 	ldrteq	r0, [r2], -r0
      a0:	00000429 	andeq	r0, r0, r9, lsr #8
      a4:	00fd0633 	rscseq	r0, sp, r3, lsr r6
      a8:	06000000 	streq	r0, [r0], -r0
      ac:	000003fd 	strdeq	r0, [r0], -sp
      b0:	03d8063e 	bicseq	r0, r8, #65011712	; 0x3e00000
      b4:	00c00000 	sbceq	r0, r0, r0
      b8:	0004d306 	andeq	sp, r4, r6, lsl #6
      bc:	0000d100 	andeq	sp, r0, r0, lsl #2
      c0:	00040e07 	andeq	r0, r4, r7, lsl #28
      c4:	45041000 	strmi	r1, [r4, #-0]
      c8:	000000fd 	strdeq	r0, [r0], -sp
      cc:	04006e08 	streq	r6, [r0], #-3592	; 0xe08
      d0:	00004146 	andeq	r4, r0, r6, asr #2
      d4:	00230200 	eoreq	r0, r3, r0, lsl #4
      d8:	04006b08 	streq	r6, [r0], #-2824	; 0xb08
      dc:	00004147 	andeq	r4, r0, r7, asr #2
      e0:	04230200 	strteq	r0, [r3], #-512	; 0x200
      e4:	04006d08 	streq	r6, [r0], #-3336	; 0xd08
      e8:	00004148 	andeq	r4, r0, r8, asr #2
      ec:	08230200 	stmdaeq	r3!, {r9}
      f0:	04007008 	streq	r7, [r0], #-8
      f4:	00004149 	andeq	r4, r0, r9, asr #2
      f8:	0c230200 	sfmeq	f0, 4, [r3], #-0
      fc:	03cd0400 	biceq	r0, sp, #0
     100:	4a040000 	bmi	100108 <__standby_start+0x100108>
     104:	000000c0 	andeq	r0, r0, r0, asr #1
     108:	00029d07 	andeq	r9, r2, r7, lsl #26
     10c:	4c041400 	cfstrsmi	mvf1, [r4], {-0}
     110:	00000157 	andeq	r0, r0, r7, asr r1
     114:	63727308 	cmnvs	r2, #536870912	; 0x20000000
     118:	414d0400 	cmpmi	sp, r0, lsl #8
     11c:	02000000 	andeq	r0, r0, #0
     120:	00090023 	andeq	r0, r9, r3, lsr #32
     124:	04000000 	streq	r0, [r0], #-0
     128:	0000414e 	andeq	r4, r0, lr, asr #2
     12c:	04230200 	strteq	r0, [r3], #-512	; 0x200
     130:	00049109 	andeq	r9, r4, r9, lsl #2
     134:	414f0400 	cmpmi	pc, r0, lsl #8
     138:	02000000 	andeq	r0, r0, #0
     13c:	6e080823 	cdpvs	8, 0, cr0, cr8, cr3, {1}
     140:	41500400 	cmpmi	r0, r0, lsl #8
     144:	02000000 	andeq	r0, r0, #0
     148:	6d080c23 	stcvs	12, cr0, [r8, #-140]	; 0xffffff74
     14c:	41510400 	cmpmi	r1, r0, lsl #8
     150:	02000000 	andeq	r0, r0, #0
     154:	04001023 	streq	r1, [r0], #-35	; 0x23
     158:	00000135 	andeq	r0, r0, r5, lsr r1
     15c:	01085204 	tsteq	r8, r4, lsl #4
     160:	c20a0000 	andgt	r0, sl, #0
     164:	44000004 	strmi	r0, [r0], #-4
     168:	ef540401 	svc	0x00540401
     16c:	08000001 	stmdaeq	r0, {r0}
     170:	04006469 	streq	r6, [r0], #-1129	; 0x469
     174:	0001ef58 	andeq	lr, r1, r8, asr pc
     178:	00230200 	eoreq	r0, r3, r0, lsl #4
     17c:	00029309 	andeq	r9, r2, r9, lsl #6
     180:	415d0400 	cmpmi	sp, r0, lsl #8
     184:	02000000 	andeq	r0, r0, #0
     188:	8c090423 	cfstrshi	mvf0, [r9], {35}	; 0x23
     18c:	04000002 	streq	r0, [r0], #-2
     190:	00004162 	andeq	r4, r0, r2, ror #2
     194:	08230200 	stmdaeq	r3!, {r9}
     198:	0000de09 	andeq	sp, r0, r9, lsl #28
     19c:	41670400 	cmnmi	r7, r0, lsl #8
     1a0:	02000000 	andeq	r0, r0, #0
     1a4:	68090c23 	stmdavs	r9, {r0, r1, r5, sl, fp}
     1a8:	04000001 	streq	r0, [r0], #-1
     1ac:	0000416c 	andeq	r4, r0, ip, ror #2
     1b0:	10230200 	eorne	r0, r3, r0, lsl #4
     1b4:	0004aa09 	andeq	sl, r4, r9, lsl #20
     1b8:	41720400 	cmnmi	r2, r0, lsl #8
     1bc:	02000000 	andeq	r0, r0, #0
     1c0:	11091423 	tstne	r9, r3, lsr #8
     1c4:	04000021 	streq	r0, [r0], #-33	; 0x21
     1c8:	0001f678 	andeq	pc, r1, r8, ror r6	; <UNPREDICTABLE>
     1cc:	18230200 	stmdane	r3!, {r9}
     1d0:	00050409 	andeq	r0, r5, r9, lsl #8
     1d4:	41830400 	orrmi	r0, r3, r0, lsl #8
     1d8:	03000000 	movweq	r0, #0
     1dc:	0901c823 	stmdbeq	r1, {r0, r1, r5, fp, lr, pc}
     1e0:	000002ca 	andeq	r0, r0, sl, asr #5
     1e4:	02068904 	andeq	r8, r6, #65536	; 0x10000
     1e8:	23030000 	movwcs	r0, #12288	; 0x3000
     1ec:	020001cc 	andeq	r0, r0, #51	; 0x33
     1f0:	02f30704 	rscseq	r0, r3, #1048576	; 0x100000
     1f4:	fd0b0000 	stc2	0, cr0, [fp, #-0]
     1f8:	06000000 	streq	r0, [r0], -r0
     1fc:	0c000002 	stceq	0, cr0, [r0], {2}
     200:	00000053 	andeq	r0, r0, r3, asr r0
     204:	570b000a 	strpl	r0, [fp, -sl]
     208:	16000001 	strne	r0, [r0], -r1
     20c:	0c000002 	stceq	0, cr0, [r0], {2}
     210:	00000053 	andeq	r0, r0, r3, asr r0
     214:	b7040005 	strlt	r0, [r4, -r5]
     218:	04000002 	streq	r0, [r0], #-2
     21c:	0001628a 	andeq	r6, r1, sl, lsl #5
     220:	16040d00 	strne	r0, [r4], -r0, lsl #26
     224:	07000002 	streq	r0, [r0, -r2]
     228:	0000022e 	andeq	r0, r0, lr, lsr #4
     22c:	7ac80414 	bvc	ff201284 <__bss_end+0xf1fdc68>
     230:	09000002 	stmdbeq	r0, {r1}
     234:	000012b4 			; <UNDEFINED> instruction: 0x000012b4
     238:	01efca04 	mvneq	ip, r4, lsl #20
     23c:	23020000 	movwcs	r0, #8192	; 0x2000
     240:	164e0900 	strbne	r0, [lr], -r0, lsl #18
     244:	cb040000 	blgt	10024c <__standby_start+0x10024c>
     248:	000001ef 	andeq	r0, r0, pc, ror #3
     24c:	09042302 	stmdbeq	r4, {r1, r8, r9, sp}
     250:	00000024 	andeq	r0, r0, r4, lsr #32
     254:	01efcc04 	mvneq	ip, r4, lsl #24
     258:	23020000 	movwcs	r0, #8192	; 0x2000
     25c:	00370908 	eorseq	r0, r7, r8, lsl #18
     260:	cd040000 	stcgt	0, cr0, [r4, #-0]
     264:	000001ef 	andeq	r0, r0, pc, ror #3
     268:	090c2302 	stmdbeq	ip, {r1, r8, r9, sp}
     26c:	000004c1 	andeq	r0, r0, r1, asr #9
     270:	0221ce04 	eoreq	ip, r1, #64	; 0x40
     274:	23020000 	movwcs	r0, #8192	; 0x2000
     278:	42070010 	andmi	r0, r7, #16
     27c:	08000002 	stmdaeq	r0, {r1}
     280:	02a3df04 	adceq	sp, r3, #16
     284:	69090000 	stmdbvs	r9, {}	; <UNPREDICTABLE>
     288:	04000000 	streq	r0, [r0], #-0
     28c:	000053e0 	andeq	r5, r0, r0, ror #7
     290:	00230200 	eoreq	r0, r3, r0, lsl #4
     294:	00032009 	andeq	r2, r3, r9
     298:	2ce10400 	cfstrdcs	mvd0, [r1]
     29c:	02000000 	andeq	r0, r0, #0
     2a0:	07000423 	streq	r0, [r0, -r3, lsr #8]
     2a4:	00000481 	andeq	r0, r0, r1, lsl #9
     2a8:	f6e80414 			; <UNDEFINED> instruction: 0xf6e80414
     2ac:	09000002 	stmdbeq	r0, {r1}
     2b0:	000012b4 			; <UNDEFINED> instruction: 0x000012b4
     2b4:	0053e904 	subseq	lr, r3, r4, lsl #18
     2b8:	23020000 	movwcs	r0, #8192	; 0x2000
     2bc:	03050900 	movweq	r0, #22784	; 0x5900
     2c0:	ea040000 	b	1002c8 <__standby_start+0x1002c8>
     2c4:	00000053 	andeq	r0, r0, r3, asr r0
     2c8:	09042302 	stmdbeq	r4, {r1, r8, r9, sp}
     2cc:	00000281 	andeq	r0, r0, r1, lsl #5
     2d0:	0053eb04 	subseq	lr, r3, r4, lsl #22
     2d4:	23020000 	movwcs	r0, #8192	; 0x2000
     2d8:	164e0908 	strbne	r0, [lr], -r8, lsl #18
     2dc:	ec040000 	stc	0, cr0, [r4], {-0}
     2e0:	00000041 	andeq	r0, r0, r1, asr #32
     2e4:	090c2302 	stmdbeq	ip, {r1, r8, r9, sp}
     2e8:	00000024 	andeq	r0, r0, r4, lsr #32
     2ec:	01efed04 	mvneq	lr, r4, lsl #26
     2f0:	23020000 	movwcs	r0, #8192	; 0x2000
     2f4:	4e070010 	mcrmi	0, 0, r0, cr7, cr0, {0}
     2f8:	1c000003 	stcne	0, cr0, [r0], {3}
     2fc:	031ff404 	tsteq	pc, #67108864	; 0x4000000
     300:	35090000 	strcc	r0, [r9, #-0]
     304:	04000002 	streq	r0, [r0], #-2
     308:	0002a3f5 	strdeq	sl, [r2], -r5
     30c:	00230200 	eoreq	r0, r3, r0, lsl #4
     310:	00024509 	andeq	r4, r2, r9, lsl #10
     314:	7af60400 	bvc	ffd8131c <__bss_end+0xfd7dd00>
     318:	02000002 	andeq	r0, r0, #2
     31c:	0e001423 	cdpeq	4, 0, cr1, cr0, cr3, {1}
     320:	6f240604 	svcvs	0x00240604
     324:	06000003 	streq	r0, [r0], -r3
     328:	000002d5 	ldrdeq	r0, [r0], -r5
     32c:	03690601 	cmneq	r9, #1048576	; 0x100000
     330:	06020000 	streq	r0, [r2], -r0
     334:	00000329 	andeq	r0, r0, r9, lsr #6
     338:	01bc0604 			; <UNDEFINED> instruction: 0x01bc0604
     33c:	06080000 	streq	r0, [r8], -r0
     340:	00000008 	andeq	r0, r0, r8
     344:	00490610 	subeq	r0, r9, r0, lsl r6
     348:	06200000 	strteq	r0, [r0], -r0
     34c:	000003ab 	andeq	r0, r0, fp, lsr #7
     350:	940600c0 	strls	r0, [r6], #-192	; 0xc0
     354:	80000003 	andhi	r0, r0, r3
     358:	04540601 	ldrbeq	r0, [r4], #-1537	; 0x601
     35c:	02800000 	addeq	r0, r0, #0
     360:	0001a106 	andeq	sl, r1, r6, lsl #2
     364:	06048000 	streq	r8, [r4], -r0
     368:	00000359 	andeq	r0, r0, r9, asr r3
     36c:	0f000880 	svceq	0x00000880
     370:	000000eb 	andeq	r0, r0, fp, ror #1
     374:	01011601 	tsteq	r1, r1, lsl #12
     378:	00c20f01 	sbceq	r0, r2, r1, lsl #30
     37c:	1c010000 	stcne	0, cr0, [r1], {-0}
     380:	0f010101 	svceq	0x00010101
     384:	000002a6 	andeq	r0, r0, r6, lsr #5
     388:	01016601 	tsteq	r1, r1, lsl #12
     38c:	04cb1001 	strbeq	r1, [fp], #1
     390:	f7010000 			; <UNDEFINED> instruction: 0xf7010000
     394:	ce0f0101 	adfgte	f0, f7, f1
     398:	01000000 	mrseq	r0, (UNDEF: 0)
     39c:	01010175 	tsteq	r1, r5, ror r1
     3a0:	0004f10f 	andeq	pc, r4, pc, lsl #2
     3a4:	017f0100 	cmneq	pc, r0, lsl #2
     3a8:	01110101 	tsteq	r1, r1, lsl #2
     3ac:	00000274 	andeq	r0, r0, r4, ror r2
     3b0:	41014601 	tstmi	r1, r1, lsl #12
     3b4:	00000000 	andeq	r0, r0, r0
     3b8:	54f00000 	ldrbtpl	r0, [r0], #0
     3bc:	00f00004 	rscseq	r0, r0, r4
     3c0:	37000000 	strcc	r0, [r0, -r0]
     3c4:	12000004 	andne	r0, r0, #4
     3c8:	00677261 	rsbeq	r7, r7, r1, ror #4
     3cc:	04374601 	ldrteq	r4, [r7], #-1537	; 0x601
     3d0:	00200000 	eoreq	r0, r0, r0
     3d4:	f6130000 			; <UNDEFINED> instruction: 0xf6130000
     3d8:	01000000 	mrseq	r0, (UNDEF: 0)
     3dc:	00043d48 	andeq	r3, r4, r8, asr #26
     3e0:	00003e00 	andeq	r3, r0, r0, lsl #28
     3e4:	038d1400 	orreq	r1, sp, #0
     3e8:	00c40000 	sbceq	r0, r4, r0
     3ec:	0120f000 	msreq	CPSR_, r0
     3f0:	8a01f000 	bhi	7c3f8 <__standby_start+0x7c3f8>
     3f4:	00000409 	andeq	r0, r0, r9, lsl #8
     3f8:	00037915 	andeq	r7, r3, r5, lsl r9
     3fc:	0000e800 	andeq	lr, r0, r0, lsl #16
     400:	0000fcf0 	strdeq	pc, [r0], -r0
     404:	010801f0 	strdeq	r0, [r8, -r0]
     408:	03831600 	orreq	r1, r3, #0
     40c:	02800000 	addeq	r0, r0, #0
     410:	02e0f000 	rsceq	pc, r0, #0
     414:	8501f000 	strhi	pc, [r1, #-0]
     418:	00039617 	andeq	r9, r3, r7, lsl r6
     41c:	00034400 	andeq	r4, r3, r0, lsl #8
     420:	000000f0 	strdeq	r0, [r0], -r0	; <UNPREDICTABLE>
     424:	16a30100 	strtne	r0, [r3], r0, lsl #2
     428:	000003a0 	andeq	r0, r0, r0, lsr #7
     42c:	f00003ac 			; <UNDEFINED> instruction: 0xf00003ac
     430:	f00003f0 			; <UNDEFINED> instruction: 0xf00003f0
     434:	0d00a601 	stceq	6, cr10, [r0, #-4]
     438:	0002f604 	andeq	pc, r2, r4, lsl #12
     43c:	43040d00 	movwmi	r0, #19712	; 0x4d00
     440:	02000004 	andeq	r0, r0, #4
     444:	026f0801 	rsbeq	r0, pc, #65536	; 0x10000
     448:	44180000 	ldrmi	r0, [r8], #-0
     44c:	01000003 	tsteq	r0, r3
     450:	00004821 	andeq	r4, r0, r1, lsr #16
     454:	44030500 	strmi	r0, [r3], #-1280	; 0x500
     458:	19f00034 	ldmibne	r0!, {r2, r4, r5}^
     45c:	0000024d 	andeq	r0, r0, sp, asr #4
     460:	00482201 	subeq	r2, r8, r1, lsl #4
     464:	0b000000 	bleq	46c <__standby_start+0x46c>
     468:	00000048 	andeq	r0, r0, r8, asr #32
     46c:	00000478 	andeq	r0, r0, r8, ror r4
     470:	0000531a 	andeq	r5, r0, sl, lsl r3
     474:	000fff00 	andeq	pc, pc, r0, lsl #30
     478:	00050f1b 	andeq	r0, r5, fp, lsl pc
     47c:	67250100 	strvs	r0, [r5, -r0, lsl #2]!
     480:	1c000004 	stcne	0, cr0, [r0], {4}
     484:	00000351 	andeq	r0, r0, r1, asr r3
     488:	02f63601 	rscseq	r3, r6, #1048576	; 0x100000
     48c:	05010000 	streq	r0, [r1, #-0]
     490:	0035e803 	eorseq	lr, r5, r3, lsl #16
     494:	00a51cf0 	strdeq	r1, [r5], r0	; <UNPREDICTABLE>
     498:	2a010000 	bcs	404a0 <__standby_start+0x404a0>
     49c:	00000041 	andeq	r0, r0, r1, asr #32
     4a0:	48030501 	stmdami	r3, {r0, r8, sl}
     4a4:	1cf00034 	ldclne	0, cr0, [r0], #208	; 0xd0
     4a8:	00000470 	andeq	r0, r0, r0, ror r4
     4ac:	00412b01 	subeq	r2, r1, r1, lsl #22
     4b0:	05010000 	streq	r0, [r1, #-0]
     4b4:	00344c03 	eorseq	r4, r4, r3, lsl #24
     4b8:	030f1cf0 	movweq	r1, #64752	; 0xfcf0
     4bc:	2c010000 	stccs	0, cr0, [r1], {-0}
     4c0:	00000041 	andeq	r0, r0, r1, asr #32
     4c4:	50030501 	andpl	r0, r3, r1, lsl #10
     4c8:	1cf00034 	ldclne	0, cr0, [r0], #208	; 0xd0
     4cc:	000001ea 	andeq	r0, r0, sl, ror #3
     4d0:	00412d01 	subeq	r2, r1, r1, lsl #26
     4d4:	05010000 	streq	r0, [r1, #-0]
     4d8:	00345403 	eorseq	r5, r4, r3, lsl #8
     4dc:	01741cf0 	ldrsheq	r1, [r4, #-192]!	; 0xffffff40
     4e0:	2e010000 	cdpcs	0, 0, cr0, cr1, cr0, {0}
     4e4:	00000041 	andeq	r0, r0, r1, asr #32
     4e8:	58030501 	stmdapl	r3, {r0, r8, sl}
     4ec:	1cf00034 	ldclne	0, cr0, [r0], #208	; 0xd0
     4f0:	0000021f 	andeq	r0, r0, pc, lsl r2
     4f4:	00412f01 	subeq	r2, r1, r1, lsl #30
     4f8:	05010000 	streq	r0, [r1, #-0]
     4fc:	00345c03 	eorseq	r5, r4, r3, lsl #24
     500:	01851cf0 	strdeq	r1, [r5, r0]
     504:	30010000 	andcc	r0, r1, r0
     508:	00000041 	andeq	r0, r0, r1, asr #32
     50c:	60030501 	andvs	r0, r3, r1, lsl #10
     510:	1cf00034 	ldclne	0, cr0, [r0], #208	; 0xd0
     514:	00000124 	andeq	r0, r0, r4, lsr #2
     518:	00413101 	subeq	r3, r1, r1, lsl #2
     51c:	05010000 	streq	r0, [r1, #-0]
     520:	00346403 	eorseq	r6, r4, r3, lsl #8
     524:	043b1cf0 	ldrteq	r1, [fp], #-3312	; 0xcf0
     528:	37010000 	strcc	r0, [r1, -r0]
     52c:	00000227 	andeq	r0, r0, r7, lsr #4
     530:	04030501 	streq	r0, [r3], #-1281	; 0x501
     534:	1df00036 	ldclne	0, cr0, [r0, #216]!	; 0xd8
     538:	000004b5 			; <UNDEFINED> instruction: 0x000004b5
     53c:	043d1c01 	ldrteq	r1, [sp], #-3073	; 0xc01
     540:	01010000 	mrseq	r0, (UNDEF: 1)
     544:	00009b1d 	andeq	r9, r0, sp, lsl fp
     548:	3d1d0100 	ldfccs	f0, [sp, #-0]
     54c:	01000004 	tsteq	r0, r4
     550:	010f0001 	tsteq	pc, r1
     554:	00020000 	andeq	r0, r2, r0
     558:	0000019c 	muleq	r0, ip, r1
     55c:	01fd0104 	mvnseq	r0, r4, lsl #2
     560:	1a010000 	bne	40568 <__standby_start+0x40568>
     564:	40000005 	andmi	r0, r0, r5
     568:	54000001 	strpl	r0, [r0], #-1
     56c:	98f00004 	ldmls	r0!, {r2}^
     570:	9ef00004 	cdpls	0, 15, cr0, cr0, cr4, {0}
     574:	02000001 	andeq	r0, r0, #1
     578:	02680601 	rsbeq	r0, r8, #1048576	; 0x100000
     57c:	01020000 	mrseq	r0, (UNDEF: 2)
     580:	00026608 	andeq	r6, r2, r8, lsl #12
     584:	05020200 	streq	r0, [r2, #-512]	; 0x200
     588:	000000b8 	strheq	r0, [r0], -r8
     58c:	ea070202 	b	1c0d9c <__standby_start+0x1c0d9c>
     590:	03000003 	movweq	r0, #3
     594:	6e690504 	cdpvs	5, 6, cr0, cr9, cr4, {0}
     598:	8e040074 	mcrhi	0, 0, r0, cr4, cr4, {3}
     59c:	02000003 	andeq	r0, r0, #3
     5a0:	00005313 	andeq	r5, r0, r3, lsl r3
     5a4:	07040200 	streq	r0, [r4, -r0, lsl #4]
     5a8:	000002f8 	strdeq	r0, [r0], -r8
     5ac:	dc050802 	stcle	8, cr0, [r5], {2}
     5b0:	02000001 	andeq	r0, r0, #1
     5b4:	02ee0708 	rsceq	r0, lr, #2097152	; 0x200000
     5b8:	04020000 	streq	r0, [r2], #-0
     5bc:	0002f307 	andeq	pc, r2, r7, lsl #6
     5c0:	06040500 	streq	r0, [r4], -r0, lsl #10
     5c4:	00056801 	andeq	r6, r5, r1, lsl #16
     5c8:	01230100 	teqeq	r3, r0, lsl #2
     5cc:	f0000454 			; <UNDEFINED> instruction: 0xf0000454
     5d0:	f0000484 			; <UNDEFINED> instruction: 0xf0000484
     5d4:	d1007d02 	tstle	r0, r2, lsl #26
     5d8:	07000000 	streq	r0, [r0, -r0]
     5dc:	00001c13 	andeq	r1, r0, r3, lsl ip
     5e0:	006f2301 	rsbeq	r2, pc, r1, lsl #6
     5e4:	00510000 	subseq	r0, r1, r0
     5e8:	73080000 	movwvc	r0, #32768	; 0x8000
     5ec:	01006372 	tsteq	r0, r2, ror r3
     5f0:	00006f23 	andeq	r6, r0, r3, lsr #30
     5f4:	00006400 	andeq	r6, r0, r0, lsl #8
     5f8:	006e0800 	rsbeq	r0, lr, r0, lsl #16
     5fc:	00412301 	subeq	r2, r1, r1, lsl #6
     600:	00840000 	addeq	r0, r4, r0
     604:	77090000 	strvc	r0, [r9, -r0]
     608:	01000005 	tsteq	r0, r5
     60c:	0000d125 	andeq	sp, r0, r5, lsr #2
     610:	00006400 	andeq	r6, r0, r0, lsl #8
     614:	05510a00 	ldrbeq	r0, [r1, #-2560]	; 0xa00
     618:	26010000 	strcs	r0, [r1], -r0
     61c:	000000d1 	ldrdeq	r0, [r0], -r1
     620:	0b005001 	bleq	1462c <__standby_start+0x1462c>
     624:	0000d704 	andeq	sp, r0, r4, lsl #14
     628:	08010200 	stmdaeq	r1, {r9}
     62c:	0000026f 	andeq	r0, r0, pc, ror #4
     630:	05420106 	strbeq	r0, [r2, #-262]	; 0x106
     634:	43010000 	movwmi	r0, #4096	; 0x1000
     638:	00048401 	andeq	r8, r4, r1, lsl #8
     63c:	000498f0 	strdeq	r9, [r4], -r0
     640:	007d02f0 	ldrshteq	r0, [sp], #-32	; 0xffffffe0
     644:	00000105 	andeq	r0, r0, r5, lsl #2
     648:	00736d08 	rsbseq	r6, r3, r8, lsl #26
     64c:	00414301 	subeq	r4, r1, r1, lsl #6
     650:	00970000 	addseq	r0, r7, r0
     654:	0c000000 	stceq	0, cr0, [r0], {-0}
     658:	00000559 	andeq	r0, r0, r9, asr r5
     65c:	00482803 	subeq	r2, r8, r3, lsl #16
     660:	01010000 	mrseq	r0, (UNDEF: 1)
     664:	00124f00 	andseq	r4, r2, r0, lsl #30
     668:	47000200 	strmi	r0, [r0, -r0, lsl #4]
     66c:	04000002 	streq	r0, [r0], #-2
     670:	0001fd01 	andeq	pc, r1, r1, lsl #26
     674:	09880100 	stmibeq	r8, {r8}
     678:	01400000 	mrseq	r0, (UNDEF: 64)
     67c:	04980000 	ldreq	r0, [r8], #0
     680:	0544f000 	strbeq	pc, [r4, #-0]	; <UNPREDICTABLE>
     684:	0253f000 	subseq	pc, r3, #0
     688:	01020000 	mrseq	r0, (UNDEF: 2)
     68c:	00026806 	andeq	r6, r2, r6, lsl #16
     690:	08010200 	stmdaeq	r1, {r9}
     694:	00000266 	andeq	r0, r0, r6, ror #4
     698:	b8050202 	stmdalt	r5, {r1, r9}
     69c:	02000000 	andeq	r0, r0, #0
     6a0:	03ea0702 	mvneq	r0, #524288	; 0x80000
     6a4:	43030000 	movwmi	r0, #12288	; 0x3000
     6a8:	0200000b 	andeq	r0, r0, #11
     6ac:	00004c12 	andeq	r4, r0, r2, lsl ip
     6b0:	05040400 	streq	r0, [r4, #-1024]	; 0x400
     6b4:	00746e69 	rsbseq	r6, r4, r9, ror #28
     6b8:	00038e03 	andeq	r8, r3, r3, lsl #28
     6bc:	5e130200 	cdppl	2, 1, cr0, cr3, cr0, {0}
     6c0:	02000000 	andeq	r0, r0, #0
     6c4:	02f80704 	rscseq	r0, r8, #1048576	; 0x100000
     6c8:	08020000 	stmdaeq	r2, {}	; <UNPREDICTABLE>
     6cc:	0001dc05 	andeq	sp, r1, r5, lsl #24
     6d0:	07080200 	streq	r0, [r8, -r0, lsl #4]
     6d4:	000002ee 	andeq	r0, r0, lr, ror #5
     6d8:	1a030405 	bne	c16f4 <__standby_start+0xc16f4>
     6dc:	00000159 	andeq	r0, r0, r9, asr r1
     6e0:	00077406 	andeq	r7, r7, r6, lsl #8
     6e4:	531c0300 	tstpl	ip, #0
     6e8:	04000000 	streq	r0, [r0], #-0
     6ec:	23021e02 	movwcs	r1, #11778	; 0x2e02
     6f0:	0bdb0600 	bleq	ff6c1ef8 <__bss_end+0xf6be8dc>
     6f4:	1d030000 	stcne	0, cr0, [r3, #-0]
     6f8:	00000053 	andeq	r0, r0, r3, asr r0
     6fc:	021c0204 	andseq	r0, ip, #1073741824	; 0x40000000
     700:	6c060023 	stcvs	0, cr0, [r6], {35}	; 0x23
     704:	03000007 	movweq	r0, #7
     708:	0000531e 	andeq	r5, r0, lr, lsl r3
     70c:	1a020400 	bne	81714 <__standby_start+0x81714>
     710:	06002302 	streq	r2, [r0], -r2, lsl #6
     714:	00000be5 	andeq	r0, r0, r5, ror #23
     718:	00531f03 	subseq	r1, r3, r3, lsl #30
     71c:	02040000 	andeq	r0, r4, #0
     720:	00230218 	eoreq	r0, r3, r8, lsl r2
     724:	00077c06 	andeq	r7, r7, r6, lsl #24
     728:	53200300 	teqpl	r0, #0
     72c:	04000000 	streq	r0, [r0], #-0
     730:	23021305 	movwcs	r1, #8965	; 0x2305
     734:	0bef0600 	bleq	ffbc1f3c <__bss_end+0xfbbe920>
     738:	21030000 	mrscs	r0, (UNDEF: 3)
     73c:	00000053 	andeq	r0, r0, r3, asr r0
     740:	02100304 	andseq	r0, r0, #268435456	; 0x10000000
     744:	8c060023 	stchi	0, cr0, [r6], {35}	; 0x23
     748:	03000007 	movweq	r0, #7
     74c:	00005322 	andeq	r5, r0, r2, lsr #6
     750:	0e020400 	cfcpyseq	mvf0, mvf2
     754:	06002302 	streq	r2, [r0], -r2, lsl #6
     758:	00000bf9 	strdeq	r0, [r0], -r9
     75c:	00532303 	subseq	r2, r3, r3, lsl #6
     760:	06040000 	streq	r0, [r4], -r0
     764:	00230208 	eoreq	r0, r3, r8, lsl #4
     768:	00097306 	andeq	r7, r9, r6, lsl #6
     76c:	53240300 	teqpl	r4, #0
     770:	04000000 	streq	r0, [r0], #-0
     774:	23020701 	movwcs	r0, #9985	; 0x2701
     778:	0c030600 	stceq	6, cr0, [r3], {-0}
     77c:	25030000 	strcs	r0, [r3, #-0]
     780:	00000053 	andeq	r0, r0, r3, asr r0
     784:	02040304 	andeq	r0, r4, #268435456	; 0x10000000
     788:	e1060023 	tst	r6, r3, lsr #32
     78c:	0300000a 	movweq	r0, #10
     790:	00005326 	andeq	r5, r0, r6, lsr #6
     794:	03010400 	movweq	r0, #5120	; 0x1400
     798:	06002302 	streq	r2, [r0], -r2, lsl #6
     79c:	00000c0d 	andeq	r0, r0, sp, lsl #24
     7a0:	00532703 	subseq	r2, r3, r3, lsl #14
     7a4:	02040000 	andeq	r0, r4, #0
     7a8:	00230201 	eoreq	r0, r3, r1, lsl #4
     7ac:	000b8206 	andeq	r8, fp, r6, lsl #4
     7b0:	53280300 	teqpl	r8, #0
     7b4:	04000000 	streq	r0, [r0], #-0
     7b8:	23020001 	movwcs	r0, #8193	; 0x2001
     7bc:	04070000 	streq	r0, [r7], #-0
     7c0:	01781803 	cmneq	r8, r3, lsl #16
     7c4:	f3080000 	vhadd.u8	d0, d8, d0
     7c8:	03000005 	movweq	r0, #5
     7cc:	00005319 	andeq	r5, r0, r9, lsl r3
     7d0:	0fdc0800 	svceq	0x00dc0800
     7d4:	2a030000 	bcs	c07dc <__standby_start+0xc07dc>
     7d8:	00000073 	andeq	r0, r0, r3, ror r0
     7dc:	0b880300 	bleq	fe2013e4 <__bss_end+0xe1fddc8>
     7e0:	2b030000 	blcs	c07e8 <__standby_start+0xc07e8>
     7e4:	00000159 	andeq	r0, r0, r9, asr r1
     7e8:	000ba909 	andeq	sl, fp, r9, lsl #18
     7ec:	2e030400 	cfcpyscs	mvf0, mvf3
     7f0:	0000024b 	andeq	r0, r0, fp, asr #4
     7f4:	00077406 	andeq	r7, r7, r6, lsl #8
     7f8:	53300300 	teqpl	r0, #0
     7fc:	04000000 	streq	r0, [r0], #-0
     800:	23021b05 	movwcs	r1, #11013	; 0x2b05
     804:	0bdb0600 	bleq	ff6c200c <__bss_end+0xf6be9f0>
     808:	31030000 	mrscc	r0, (UNDEF: 3)
     80c:	00000053 	andeq	r0, r0, r3, asr r0
     810:	02180304 	andseq	r0, r8, #268435456	; 0x10000000
     814:	7c060023 	stcvc	0, cr0, [r6], {35}	; 0x23
     818:	03000007 	movweq	r0, #7
     81c:	00005332 	andeq	r5, r0, r2, lsr r3
     820:	11070400 	tstne	r7, r0, lsl #8
     824:	06002302 	streq	r2, [r0], -r2, lsl #6
     828:	00000be5 	andeq	r0, r0, r5, ror #23
     82c:	00533303 	subseq	r3, r3, r3, lsl #6
     830:	01040000 	mrseq	r0, (UNDEF: 4)
     834:	00230210 	eoreq	r0, r3, r0, lsl r2
     838:	00078c06 	andeq	r8, r7, r6, lsl #24
     83c:	53340300 	teqpl	r4, #0
     840:	04000000 	streq	r0, [r0], #-0
     844:	23020c04 	movwcs	r0, #11268	; 0x2c04
     848:	0bef0600 	bleq	ffbc2050 <__bss_end+0xfbbea34>
     84c:	35030000 	strcc	r0, [r3, #-0]
     850:	00000053 	andeq	r0, r0, r3, asr r0
     854:	02080404 	andeq	r0, r8, #67108864	; 0x4000000
     858:	b6060023 	strlt	r0, [r6], -r3, lsr #32
     85c:	0300000a 	movweq	r0, #10
     860:	00005336 	andeq	r5, r0, r6, lsr r3
     864:	07010400 	streq	r0, [r1, -r0, lsl #8]
     868:	06002302 	streq	r2, [r0], -r2, lsl #6
     86c:	00000bf9 	strdeq	r0, [r0], -r9
     870:	00533703 	subseq	r3, r3, r3, lsl #14
     874:	03040000 	movweq	r0, #16384	; 0x4000
     878:	00230204 	eoreq	r0, r3, r4, lsl #4
     87c:	000ae106 	andeq	lr, sl, r6, lsl #2
     880:	53380300 	teqpl	r8, #0
     884:	04000000 	streq	r0, [r0], #-0
     888:	23020301 	movwcs	r0, #8961	; 0x2301
     88c:	0c030600 	stceq	6, cr0, [r3], {-0}
     890:	39030000 	stmdbcc	r3, {}	; <UNPREDICTABLE>
     894:	00000053 	andeq	r0, r0, r3, asr r0
     898:	02010204 	andeq	r0, r1, #1073741824	; 0x40000000
     89c:	82060023 	andhi	r0, r6, #35	; 0x23
     8a0:	0300000b 	movweq	r0, #11
     8a4:	0000533a 	andeq	r5, r0, sl, lsr r3
     8a8:	00010400 	andeq	r0, r1, r0, lsl #8
     8ac:	00002302 	andeq	r2, r0, r2, lsl #6
     8b0:	000aff03 	andeq	pc, sl, r3, lsl #30
     8b4:	833b0300 	teqhi	fp, #0
     8b8:	09000001 	stmdbeq	r0, {r0}
     8bc:	00000b68 	andeq	r0, r0, r8, ror #22
     8c0:	40500304 	subsmi	r0, r0, r4, lsl #6
     8c4:	06000003 	streq	r0, [r0], -r3
     8c8:	00000774 	andeq	r0, r0, r4, ror r7
     8cc:	00535203 	subseq	r5, r3, r3, lsl #4
     8d0:	02040000 	andeq	r0, r4, #0
     8d4:	0023021e 	eoreq	r0, r3, lr, lsl r2
     8d8:	000bdb06 	andeq	sp, fp, r6, lsl #22
     8dc:	53530300 	cmppl	r3, #0
     8e0:	04000000 	streq	r0, [r0], #-0
     8e4:	23021c02 	movwcs	r1, #11266	; 0x2c02
     8e8:	076c0600 	strbeq	r0, [ip, -r0, lsl #12]!
     8ec:	54030000 	strpl	r0, [r3], #-0
     8f0:	00000053 	andeq	r0, r0, r3, asr r0
     8f4:	021a0204 	andseq	r0, sl, #1073741824	; 0x40000000
     8f8:	e5060023 	str	r0, [r6, #-35]	; 0x23
     8fc:	0300000b 	movweq	r0, #11
     900:	00005355 	andeq	r5, r0, r5, asr r3
     904:	18020400 	stmdane	r2, {sl}
     908:	06002302 	streq	r2, [r0], -r2, lsl #6
     90c:	0000077c 	andeq	r0, r0, ip, ror r7
     910:	00535603 	subseq	r5, r3, r3, lsl #12
     914:	05040000 	streq	r0, [r4, #-0]
     918:	00230213 	eoreq	r0, r3, r3, lsl r2
     91c:	000bef06 	andeq	lr, fp, r6, lsl #30
     920:	53570300 	cmppl	r7, #0
     924:	04000000 	streq	r0, [r0], #-0
     928:	23020c07 	movwcs	r0, #11271	; 0x2c07
     92c:	070f0600 	streq	r0, [pc, -r0, lsl #12]
     930:	58030000 	stmdapl	r3, {}	; <UNPREDICTABLE>
     934:	00000053 	andeq	r0, r0, r3, asr r0
     938:	020b0104 	andeq	r0, fp, #1
     93c:	f9060023 			; <UNDEFINED> instruction: 0xf9060023
     940:	0300000b 	movweq	r0, #11
     944:	00005359 	andeq	r5, r0, r9, asr r3
     948:	08030400 	stmdaeq	r3, {sl}
     94c:	06002302 	streq	r2, [r0], -r2, lsl #6
     950:	0000097b 	andeq	r0, r0, fp, ror r9
     954:	00535a03 	subseq	r5, r3, r3, lsl #20
     958:	01040000 	mrseq	r0, (UNDEF: 4)
     95c:	00230207 	eoreq	r0, r3, r7, lsl #4
     960:	000c0306 	andeq	r0, ip, r6, lsl #6
     964:	535b0300 	cmppl	fp, #0
     968:	04000000 	streq	r0, [r0], #-0
     96c:	23020403 	movwcs	r0, #9219	; 0x2403
     970:	0ae10600 	beq	ff842178 <__bss_end+0xf83eb5c>
     974:	5c030000 	stcpl	0, cr0, [r3], {-0}
     978:	00000053 	andeq	r0, r0, r3, asr r0
     97c:	02030104 	andeq	r0, r3, #1
     980:	0d060023 	stceq	0, cr0, [r6, #-140]	; 0xffffff74
     984:	0300000c 	movweq	r0, #12
     988:	0000535d 	andeq	r5, r0, sp, asr r3
     98c:	01020400 	tsteq	r2, r0, lsl #8
     990:	06002302 	streq	r2, [r0], -r2, lsl #6
     994:	00000b82 	andeq	r0, r0, r2, lsl #23
     998:	00535e03 	subseq	r5, r3, r3, lsl #28
     99c:	01040000 	mrseq	r0, (UNDEF: 4)
     9a0:	00230200 	eoreq	r0, r3, r0, lsl #4
     9a4:	07360300 	ldreq	r0, [r6, -r0, lsl #6]!
     9a8:	5f030000 	svcpl	0x00030000
     9ac:	00000256 	andeq	r0, r0, r6, asr r2
     9b0:	000e2309 	andeq	r2, lr, r9, lsl #6
     9b4:	62030400 	andvs	r0, r3, #0
     9b8:	00000457 	andeq	r0, r0, r7, asr r4
     9bc:	00077406 	andeq	r7, r7, r6, lsl #8
     9c0:	53640300 	cmnpl	r4, #0
     9c4:	04000000 	streq	r0, [r0], #-0
     9c8:	23021e02 	movwcs	r1, #11778	; 0x2e02
     9cc:	0bdb0600 	bleq	ff6c21d4 <__bss_end+0xf6bebb8>
     9d0:	65030000 	strvs	r0, [r3, #-0]
     9d4:	00000053 	andeq	r0, r0, r3, asr r0
     9d8:	021c0204 	andseq	r0, ip, #1073741824	; 0x40000000
     9dc:	6c060023 	stcvs	0, cr0, [r6], {35}	; 0x23
     9e0:	03000007 	movweq	r0, #7
     9e4:	00005366 	andeq	r5, r0, r6, ror #6
     9e8:	1a020400 	bne	819f0 <__standby_start+0x819f0>
     9ec:	06002302 	streq	r2, [r0], -r2, lsl #6
     9f0:	00000be5 	andeq	r0, r0, r5, ror #23
     9f4:	00536703 	subseq	r6, r3, r3, lsl #14
     9f8:	02040000 	andeq	r0, r4, #0
     9fc:	00230218 	eoreq	r0, r3, r8, lsl r2
     a00:	00077c06 	andeq	r7, r7, r6, lsl #24
     a04:	53680300 	cmnpl	r8, #0
     a08:	04000000 	streq	r0, [r0], #-0
     a0c:	23021305 	movwcs	r1, #8965	; 0x2305
     a10:	0bef0600 	bleq	ffbc2218 <__bss_end+0xfbbebfc>
     a14:	69030000 	stmdbvs	r3, {}	; <UNPREDICTABLE>
     a18:	00000053 	andeq	r0, r0, r3, asr r0
     a1c:	02100304 	andseq	r0, r0, #268435456	; 0x10000000
     a20:	f7060023 			; <UNDEFINED> instruction: 0xf7060023
     a24:	0300000c 	movweq	r0, #12
     a28:	0000536a 	andeq	r5, r0, sl, ror #6
     a2c:	0e020400 	cfcpyseq	mvf0, mvf2
     a30:	06002302 	streq	r2, [r0], -r2, lsl #6
     a34:	0000057f 	andeq	r0, r0, pc, ror r5
     a38:	00536b03 	subseq	r6, r3, r3, lsl #22
     a3c:	01040000 	mrseq	r0, (UNDEF: 4)
     a40:	0023020d 	eoreq	r0, r3, sp, lsl #4
     a44:	000bf906 	andeq	pc, fp, r6, lsl #18
     a48:	536c0300 	cmnpl	ip, #0
     a4c:	04000000 	streq	r0, [r0], #-0
     a50:	23020805 	movwcs	r0, #10245	; 0x2805
     a54:	0a5c0600 	beq	170225c <__standby_start+0x170225c>
     a58:	6d030000 	stcvs	0, cr0, [r3, #-0]
     a5c:	00000053 	andeq	r0, r0, r3, asr r0
     a60:	02070104 	andeq	r0, r7, #1
     a64:	16060023 	strne	r0, [r6], -r3, lsr #32
     a68:	0300000a 	movweq	r0, #10
     a6c:	0000536e 	andeq	r5, r0, lr, ror #6
     a70:	06010400 	streq	r0, [r1], -r0, lsl #8
     a74:	06002302 	streq	r2, [r0], -r2, lsl #6
     a78:	00000c03 	andeq	r0, r0, r3, lsl #24
     a7c:	00536f03 	subseq	r6, r3, r3, lsl #30
     a80:	02040000 	andeq	r0, r4, #0
     a84:	00230204 	eoreq	r0, r3, r4, lsl #4
     a88:	000ae106 	andeq	lr, sl, r6, lsl #2
     a8c:	53700300 	cmnpl	r0, #0
     a90:	04000000 	streq	r0, [r0], #-0
     a94:	23020301 	movwcs	r0, #8961	; 0x2301
     a98:	0c0d0600 	stceq	6, cr0, [sp], {-0}
     a9c:	71030000 	mrsvc	r0, (UNDEF: 3)
     aa0:	00000053 	andeq	r0, r0, r3, asr r0
     aa4:	02010204 	andeq	r0, r1, #1073741824	; 0x40000000
     aa8:	82060023 	andhi	r0, r6, #35	; 0x23
     aac:	0300000b 	movweq	r0, #11
     ab0:	00005372 	andeq	r5, r0, r2, ror r3
     ab4:	00010400 	andeq	r0, r1, r0, lsl #8
     ab8:	00002302 	andeq	r2, r0, r2, lsl #6
     abc:	00066d03 	andeq	r6, r6, r3, lsl #26
     ac0:	4b730300 	blmi	1cc16c8 <__standby_start+0x1cc16c8>
     ac4:	09000003 	stmdbeq	r0, {r0, r1}
     ac8:	0000083f 	andeq	r0, r0, pc, lsr r8
     acc:	3b750304 	blcc	1d416e4 <__standby_start+0x1d416e4>
     ad0:	06000005 	streq	r0, [r0], -r5
     ad4:	00000774 	andeq	r0, r0, r4, ror r7
     ad8:	00537703 	subseq	r7, r3, r3, lsl #14
     adc:	04040000 	streq	r0, [r4], #-0
     ae0:	0023021c 	eoreq	r0, r3, ip, lsl r2
     ae4:	000bdb06 	andeq	sp, fp, r6, lsl #22
     ae8:	53780300 	cmnpl	r8, #0
     aec:	04000000 	streq	r0, [r0], #-0
     af0:	23021804 	movwcs	r1, #10244	; 0x2804
     af4:	077c0600 	ldrbeq	r0, [ip, -r0, lsl #12]!
     af8:	79030000 	stmdbvc	r3, {}	; <UNPREDICTABLE>
     afc:	00000053 	andeq	r0, r0, r3, asr r0
     b00:	02110704 	andseq	r0, r1, #1048576	; 0x100000
     b04:	e5060023 	str	r0, [r6, #-35]	; 0x23
     b08:	0300000b 	movweq	r0, #11
     b0c:	0000537a 	andeq	r5, r0, sl, ror r3
     b10:	0c050400 	cfstrseq	mvf0, [r5], {-0}
     b14:	06002302 	streq	r2, [r0], -r2, lsl #6
     b18:	00000ab6 			; <UNDEFINED> instruction: 0x00000ab6
     b1c:	00537b03 	subseq	r7, r3, r3, lsl #22
     b20:	01040000 	mrseq	r0, (UNDEF: 4)
     b24:	0023020b 	eoreq	r0, r3, fp, lsl #4
     b28:	000bef06 	andeq	lr, fp, r6, lsl #30
     b2c:	537c0300 	cmnpl	ip, #0
     b30:	04000000 	streq	r0, [r0], #-0
     b34:	23020803 	movwcs	r0, #10243	; 0x2803
     b38:	0b3b0600 	bleq	ec2340 <__standby_start+0xec2340>
     b3c:	7d030000 	stcvc	0, cr0, [r3, #-0]
     b40:	00000053 	andeq	r0, r0, r3, asr r0
     b44:	02070104 	andeq	r0, r7, #1
     b48:	47060023 	strmi	r0, [r6, -r3, lsr #32]
     b4c:	0300000c 	movweq	r0, #12
     b50:	0000537e 	andeq	r5, r0, lr, ror r3
     b54:	06010400 	streq	r0, [r1], -r0, lsl #8
     b58:	06002302 	streq	r2, [r0], -r2, lsl #6
     b5c:	00000bf9 	strdeq	r0, [r0], -r9
     b60:	00537f03 	subseq	r7, r3, r3, lsl #30
     b64:	02040000 	andeq	r0, r4, #0
     b68:	00230204 	eoreq	r0, r3, r4, lsl #4
     b6c:	000ae106 	andeq	lr, sl, r6, lsl #2
     b70:	53800300 	orrpl	r0, r0, #0
     b74:	04000000 	streq	r0, [r0], #-0
     b78:	23020301 	movwcs	r0, #8961	; 0x2301
     b7c:	0c030600 	stceq	6, cr0, [r3], {-0}
     b80:	81030000 	mrshi	r0, (UNDEF: 3)
     b84:	00000053 	andeq	r0, r0, r3, asr r0
     b88:	02010204 	andeq	r0, r1, #1073741824	; 0x40000000
     b8c:	82060023 	andhi	r0, r6, #35	; 0x23
     b90:	0300000b 	movweq	r0, #11
     b94:	00005382 	andeq	r5, r0, r2, lsl #7
     b98:	00010400 	andeq	r0, r1, r0, lsl #8
     b9c:	00002302 	andeq	r2, r0, r2, lsl #6
     ba0:	0008cd03 	andeq	ip, r8, r3, lsl #26
     ba4:	62830300 	addvs	r0, r3, #0
     ba8:	09000004 	stmdbeq	r0, {r2}
     bac:	00000ac5 	andeq	r0, r0, r5, asr #21
     bb0:	96860304 	strls	r0, [r6], r4, lsl #6
     bb4:	06000006 	streq	r0, [r0], -r6
     bb8:	00000774 	andeq	r0, r0, r4, ror r7
     bbc:	00538803 	subseq	r8, r3, r3, lsl #16
     bc0:	04040000 	streq	r0, [r4], #-0
     bc4:	0023021c 	eoreq	r0, r3, ip, lsl r2
     bc8:	00076c06 	andeq	r6, r7, r6, lsl #24
     bcc:	53890300 	orrpl	r0, r9, #0
     bd0:	04000000 	streq	r0, [r0], #-0
     bd4:	23021a02 	movwcs	r1, #10754	; 0x2a02
     bd8:	0bdb0600 	bleq	ff6c23e0 <__bss_end+0xf6bedc4>
     bdc:	8a030000 	bhi	c0be4 <__standby_start+0xc0be4>
     be0:	00000053 	andeq	r0, r0, r3, asr r0
     be4:	02180204 	andseq	r0, r8, #1073741824	; 0x40000000
     be8:	7c060023 	stcvc	0, cr0, [r6], {35}	; 0x23
     bec:	03000007 	movweq	r0, #7
     bf0:	0000538b 	andeq	r5, r0, fp, lsl #7
     bf4:	14040400 	strne	r0, [r4], #-1024	; 0x400
     bf8:	06002302 	streq	r2, [r0], -r2, lsl #6
     bfc:	00000be5 	andeq	r0, r0, r5, ror #23
     c00:	00538c03 	subseq	r8, r3, r3, lsl #24
     c04:	04040000 	streq	r0, [r4], #-0
     c08:	00230210 	eoreq	r0, r3, r0, lsl r2
     c0c:	00075a06 	andeq	r5, r7, r6, lsl #20
     c10:	538d0300 	orrpl	r0, sp, #0
     c14:	04000000 	streq	r0, [r0], #-0
     c18:	23020f01 	movwcs	r0, #12033	; 0x2f01
     c1c:	0b490600 	bleq	1242424 <__standby_start+0x1242424>
     c20:	8f030000 	svchi	0x00030000
     c24:	00000053 	andeq	r0, r0, r3, asr r0
     c28:	020e0104 	andeq	r0, lr, #1
     c2c:	ef060023 	svc	0x00060023
     c30:	0300000b 	movweq	r0, #11
     c34:	00005390 	muleq	r0, r0, r3
     c38:	0c020400 	cfstrseq	mvf0, [r2], {-0}
     c3c:	06002302 	streq	r2, [r0], -r2, lsl #6
     c40:	00000ab6 			; <UNDEFINED> instruction: 0x00000ab6
     c44:	00539103 	subseq	r9, r3, r3, lsl #2
     c48:	01040000 	mrseq	r0, (UNDEF: 4)
     c4c:	0023020b 	eoreq	r0, r3, fp, lsl #4
     c50:	00063506 	andeq	r3, r6, r6, lsl #10
     c54:	53920300 	orrspl	r0, r2, #0
     c58:	04000000 	streq	r0, [r0], #-0
     c5c:	23020a01 	movwcs	r0, #10753	; 0x2a01
     c60:	06a90600 	strteq	r0, [r9], r0, lsl #12
     c64:	93030000 	movwls	r0, #12288	; 0x3000
     c68:	00000053 	andeq	r0, r0, r3, asr r0
     c6c:	02090104 	andeq	r0, r9, #1
     c70:	d4060023 	strle	r0, [r6], #-35	; 0x23
     c74:	0300000b 	movweq	r0, #11
     c78:	00005394 	muleq	r0, r4, r3
     c7c:	08010400 	stmdaeq	r1, {sl}
     c80:	06002302 	streq	r2, [r0], -r2, lsl #6
     c84:	00000bf9 	strdeq	r0, [r0], -r9
     c88:	00539503 	subseq	r9, r3, r3, lsl #10
     c8c:	01040000 	mrseq	r0, (UNDEF: 4)
     c90:	00230207 	eoreq	r0, r3, r7, lsl #4
     c94:	000af306 	andeq	pc, sl, r6, lsl #6
     c98:	53960300 	orrspl	r0, r6, #0
     c9c:	04000000 	streq	r0, [r0], #-0
     ca0:	23020601 	movwcs	r0, #9729	; 0x2601
     ca4:	0b7c0600 	bleq	1f024ac <__standby_start+0x1f024ac>
     ca8:	97030000 	strls	r0, [r3, -r0]
     cac:	00000053 	andeq	r0, r0, r3, asr r0
     cb0:	02050104 	andeq	r0, r5, #1
     cb4:	b7060023 	strlt	r0, [r6, -r3, lsr #32]
     cb8:	0300000c 	movweq	r0, #12
     cbc:	00005398 	muleq	r0, r8, r3
     cc0:	04010400 	streq	r0, [r1], #-1024	; 0x400
     cc4:	06002302 	streq	r2, [r0], -r2, lsl #6
     cc8:	00000ae1 	andeq	r0, r0, r1, ror #21
     ccc:	00539903 	subseq	r9, r3, r3, lsl #18
     cd0:	01040000 	mrseq	r0, (UNDEF: 4)
     cd4:	00230203 	eoreq	r0, r3, r3, lsl #4
     cd8:	000c0306 	andeq	r0, ip, r6, lsl #6
     cdc:	539a0300 	orrspl	r0, sl, #0
     ce0:	04000000 	streq	r0, [r0], #-0
     ce4:	23020102 	movwcs	r0, #8450	; 0x2102
     ce8:	0b820600 	bleq	fe0824f0 <__bss_end+0xe07eed4>
     cec:	9b030000 	blls	c0cf4 <__standby_start+0xc0cf4>
     cf0:	00000053 	andeq	r0, r0, r3, asr r0
     cf4:	02000104 	andeq	r0, r0, #1
     cf8:	03000023 	movweq	r0, #35	; 0x23
     cfc:	000005b5 			; <UNDEFINED> instruction: 0x000005b5
     d00:	05469c03 	strbeq	r9, [r6, #-3075]	; 0xc03
     d04:	04050000 	streq	r0, [r5], #-0
     d08:	0710a403 	ldreq	sl, [r0, -r3, lsl #8]
     d0c:	c5060000 	strgt	r0, [r6, #-0]
     d10:	0300000d 	movweq	r0, #13
     d14:	000053a6 	andeq	r5, r0, r6, lsr #7
     d18:	1e020400 	cfcpysne	mvf0, mvf2
     d1c:	06002302 	streq	r2, [r0], -r2, lsl #6
     d20:	00000bdb 	ldrdeq	r0, [r0], -fp
     d24:	0053a703 	subseq	sl, r3, r3, lsl #14
     d28:	06040000 	streq	r0, [r4], -r0
     d2c:	00230218 	eoreq	r0, r3, r8, lsl r2
     d30:	000bbd06 	andeq	fp, fp, r6, lsl #26
     d34:	53a80300 			; <UNDEFINED> instruction: 0x53a80300
     d38:	04000000 	streq	r0, [r0], #-0
     d3c:	23021602 	movwcs	r1, #9730	; 0x2602
     d40:	0be50600 	bleq	ff942548 <__bss_end+0xf93ef2c>
     d44:	a9030000 	stmdbge	r3, {}	; <UNPREDICTABLE>
     d48:	00000053 	andeq	r0, r0, r3, asr r0
     d4c:	02100604 	andseq	r0, r0, #4194304	; 0x400000
     d50:	63060023 	movwvs	r0, #24611	; 0x6023
     d54:	03000008 	movweq	r0, #8
     d58:	000053aa 	andeq	r5, r0, sl, lsr #7
     d5c:	0e020400 	cfcpyseq	mvf0, mvf2
     d60:	06002302 	streq	r2, [r0], -r2, lsl #6
     d64:	00000bef 	andeq	r0, r0, pc, ror #23
     d68:	0053ab03 	subseq	sl, r3, r3, lsl #22
     d6c:	0e040000 	cdpeq	0, 0, cr0, cr4, cr0, {0}
     d70:	00230200 	eoreq	r0, r3, r0, lsl #4
     d74:	03040700 	movweq	r0, #18176	; 0x4700
     d78:	00072fa2 	andeq	r2, r7, r2, lsr #31
     d7c:	05f30800 	ldrbeq	r0, [r3, #2048]!	; 0x800
     d80:	a3030000 	movwge	r0, #12288	; 0x3000
     d84:	00000053 	andeq	r0, r0, r3, asr r0
     d88:	000fdc08 	andeq	sp, pc, r8, lsl #24
     d8c:	a1ac0300 			; <UNDEFINED> instruction: 0xa1ac0300
     d90:	00000006 	andeq	r0, r0, r6
     d94:	00068b03 	andeq	r8, r6, r3, lsl #22
     d98:	10ad0300 	adcne	r0, sp, r0, lsl #6
     d9c:	09000007 	stmdbeq	r0, {r0, r1, r2}
     da0:	0000059b 	muleq	r0, fp, r5
     da4:	beb40304 	cdplt	3, 11, cr0, cr4, cr4, {0}
     da8:	06000007 	streq	r0, [r0], -r7
     dac:	00000bdb 	ldrdeq	r0, [r0], -fp
     db0:	0053b603 	subseq	fp, r3, r3, lsl #12
     db4:	04040000 	streq	r0, [r4], #-0
     db8:	0023021c 	eoreq	r0, r3, ip, lsl r2
     dbc:	000a2006 	andeq	r2, sl, r6
     dc0:	53b70300 			; <UNDEFINED> instruction: 0x53b70300
     dc4:	04000000 	streq	r0, [r0], #-0
     dc8:	23021a02 	movwcs	r1, #10754	; 0x2a02
     dcc:	0d880600 	stceq	6, cr0, [r8]
     dd0:	b8030000 	stmdalt	r3, {}	; <UNPREDICTABLE>
     dd4:	00000053 	andeq	r0, r0, r3, asr r0
     dd8:	02180204 	andseq	r0, r8, #1073741824	; 0x40000000
     ddc:	33060023 	movwcc	r0, #24611	; 0x6023
     de0:	0300000b 	movweq	r0, #11
     de4:	000053b9 			; <UNDEFINED> instruction: 0x000053b9
     de8:	16020400 	strne	r0, [r2], -r0, lsl #8
     dec:	06002302 	streq	r2, [r0], -r2, lsl #6
     df0:	00000be5 	andeq	r0, r0, r5, ror #23
     df4:	0053ba03 	subseq	fp, r3, r3, lsl #20
     df8:	02040000 	andeq	r0, r4, #0
     dfc:	00230214 	eoreq	r0, r3, r4, lsl r2
     e00:	000b1e06 	andeq	r1, fp, r6, lsl #28
     e04:	53bb0300 			; <UNDEFINED> instruction: 0x53bb0300
     e08:	04000000 	streq	r0, [r0], #-0
     e0c:	23021202 	movwcs	r1, #8706	; 0x2202
     e10:	0bef0600 	bleq	ffbc2618 <__bss_end+0xfbbeffc>
     e14:	bc030000 	stclt	0, cr0, [r3], {-0}
     e18:	00000053 	andeq	r0, r0, r3, asr r0
     e1c:	02001204 	andeq	r1, r0, #1073741824	; 0x40000000
     e20:	03000023 	movweq	r0, #35	; 0x23
     e24:	00000d0a 	andeq	r0, r0, sl, lsl #26
     e28:	073abd03 	ldreq	fp, [sl, -r3, lsl #26]!
     e2c:	31090000 	mrscc	r0, (UNDEF: 9)
     e30:	0400000d 	streq	r0, [r0], #-13
     e34:	083cc303 	ldmdaeq	ip!, {r0, r1, r8, r9, lr, pc}
     e38:	ff060000 			; <UNDEFINED> instruction: 0xff060000
     e3c:	03000007 	movweq	r0, #7
     e40:	000053c5 	andeq	r5, r0, r5, asr #7
     e44:	1b050400 	blne	141e4c <__standby_start+0x141e4c>
     e48:	06002302 	streq	r2, [r0], -r2, lsl #6
     e4c:	00000dbc 			; <UNDEFINED> instruction: 0x00000dbc
     e50:	0053c603 	subseq	ip, r3, r3, lsl #12
     e54:	0b040000 	bleq	100e5c <__standby_start+0x100e5c>
     e58:	00230210 	eoreq	r0, r3, r0, lsl r2
     e5c:	00080406 	andeq	r0, r8, r6, lsl #8
     e60:	53c70300 	bicpl	r0, r7, #0
     e64:	04000000 	streq	r0, [r0], #-0
     e68:	23020e02 	movwcs	r0, #11778	; 0x2e02
     e6c:	0be50600 	bleq	ff942674 <__bss_end+0xf93f058>
     e70:	c8030000 	stmdagt	r3, {}	; <UNPREDICTABLE>
     e74:	00000053 	andeq	r0, r0, r3, asr r0
     e78:	02080604 	andeq	r0, r8, #4194304	; 0x400000
     e7c:	22060023 	andcs	r0, r6, #35	; 0x23
     e80:	0300000b 	movweq	r0, #11
     e84:	000053c9 	andeq	r5, r0, r9, asr #7
     e88:	06020400 	streq	r0, [r2], -r0, lsl #8
     e8c:	06002302 	streq	r2, [r0], -r2, lsl #6
     e90:	00000bef 	andeq	r0, r0, pc, ror #23
     e94:	0053ca03 	subseq	ip, r3, r3, lsl #20
     e98:	06040000 	streq	r0, [r4], -r0
     e9c:	00230200 	eoreq	r0, r3, r0, lsl #4
     ea0:	0a680300 	beq	1a01aa8 <__standby_start+0x1a01aa8>
     ea4:	cb030000 	blgt	c0eac <__standby_start+0xc0eac>
     ea8:	000007c9 	andeq	r0, r0, r9, asr #15
     eac:	00090c09 	andeq	r0, r9, r9, lsl #24
     eb0:	cd030400 	cfstrsgt	mvf0, [r3, #-0]
     eb4:	00000876 	andeq	r0, r0, r6, ror r8
     eb8:	000d7f06 	andeq	r7, sp, r6, lsl #30
     ebc:	53cf0300 	bicpl	r0, pc, #0
     ec0:	04000000 	streq	r0, [r0], #-0
     ec4:	23021010 	movwcs	r1, #8208	; 0x2010
     ec8:	0dbc0600 	ldceq	6, cr0, [ip]
     ecc:	d0030000 	andle	r0, r3, r0
     ed0:	00000053 	andeq	r0, r0, r3, asr r0
     ed4:	02001004 	andeq	r1, r0, #4
     ed8:	03000023 	movweq	r0, #35	; 0x23
     edc:	00000c84 	andeq	r0, r0, r4, lsl #25
     ee0:	0847d103 	stmdaeq	r7, {r0, r1, r8, ip, lr, pc}^
     ee4:	0d0a0000 	stceq	0, cr0, [sl, #-0]
     ee8:	dc00000e 	stcle	0, cr0, [r0], {14}
     eec:	65d30302 	ldrbvs	r0, [r3, #770]	; 0x302
     ef0:	0b000010 	bleq	f38 <__standby_start+0xf38>
     ef4:	000008af 	andeq	r0, r0, pc, lsr #17
     ef8:	1065d503 	rsbne	sp, r5, r3, lsl #10
     efc:	23020000 	movwcs	r0, #8192	; 0x2000
     f00:	0bdb0b00 	bleq	ff6c3b08 <__bss_end+0xf6c04ec>
     f04:	d6030000 	strle	r0, [r3], -r0
     f08:	0000106a 	andeq	r1, r0, sl, rrx
     f0c:	0b042302 	bleq	109b1c <__standby_start+0x109b1c>
     f10:	00000e05 	andeq	r0, r0, r5, lsl #28
     f14:	106fd703 	rsbne	sp, pc, r3, lsl #14
     f18:	23020000 	movwcs	r0, #8192	; 0x2000
     f1c:	0be50b08 	bleq	ff943b44 <__bss_end+0xf940528>
     f20:	d8030000 	stmdale	r3, {}	; <UNPREDICTABLE>
     f24:	0000106a 	andeq	r1, r0, sl, rrx
     f28:	0b0c2302 	bleq	309b38 <__standby_start+0x309b38>
     f2c:	00000a4a 	andeq	r0, r0, sl, asr #20
     f30:	106ad903 	rsbne	sp, sl, r3, lsl #18
     f34:	23020000 	movwcs	r0, #8192	; 0x2000
     f38:	0bef0b10 	bleq	ffbc3b80 <__bss_end+0xfbc0564>
     f3c:	da030000 	ble	c0f44 <__standby_start+0xc0f44>
     f40:	0000106a 	andeq	r1, r0, sl, rrx
     f44:	0b142302 	bleq	509b54 <__standby_start+0x509b54>
     f48:	0000064f 	andeq	r0, r0, pc, asr #12
     f4c:	106adb03 	rsbne	sp, sl, r3, lsl #22
     f50:	23020000 	movwcs	r0, #8192	; 0x2000
     f54:	0bf90b18 	bleq	ffe43bbc <__bss_end+0xfe405a0>
     f58:	dc030000 	stcle	0, cr0, [r3], {-0}
     f5c:	0000106a 	andeq	r1, r0, sl, rrx
     f60:	0b1c2302 	bleq	709b70 <__standby_start+0x709b70>
     f64:	00000b60 	andeq	r0, r0, r0, ror #22
     f68:	1074dd03 	rsbsne	sp, r4, r3, lsl #26
     f6c:	23020000 	movwcs	r0, #8192	; 0x2000
     f70:	0c030b20 	stceq	11, cr0, [r3], {32}
     f74:	de030000 	cdple	0, 0, cr0, cr3, cr0, {0}
     f78:	0000106a 	andeq	r1, r0, sl, rrx
     f7c:	0b242302 	bleq	909b8c <__standby_start+0x909b8c>
     f80:	00000609 	andeq	r0, r0, r9, lsl #12
     f84:	1079df03 	rsbsne	sp, r9, r3, lsl #30
     f88:	23020000 	movwcs	r0, #8192	; 0x2000
     f8c:	0c0d0b28 	stceq	11, cr0, [sp], {40}	; 0x28
     f90:	e0030000 	and	r0, r3, r0
     f94:	0000106a 	andeq	r1, r0, sl, rrx
     f98:	0b2c2302 	bleq	b09ba8 <__standby_start+0xb09ba8>
     f9c:	00000b55 	andeq	r0, r0, r5, asr fp
     fa0:	106ae103 	rsbne	lr, sl, r3, lsl #2
     fa4:	23020000 	movwcs	r0, #8192	; 0x2000
     fa8:	0c170b30 	ldceq	11, cr0, [r7], {48}	; 0x30
     fac:	e2030000 	and	r0, r3, #0
     fb0:	0000106a 	andeq	r1, r0, sl, rrx
     fb4:	0b342302 	bleq	d09bc4 <__standby_start+0xd09bc4>
     fb8:	000008f9 	strdeq	r0, [r0], -r9
     fbc:	107ee303 	rsbsne	lr, lr, r3, lsl #6
     fc0:	23020000 	movwcs	r0, #8192	; 0x2000
     fc4:	0c210b38 	stceq	11, cr0, [r1], #-224	; 0xffffff20
     fc8:	e4030000 	str	r0, [r3], #-0
     fcc:	0000106a 	andeq	r1, r0, sl, rrx
     fd0:	0b3c2302 	bleq	f09be0 <__standby_start+0xf09be0>
     fd4:	00000761 	andeq	r0, r0, r1, ror #14
     fd8:	1083e503 	addne	lr, r3, r3, lsl #10
     fdc:	23020000 	movwcs	r0, #8192	; 0x2000
     fe0:	0e370b40 	vsubeq.f64	d0, d7, d0
     fe4:	e6030000 	str	r0, [r3], -r0
     fe8:	0000106a 	andeq	r1, r0, sl, rrx
     fec:	0b442302 	bleq	1109bfc <__standby_start+0x1109bfc>
     ff0:	00000646 	andeq	r0, r0, r6, asr #12
     ff4:	106ae703 	rsbne	lr, sl, r3, lsl #14
     ff8:	23020000 	movwcs	r0, #8192	; 0x2000
     ffc:	0b9e0b48 	bleq	fe783d24 <__bss_end+0xe780708>
    1000:	e8030000 	stmda	r3, {}	; <UNPREDICTABLE>
    1004:	0000106a 	andeq	r1, r0, sl, rrx
    1008:	0b4c2302 	bleq	1309c18 <__standby_start+0x1309c18>
    100c:	00000a52 	andeq	r0, r0, r2, asr sl
    1010:	1088e903 	addne	lr, r8, r3, lsl #18
    1014:	23020000 	movwcs	r0, #8192	; 0x2000
    1018:	0a200b50 	beq	803d60 <__standby_start+0x803d60>
    101c:	ea030000 	b	c1024 <__standby_start+0xc1024>
    1020:	0000108d 	andeq	r1, r0, sp, lsl #1
    1024:	0b542302 	bleq	1509c34 <__standby_start+0x1509c34>
    1028:	00000784 	andeq	r0, r0, r4, lsl #15
    102c:	1092eb03 	addsne	lr, r2, r3, lsl #22
    1030:	23020000 	movwcs	r0, #8192	; 0x2000
    1034:	0d260b58 	vstmdbeq	r6!, {d0-<overflow reg d43>}
    1038:	ec030000 	stc	0, cr0, [r3], {-0}
    103c:	0000106a 	andeq	r1, r0, sl, rrx
    1040:	0b5c2302 	bleq	1709c50 <__standby_start+0x1709c50>
    1044:	00000879 	andeq	r0, r0, r9, ror r8
    1048:	106aed03 	rsbne	lr, sl, r3, lsl #26
    104c:	23020000 	movwcs	r0, #8192	; 0x2000
    1050:	08820b60 	stmeq	r2, {r5, r6, r8, r9, fp}
    1054:	ee030000 	cdp	0, 0, cr0, cr3, cr0, {0}
    1058:	0000106a 	andeq	r1, r0, sl, rrx
    105c:	0b642302 	bleq	1909c6c <__standby_start+0x1909c6c>
    1060:	00000dcf 	andeq	r0, r0, pc, asr #27
    1064:	106aef03 	rsbne	lr, sl, r3, lsl #30
    1068:	23020000 	movwcs	r0, #8192	; 0x2000
    106c:	0abc0b68 	beq	fef03e14 <__bss_end+0xef007f8>
    1070:	f0030000 			; <UNDEFINED> instruction: 0xf0030000
    1074:	0000106a 	andeq	r1, r0, sl, rrx
    1078:	0b6c2302 	bleq	1b09c88 <__standby_start+0x1b09c88>
    107c:	00000c2b 	andeq	r0, r0, fp, lsr #24
    1080:	10a7f103 	adcne	pc, r7, r3, lsl #2
    1084:	23020000 	movwcs	r0, #8192	; 0x2000
    1088:	0e1d0b70 	vmoveq.s16	r0, d13[1]
    108c:	f2030000 	vhadd.s8	d0, d3, d0
    1090:	0000106a 	andeq	r1, r0, sl, rrx
    1094:	01802303 	orreq	r2, r0, r3, lsl #6
    1098:	000dd80b 	andeq	sp, sp, fp, lsl #16
    109c:	6af30300 	bvs	ffcc1ca4 <__bss_end+0xfcbe688>
    10a0:	03000010 	movweq	r0, #16
    10a4:	0c018423 	cfstrseq	mvf8, [r1], {35}	; 0x23
    10a8:	00306453 	eorseq	r6, r0, r3, asr r4
    10ac:	106af403 	rsbne	pc, sl, r3, lsl #8
    10b0:	23030000 	movwcs	r0, #12288	; 0x3000
    10b4:	530c0188 	movwpl	r0, #49544	; 0xc188
    10b8:	03003164 	movweq	r3, #356	; 0x164
    10bc:	00106af5 			; <UNDEFINED> instruction: 0x00106af5
    10c0:	8c230300 	stchi	3, cr0, [r3], #-0
    10c4:	64530c01 	ldrbvs	r0, [r3], #-3073	; 0xc01
    10c8:	f6030032 			; <UNDEFINED> instruction: 0xf6030032
    10cc:	0000106a 	andeq	r1, r0, sl, rrx
    10d0:	01902303 	orrseq	r2, r0, r3, lsl #6
    10d4:	000de30b 	andeq	lr, sp, fp, lsl #6
    10d8:	bcf70300 	ldcllt	3, cr0, [r7]
    10dc:	03000010 	movweq	r0, #16
    10e0:	0c019423 	cfstrseq	mvf9, [r1], {35}	; 0x23
    10e4:	03007353 	movweq	r7, #851	; 0x353
    10e8:	00106af8 			; <UNDEFINED> instruction: 0x00106af8
    10ec:	9c230300 	stcls	3, cr0, [r3], #-0
    10f0:	0c660b01 	stcleq	11, cr0, [r6], #-4
    10f4:	f9030000 			; <UNDEFINED> instruction: 0xf9030000
    10f8:	0000106a 	andeq	r1, r0, sl, rrx
    10fc:	01a02303 	lsleq	r2, r3, #6
    1100:	000c6b0b 	andeq	r6, ip, fp, lsl #22
    1104:	6afa0300 	bvs	ffe81d0c <__bss_end+0xfe7e6f0>
    1108:	03000010 	movweq	r0, #16
    110c:	0b01a423 	bleq	6a1a0 <__standby_start+0x6a1a0>
    1110:	00000dee 	andeq	r0, r0, lr, ror #27
    1114:	10c1fb03 	sbcne	pc, r1, r3, lsl #22
    1118:	23030000 	movwcs	r0, #12288	; 0x3000
    111c:	3c0b01a8 	stfccs	f0, [fp], {168}	; 0xa8
    1120:	03000006 	movweq	r0, #6
    1124:	00106afc 			; <UNDEFINED> instruction: 0x00106afc
    1128:	b0230300 	eorlt	r0, r3, r0, lsl #6
    112c:	06410b01 	strbeq	r0, [r1], -r1, lsl #22
    1130:	fd030000 	stc2	0, cr0, [r3, #-0]
    1134:	0000106a 	andeq	r1, r0, sl, rrx
    1138:	01b42303 			; <UNDEFINED> instruction: 0x01b42303
    113c:	0009010b 	andeq	r0, r9, fp, lsl #2
    1140:	c6fe0300 	ldrbtgt	r0, [lr], r0, lsl #6
    1144:	03000010 	movweq	r0, #16
    1148:	0b01b823 	bleq	6f1dc <__standby_start+0x6f1dc>
    114c:	00000cab 	andeq	r0, r0, fp, lsr #25
    1150:	106aff03 	rsbne	pc, sl, r3, lsl #30
    1154:	23030000 	movwcs	r0, #12288	; 0x3000
    1158:	0b0d01c0 	bleq	341860 <__standby_start+0x341860>
    115c:	0300000a 	movweq	r0, #10
    1160:	10cb0100 	sbcne	r0, fp, r0, lsl #2
    1164:	23030000 	movwcs	r0, #12288	; 0x3000
    1168:	550e01c4 	strpl	r0, [lr, #-452]	; 0x1c4
    116c:	03006273 	movweq	r6, #627	; 0x273
    1170:	106a0101 	rsbne	r0, sl, r1, lsl #2
    1174:	23030000 	movwcs	r0, #12288	; 0x3000
    1178:	f30d01cc 	vrhadd.u8	q0, <illegal reg q14.5>, q6
    117c:	03000007 	movweq	r0, #7
    1180:	106a0102 	rsbne	r0, sl, r2, lsl #2
    1184:	23030000 	movwcs	r0, #12288	; 0x3000
    1188:	230d01d0 	movwcs	r0, #53712	; 0xd1d0
    118c:	03000009 	movweq	r0, #9
    1190:	10e00103 	rscne	r0, r0, r3, lsl #2
    1194:	23030000 	movwcs	r0, #12288	; 0x3000
    1198:	f90d01d4 			; <UNDEFINED> instruction: 0xf90d01d4
    119c:	0300000d 	movweq	r0, #13
    11a0:	106a0104 	rsbne	r0, sl, r4, lsl #2
    11a4:	23030000 	movwcs	r0, #12288	; 0x3000
    11a8:	020d01f0 	andeq	r0, sp, #60	; 0x3c
    11ac:	0300000d 	movweq	r0, #13
    11b0:	106a0105 	rsbne	r0, sl, r5, lsl #2
    11b4:	23030000 	movwcs	r0, #12288	; 0x3000
    11b8:	5a0d01f4 	bpl	341990 <__standby_start+0x341990>
    11bc:	03000009 	movweq	r0, #9
    11c0:	106a0106 	rsbne	r0, sl, r6, lsl #2
    11c4:	23030000 	movwcs	r0, #12288	; 0x3000
    11c8:	840d01f8 	strhi	r0, [sp], #-504	; 0x1f8
    11cc:	0300000a 	movweq	r0, #10
    11d0:	106a0107 	rsbne	r0, sl, r7, lsl #2
    11d4:	23030000 	movwcs	r0, #12288	; 0x3000
    11d8:	150d01fc 	strne	r0, [sp, #-508]	; 0x1fc
    11dc:	0300000b 	movweq	r0, #11
    11e0:	106a0108 	rsbne	r0, sl, r8, lsl #2
    11e4:	23030000 	movwcs	r0, #12288	; 0x3000
    11e8:	420e0280 	andmi	r0, lr, #8
    11ec:	03003065 	movweq	r3, #101	; 0x65
    11f0:	106a0109 	rsbne	r0, sl, r9, lsl #2
    11f4:	23030000 	movwcs	r0, #12288	; 0x3000
    11f8:	3e0d0284 	cdpcc	2, 0, cr0, cr13, cr4, {4}
    11fc:	0300000a 	movweq	r0, #10
    1200:	106a010a 	rsbne	r0, sl, sl, lsl #2
    1204:	23030000 	movwcs	r0, #12288	; 0x3000
    1208:	460e0288 	strmi	r0, [lr], -r8, lsl #5
    120c:	03003065 	movweq	r3, #101	; 0x65
    1210:	106a010b 	rsbne	r0, sl, fp, lsl #2
    1214:	23030000 	movwcs	r0, #12288	; 0x3000
    1218:	cf0d028c 	svcgt	0x000d028c
    121c:	03000005 	movweq	r0, #5
    1220:	106a010c 	rsbne	r0, sl, ip, lsl #2
    1224:	23030000 	movwcs	r0, #12288	; 0x3000
    1228:	db0d0290 	blle	341c70 <__standby_start+0x341c70>
    122c:	03000005 	movweq	r0, #5
    1230:	106a010d 	rsbne	r0, sl, sp, lsl #2
    1234:	23030000 	movwcs	r0, #12288	; 0x3000
    1238:	f90d0294 			; <UNDEFINED> instruction: 0xf90d0294
    123c:	03000005 	movweq	r0, #5
    1240:	106a010e 	rsbne	r0, sl, lr, lsl #2
    1244:	23030000 	movwcs	r0, #12288	; 0x3000
    1248:	e70d0298 			; <UNDEFINED> instruction: 0xe70d0298
    124c:	03000005 	movweq	r0, #5
    1250:	106a010f 	rsbne	r0, sl, pc, lsl #2
    1254:	23030000 	movwcs	r0, #12288	; 0x3000
    1258:	2e0d029c 	mcrcs	2, 0, r0, cr13, cr12, {4}
    125c:	03000009 	movweq	r0, #9
    1260:	10f50110 	rscsne	r0, r5, r0, lsl r1
    1264:	23030000 	movwcs	r0, #12288	; 0x3000
    1268:	010d02a0 	smlatbeq	sp, r0, r2, r0
    126c:	03000006 	movweq	r0, #6
    1270:	106a0111 	rsbne	r0, sl, r1, lsl r1
    1274:	23030000 	movwcs	r0, #12288	; 0x3000
    1278:	110d02ac 	smlatbne	sp, ip, r2, r0
    127c:	03000006 	movweq	r0, #6
    1280:	106a0112 	rsbne	r0, sl, r2, lsl r1
    1284:	23030000 	movwcs	r0, #12288	; 0x3000
    1288:	420d02b0 	andmi	r0, sp, #11
    128c:	0300000c 	movweq	r0, #12
    1290:	106a0113 	rsbne	r0, sl, r3, lsl r1
    1294:	23030000 	movwcs	r0, #12288	; 0x3000
    1298:	1d0d02b4 	sfmne	f0, 4, [sp, #-720]	; 0xfffffd30
    129c:	03000006 	movweq	r0, #6
    12a0:	106a0114 	rsbne	r0, sl, r4, lsl r1
    12a4:	23030000 	movwcs	r0, #12288	; 0x3000
    12a8:	560e02b8 			; <UNDEFINED> instruction: 0x560e02b8
    12ac:	15030065 	strne	r0, [r3, #-101]	; 0x65
    12b0:	00106a01 	andseq	r6, r0, r1, lsl #20
    12b4:	bc230300 	stclt	3, cr0, [r3], #-0
    12b8:	08b70d02 	ldmeq	r7!, {r1, r8, sl, fp}
    12bc:	16030000 	strne	r0, [r3], -r0
    12c0:	00106a01 	andseq	r6, r0, r1, lsl #20
    12c4:	c0230300 	eorgt	r0, r3, r0, lsl #6
    12c8:	76410e02 	strbvc	r0, [r1], -r2, lsl #28
    12cc:	17030073 	smlsdxne	r3, r3, r0, r0
    12d0:	00106a01 	andseq	r6, r0, r1, lsl #20
    12d4:	c4230300 	strtgt	r0, [r3], #-768	; 0x300
    12d8:	06290d02 	strteq	r0, [r9], -r2, lsl #26
    12dc:	18030000 	stmdane	r3, {}	; <UNPREDICTABLE>
    12e0:	00106a01 	andseq	r6, r0, r1, lsl #20
    12e4:	c8230300 	stmdagt	r3!, {r8, r9}
    12e8:	09390d02 	ldmdbeq	r9!, {r1, r8, sl, fp}
    12ec:	19030000 	stmdbne	r3, {}	; <UNPREDICTABLE>
    12f0:	00106a01 	andseq	r6, r0, r1, lsl #20
    12f4:	cc230300 	stcgt	3, cr0, [r3], #-0
    12f8:	06d00d02 	ldrbeq	r0, [r0], r2, lsl #26
    12fc:	1a030000 	bne	c1304 <__standby_start+0xc1304>
    1300:	00106a01 	andseq	r6, r0, r1, lsl #20
    1304:	d0230300 	eorle	r0, r3, r0, lsl #6
    1308:	06dc0d02 	ldrbeq	r0, [ip], r2, lsl #26
    130c:	1b030000 	blne	c1314 <__standby_start+0xc1314>
    1310:	00106a01 	andseq	r6, r0, r1, lsl #20
    1314:	d4230300 	strtle	r0, [r3], #-768	; 0x300
    1318:	06e80d02 	strbteq	r0, [r8], r2, lsl #26
    131c:	1c030000 	stcne	0, cr0, [r3], {-0}
    1320:	00106a01 	andseq	r6, r0, r1, lsl #20
    1324:	d8230300 	stmdale	r3!, {r8, r9}
    1328:	07540d02 	ldrbeq	r0, [r4, -r2, lsl #26]
    132c:	1d030000 	stcne	0, cr0, [r3, #-0]
    1330:	00106a01 	andseq	r6, r0, r1, lsl #20
    1334:	dc230300 	stcle	3, cr0, [r3], #-0
    1338:	06f40d02 	ldrbteq	r0, [r4], r2, lsl #26
    133c:	1e030000 	cdpne	0, 0, cr0, cr3, cr0, {0}
    1340:	00106a01 	andseq	r6, r0, r1, lsl #20
    1344:	e0230300 	eor	r0, r3, r0, lsl #6
    1348:	09440d02 	stmdbeq	r4, {r1, r8, sl, fp}^
    134c:	1f030000 	svcne	0x00030000
    1350:	00106a01 	andseq	r6, r0, r1, lsl #20
    1354:	e4230300 	strt	r0, [r3], #-768	; 0x300
    1358:	06830d02 	streq	r0, [r3], r2, lsl #26
    135c:	20030000 	andcs	r0, r3, r0
    1360:	00106a01 	andseq	r6, r0, r1, lsl #20
    1364:	e8230300 	stmda	r3!, {r8, r9}
    1368:	0d730d02 	ldcleq	13, cr0, [r3, #-8]!
    136c:	21030000 	mrscs	r0, (UNDEF: 3)
    1370:	00106a01 	andseq	r6, r0, r1, lsl #20
    1374:	ec230300 	stc	3, cr0, [r3], #-0
    1378:	094f0d02 	stmdbeq	pc, {r1, r8, sl, fp}^	; <UNPREDICTABLE>
    137c:	22030000 	andcs	r0, r3, #0
    1380:	0010fa01 	andseq	pc, r0, r1, lsl #20
    1384:	f0230300 			; <UNDEFINED> instruction: 0xf0230300
    1388:	085b0d02 	ldmdaeq	fp, {r1, r8, sl, fp}^
    138c:	23030000 	movwcs	r0, #12288	; 0x3000
    1390:	00106a01 	andseq	r6, r0, r1, lsl #20
    1394:	80230300 	eorhi	r0, r3, r0, lsl #6
    1398:	08130d03 	ldmdaeq	r3, {r0, r1, r8, sl, fp}
    139c:	24030000 	strcs	r0, [r3], #-0
    13a0:	00106a01 	andseq	r6, r0, r1, lsl #20
    13a4:	84230300 	strthi	r0, [r3], #-768	; 0x300
    13a8:	081f0d03 	ldmdaeq	pc, {r0, r1, r8, sl, fp}	; <UNPREDICTABLE>
    13ac:	25030000 	strcs	r0, [r3, #-0]
    13b0:	00106a01 	andseq	r6, r0, r1, lsl #20
    13b4:	88230300 	stmdahi	r3!, {r8, r9}
    13b8:	082b0d03 	stmdaeq	fp!, {r0, r1, r8, sl, fp}
    13bc:	26030000 	strcs	r0, [r3], -r0
    13c0:	00106a01 	andseq	r6, r0, r1, lsl #20
    13c4:	8c230300 	stchi	3, cr0, [r3], #-0
    13c8:	0a280d03 	beq	a047dc <__standby_start+0xa047dc>
    13cc:	27030000 	strcs	r0, [r3, -r0]
    13d0:	0010ff01 	andseq	pc, r0, r1, lsl #30
    13d4:	90230300 	eorls	r0, r3, r0, lsl #6
    13d8:	08530d03 	ldmdaeq	r3, {r0, r1, r8, sl, fp}^
    13dc:	28030000 	stmdacs	r3, {}	; <UNPREDICTABLE>
    13e0:	00106a01 	andseq	r6, r0, r1, lsl #20
    13e4:	a0230300 	eorge	r0, r3, r0, lsl #6
    13e8:	07db0d03 	ldrbeq	r0, [fp, r3, lsl #26]
    13ec:	29030000 	stmdbcs	r3, {}	; <UNPREDICTABLE>
    13f0:	00106a01 	andseq	r6, r0, r1, lsl #20
    13f4:	a4230300 	strtge	r0, [r3], #-768	; 0x300
    13f8:	0a910d03 	beq	fe44480c <__bss_end+0xe4411f0>
    13fc:	2a030000 	bcs	c1404 <__standby_start+0xc1404>
    1400:	00106a01 	andseq	r6, r0, r1, lsl #20
    1404:	a8230300 	stmdage	r3!, {r8, r9}
    1408:	086d0d03 	stmdaeq	sp!, {r0, r1, r8, sl, fp}^
    140c:	2b030000 	blcs	c1414 <__standby_start+0xc1414>
    1410:	00106a01 	andseq	r6, r0, r1, lsl #20
    1414:	ac230300 	stcge	3, cr0, [r3], #-0
    1418:	74410e03 	strbvc	r0, [r1], #-3587	; 0xe03
    141c:	2c030073 	stccs	0, cr0, [r3], {115}	; 0x73
    1420:	00106a01 	andseq	r6, r0, r1, lsl #20
    1424:	b0230300 	eorlt	r0, r3, r0, lsl #6
    1428:	0a330d03 	beq	cc483c <__standby_start+0xcc483c>
    142c:	2d030000 	stccs	0, cr0, [r3, #-0]
    1430:	00111401 	andseq	r1, r1, r1, lsl #8
    1434:	b4230300 	strtlt	r0, [r3], #-768	; 0x300
    1438:	08370d03 	ldmdaeq	r7!, {r0, r1, r8, sl, fp}
    143c:	2e030000 	cdpcs	0, 0, cr0, cr3, cr0, {0}
    1440:	00111901 	andseq	r1, r1, r1, lsl #18
    1444:	80230300 	eorhi	r0, r3, r0, lsl #6
    1448:	0add0d04 	beq	ff744860 <__bss_end+0xf741244>
    144c:	2f030000 	svccs	0x00030000
    1450:	00106a01 	andseq	r6, r0, r1, lsl #20
    1454:	84230300 	strthi	r0, [r3], #-768	; 0x300
    1458:	0db00d04 	ldceq	13, cr0, [r0, #16]!
    145c:	30030000 	andcc	r0, r3, r0
    1460:	00112e01 	andseq	r2, r1, r1, lsl #28
    1464:	88230300 	stmdahi	r3!, {r8, r9}
    1468:	09b70d04 	ldmibeq	r7!, {r2, r8, sl, fp}
    146c:	31030000 	mrscc	r0, (UNDEF: 3)
    1470:	00114301 	andseq	r4, r1, r1, lsl #6
    1474:	a0230300 	eorge	r0, r3, r0, lsl #6
    1478:	06b00d04 	ldrteq	r0, [r0], r4, lsl #26
    147c:	32030000 	andcc	r0, r3, #0
    1480:	00106a01 	andseq	r6, r0, r1, lsl #20
    1484:	a4230300 	strtge	r0, [r3], #-768	; 0x300
    1488:	088b0d04 	stmeq	fp, {r2, r8, sl, fp}
    148c:	33030000 	movwcc	r0, #12288	; 0x3000
    1490:	00106a01 	andseq	r6, r0, r1, lsl #20
    1494:	a8230300 	stmdage	r3!, {r8, r9}
    1498:	09f90d04 	ldmibeq	r9!, {r2, r8, sl, fp}^
    149c:	34030000 	strcc	r0, [r3], #-0
    14a0:	00106a01 	andseq	r6, r0, r1, lsl #20
    14a4:	ac230300 	stcge	3, cr0, [r3], #-0
    14a8:	0ae60d04 	beq	ff9848c0 <__bss_end+0xf9812a4>
    14ac:	35030000 	strcc	r0, [r3, #-0]
    14b0:	00106a01 	andseq	r6, r0, r1, lsl #20
    14b4:	b0230300 	eorlt	r0, r3, r0, lsl #6
    14b8:	0c9d0d04 	ldceq	13, cr0, [sp], {4}
    14bc:	36030000 	strcc	r0, [r3], -r0
    14c0:	00106a01 	andseq	r6, r0, r1, lsl #20
    14c4:	b4230300 	strtlt	r0, [r3], #-768	; 0x300
    14c8:	07940d04 	ldreq	r0, [r4, r4, lsl #26]
    14cc:	37030000 	strcc	r0, [r3, -r0]
    14d0:	00106a01 	andseq	r6, r0, r1, lsl #20
    14d4:	b8230300 	stmdalt	r3!, {r8, r9}
    14d8:	07d00d04 	ldrbeq	r0, [r0, r4, lsl #26]
    14dc:	38030000 	stmdacc	r3, {}	; <UNPREDICTABLE>
    14e0:	00106a01 	andseq	r6, r0, r1, lsl #20
    14e4:	bc230300 	stclt	3, cr0, [r3], #-0
    14e8:	09c00d04 	stmibeq	r0, {r2, r8, sl, fp}^
    14ec:	39030000 	stmdbcc	r3, {}	; <UNPREDICTABLE>
    14f0:	00106a01 	andseq	r6, r0, r1, lsl #20
    14f4:	c0230300 	eorgt	r0, r3, r0, lsl #6
    14f8:	072a0d04 	streq	r0, [sl, -r4, lsl #26]!
    14fc:	3a030000 	bcc	c1504 <__standby_start+0xc1504>
    1500:	00106a01 	andseq	r6, r0, r1, lsl #20
    1504:	c4230300 	strtgt	r0, [r3], #-768	; 0x300
    1508:	0b290d04 	bleq	a44920 <__standby_start+0xa44920>
    150c:	3b030000 	blcc	c1514 <__standby_start+0xc1514>
    1510:	00106a01 	andseq	r6, r0, r1, lsl #20
    1514:	c8230300 	stmdagt	r3!, {r8, r9}
    1518:	0ce70d04 	stcleq	13, cr0, [r7], #16
    151c:	3c030000 	stccc	0, cr0, [r3], {-0}
    1520:	00106a01 	andseq	r6, r0, r1, lsl #20
    1524:	cc230300 	stcgt	3, cr0, [r3], #-0
    1528:	074c0d04 	strbeq	r0, [ip, -r4, lsl #26]
    152c:	3d030000 	stccc	0, cr0, [r3, #-0]
    1530:	00106a01 	andseq	r6, r0, r1, lsl #20
    1534:	d0230300 	eorle	r0, r3, r0, lsl #6
    1538:	07a00d04 	streq	r0, [r0, r4, lsl #26]!
    153c:	3e030000 	cdpcc	0, 0, cr0, cr3, cr0, {0}
    1540:	00114801 	andseq	r4, r1, r1, lsl #16
    1544:	d4230300 	strtle	r0, [r3], #-768	; 0x300
    1548:	0a030d04 	beq	c4960 <__standby_start+0xc4960>
    154c:	3f030000 	svccc	0x00030000
    1550:	00106a01 	andseq	r6, r0, r1, lsl #20
    1554:	e0230300 	eor	r0, r3, r0, lsl #6
    1558:	07ac0d04 	streq	r0, [ip, r4, lsl #26]!
    155c:	40030000 	andmi	r0, r3, r0
    1560:	00114d01 	andseq	r4, r1, r1, lsl #26
    1564:	e4230300 	strt	r0, [r3], #-768	; 0x300
    1568:	09d80d04 	ldmibeq	r8, {r2, r8, sl, fp}^
    156c:	41030000 	mrsmi	r0, (UNDEF: 3)
    1570:	00106a01 	andseq	r6, r0, r1, lsl #20
    1574:	f0230300 			; <UNDEFINED> instruction: 0xf0230300
    1578:	07b80d04 	ldreq	r0, [r8, r4, lsl #26]!
    157c:	42030000 	andmi	r0, r3, #0
    1580:	00115201 	andseq	r5, r1, r1, lsl #4
    1584:	f4230300 	vld2.8	{d0-d3}, [r3], r0
    1588:	09cc0d04 	stmibeq	ip, {r2, r8, sl, fp}^
    158c:	43030000 	movwmi	r0, #12288	; 0x3000
    1590:	00106a01 	andseq	r6, r0, r1, lsl #20
    1594:	80230300 	eorhi	r0, r3, r0, lsl #6
    1598:	0c4f0d05 	mcrreq	13, 0, r0, pc, cr5
    159c:	44030000 	strmi	r0, [r3], #-0
    15a0:	00106a01 	andseq	r6, r0, r1, lsl #20
    15a4:	84230300 	strthi	r0, [r3], #-768	; 0x300
    15a8:	0d930d05 	ldceq	13, cr0, [r3, #20]
    15ac:	45030000 	strmi	r0, [r3, #-0]
    15b0:	00106a01 	andseq	r6, r0, r1, lsl #20
    15b4:	88230300 	stmdahi	r3!, {r8, r9}
    15b8:	0da30d05 	stceq	13, cr0, [r3, #20]!
    15bc:	46030000 	strmi	r0, [r3], -r0
    15c0:	00106a01 	andseq	r6, r0, r1, lsl #20
    15c4:	8c230300 	stchi	3, cr0, [r3], #-0
    15c8:	058b0d05 	streq	r0, [fp, #3333]	; 0xd05
    15cc:	47030000 	strmi	r0, [r3, -r0]
    15d0:	00106a01 	andseq	r6, r0, r1, lsl #20
    15d4:	90230300 	eorls	r0, r3, r0, lsl #6
    15d8:	0c700d05 	ldcleq	13, cr0, [r0], #-20	; 0xffffffec
    15dc:	48030000 	stmdami	r3, {}	; <UNPREDICTABLE>
    15e0:	00115701 	andseq	r5, r1, r1, lsl #14
    15e4:	94230300 	strtls	r0, [r3], #-768	; 0x300
    15e8:	071c0d05 	ldreq	r0, [ip, -r5, lsl #26]
    15ec:	49030000 	stmdbmi	r3, {}	; <UNPREDICTABLE>
    15f0:	00106a01 	andseq	r6, r0, r1, lsl #20
    15f4:	9c230300 	stcls	3, cr0, [r3], #-0
    15f8:	09640d05 	stmdbeq	r4!, {r0, r2, r8, sl, fp}^
    15fc:	4a030000 	bmi	c1604 <__standby_start+0xc1604>
    1600:	00106a01 	andseq	r6, r0, r1, lsl #20
    1604:	a0230300 	eorge	r0, r3, r0, lsl #6
    1608:	07000d05 	streq	r0, [r0, -r5, lsl #26]
    160c:	4b030000 	blmi	c1614 <__standby_start+0xc1614>
    1610:	00106a01 	andseq	r6, r0, r1, lsl #20
    1614:	a4230300 	strtge	r0, [r3], #-768	; 0x300
    1618:	0c350d05 	ldceq	13, cr0, [r5], #-20	; 0xffffffec
    161c:	4c030000 	stcmi	0, cr0, [r3], {-0}
    1620:	00106a01 	andseq	r6, r0, r1, lsl #20
    1624:	a8230300 	stmdage	r3!, {r8, r9}
    1628:	0d4b0d05 	stcleq	13, cr0, [fp, #-20]	; 0xffffffec
    162c:	4d030000 	stcmi	0, cr0, [r3, #-0]
    1630:	00106a01 	andseq	r6, r0, r1, lsl #20
    1634:	ac230300 	stcge	3, cr0, [r3], #-0
    1638:	0d5f0d05 	ldcleq	13, cr0, [pc, #-20]	; 162c <__standby_start+0x162c>
    163c:	4e030000 	cdpmi	0, 0, cr0, cr3, cr0, {0}
    1640:	00106a01 	andseq	r6, r0, r1, lsl #20
    1644:	b0230300 	eorlt	r0, r3, r0, lsl #6
    1648:	07c40d05 	strbeq	r0, [r4, r5, lsl #26]
    164c:	4f030000 	svcmi	0x00030000
    1650:	00115c01 	andseq	r5, r1, r1, lsl #24
    1654:	b4230300 	strtlt	r0, [r3], #-768	; 0x300
    1658:	0a980d05 	beq	fe604a74 <__bss_end+0xe601458>
    165c:	50030000 	andpl	r0, r3, r0
    1660:	00106a01 	andseq	r6, r0, r1, lsl #20
    1664:	c0230300 	eorgt	r0, r3, r0, lsl #6
    1668:	0aa20d05 	beq	fe884a84 <__bss_end+0xe881468>
    166c:	51030000 	mrspl	r0, (UNDEF: 3)
    1670:	00106a01 	andseq	r6, r0, r1, lsl #20
    1674:	c4230300 	strtgt	r0, [r3], #-768	; 0x300
    1678:	0aac0d05 	beq	feb04a94 <__bss_end+0xeb01478>
    167c:	52030000 	andpl	r0, r3, #0
    1680:	00106a01 	andseq	r6, r0, r1, lsl #20
    1684:	c8230300 	stmdagt	r3!, {r8, r9}
    1688:	09e30d05 	stmibeq	r3!, {r0, r2, r8, sl, fp}^
    168c:	53030000 	movwpl	r0, #12288	; 0x3000
    1690:	00106a01 	andseq	r6, r0, r1, lsl #20
    1694:	cc230300 	stcgt	3, cr0, [r3], #-0
    1698:	0bca0d05 	bleq	ff284ab4 <__bss_end+0xf281498>
    169c:	54030000 	strpl	r0, [r3], #-0
    16a0:	00106a01 	andseq	r6, r0, r1, lsl #20
    16a4:	d0230300 	eorle	r0, r3, r0, lsl #6
    16a8:	09ee0d05 	stmibeq	lr!, {r0, r2, r8, sl, fp}^
    16ac:	55030000 	strpl	r0, [r3, #-0]
    16b0:	00106a01 	andseq	r6, r0, r1, lsl #20
    16b4:	d4230300 	strtle	r0, [r3], #-768	; 0x300
    16b8:	08090d05 	stmdaeq	r9, {r0, r2, r8, sl, fp}
    16bc:	56030000 	strpl	r0, [r3], -r0
    16c0:	00106a01 	andseq	r6, r0, r1, lsl #20
    16c4:	d8230300 	stmdale	r3!, {r8, r9}
    16c8:	780f0005 	stmdavc	pc, {r0, r2}	; <UNPREDICTABLE>
    16cc:	0f000001 	svceq	0x00000001
    16d0:	00000053 	andeq	r0, r0, r3, asr r0
    16d4:	00024b0f 	andeq	r4, r2, pc, lsl #22
    16d8:	03400f00 	movteq	r0, #3840	; 0xf00
    16dc:	570f0000 	strpl	r0, [pc, -r0]
    16e0:	0f000004 	svceq	0x00000004
    16e4:	0000053b 	andeq	r0, r0, fp, lsr r5
    16e8:	0006960f 	andeq	r9, r6, pc, lsl #12
    16ec:	072f0f00 	streq	r0, [pc, -r0, lsl #30]!
    16f0:	be0f0000 	cdplt	0, 0, cr0, cr15, cr0, {0}
    16f4:	0f000007 	svceq	0x00000007
    16f8:	0000083c 	andeq	r0, r0, ip, lsr r8
    16fc:	00005310 	andeq	r5, r0, r0, lsl r3
    1700:	0010a700 	andseq	sl, r0, r0, lsl #14
    1704:	005e1100 	subseq	r1, lr, r0, lsl #2
    1708:	00030000 	andeq	r0, r3, r0
    170c:	0010970f 	andseq	r9, r0, pc, lsl #14
    1710:	00531000 	subseq	r1, r3, r0
    1714:	10bc0000 	adcsne	r0, ip, r0
    1718:	5e110000 	cdppl	0, 1, cr0, cr1, cr0, {0}
    171c:	01000000 	mrseq	r0, (UNDEF: 0)
    1720:	10ac0f00 	adcne	r0, ip, r0, lsl #30
    1724:	ac0f0000 	stcge	0, cr0, [pc], {-0}
    1728:	0f000010 	svceq	0x00000010
    172c:	000010ac 	andeq	r1, r0, ip, lsr #1
    1730:	0010ac0f 	andseq	sl, r0, pc, lsl #24
    1734:	00531000 	subseq	r1, r3, r0
    1738:	10e00000 	rscne	r0, r0, r0
    173c:	5e110000 	cdppl	0, 1, cr0, cr1, cr0, {0}
    1740:	06000000 	streq	r0, [r0], -r0
    1744:	10d00f00 	sbcsne	r0, r0, r0, lsl #30
    1748:	53100000 	tstpl	r0, #0
    174c:	f5000000 			; <UNDEFINED> instruction: 0xf5000000
    1750:	11000010 	tstne	r0, r0, lsl r0
    1754:	0000005e 	andeq	r0, r0, lr, asr r0
    1758:	e50f0002 	str	r0, [pc, #-2]	; 175e <__standby_start+0x175e>
    175c:	0f000010 	svceq	0x00000010
    1760:	00001097 	muleq	r0, r7, r0
    1764:	0010970f 	andseq	r9, r0, pc, lsl #14
    1768:	00531000 	subseq	r1, r3, r0
    176c:	11140000 	tstne	r4, r0
    1770:	5e110000 	cdppl	0, 1, cr0, cr1, cr0, {0}
    1774:	12000000 	andne	r0, r0, #0
    1778:	11040f00 	tstne	r4, r0, lsl #30
    177c:	760f0000 	strvc	r0, [pc], -r0
    1780:	10000008 	andne	r0, r0, r8
    1784:	00000053 	andeq	r0, r0, r3, asr r0
    1788:	0000112e 	andeq	r1, r0, lr, lsr #2
    178c:	00005e11 	andeq	r5, r0, r1, lsl lr
    1790:	0f000500 	svceq	0x00000500
    1794:	0000111e 	andeq	r1, r0, lr, lsl r1
    1798:	00005310 	andeq	r5, r0, r0, lsl r3
    179c:	00114300 	andseq	r4, r1, r0, lsl #6
    17a0:	005e1100 	subseq	r1, lr, r0, lsl #2
    17a4:	00000000 	andeq	r0, r0, r0
    17a8:	0011330f 	andseq	r3, r1, pc, lsl #6
    17ac:	10e50f00 	rscne	r0, r5, r0, lsl #30
    17b0:	e50f0000 	str	r0, [pc, #-0]	; 17b8 <__standby_start+0x17b8>
    17b4:	0f000010 	svceq	0x00000010
    17b8:	000010e5 	andeq	r1, r0, r5, ror #1
    17bc:	0010ac0f 	andseq	sl, r0, pc, lsl #24
    17c0:	10e50f00 	rscne	r0, r5, r0, lsl #30
    17c4:	d5120000 	ldrle	r0, [r2, #-0]
    17c8:	0300000c 	movweq	r0, #12
    17cc:	08810157 	stmeq	r1, {r0, r1, r2, r4, r6, r8}
    17d0:	04130000 	ldreq	r0, [r3], #-0
    17d4:	00001161 	andeq	r1, r0, r1, ror #2
    17d8:	f3070402 	vshl.u8	d0, d2, d7
    17dc:	14000002 	strne	r0, [r0], #-2
    17e0:	bc011504 	cfstr32lt	mvfx1, [r1], {4}
    17e4:	01000008 	tsteq	r0, r8
    17e8:	00410138 	subeq	r0, r1, r8, lsr r1
    17ec:	04980000 	ldreq	r0, [r8], #0
    17f0:	04c0f000 	strbeq	pc, [r0], #0	; <UNPREDICTABLE>
    17f4:	7d02f000 	stcvc	0, cr15, [r2, #-0]
    17f8:	e2011500 	and	r1, r1, #0
    17fc:	01000007 	tsteq	r0, r7
    1800:	00410150 	subeq	r0, r1, r0, asr r1
    1804:	04c00000 	strbeq	r0, [r0], #0
    1808:	04c8f000 	strbeq	pc, [r8], #0	; <UNPREDICTABLE>
    180c:	7d02f000 	stcvc	0, cr15, [r2, #-0]
    1810:	57011600 	strpl	r1, [r1, -r0, lsl #12]
    1814:	01000006 	tsteq	r0, r6
    1818:	04c80160 	strbeq	r0, [r8], #352	; 0x160
    181c:	04ecf000 	strbteq	pc, [ip], #0	; <UNPREDICTABLE>
    1820:	7d02f000 	stcvc	0, cr15, [r2, #-0]
    1824:	e3011700 	movw	r1, #5888	; 0x1700
    1828:	01000008 	tsteq	r0, r8
    182c:	04ec0173 	strbteq	r0, [ip], #371	; 0x173
    1830:	0524f000 	streq	pc, [r4, #-0]!
    1834:	7d02f000 	stcvc	0, cr15, [r2, #-0]
    1838:	0011e800 	andseq	lr, r1, r0, lsl #16
    183c:	6d741800 	ldclvs	8, cr1, [r4, #-0]
    1840:	76010070 			; <UNDEFINED> instruction: 0x76010070
    1844:	00000053 	andeq	r0, r0, r3, asr r0
    1848:	000000aa 	andeq	r0, r0, sl, lsr #1
    184c:	98011600 	stmdals	r1, {r9, sl, ip}
    1850:	01000008 	tsteq	r0, r8
    1854:	05240194 	streq	r0, [r4, #-404]!	; 0x194
    1858:	0544f000 	strbeq	pc, [r4, #-0]	; <UNPREDICTABLE>
    185c:	7d02f000 	stcvc	0, cr15, [r2, #-0]
    1860:	0c5f1900 	mrrceq	9, 0, r1, pc, cr0	; <UNPREDICTABLE>
    1864:	1c010000 	stcne	0, cr0, [r1], {-0}
    1868:	0000117a 	andeq	r1, r0, sl, ror r1
    186c:	34680305 	strbtcc	r0, [r8], #-773	; 0x305
    1870:	7d19f000 	ldcvc	0, cr15, [r9, #-0]
    1874:	0100000c 	tsteq	r0, ip
    1878:	00116d1d 	andseq	r6, r1, sp, lsl sp
    187c:	6c030500 	cfstr32vs	mvfx0, [r3], {-0}
    1880:	19f00034 	ldmibne	r0!, {r2, r4, r5}^
    1884:	000006bd 			; <UNDEFINED> instruction: 0x000006bd
    1888:	01782701 	cmneq	r8, r1, lsl #14
    188c:	03050000 	movweq	r0, #20480	; 0x5000
    1890:	f0003474 			; <UNDEFINED> instruction: 0xf0003474
    1894:	000cc019 	andeq	ip, ip, r9, lsl r0
    1898:	2f280100 	svccs	0x00280100
    189c:	05000007 	streq	r0, [r0, #-7]
    18a0:	00347003 	eorseq	r7, r4, r3
    18a4:	05591af0 	ldrbeq	r1, [r9, #-2800]	; 0xaf0
    18a8:	1e010000 	cdpne	0, 0, cr0, cr1, cr0, {0}
    18ac:	00000053 	andeq	r0, r0, r3, asr r0
    18b0:	18030501 	stmdane	r3, {r0, r8, sl}
    18b4:	00f00036 	rscseq	r0, r0, r6, lsr r0
    18b8:	000000cc 	andeq	r0, r0, ip, asr #1
    18bc:	03bc0002 			; <UNDEFINED> instruction: 0x03bc0002
    18c0:	01040000 	mrseq	r0, (UNDEF: 4)
    18c4:	000001fd 	strdeq	r0, [r0], -sp
    18c8:	000e6101 	andeq	r6, lr, r1, lsl #2
    18cc:	00014000 	andeq	r4, r1, r0
    18d0:	00054400 	andeq	r4, r5, r0, lsl #8
    18d4:	000564f0 	strdeq	r6, [r5], -r0
    18d8:	000323f0 	strdeq	r2, [r3], -r0
    18dc:	06010200 	streq	r0, [r1], -r0, lsl #4
    18e0:	00000268 	andeq	r0, r0, r8, ror #4
    18e4:	66080102 	strvs	r0, [r8], -r2, lsl #2
    18e8:	02000002 	andeq	r0, r0, #2
    18ec:	00b80502 	adcseq	r0, r8, r2, lsl #10
    18f0:	02020000 	andeq	r0, r2, #0
    18f4:	0003ea07 	andeq	lr, r3, r7, lsl #20
    18f8:	0b430300 	bleq	10c2500 <__standby_start+0x10c2500>
    18fc:	12020000 	andne	r0, r2, #0
    1900:	0000004c 	andeq	r0, r0, ip, asr #32
    1904:	69050404 	stmdbvs	r5, {r2, sl}
    1908:	0200746e 	andeq	r7, r0, #1845493760	; 0x6e000000
    190c:	02f80704 	rscseq	r0, r8, #1048576	; 0x100000
    1910:	08020000 	stmdaeq	r2, {}	; <UNPREDICTABLE>
    1914:	0001dc05 	andeq	sp, r1, r5, lsl #24
    1918:	07080200 	streq	r0, [r8, -r0, lsl #4]
    191c:	000002ee 	andeq	r0, r0, lr, ror #5
    1920:	f3070402 	vshl.u8	d0, d2, d7
    1924:	05000002 	streq	r0, [r0, #-2]
    1928:	000e8d01 	andeq	r8, lr, r1, lsl #26
    192c:	01230100 	teqeq	r3, r0, lsl #2
    1930:	00000041 	andeq	r0, r0, r1, asr #32
    1934:	f0000544 			; <UNDEFINED> instruction: 0xf0000544
    1938:	f000054c 			; <UNDEFINED> instruction: 0xf000054c
    193c:	05007d02 	streq	r7, [r0, #-3330]	; 0xd02
    1940:	000e3f01 	andeq	r3, lr, r1, lsl #30
    1944:	01360100 	teqeq	r6, r0, lsl #2
    1948:	00000041 	andeq	r0, r0, r1, asr #32
    194c:	f000054c 			; <UNDEFINED> instruction: 0xf000054c
    1950:	f0000554 			; <UNDEFINED> instruction: 0xf0000554
    1954:	05007d02 	streq	r7, [r0, #-3330]	; 0xd02
    1958:	000e9d01 	andeq	r9, lr, r1, lsl #26
    195c:	01490100 	mrseq	r0, (UNDEF: 89)
    1960:	00000041 	andeq	r0, r0, r1, asr #32
    1964:	f0000554 			; <UNDEFINED> instruction: 0xf0000554
    1968:	f000055c 			; <UNDEFINED> instruction: 0xf000055c
    196c:	05007d02 	streq	r7, [r0, #-3330]	; 0xd02
    1970:	000e4f01 	andeq	r4, lr, r1, lsl #30
    1974:	015b0100 	cmpeq	fp, r0, lsl #2
    1978:	00000041 	andeq	r0, r0, r1, asr #32
    197c:	f000055c 			; <UNDEFINED> instruction: 0xf000055c
    1980:	f0000564 			; <UNDEFINED> instruction: 0xf0000564
    1984:	00007d02 	andeq	r7, r0, r2, lsl #26
    1988:	0000017d 	andeq	r0, r0, sp, ror r1
    198c:	040a0002 	streq	r0, [sl], #-2
    1990:	01040000 	mrseq	r0, (UNDEF: 4)
    1994:	000001fd 	strdeq	r0, [r0], -sp
    1998:	000ece01 	andeq	ip, lr, r1, lsl #28
    199c:	00014000 	andeq	r4, r1, r0
    19a0:	00056400 	andeq	r6, r5, r0, lsl #8
    19a4:	00060cf0 	strdeq	r0, [r6], -r0	; <UNPREDICTABLE>
    19a8:	0003bbf0 	strdeq	fp, [r3], -r0
    19ac:	06010200 	streq	r0, [r1], -r0, lsl #4
    19b0:	00000268 	andeq	r0, r0, r8, ror #4
    19b4:	66080102 	strvs	r0, [r8], -r2, lsl #2
    19b8:	02000002 	andeq	r0, r0, #2
    19bc:	00b80502 	adcseq	r0, r8, r2, lsl #10
    19c0:	02020000 	andeq	r0, r2, #0
    19c4:	0003ea07 	andeq	lr, r3, r7, lsl #20
    19c8:	0b430300 	bleq	10c25d0 <__standby_start+0x10c25d0>
    19cc:	12020000 	andne	r0, r2, #0
    19d0:	0000004c 	andeq	r0, r0, ip, asr #32
    19d4:	69050404 	stmdbvs	r5, {r2, sl}
    19d8:	0300746e 	movweq	r7, #1134	; 0x46e
    19dc:	0000038e 	andeq	r0, r0, lr, lsl #7
    19e0:	005e1302 	subseq	r1, lr, r2, lsl #6
    19e4:	04020000 	streq	r0, [r2], #-0
    19e8:	0002f807 	andeq	pc, r2, r7, lsl #16
    19ec:	05080200 	streq	r0, [r8, #-512]	; 0x200
    19f0:	000001dc 	ldrdeq	r0, [r0], -ip
    19f4:	ee070802 	cdp	8, 0, cr0, cr7, cr2, {0}
    19f8:	05000002 	streq	r0, [r0, #-2]
    19fc:	00000053 	andeq	r0, r0, r3, asr r0
    1a00:	f3070402 	vshl.u8	d0, d2, d7
    1a04:	06000002 	streq	r0, [r0], -r2
    1a08:	00000f7a 	andeq	r0, r0, sl, ror pc
    1a0c:	d2170314 	andsle	r0, r7, #1342177280	; 0x50000000
    1a10:	07000000 	streq	r0, [r0, -r0]
    1a14:	00000f38 	andeq	r0, r0, r8, lsr pc
    1a18:	00731a03 	rsbseq	r1, r3, r3, lsl #20
    1a1c:	23020000 	movwcs	r0, #8192	; 0x2000
    1a20:	0f0a0700 	svceq	0x000a0700
    1a24:	1b030000 	blne	c1a2c <__standby_start+0xc1a2c>
    1a28:	00000073 	andeq	r0, r0, r3, ror r0
    1a2c:	07042302 	streq	r2, [r4, -r2, lsl #6]
    1a30:	00000eaf 	andeq	r0, r0, pc, lsr #29
    1a34:	00731c03 	rsbseq	r1, r3, r3, lsl #24
    1a38:	23020000 	movwcs	r0, #8192	; 0x2000
    1a3c:	0f8c0708 	svceq	0x008c0708
    1a40:	1d030000 	stcne	0, cr0, [r3, #-0]
    1a44:	00000073 	andeq	r0, r0, r3, ror r0
    1a48:	070c2302 	streq	r2, [ip, -r2, lsl #6]
    1a4c:	00000f43 	andeq	r0, r0, r3, asr #30
    1a50:	00731e03 	rsbseq	r1, r3, r3, lsl #28
    1a54:	23020000 	movwcs	r0, #8192	; 0x2000
    1a58:	ba030010 	blt	c1aa0 <__standby_start+0xc1aa0>
    1a5c:	0300000e 	movweq	r0, #14
    1a60:	00007f1f 	andeq	r7, r0, pc, lsl pc
    1a64:	4f010800 	svcmi	0x00010800
    1a68:	0100000f 	tsteq	r0, pc
    1a6c:	00410127 	subeq	r0, r1, r7, lsr #2
    1a70:	05640000 	strbeq	r0, [r4, #-0]!
    1a74:	05c4f000 	strbeq	pc, [r4]	; <UNPREDICTABLE>
    1a78:	00d8f000 	sbcseq	pc, r8, r0
    1a7c:	01090000 	mrseq	r0, (UNDEF: 9)
    1a80:	00000f15 	andeq	r0, r0, r5, lsl pc
    1a84:	41014401 	tstmi	r1, r1, lsl #8
    1a88:	c4000000 	strgt	r0, [r0], #-0
    1a8c:	e4f00005 	ldrbt	r0, [r0], #5
    1a90:	02f00005 	rscseq	r0, r0, #5
    1a94:	0109007d 	tsteq	r9, sp, ror r0
    1a98:	00000f68 	andeq	r0, r0, r8, ror #30
    1a9c:	41015701 	tstmi	r1, r1, lsl #14
    1aa0:	e4000000 	str	r0, [r0], #-0
    1aa4:	0cf00005 	ldcleq	0, cr0, [r0], #20
    1aa8:	02f00006 	rscseq	r0, r0, #6
    1aac:	030a007d 	movweq	r0, #41085	; 0xa07d
    1ab0:	0100000f 	tsteq	r0, pc
    1ab4:	00013714 	andeq	r3, r1, r4, lsl r7
    1ab8:	78030500 	stmdavc	r3, {r8, sl}
    1abc:	0bf00034 	bleq	ffc01b94 <__bss_end+0xfbfe578>
    1ac0:	0000d204 	andeq	sp, r0, r4, lsl #4
    1ac4:	0f980a00 	svceq	0x00980a00
    1ac8:	15010000 	strne	r0, [r1, #-0]
    1acc:	00000053 	andeq	r0, r0, r3, asr r0
    1ad0:	347c0305 	ldrbtcc	r0, [ip], #-773	; 0x305
    1ad4:	600af000 	andvs	pc, sl, r0
    1ad8:	0100000f 	tsteq	r0, pc
    1adc:	00005315 	andeq	r5, r0, r5, lsl r3
    1ae0:	80030500 	andhi	r0, r3, r0, lsl #10
    1ae4:	0cf00034 	ldcleq	0, cr0, [r0], #208	; 0xd0
    1ae8:	00000efb 	strdeq	r0, [r0], -fp
    1aec:	00531501 	subseq	r1, r3, r1, lsl #10
    1af0:	260c0000 	strcs	r0, [ip], -r0
    1af4:	0100000f 	tsteq	r0, pc
    1af8:	00005315 	andeq	r5, r0, r5, lsl r3
    1afc:	0f2f0c00 	svceq	0x002f0c00
    1b00:	15010000 	strne	r0, [r1, #-0]
    1b04:	00000053 	andeq	r0, r0, r3, asr r0
    1b08:	00034100 	andeq	r4, r3, r0, lsl #2
    1b0c:	b9000200 	stmdblt	r0, {r9}
    1b10:	04000004 	streq	r0, [r0], #-4
    1b14:	0001fd01 	andeq	pc, r1, r1, lsl #26
    1b18:	0fe10100 	svceq	0x00e10100
    1b1c:	01400000 	mrseq	r0, (UNDEF: 64)
    1b20:	060c0000 	streq	r0, [ip], -r0
    1b24:	0864f000 	stmdaeq	r4!, {ip, sp, lr, pc}^
    1b28:	047ef000 	ldrbteq	pc, [lr], #-0	; <UNPREDICTABLE>
    1b2c:	01020000 	mrseq	r0, (UNDEF: 2)
    1b30:	00026806 	andeq	r6, r2, r6, lsl #16
    1b34:	10a30300 	adcne	r0, r3, r0, lsl #6
    1b38:	0f020000 	svceq	0x00020000
    1b3c:	00000037 	andeq	r0, r0, r7, lsr r0
    1b40:	66080102 	strvs	r0, [r8], -r2, lsl #2
    1b44:	02000002 	andeq	r0, r0, #2
    1b48:	00b80502 	adcseq	r0, r8, r2, lsl #10
    1b4c:	02020000 	andeq	r0, r2, #0
    1b50:	0003ea07 	andeq	lr, r3, r7, lsl #20
    1b54:	0b430300 	bleq	10c275c <__standby_start+0x10c275c>
    1b58:	12020000 	andne	r0, r2, #0
    1b5c:	00000057 	andeq	r0, r0, r7, asr r0
    1b60:	69050404 	stmdbvs	r5, {r2, sl}
    1b64:	0300746e 	movweq	r7, #1134	; 0x46e
    1b68:	0000038e 	andeq	r0, r0, lr, lsl #7
    1b6c:	00691302 	rsbeq	r1, r9, r2, lsl #6
    1b70:	04020000 	streq	r0, [r2], #-0
    1b74:	0002f807 	andeq	pc, r2, r7, lsl #16
    1b78:	05080200 	streq	r0, [r8, #-512]	; 0x200
    1b7c:	000001dc 	ldrdeq	r0, [r0], -ip
    1b80:	ee070802 	cdp	8, 0, cr0, cr7, cr2, {0}
    1b84:	02000002 	andeq	r0, r0, #2
    1b88:	02f30704 	rscseq	r0, r3, #1048576	; 0x100000
    1b8c:	92050000 	andls	r0, r5, #0
    1b90:	04000010 	streq	r0, [r0], #-16
    1b94:	00bc1703 	adcseq	r1, ip, r3, lsl #14
    1b98:	62060000 	andvs	r0, r6, #0
    1b9c:	00000010 	andeq	r0, r0, r0, lsl r0
    1ba0:	00107206 	andseq	r7, r0, r6, lsl #4
    1ba4:	82060100 	andhi	r0, r6, #0
    1ba8:	02000010 	andeq	r0, r0, #16
    1bac:	0010c506 	andseq	ip, r0, r6, lsl #10
    1bb0:	d4060300 	strle	r0, [r6], #-768	; 0x300
    1bb4:	04000010 	streq	r0, [r0], #-16
    1bb8:	0010e306 	andseq	lr, r0, r6, lsl #6
    1bbc:	f2060500 	vrshl.s8	d0, d0, d6
    1bc0:	06000010 			; <UNDEFINED> instruction: 0x06000010
    1bc4:	10390700 	eorsne	r0, r9, r0, lsl #14
    1bc8:	031c0000 	tsteq	ip, #0
    1bcc:	00012a48 	andeq	r2, r1, r8, asr #20
    1bd0:	64690800 	strbtvs	r0, [r9], #-2048	; 0x800
    1bd4:	85490300 	strbhi	r0, [r9, #-768]	; 0x300
    1bd8:	02000000 	andeq	r0, r0, #0
    1bdc:	0d090023 	stceq	0, cr0, [r9, #-140]	; 0xffffff74
    1be0:	03000011 	movweq	r0, #17
    1be4:	0000574a 	andeq	r5, r0, sl, asr #14
    1be8:	04230200 	strteq	r0, [r3], #-512	; 0x200
    1bec:	000fbe09 	andeq	fp, pc, r9, lsl #28
    1bf0:	574b0300 	strbpl	r0, [fp, -r0, lsl #6]
    1bf4:	02000000 	andeq	r0, r0, #0
    1bf8:	c5090823 	strgt	r0, [r9, #-2083]	; 0x823
    1bfc:	0300000f 	movweq	r0, #15
    1c00:	0000574c 	andeq	r5, r0, ip, asr #14
    1c04:	0c230200 	sfmeq	f0, 4, [r3], #-0
    1c08:	0010b809 	andseq	fp, r0, r9, lsl #16
    1c0c:	574d0300 	strbpl	r0, [sp, -r0, lsl #6]
    1c10:	02000000 	andeq	r0, r0, #0
    1c14:	24091023 	strcs	r1, [r9], #-35	; 0x23
    1c18:	03000010 	movweq	r0, #16
    1c1c:	0000574e 	andeq	r5, r0, lr, asr #14
    1c20:	14230200 	strtne	r0, [r3], #-512	; 0x200
    1c24:	000fd709 	andeq	sp, pc, r9, lsl #14
    1c28:	574f0300 	strbpl	r0, [pc, -r0, lsl #6]
    1c2c:	02000000 	andeq	r0, r0, #0
    1c30:	05001823 	streq	r1, [r0, #-2083]	; 0x823
    1c34:	0000104c 	andeq	r1, r0, ip, asr #32
    1c38:	43290404 	teqmi	r9, #67108864	; 0x4000000
    1c3c:	06000001 	streq	r0, [r0], -r1
    1c40:	00001042 	andeq	r1, r0, r2, asr #32
    1c44:	0fcd0600 	svceq	0x00cd0600
    1c48:	00010000 	andeq	r0, r1, r0
    1c4c:	000fb40a 	andeq	fp, pc, sl, lsl #8
    1c50:	012c0100 	teqeq	ip, r0, lsl #2
    1c54:	00000172 	andeq	r0, r0, r2, ror r1
    1c58:	00017203 	andeq	r7, r1, r3, lsl #4
    1c5c:	64690b00 	strbtvs	r0, [r9], #-2816	; 0xb00
    1c60:	572c0100 	strpl	r0, [ip, -r0, lsl #2]!
    1c64:	0c000000 	stceq	0, cr0, [r0], {-0}
    1c68:	01006972 	tsteq	r0, r2, ror r9
    1c6c:	0001722e 	andeq	r7, r1, lr, lsr #4
    1c70:	00690c00 	rsbeq	r0, r9, r0, lsl #24
    1c74:	00572f01 	subseq	r2, r7, r1, lsl #30
    1c78:	0d000000 	stceq	0, cr0, [r0, #-0]
    1c7c:	0000bc04 	andeq	fp, r0, r4, lsl #24
    1c80:	11010a00 	tstne	r1, r0, lsl #20
    1c84:	15010000 	strne	r0, [r1, #-0]
    1c88:	00005701 	andeq	r5, r0, r1, lsl #14
    1c8c:	01a00300 	lsleq	r0, r0, #6
    1c90:	340e0000 	strcc	r0, [lr], #-0
    1c94:	01000010 	tsteq	r0, r0, lsl r0
    1c98:	00017215 	andeq	r7, r1, r5, lsl r2
    1c9c:	0fac0e00 	svceq	0x00ac0e00
    1ca0:	15010000 	strne	r0, [r1, #-0]
    1ca4:	0000004c 	andeq	r0, r0, ip, asr #32
    1ca8:	10010f00 	andne	r0, r1, r0, lsl #30
    1cac:	01000010 	tsteq	r0, r0, lsl r0
    1cb0:	060c0148 	streq	r0, [ip], -r8, asr #2
    1cb4:	07acf000 	streq	pc, [ip, r0]!
    1cb8:	00f8f000 	rscseq	pc, r8, r0
    1cbc:	02690000 	rsbeq	r0, r9, #0
    1cc0:	c0100000 	andsgt	r0, r0, r0
    1cc4:	01000010 	tsteq	r0, r0, lsl r0
    1cc8:	00008548 	andeq	r8, r0, r8, asr #10
    1ccc:	00012400 	andeq	r2, r1, r0, lsl #8
    1cd0:	0fac1000 	svceq	0x00ac1000
    1cd4:	48010000 	stmdami	r1, {}	; <UNPREDICTABLE>
    1cd8:	0000004c 	andeq	r0, r0, ip, asr #32
    1cdc:	00000158 	andeq	r0, r0, r8, asr r1
    1ce0:	00103411 	andseq	r3, r0, r1, lsl r4
    1ce4:	724a0100 	subvc	r0, sl, #0
    1ce8:	8c000001 	stchi	0, cr0, [r0], {1}
    1cec:	12000001 	andne	r0, r0, #1
    1cf0:	006c6176 	rsbeq	r6, ip, r6, ror r1
    1cf4:	002c4b01 	eoreq	r4, ip, r1, lsl #22
    1cf8:	01ac0000 			; <UNDEFINED> instruction: 0x01ac0000
    1cfc:	87110000 	ldrhi	r0, [r1, -r0]
    1d00:	01000002 	tsteq	r0, r2
    1d04:	00002c4b 	andeq	r2, r0, fp, asr #24
    1d08:	00021400 	andeq	r1, r2, r0, lsl #8
    1d0c:	105a1100 	subsne	r1, sl, r0, lsl #2
    1d10:	4b010000 	blmi	41d18 <__standby_start+0x41d18>
    1d14:	0000002c 	andeq	r0, r0, ip, lsr #32
    1d18:	00000227 	andeq	r0, r0, r7, lsr #4
    1d1c:	00014313 	andeq	r4, r1, r3, lsl r3
    1d20:	00060c00 	andeq	r0, r6, r0, lsl #24
    1d24:	000018f0 	strdeq	r1, [r0], -r0
    1d28:	484d0100 	stmdami	sp, {r8}^
    1d2c:	14000002 	strne	r0, [r0], #-2
    1d30:	00000154 	andeq	r0, r0, r4, asr r1
    1d34:	00000247 	andeq	r0, r0, r7, asr #4
    1d38:	00003815 	andeq	r3, r0, r5, lsl r8
    1d3c:	015e1600 	cmpeq	lr, r0, lsl #12
    1d40:	027b0000 	rsbseq	r0, fp, #0
    1d44:	68160000 	ldmdavs	r6, {}	; <UNPREDICTABLE>
    1d48:	ae000001 	cdpge	0, 0, cr0, cr0, cr1, {0}
    1d4c:	00000002 	andeq	r0, r0, r2
    1d50:	01781700 	cmneq	r8, r0, lsl #14
    1d54:	065c0000 	ldrbeq	r0, [ip], -r0
    1d58:	0674f000 	ldrbteq	pc, [r4], -r0	; <UNPREDICTABLE>
    1d5c:	5201f000 	andpl	pc, r1, #0
    1d60:	00019414 	andeq	r9, r1, r4, lsl r4
    1d64:	0002d900 	andeq	sp, r2, r0, lsl #18
    1d68:	01891800 	orreq	r1, r9, r0, lsl #16
    1d6c:	54010000 	strpl	r0, [r1], #-0
    1d70:	01190000 	tsteq	r9, r0
    1d74:	00000fa0 	andeq	r0, r0, r0, lsr #31
    1d78:	5e018901 	cdppl	9, 0, cr8, cr1, cr1, {0}
    1d7c:	ac000000 	stcge	0, cr0, [r0], {-0}
    1d80:	64f00007 	ldrbtvs	r0, [r0], #7
    1d84:	02f00008 	rscseq	r0, r0, #8
    1d88:	fd000003 	stc2	0, cr0, [r0, #-12]
    1d8c:	10000002 	andne	r0, r0, r2
    1d90:	000010c0 	andeq	r1, r0, r0, asr #1
    1d94:	00858901 	addeq	r8, r5, r1, lsl #18
    1d98:	032e0000 	teqeq	lr, #0
    1d9c:	34110000 	ldrcc	r0, [r1], #-0
    1da0:	01000010 	tsteq	r0, r0, lsl r0
    1da4:	0001728b 	andeq	r7, r1, fp, lsl #5
    1da8:	00034c00 	andeq	r4, r3, r0, lsl #24
    1dac:	61761200 	cmnvs	r6, r0, lsl #4
    1db0:	8c01006c 	stchi	0, cr0, [r1], {108}	; 0x6c
    1db4:	0000002c 	andeq	r0, r0, ip, lsr #32
    1db8:	0000036c 	andeq	r0, r0, ip, ror #6
    1dbc:	0002871a 	andeq	r8, r2, sl, lsl r7
    1dc0:	2c8c0100 	stfcss	f0, [ip], {0}
    1dc4:	0c000000 	stceq	0, cr0, [r0], {-0}
    1dc8:	06187531 			; <UNDEFINED> instruction: 0x06187531
    1dcc:	751c3124 	ldrvc	r3, [ip, #-292]	; 0x124
    1dd0:	9f240614 	svcls	0x00240614
    1dd4:	0001431b 	andeq	r4, r1, fp, lsl r3
    1dd8:	0007ac00 	andeq	sl, r7, r0, lsl #24
    1ddc:	000058f0 	strdeq	r5, [r0], -r0
    1de0:	148e0100 	strne	r0, [lr], #256	; 0x100
    1de4:	00000154 	andeq	r0, r0, r4, asr r1
    1de8:	00000396 	muleq	r0, r6, r3
    1dec:	00007815 	andeq	r7, r0, r5, lsl r8
    1df0:	015e1600 	cmpeq	lr, r0, lsl #12
    1df4:	03b40000 			; <UNDEFINED> instruction: 0x03b40000
    1df8:	68160000 	ldmdavs	r6, {}	; <UNPREDICTABLE>
    1dfc:	e7000001 	str	r0, [r0, -r1]
    1e00:	00000003 	andeq	r0, r0, r3
    1e04:	571c0000 	ldrpl	r0, [ip, -r0]
    1e08:	0d000000 	stceq	0, cr0, [r0, #-0]
    1e0c:	1d000003 	stcne	0, cr0, [r0, #-12]
    1e10:	00000069 	andeq	r0, r0, r9, rrx
    1e14:	a81a000f 	ldmdage	sl, {r0, r1, r2, r3}
    1e18:	01000010 	tsteq	r0, r0, lsl r0
    1e1c:	00031e1d 	andeq	r1, r3, sp, lsl lr
    1e20:	c0030500 	andgt	r0, r3, r0, lsl #10
    1e24:	1ef00030 	mrcne	0, 7, r0, cr0, cr0, {1}
    1e28:	000002fd 	strdeq	r0, [r0], -sp
    1e2c:	0000bc1c 	andeq	fp, r0, ip, lsl ip
    1e30:	00033300 	andeq	r3, r3, r0, lsl #6
    1e34:	00691d00 	rsbeq	r1, r9, r0, lsl #26
    1e38:	00050000 	andeq	r0, r5, r0
    1e3c:	00102e1a 	andseq	r2, r0, sl, lsl lr
    1e40:	23230100 	teqcs	r3, #0
    1e44:	05000003 	streq	r0, [r0, #-3]
    1e48:	00339803 	eorseq	r9, r3, r3, lsl #16
    1e4c:	02c100f0 	sbceq	r0, r1, #240	; 0xf0
    1e50:	00020000 	andeq	r0, r2, r0
    1e54:	0000064e 	andeq	r0, r0, lr, asr #12
    1e58:	01fd0104 	mvnseq	r0, r4, lsl #2
    1e5c:	d4010000 	strle	r0, [r1], #-0
    1e60:	40000011 	andmi	r0, r0, r1, lsl r0
    1e64:	64000001 	strvs	r0, [r0], #-1
    1e68:	a8f00008 	ldmge	r0!, {r3}^
    1e6c:	9df0000b 	ldclls	0, cr0, [r0, #44]!	; 0x2c
    1e70:	02000005 	andeq	r0, r0, #5
    1e74:	02680601 	rsbeq	r0, r8, #1048576	; 0x100000
    1e78:	a3030000 	movwge	r0, #12288	; 0x3000
    1e7c:	02000010 	andeq	r0, r0, #16
    1e80:	0000370f 	andeq	r3, r0, pc, lsl #14
    1e84:	08010200 	stmdaeq	r1, {r9}
    1e88:	00000266 	andeq	r0, r0, r6, ror #4
    1e8c:	b8050202 	stmdalt	r5, {r1, r9}
    1e90:	02000000 	andeq	r0, r0, #0
    1e94:	03ea0702 	mvneq	r0, #524288	; 0x80000
    1e98:	43030000 	movwmi	r0, #12288	; 0x3000
    1e9c:	0200000b 	andeq	r0, r0, #11
    1ea0:	00005712 	andeq	r5, r0, r2, lsl r7
    1ea4:	05040400 	streq	r0, [r4, #-1024]	; 0x400
    1ea8:	00746e69 	rsbseq	r6, r4, r9, ror #28
    1eac:	00038e03 	andeq	r8, r3, r3, lsl #28
    1eb0:	69130200 	ldmdbvs	r3, {r9}
    1eb4:	02000000 	andeq	r0, r0, #0
    1eb8:	02f80704 	rscseq	r0, r8, #1048576	; 0x100000
    1ebc:	08020000 	stmdaeq	r2, {}	; <UNPREDICTABLE>
    1ec0:	0001dc05 	andeq	sp, r1, r5, lsl #24
    1ec4:	07080200 	streq	r0, [r8, -r0, lsl #4]
    1ec8:	000002ee 	andeq	r0, r0, lr, ror #5
    1ecc:	f3070402 	vshl.u8	d0, d2, d7
    1ed0:	05000002 	streq	r0, [r0, #-2]
    1ed4:	00001212 	andeq	r1, r0, r2, lsl r2
    1ed8:	10190324 	andsne	r0, r9, r4, lsr #6
    1edc:	06000001 	streq	r0, [r0], -r1
    1ee0:	0000121f 	andeq	r1, r0, pc, lsl r2
    1ee4:	01101b03 	tsteq	r0, r3, lsl #22
    1ee8:	23020000 	movwcs	r0, #8192	; 0x2000
    1eec:	11990600 	orrsne	r0, r9, r0, lsl #12
    1ef0:	1c030000 	stcne	0, cr0, [r3], {-0}
    1ef4:	00000110 	andeq	r0, r0, r0, lsl r1
    1ef8:	06042302 	streq	r2, [r4], -r2, lsl #6
    1efc:	00001172 	andeq	r1, r0, r2, ror r1
    1f00:	01101d03 	tsteq	r0, r3, lsl #26
    1f04:	23020000 	movwcs	r0, #8192	; 0x2000
    1f08:	11cc0608 	bicne	r0, ip, r8, lsl #12
    1f0c:	1e030000 	cdpne	0, 0, cr0, cr3, cr0, {0}
    1f10:	00000110 	andeq	r0, r0, r0, lsl r1
    1f14:	060c2302 	streq	r2, [ip], -r2, lsl #6
    1f18:	00001232 	andeq	r1, r0, r2, lsr r2
    1f1c:	01101f03 	tsteq	r0, r3, lsl #30
    1f20:	23020000 	movwcs	r0, #8192	; 0x2000
    1f24:	11690610 	cmnne	r9, r0, lsl r6
    1f28:	20030000 	andcs	r0, r3, r0
    1f2c:	00000110 	andeq	r0, r0, r0, lsl r1
    1f30:	06142302 	ldreq	r2, [r4], -r2, lsl #6
    1f34:	00001132 	andeq	r1, r0, r2, lsr r1
    1f38:	01102103 	tsteq	r0, r3, lsl #2
    1f3c:	23020000 	movwcs	r0, #8192	; 0x2000
    1f40:	11140618 	tstne	r4, r8, lsl r6
    1f44:	22030000 	andcs	r0, r3, #0
    1f48:	00000110 	andeq	r0, r0, r0, lsl r1
    1f4c:	061c2302 	ldreq	r2, [ip], -r2, lsl #6
    1f50:	00001229 	andeq	r1, r0, r9, lsr #4
    1f54:	01102303 	tsteq	r0, r3, lsl #6
    1f58:	23020000 	movwcs	r0, #8192	; 0x2000
    1f5c:	69070020 	stmdbvs	r7, {r5}
    1f60:	03000000 	movweq	r0, #0
    1f64:	0000115c 	andeq	r1, r0, ip, asr r1
    1f68:	00852503 	addeq	r2, r5, r3, lsl #10
    1f6c:	4c080000 	stcmi	0, cr0, [r8], {-0}
    1f70:	04000010 	streq	r0, [r0], #-16
    1f74:	01392903 	teqeq	r9, r3, lsl #18
    1f78:	42090000 	andmi	r0, r9, #0
    1f7c:	00000010 	andeq	r0, r0, r0, lsl r0
    1f80:	000fcd09 	andeq	ip, pc, r9, lsl #26
    1f84:	0a000100 	beq	238c <__standby_start+0x238c>
    1f88:	0000113c 	andeq	r1, r0, ip, lsr r1
    1f8c:	57016401 	strpl	r6, [r1, -r1, lsl #8]
    1f90:	01000000 	mrseq	r0, (UNDEF: 0)
    1f94:	00000161 	andeq	r0, r0, r1, ror #2
    1f98:	0011290b 	andseq	r2, r1, fp, lsl #18
    1f9c:	69660100 	stmdbvs	r6!, {r8}^
    1fa0:	0b000000 	bleq	1fa8 <__standby_start+0x1fa8>
    1fa4:	0000164e 	andeq	r1, r0, lr, asr #12
    1fa8:	00696701 	rsbeq	r6, r9, r1, lsl #14
    1fac:	0c000000 	stceq	0, cr0, [r0], {-0}
    1fb0:	00120101 	andseq	r0, r2, r1, lsl #2
    1fb4:	012e0100 	teqeq	lr, r0, lsl #2
    1fb8:	0000004c 	andeq	r0, r0, ip, asr #32
    1fbc:	f0000864 			; <UNDEFINED> instruction: 0xf0000864
    1fc0:	f00008b0 			; <UNDEFINED> instruction: 0xf00008b0
    1fc4:	8d007d02 	stchi	13, cr7, [r0, #-8]
    1fc8:	0d000001 	stceq	0, cr0, [r0, #-4]
    1fcc:	0000114e 	andeq	r1, r0, lr, asr #2
    1fd0:	00572e01 	subseq	r2, r7, r1, lsl #28
    1fd4:	04120000 	ldreq	r0, [r2], #-0
    1fd8:	0e000000 	cdpeq	0, 0, cr0, cr0, cr0, {0}
    1fdc:	00118801 	andseq	r8, r1, r1, lsl #16
    1fe0:	01490100 	mrseq	r0, (UNDEF: 89)
    1fe4:	0000004c 	andeq	r0, r0, ip, asr #32
    1fe8:	f00008b0 			; <UNDEFINED> instruction: 0xf00008b0
    1fec:	f00008f4 			; <UNDEFINED> instruction: 0xf00008f4
    1ff0:	00000425 	andeq	r0, r0, r5, lsr #8
    1ff4:	11b1010f 			; <UNDEFINED> instruction: 0x11b1010f
    1ff8:	96010000 	strls	r0, [r1], -r0
    1ffc:	00004c01 	andeq	r4, r0, r1, lsl #24
    2000:	0008f400 	andeq	pc, r8, r0, lsl #8
    2004:	000ba8f0 	strdeq	sl, [fp], -r0
    2008:	000445f0 	strdeq	r4, [r4], -r0
    200c:	00025f00 	andeq	r5, r2, r0, lsl #30
    2010:	706f1000 	rsbvc	r1, pc, r0
    2014:	20960100 	addscs	r0, r6, r0, lsl #2
    2018:	65000001 	strvs	r0, [r0, #-1]
    201c:	0d000004 	stceq	0, cr0, [r0, #-16]
    2020:	00001223 	andeq	r1, r0, r3, lsr #4
    2024:	002c9601 	eoreq	r9, ip, r1, lsl #12
    2028:	04830000 	streq	r0, [r3], #0
    202c:	bd0d0000 	stclt	0, cr0, [sp, #-0]
    2030:	01000011 	tsteq	r0, r1, lsl r0
    2034:	00002c96 	muleq	r0, r6, ip
    2038:	00049600 	andeq	r9, r4, r0, lsl #12
    203c:	10b30d00 	adcsne	r0, r3, r0, lsl #26
    2040:	96010000 	strls	r0, [r1], -r0
    2044:	0000025f 	andeq	r0, r0, pc, asr r2
    2048:	000004a9 	andeq	r0, r0, r9, lsr #9
    204c:	00123d11 	andseq	r3, r2, r1, lsl sp
    2050:	37980100 	ldrcc	r0, [r8, r0, lsl #2]
    2054:	c7000000 	strgt	r0, [r0, -r0]
    2058:	11000004 	tstne	r0, r4
    205c:	0000164e 	andeq	r1, r0, lr, asr #12
    2060:	00699901 	rsbeq	r9, r9, r1, lsl #18
    2064:	05270000 	streq	r0, [r7, #-0]!
    2068:	72120000 	andsvc	r0, r2, #0
    206c:	01007465 	tsteq	r0, r5, ror #8
    2070:	0000579a 	muleq	r0, sl, r7
    2074:	00068600 	andeq	r8, r6, r0, lsl #12
    2078:	11c31300 	bicne	r1, r3, r0, lsl #6
    207c:	17010000 	strne	r0, [r1, -r0]
    2080:	000acc01 	andeq	ip, sl, r1, lsl #24
    2084:	013914f0 			; <UNDEFINED> instruction: 0x013914f0
    2088:	0acc0000 	beq	ff302090 <__bss_end+0xf2fea74>
    208c:	0098f000 	addseq	pc, r8, r0
    2090:	1a010000 	bne	42098 <__standby_start+0x42098>
    2094:	00b81501 	adcseq	r1, r8, r1, lsl #10
    2098:	4a160000 	bmi	5820a0 <__standby_start+0x5820a0>
    209c:	01000001 	tsteq	r0, r1
    20a0:	01551752 	cmpeq	r5, r2, asr r7
    20a4:	06be0000 	ldrteq	r0, [lr], r0
    20a8:	00000000 	andeq	r0, r0, r0
    20ac:	2c041800 	stccs	8, cr1, [r4], {-0}
    20b0:	19000000 	stmdbne	r0, {}	; <UNPREDICTABLE>
    20b4:	00000275 	andeq	r0, r0, r5, ror r2
    20b8:	00000275 	andeq	r0, r0, r5, ror r2
    20bc:	0000691a 	andeq	r6, r0, sl, lsl r9
    20c0:	18000200 	stmdane	r0, {r9}
    20c4:	00011504 	andeq	r1, r1, r4, lsl #10
    20c8:	117b1b00 	cmnne	fp, r0, lsl #22
    20cc:	16010000 	strne	r0, [r1], -r0
    20d0:	0000028c 	andeq	r0, r0, ip, lsl #5
    20d4:	31000305 	tstcc	r0, r5, lsl #6
    20d8:	651cf000 	ldrvs	pc, [ip, #-0]
    20dc:	1b000002 	blne	20ec <__standby_start+0x20ec>
    20e0:	000011a4 	andeq	r1, r0, r4, lsr #3
    20e4:	005e1c01 	subseq	r1, lr, r1, lsl #24
    20e8:	03050000 	movweq	r0, #20480	; 0x5000
    20ec:	f0003488 			; <UNDEFINED> instruction: 0xf0003488
    20f0:	00111c1b 	andseq	r1, r1, fp, lsl ip
    20f4:	5e1d0100 	mufple	f0, f5, f0
    20f8:	05000000 	streq	r0, [r0, #-0]
    20fc:	00348c03 	eorseq	r8, r4, r3, lsl #24
    2100:	11541bf0 	ldrshne	r1, [r4, #-176]	; 0xffffff50
    2104:	1e010000 	cdpne	0, 0, cr0, cr1, cr0, {0}
    2108:	00000275 	andeq	r0, r0, r5, ror r2
    210c:	34840305 	strcc	r0, [r4], #773	; 0x305
    2110:	eb00f000 	bl	3e118 <__standby_start+0x3e118>
    2114:	02000000 	andeq	r0, r0, #0
    2118:	0007cd00 	andeq	ip, r7, r0, lsl #26
    211c:	fd010400 	stc2	4, cr0, [r1, #-0]
    2120:	01000001 	tsteq	r0, r1
    2124:	00001247 	andeq	r1, r0, r7, asr #4
    2128:	00000140 	andeq	r0, r0, r0, asr #2
    212c:	f0000ba8 			; <UNDEFINED> instruction: 0xf0000ba8
    2130:	f0000bc8 			; <UNDEFINED> instruction: 0xf0000bc8
    2134:	00000710 	andeq	r0, r0, r0, lsl r7
    2138:	68060102 	stmdavs	r6, {r1, r8}
    213c:	02000002 	andeq	r0, r0, #2
    2140:	02660801 	rsbeq	r0, r6, #65536	; 0x10000
    2144:	02020000 	andeq	r0, r2, #0
    2148:	0000b805 	andeq	fp, r0, r5, lsl #16
    214c:	07020200 	streq	r0, [r2, -r0, lsl #4]
    2150:	000003ea 	andeq	r0, r0, sl, ror #7
    2154:	000b4303 	andeq	r4, fp, r3, lsl #6
    2158:	4c120200 	lfmmi	f0, 4, [r2], {-0}
    215c:	04000000 	streq	r0, [r0], #-0
    2160:	6e690504 	cdpvs	5, 6, cr0, cr9, cr4, {0}
    2164:	8e030074 	mcrhi	0, 0, r0, cr3, cr4, {3}
    2168:	02000003 	andeq	r0, r0, #3
    216c:	00005e13 	andeq	r5, r0, r3, lsl lr
    2170:	07040200 	streq	r0, [r4, -r0, lsl #4]
    2174:	000002f8 	strdeq	r0, [r0], -r8
    2178:	dc050802 	stcle	8, cr0, [r5], {2}
    217c:	02000001 	andeq	r0, r0, #1
    2180:	02ee0708 	rsceq	r0, lr, #2097152	; 0x200000
    2184:	04020000 	streq	r0, [r2], #-0
    2188:	0002f307 	andeq	pc, r2, r7, lsl #6
    218c:	ba010500 	blt	43594 <__standby_start+0x43594>
    2190:	01000012 	tsteq	r0, r2, lsl r0
    2194:	00410126 	subeq	r0, r1, r6, lsr #2
    2198:	0ba80000 	bleq	fea021a0 <__bss_end+0xe9feb84>
    219c:	0bb0f000 	bleq	fec3e1a4 <__bss_end+0xec3ab88>
    21a0:	7d02f000 	stcvc	0, cr15, [r2, #-0]
    21a4:	74010500 	strvc	r0, [r1], #-1280	; 0x500
    21a8:	01000012 	tsteq	r0, r2, lsl r0
    21ac:	00410137 	subeq	r0, r1, r7, lsr r1
    21b0:	0bb00000 	bleq	fec021b8 <__bss_end+0xebfeb9c>
    21b4:	0bb8f000 	bleq	fee3e1bc <__bss_end+0xee3aba0>
    21b8:	7d02f000 	stcvc	0, cr15, [r2, #-0]
    21bc:	85010600 	strhi	r0, [r1, #-1536]	; 0x600
    21c0:	01000012 	tsteq	r0, r2, lsl r0
    21c4:	0041014b 	subeq	r0, r1, fp, asr #2
    21c8:	0bb80000 	bleq	fee021d0 <__bss_end+0xedfebb4>
    21cc:	0bc0f000 	bleq	ff03e1d4 <__bss_end+0xf03abb8>
    21d0:	7d02f000 	stcvc	0, cr15, [r2, #-0]
    21d4:	0000d600 	andeq	sp, r0, r0, lsl #12
    21d8:	006d0700 	rsbeq	r0, sp, r0, lsl #14
    21dc:	4b010000 	blmi	421e4 <__standby_start+0x421e4>
    21e0:	00000053 	andeq	r0, r0, r3, asr r0
    21e4:	00000735 	andeq	r0, r0, r5, lsr r7
    21e8:	a2010500 	andge	r0, r1, #0
    21ec:	01000012 	tsteq	r0, r2, lsl r0
    21f0:	0041015e 	subeq	r0, r1, lr, asr r1
    21f4:	0bc00000 	bleq	ff0021fc <__bss_end+0xeffebe0>
    21f8:	0bc8f000 	bleq	ff23e200 <__bss_end+0xf23abe4>
    21fc:	7d02f000 	stcvc	0, cr15, [r2, #-0]
    2200:	04840000 	streq	r0, [r4], #0
    2204:	00020000 	andeq	r0, r2, r0
    2208:	00000843 	andeq	r0, r0, r3, asr #16
    220c:	01fd0104 	mvnseq	r0, r4, lsl #2
    2210:	b5010000 	strlt	r0, [r1, #-0]
    2214:	40000013 	andmi	r0, r0, r3, lsl r0
    2218:	c8000001 	stmdagt	r0, {r0}
    221c:	30f0000b 	rscscc	r0, r0, fp
    2220:	a9f0000e 	ldmibge	r0!, {r1, r2, r3}^
    2224:	02000007 	andeq	r0, r0, #7
    2228:	02680601 	rsbeq	r0, r8, #1048576	; 0x100000
    222c:	01020000 	mrseq	r0, (UNDEF: 2)
    2230:	00026608 	andeq	r6, r2, r8, lsl #12
    2234:	05020200 	streq	r0, [r2, #-512]	; 0x200
    2238:	000000b8 	strheq	r0, [r0], -r8
    223c:	ea070202 	b	1c2a4c <__standby_start+0x1c2a4c>
    2240:	03000003 	movweq	r0, #3
    2244:	6e690504 	cdpvs	5, 6, cr0, cr9, cr4, {0}
    2248:	04020074 	streq	r0, [r2], #-116	; 0x74
    224c:	0002f807 	andeq	pc, r2, r7, lsl #16
    2250:	05080200 	streq	r0, [r8, #-512]	; 0x200
    2254:	000001dc 	ldrdeq	r0, [r0], -ip
    2258:	ee070802 	cdp	8, 0, cr0, cr7, cr2, {0}
    225c:	04000002 	streq	r0, [r0], #-2
    2260:	0000040e 	andeq	r0, r0, lr, lsl #8
    2264:	9a450210 	bls	1142aac <__standby_start+0x1142aac>
    2268:	05000000 	streq	r0, [r0, #-0]
    226c:	4602006e 	strmi	r0, [r2], -lr, rrx
    2270:	00000041 	andeq	r0, r0, r1, asr #32
    2274:	05002302 	streq	r2, [r0, #-770]	; 0x302
    2278:	4702006b 	strmi	r0, [r2, -fp, rrx]
    227c:	00000041 	andeq	r0, r0, r1, asr #32
    2280:	05042302 	streq	r2, [r4, #-770]	; 0x302
    2284:	4802006d 	stmdami	r2, {r0, r2, r3, r5, r6}
    2288:	00000041 	andeq	r0, r0, r1, asr #32
    228c:	05082302 	streq	r2, [r8, #-770]	; 0x302
    2290:	49020070 	stmdbmi	r2, {r4, r5, r6}
    2294:	00000041 	andeq	r0, r0, r1, asr #32
    2298:	000c2302 	andeq	r2, ip, r2, lsl #6
    229c:	0003cd06 	andeq	ip, r3, r6, lsl #26
    22a0:	5d4a0200 	sfmpl	f0, 2, [sl, #-0]
    22a4:	04000000 	streq	r0, [r0], #-0
    22a8:	0000029d 	muleq	r0, sp, r2
    22ac:	f44c0214 	vst1.8	{d16-d19}, [ip :64], r4
    22b0:	05000000 	streq	r0, [r0, #-0]
    22b4:	00637273 	rsbeq	r7, r3, r3, ror r2
    22b8:	00414d02 	subeq	r4, r1, r2, lsl #26
    22bc:	23020000 	movwcs	r0, #8192	; 0x2000
    22c0:	00000700 	andeq	r0, r0, r0, lsl #14
    22c4:	4e020000 	cdpmi	0, 0, cr0, cr2, cr0, {0}
    22c8:	00000041 	andeq	r0, r0, r1, asr #32
    22cc:	07042302 	streq	r2, [r4, -r2, lsl #6]
    22d0:	00000491 	muleq	r0, r1, r4
    22d4:	00414f02 	subeq	r4, r1, r2, lsl #30
    22d8:	23020000 	movwcs	r0, #8192	; 0x2000
    22dc:	006e0508 	rsbeq	r0, lr, r8, lsl #10
    22e0:	00415002 	subeq	r5, r1, r2
    22e4:	23020000 	movwcs	r0, #8192	; 0x2000
    22e8:	006d050c 	rsbeq	r0, sp, ip, lsl #10
    22ec:	00415102 	subeq	r5, r1, r2, lsl #2
    22f0:	23020000 	movwcs	r0, #8192	; 0x2000
    22f4:	35060010 	strcc	r0, [r6, #-16]
    22f8:	02000001 	andeq	r0, r0, #1
    22fc:	0000a552 	andeq	sl, r0, r2, asr r5
    2300:	04c20800 	strbeq	r0, [r2], #2048	; 0x800
    2304:	01440000 	mrseq	r0, (UNDEF: 68)
    2308:	018c5402 	orreq	r5, ip, r2, lsl #8
    230c:	69050000 	stmdbvs	r5, {}	; <UNPREDICTABLE>
    2310:	58020064 	stmdapl	r2, {r2, r5, r6}
    2314:	0000018c 	andeq	r0, r0, ip, lsl #3
    2318:	07002302 	streq	r2, [r0, -r2, lsl #6]
    231c:	00000293 	muleq	r0, r3, r2
    2320:	00415d02 	subeq	r5, r1, r2, lsl #26
    2324:	23020000 	movwcs	r0, #8192	; 0x2000
    2328:	028c0704 	addeq	r0, ip, #1048576	; 0x100000
    232c:	62020000 	andvs	r0, r2, #0
    2330:	00000041 	andeq	r0, r0, r1, asr #32
    2334:	07082302 	streq	r2, [r8, -r2, lsl #6]
    2338:	000000de 	ldrdeq	r0, [r0], -lr
    233c:	00416702 	subeq	r6, r1, r2, lsl #14
    2340:	23020000 	movwcs	r0, #8192	; 0x2000
    2344:	0168070c 	cmneq	r8, ip, lsl #14
    2348:	6c020000 	stcvs	0, cr0, [r2], {-0}
    234c:	00000041 	andeq	r0, r0, r1, asr #32
    2350:	07102302 	ldreq	r2, [r0, -r2, lsl #6]
    2354:	000004aa 	andeq	r0, r0, sl, lsr #9
    2358:	00417202 	subeq	r7, r1, r2, lsl #4
    235c:	23020000 	movwcs	r0, #8192	; 0x2000
    2360:	21110714 	tstcs	r1, r4, lsl r7
    2364:	78020000 	stmdavc	r2, {}	; <UNPREDICTABLE>
    2368:	00000193 	muleq	r0, r3, r1
    236c:	07182302 	ldreq	r2, [r8, -r2, lsl #6]
    2370:	00000504 	andeq	r0, r0, r4, lsl #10
    2374:	00418302 	subeq	r8, r1, r2, lsl #6
    2378:	23030000 	movwcs	r0, #12288	; 0x3000
    237c:	ca0701c8 	bgt	1c2aa4 <__standby_start+0x1c2aa4>
    2380:	02000002 	andeq	r0, r0, #2
    2384:	0001a389 	andeq	sl, r1, r9, lsl #7
    2388:	cc230300 	stcgt	3, cr0, [r3], #-0
    238c:	04020001 	streq	r0, [r2], #-1
    2390:	0002f307 	andeq	pc, r2, r7, lsl #6
    2394:	009a0900 	addseq	r0, sl, r0, lsl #18
    2398:	01a30000 			; <UNDEFINED> instruction: 0x01a30000
    239c:	480a0000 	stmdami	sl, {}	; <UNPREDICTABLE>
    23a0:	0a000000 	beq	23a8 <__standby_start+0x23a8>
    23a4:	00f40900 	rscseq	r0, r4, r0, lsl #18
    23a8:	01b30000 			; <UNDEFINED> instruction: 0x01b30000
    23ac:	480a0000 	stmdami	sl, {}	; <UNPREDICTABLE>
    23b0:	05000000 	streq	r0, [r0, #-0]
    23b4:	02b70600 	adcseq	r0, r7, #0
    23b8:	8a020000 	bhi	823c0 <__standby_start+0x823c0>
    23bc:	000000ff 	strdeq	r0, [r0], -pc	; <UNPREDICTABLE>
    23c0:	01b3040b 			; <UNDEFINED> instruction: 0x01b3040b
    23c4:	2e040000 	cdpcs	0, 0, cr0, cr4, cr0, {0}
    23c8:	14000002 	strne	r0, [r0], #-2
    23cc:	0217c802 	andseq	ip, r7, #131072	; 0x20000
    23d0:	b4070000 	strlt	r0, [r7], #-0
    23d4:	02000012 	andeq	r0, r0, #18
    23d8:	00018cca 	andeq	r8, r1, sl, asr #25
    23dc:	00230200 	eoreq	r0, r3, r0, lsl #4
    23e0:	00164e07 	andseq	r4, r6, r7, lsl #28
    23e4:	8ccb0200 	sfmhi	f0, 2, [fp], {0}
    23e8:	02000001 	andeq	r0, r0, #1
    23ec:	24070423 	strcs	r0, [r7], #-1059	; 0x423
    23f0:	02000000 	andeq	r0, r0, #0
    23f4:	00018ccc 	andeq	r8, r1, ip, asr #25
    23f8:	08230200 	stmdaeq	r3!, {r9}
    23fc:	00003707 	andeq	r3, r0, r7, lsl #14
    2400:	8ccd0200 	sfmhi	f0, 2, [sp], {0}
    2404:	02000001 	andeq	r0, r0, #1
    2408:	c1070c23 	tstgt	r7, r3, lsr #24
    240c:	02000004 	andeq	r0, r0, #4
    2410:	0001bece 	andeq	fp, r1, lr, asr #29
    2414:	10230200 	eorne	r0, r3, r0, lsl #4
    2418:	06040c00 	streq	r0, [r4], -r0, lsl #24
    241c:	000012da 	ldrdeq	r1, [r0], -sl
    2420:	02242703 	eoreq	r2, r4, #786432	; 0xc0000
    2424:	040b0000 	streq	r0, [fp], #-0
    2428:	0000022a 	andeq	r0, r0, sl, lsr #4
    242c:	0041010d 	subeq	r0, r1, sp, lsl #2
    2430:	023a0000 	eorseq	r0, sl, #0
    2434:	170e0000 	strne	r0, [lr, -r0]
    2438:	00000002 	andeq	r0, r0, r2
    243c:	0012f204 	andseq	pc, r2, r4, lsl #4
    2440:	2a030800 	bcs	c4448 <__standby_start+0xc4448>
    2444:	00000263 	andeq	r0, r0, r3, ror #4
    2448:	00132907 	andseq	r2, r3, r7, lsl #18
    244c:	192c0300 	stmdbne	ip!, {r8, r9}
    2450:	02000002 	andeq	r0, r0, #2
    2454:	61050023 	tstvs	r5, r3, lsr #32
    2458:	03006772 	movweq	r6, #1906	; 0x772
    245c:	0002172d 	andeq	r1, r2, sp, lsr #14
    2460:	04230200 	strteq	r0, [r3], #-512	; 0x200
    2464:	134d0400 	movtne	r0, #54272	; 0xd400
    2468:	03400000 	movteq	r0, #0
    246c:	0002df33 	andeq	sp, r2, r3, lsr pc
    2470:	21440700 	cmpcs	r4, r0, lsl #14
    2474:	35030000 	strcc	r0, [r3, #-0]
    2478:	000002df 	ldrdeq	r0, [r0], -pc	; <UNPREDICTABLE>
    247c:	07002302 	streq	r2, [r0, -r2, lsl #6]
    2480:	00001713 	andeq	r1, r0, r3, lsl r7
    2484:	02df3603 	sbcseq	r3, pc, #3145728	; 0x300000
    2488:	23020000 	movwcs	r0, #8192	; 0x2000
    248c:	10c00701 	sbcne	r0, r0, r1, lsl #14
    2490:	37030000 	strcc	r0, [r3, -r0]
    2494:	000002df 	ldrdeq	r0, [r0], -pc	; <UNPREDICTABLE>
    2498:	07022302 	streq	r2, [r2, -r2, lsl #6]
    249c:	000012cb 	andeq	r1, r0, fp, asr #5
    24a0:	02df3803 	sbcseq	r3, pc, #196608	; 0x30000
    24a4:	23020000 	movwcs	r0, #8192	; 0x2000
    24a8:	14280703 	strtne	r0, [r8], #-1795	; 0x703
    24ac:	39030000 	stmdbcc	r3, {}	; <UNPREDICTABLE>
    24b0:	000002e4 	andeq	r0, r0, r4, ror #5
    24b4:	05042302 	streq	r2, [r4, #-770]	; 0x302
    24b8:	03006263 	movweq	r6, #611	; 0x263
    24bc:	0002ef3a 	andeq	lr, r2, sl, lsr pc
    24c0:	08230200 	stmdaeq	r3!, {r9}
    24c4:	0012d207 	andseq	sp, r2, r7, lsl #4
    24c8:	f43b0300 			; <UNDEFINED> instruction: 0xf43b0300
    24cc:	02000002 	andeq	r0, r0, #2
    24d0:	92071023 	andls	r1, r7, #35	; 0x23
    24d4:	03000013 	movweq	r0, #19
    24d8:	00030b3c 	andeq	r0, r3, ip, lsr fp
    24dc:	14230200 	strtne	r0, [r3], #-512	; 0x200
    24e0:	002c0f00 	eoreq	r0, ip, r0, lsl #30
    24e4:	040b0000 	streq	r0, [fp], #-0
    24e8:	000002ea 	andeq	r0, r0, sl, ror #5
    24ec:	0002630f 	andeq	r6, r2, pc, lsl #6
    24f0:	023a0f00 	eorseq	r0, sl, #0
    24f4:	040b0000 	streq	r0, [fp], #-0
    24f8:	000002fa 	strdeq	r0, [r0], -sl
    24fc:	00480910 	subeq	r0, r8, r0, lsl r9
    2500:	030b0000 	movweq	r0, #45056	; 0xb000
    2504:	480a0000 	stmdami	sl, {}	; <UNPREDICTABLE>
    2508:	0a000000 	beq	2510 <__standby_start+0x2510>
    250c:	02fb0f00 	rscseq	r0, fp, #0
    2510:	01110000 	tsteq	r1, r0
    2514:	000012ff 	strdeq	r1, [r0], -pc	; <UNPREDICTABLE>
    2518:	41011901 	tstmi	r1, r1, lsl #18
    251c:	c8000000 	stmdagt	r0, {}	; <UNPREDICTABLE>
    2520:	f4f0000b 			; <UNDEFINED> instruction: 0xf4f0000b
    2524:	48f0000b 	ldmmi	r0!, {r0, r1, r3}^
    2528:	11000007 	tstne	r0, r7
    252c:	00133101 	andseq	r3, r3, r1, lsl #2
    2530:	012d0100 	teqeq	sp, r0, lsl #2
    2534:	00000041 	andeq	r0, r0, r1, asr #32
    2538:	f0000bf4 			; <UNDEFINED> instruction: 0xf0000bf4
    253c:	f0000c20 			; <UNDEFINED> instruction: 0xf0000c20
    2540:	00000768 	andeq	r0, r0, r8, ror #14
    2544:	13980112 	orrsne	r0, r8, #-2147483644	; 0x80000004
    2548:	47010000 	strmi	r0, [r1, -r0]
    254c:	00004101 	andeq	r4, r0, r1, lsl #2
    2550:	000c2000 	andeq	r2, ip, r0
    2554:	000c98f0 	strdeq	r9, [ip], -r0
    2558:	000788f0 	strdeq	r8, [r7], -r0
    255c:	00038d00 	andeq	r8, r3, r0, lsl #26
    2560:	13241300 	teqne	r4, #0
    2564:	47010000 	strmi	r0, [r1, -r0]
    2568:	0000018c 	andeq	r0, r0, ip, lsl #3
    256c:	000007a8 	andeq	r0, r0, r8, lsr #15
    2570:	00134414 	andseq	r4, r3, r4, lsl r4
    2574:	8d490100 	stfhie	f0, [r9, #-0]
    2578:	d1000003 	tstle	r0, r3
    257c:	14000007 	strne	r0, [r0], #-7
    2580:	00001713 	andeq	r1, r0, r3, lsl r7
    2584:	002c4a01 	eoreq	r4, ip, r1, lsl #20
    2588:	07ef0000 	strbeq	r0, [pc, r0]!
    258c:	0b000000 	bleq	2594 <__standby_start+0x2594>
    2590:	00026304 	andeq	r6, r2, r4, lsl #6
    2594:	6f011200 	svcvs	0x00011200
    2598:	01000013 	tsteq	r0, r3, lsl r0
    259c:	0041016c 	subeq	r0, r1, ip, ror #2
    25a0:	0c980000 	ldceq	0, cr0, [r8], {0}
    25a4:	0d1cf000 	ldceq	0, cr15, [ip, #-0]
    25a8:	081bf000 	ldmdaeq	fp, {ip, sp, lr, pc}
    25ac:	03c00000 	biceq	r0, r0, #0
    25b0:	44140000 	ldrmi	r0, [r4], #-0
    25b4:	01000013 	tsteq	r0, r3, lsl r0
    25b8:	00038d6e 	andeq	r8, r3, lr, ror #26
    25bc:	00083b00 	andeq	r3, r8, r0, lsl #22
    25c0:	01120000 	tsteq	r2, r0
    25c4:	000013ec 	andeq	r1, r0, ip, ror #7
    25c8:	41019901 	tstmi	r1, r1, lsl #18
    25cc:	1c000000 	stcne	0, cr0, [r0], {-0}
    25d0:	b8f0000d 	ldmlt	r0!, {r0, r2, r3}^
    25d4:	6ff0000d 	svcvs	0x00f0000d
    25d8:	fc000008 	stc2	0, cr0, [r0], {8}
    25dc:	13000003 	movwne	r0, #3
    25e0:	000012b4 			; <UNDEFINED> instruction: 0x000012b4
    25e4:	03fc9901 	mvnseq	r9, #16384	; 0x4000
    25e8:	088f0000 	stmeq	pc, {}	; <UNPREDICTABLE>
    25ec:	44140000 	ldrmi	r0, [r4], #-0
    25f0:	01000013 	tsteq	r0, r3, lsl r0
    25f4:	00038d9b 	muleq	r3, fp, sp
    25f8:	0008ad00 	andeq	sl, r8, r0, lsl #26
    25fc:	040b0000 	streq	r0, [fp], #-0
    2600:	0000018c 	andeq	r0, r0, ip, lsl #3
    2604:	140b0112 	strne	r0, [fp], #-274	; 0x112
    2608:	ce010000 	cdpgt	0, 0, cr0, cr1, cr0, {0}
    260c:	00004101 	andeq	r4, r0, r1, lsl #2
    2610:	000db800 	andeq	fp, sp, r0, lsl #16
    2614:	000e30f0 	strdeq	r3, [lr], -r0
    2618:	0008ecf0 	strdeq	lr, [r8], -r0
    261c:	00044d00 	andeq	r4, r4, r0, lsl #26
    2620:	04121300 	ldreq	r1, [r2], #-768	; 0x300
    2624:	ce010000 	cdpgt	0, 0, cr0, cr1, cr0, {0}
    2628:	0000044d 	andeq	r0, r0, sp, asr #8
    262c:	0000090c 	andeq	r0, r0, ip, lsl #18
    2630:	00134414 	andseq	r4, r3, r4, lsl r4
    2634:	8dd00100 	ldfhie	f0, [r0]
    2638:	2a000003 	bcs	264c <__standby_start+0x264c>
    263c:	14000009 	strne	r0, [r0], #-9
    2640:	000012cb 	andeq	r1, r0, fp, asr #5
    2644:	0041d101 	subeq	sp, r1, r1, lsl #2
    2648:	093d0000 	ldmdbeq	sp!, {}	; <UNPREDICTABLE>
    264c:	0b000000 	bleq	2654 <__standby_start+0x2654>
    2650:	0001c404 	andeq	ip, r1, r4, lsl #8
    2654:	12e51500 	rscne	r1, r5, #0
    2658:	14010000 	strne	r0, [r1], #-0
    265c:	0000018c 	andeq	r0, r0, ip, lsl #3
    2660:	34900305 	ldrcc	r0, [r0], #773	; 0x305
    2664:	1215f000 	andsne	pc, r5, #0
    2668:	01000013 	tsteq	r0, r3, lsl r0
    266c:	00018c17 	andeq	r8, r1, r7, lsl ip
    2670:	94030500 	strls	r0, [r3], #-1280	; 0x500
    2674:	16f00034 			; <UNDEFINED> instruction: 0x16f00034
    2678:	0000135b 	andeq	r1, r0, fp, asr r3
    267c:	018c1101 	orreq	r1, ip, r1, lsl #2
    2680:	05010000 	streq	r0, [r1, #-0]
    2684:	00344003 	eorseq	r4, r4, r3
    2688:	046200f0 	strbteq	r0, [r2], #-240	; 0xf0
    268c:	00020000 	andeq	r0, r2, r0
    2690:	00000964 	andeq	r0, r0, r4, ror #18
    2694:	01fd0104 	mvnseq	r0, r4, lsl #2
    2698:	05010000 	streq	r0, [r1, #-0]
    269c:	40000015 	andmi	r0, r0, r5, lsl r0
    26a0:	30000001 	andcc	r0, r0, r1
    26a4:	68f0000e 	ldmvs	r0!, {r1, r2, r3}^
    26a8:	d6f00011 	usatle	r0, #16, r1
    26ac:	02000008 	andeq	r0, r0, #8
    26b0:	02680601 	rsbeq	r0, r8, #1048576	; 0x100000
    26b4:	01020000 	mrseq	r0, (UNDEF: 2)
    26b8:	00026608 	andeq	r6, r2, r8, lsl #12
    26bc:	05020200 	streq	r0, [r2, #-512]	; 0x200
    26c0:	000000b8 	strheq	r0, [r0], -r8
    26c4:	ea070202 	b	1c2ed4 <__standby_start+0x1c2ed4>
    26c8:	03000003 	movweq	r0, #3
    26cc:	6e690504 	cdpvs	5, 6, cr0, cr9, cr4, {0}
    26d0:	8e040074 	mcrhi	0, 0, r0, cr4, cr4, {3}
    26d4:	02000003 	andeq	r0, r0, #3
    26d8:	00005313 	andeq	r5, r0, r3, lsl r3
    26dc:	07040200 	streq	r0, [r4, -r0, lsl #4]
    26e0:	000002f8 	strdeq	r0, [r0], -r8
    26e4:	dc050802 	stcle	8, cr0, [r5], {2}
    26e8:	02000001 	andeq	r0, r0, #1
    26ec:	02ee0708 	rsceq	r0, lr, #2097152	; 0x200000
    26f0:	04020000 	streq	r0, [r2], #-0
    26f4:	0002f307 	andeq	pc, r2, r7, lsl #6
    26f8:	06040500 	streq	r0, [r4], -r0, lsl #10
    26fc:	00000053 	andeq	r0, r0, r3, asr r0
    2700:	0014a307 	andseq	sl, r4, r7, lsl #6
    2704:	1d040400 	cfstrsne	mvf0, [r4, #-0]
    2708:	0000008f 	andeq	r0, r0, pc, lsl #1
    270c:	00148908 	andseq	r8, r4, r8, lsl #18
    2710:	a3080000 	movwge	r0, #32768	; 0x8000
    2714:	01000015 	tsteq	r0, r5, lsl r0
    2718:	12da0400 	sbcsne	r0, sl, #0
    271c:	27030000 	strcs	r0, [r3, -r0]
    2720:	0000009a 	muleq	r0, sl, r0
    2724:	00a00409 	adceq	r0, r0, r9, lsl #8
    2728:	010a0000 	mrseq	r0, (UNDEF: 10)
    272c:	00000041 	andeq	r0, r0, r1, asr #32
    2730:	000000b0 	strheq	r0, [r0], -r0	; <UNPREDICTABLE>
    2734:	00006f0b 	andeq	r6, r0, fp, lsl #30
    2738:	f20c0000 	vhadd.s8	d0, d12, d0
    273c:	08000012 	stmdaeq	r0, {r1, r4}
    2740:	00d92a03 	sbcseq	r2, r9, r3, lsl #20
    2744:	290d0000 	stmdbcs	sp, {}	; <UNPREDICTABLE>
    2748:	03000013 	movweq	r0, #19
    274c:	00008f2c 	andeq	r8, r0, ip, lsr #30
    2750:	00230200 	eoreq	r0, r3, r0, lsl #4
    2754:	6772610e 	ldrbvs	r6, [r2, -lr, lsl #2]!
    2758:	6f2d0300 	svcvs	0x002d0300
    275c:	02000000 	andeq	r0, r0, #0
    2760:	0c000423 	cfstrseq	mvf0, [r0], {35}	; 0x23
    2764:	0000134d 	andeq	r1, r0, sp, asr #6
    2768:	55330340 	ldrpl	r0, [r3, #-832]!	; 0x340
    276c:	0d000001 	stceq	0, cr0, [r0, #-4]
    2770:	00002144 	andeq	r2, r0, r4, asr #2
    2774:	01553503 	cmpeq	r5, r3, lsl #10
    2778:	23020000 	movwcs	r0, #8192	; 0x2000
    277c:	17130d00 	ldrne	r0, [r3, -r0, lsl #26]
    2780:	36030000 	strcc	r0, [r3], -r0
    2784:	00000155 	andeq	r0, r0, r5, asr r1
    2788:	0d012302 	stceq	3, cr2, [r1, #-8]
    278c:	000010c0 	andeq	r1, r0, r0, asr #1
    2790:	01553703 	cmpeq	r5, r3, lsl #14
    2794:	23020000 	movwcs	r0, #8192	; 0x2000
    2798:	12cb0d02 	sbcne	r0, fp, #128	; 0x80
    279c:	38030000 	stmdacc	r3, {}	; <UNPREDICTABLE>
    27a0:	00000155 	andeq	r0, r0, r5, asr r1
    27a4:	0d032302 	stceq	3, cr2, [r3, #-8]
    27a8:	00001428 	andeq	r1, r0, r8, lsr #8
    27ac:	015a3903 	cmpeq	sl, r3, lsl #18
    27b0:	23020000 	movwcs	r0, #8192	; 0x2000
    27b4:	62630e04 	rsbvs	r0, r3, #64	; 0x40
    27b8:	653a0300 	ldrvs	r0, [sl, #-768]!	; 0x300
    27bc:	02000001 	andeq	r0, r0, #1
    27c0:	d20d0823 	andle	r0, sp, #2293760	; 0x230000
    27c4:	03000012 	movweq	r0, #18
    27c8:	00016a3b 	andeq	r6, r1, fp, lsr sl
    27cc:	10230200 	eorne	r0, r3, r0, lsl #4
    27d0:	0013920d 	andseq	r9, r3, sp, lsl #4
    27d4:	813c0300 	teqhi	ip, r0, lsl #6
    27d8:	02000001 	andeq	r0, r0, #1
    27dc:	06001423 	streq	r1, [r0], -r3, lsr #8
    27e0:	0000002c 	andeq	r0, r0, ip, lsr #32
    27e4:	01600409 	cmneq	r0, r9, lsl #8
    27e8:	d9060000 	stmdble	r6, {}	; <UNPREDICTABLE>
    27ec:	06000000 	streq	r0, [r0], -r0
    27f0:	000000b0 	strheq	r0, [r0], -r0	; <UNPREDICTABLE>
    27f4:	01700409 	cmneq	r0, r9, lsl #8
    27f8:	100f0000 	andne	r0, pc, r0
    27fc:	00000053 	andeq	r0, r0, r3, asr r0
    2800:	00000181 	andeq	r0, r0, r1, lsl #3
    2804:	00005311 	andeq	r5, r0, r1, lsl r3
    2808:	06000a00 	streq	r0, [r0], -r0, lsl #20
    280c:	00000171 	andeq	r0, r0, r1, ror r1
    2810:	14d70112 	ldrbne	r0, [r7], #274	; 0x112
    2814:	21010000 	mrscs	r0, (UNDEF: 1)
    2818:	00410101 	subeq	r0, r1, r1, lsl #2
    281c:	a6010000 	strge	r0, [r1], -r0
    2820:	13000001 	movwne	r0, #1
    2824:	00001344 	andeq	r1, r0, r4, asr #6
    2828:	a6012101 	strge	r2, [r1], -r1, lsl #2
    282c:	00000001 	andeq	r0, r0, r1
    2830:	00d90409 	sbcseq	r0, r9, r9, lsl #8
    2834:	01140000 	tsteq	r4, r0
    2838:	0000155a 	andeq	r1, r0, sl, asr r5
    283c:	4101da01 	tstmi	r1, r1, lsl #20
    2840:	01000000 	mrseq	r0, (UNDEF: 0)
    2844:	000001d5 	ldrdeq	r0, [r0], -r5
    2848:	0014eb15 	andseq	lr, r4, r5, lsl fp
    284c:	41da0100 	bicsmi	r0, sl, r0, lsl #2
    2850:	15000000 	strne	r0, [r0, #-0]
    2854:	000014b2 			; <UNDEFINED> instruction: 0x000014b2
    2858:	0041da01 	subeq	sp, r1, r1, lsl #20
    285c:	16000000 	strne	r0, [r0], -r0
    2860:	0014f101 	andseq	pc, r4, r1, lsl #2
    2864:	012d0100 	teqeq	sp, r0, lsl #2
    2868:	00000041 	andeq	r0, r0, r1, asr #32
    286c:	f0000e30 			; <UNDEFINED> instruction: 0xf0000e30
    2870:	f0000e38 			; <UNDEFINED> instruction: 0xf0000e38
    2874:	16007d02 	strne	r7, [r0], -r2, lsl #26
    2878:	00147501 	andseq	r7, r4, r1, lsl #10
    287c:	013d0100 	teqeq	sp, r0, lsl #2
    2880:	00000041 	andeq	r0, r0, r1, asr #32
    2884:	f0000e38 			; <UNDEFINED> instruction: 0xf0000e38
    2888:	f0000e40 			; <UNDEFINED> instruction: 0xf0000e40
    288c:	17007d02 	strne	r7, [r0, -r2, lsl #26]
    2890:	00142d01 	andseq	r2, r4, r1, lsl #26
    2894:	014f0100 	mrseq	r0, (UNDEF: 95)
    2898:	00000041 	andeq	r0, r0, r1, asr #32
    289c:	f0000e40 			; <UNDEFINED> instruction: 0xf0000e40
    28a0:	f0000f04 			; <UNDEFINED> instruction: 0xf0000f04
    28a4:	00000967 	andeq	r0, r0, r7, ror #18
    28a8:	00000250 	andeq	r0, r0, r0, asr r2
    28ac:	00134418 	andseq	r4, r3, r8, lsl r4
    28b0:	a64f0100 	strbge	r0, [pc], -r0, lsl #2
    28b4:	87000001 	strhi	r0, [r0, -r1]
    28b8:	18000009 	stmdane	r0, {r0, r3}
    28bc:	0000164e 	andeq	r1, r0, lr, asr #12
    28c0:	00534f01 	subseq	r4, r3, r1, lsl #30
    28c4:	099a0000 	ldmibeq	sl, {}	; <UNPREDICTABLE>
    28c8:	6f190000 	svcvs	0x00190000
    28cc:	01000014 	tsteq	r0, r4, lsl r0
    28d0:	00025051 	andeq	r5, r2, r1, asr r0
    28d4:	0009ad00 	andeq	sl, r9, r0, lsl #26
    28d8:	68060000 	stmdavs	r6, {}	; <UNPREDICTABLE>
    28dc:	17000000 	strne	r0, [r0, -r0]
    28e0:	0014b701 	andseq	fp, r4, r1, lsl #14
    28e4:	01810100 	orreq	r0, r1, r0, lsl #2
    28e8:	00000041 	andeq	r0, r0, r1, asr #32
    28ec:	f0000f04 			; <UNDEFINED> instruction: 0xf0000f04
    28f0:	f0000fa8 			; <UNDEFINED> instruction: 0xf0000fa8
    28f4:	000009cd 	andeq	r0, r0, sp, asr #19
    28f8:	000002a0 	andeq	r0, r0, r0, lsr #5
    28fc:	00134418 	andseq	r4, r3, r8, lsl r4
    2900:	a6810100 	strge	r0, [r1], r0, lsl #2
    2904:	ed000001 	stc	0, cr0, [r0, #-4]
    2908:	18000009 	stmdane	r0, {r0, r3}
    290c:	0000164e 	andeq	r1, r0, lr, asr #12
    2910:	00538101 	subseq	r8, r3, r1, lsl #2
    2914:	0a0b0000 	beq	2c291c <__standby_start+0x2c291c>
    2918:	6f190000 	svcvs	0x00190000
    291c:	01000014 	tsteq	r0, r4, lsl r0
    2920:	00025083 	andeq	r5, r2, r3, lsl #1
    2924:	000a2900 	andeq	r2, sl, r0, lsl #18
    2928:	01170000 	tsteq	r7, r0
    292c:	00001580 	andeq	r1, r0, r0, lsl #11
    2930:	4101ad01 	tstmi	r1, r1, lsl #26
    2934:	a8000000 	stmdage	r0, {}	; <UNPREDICTABLE>
    2938:	fcf0000f 	ldc2l	0, cr0, [r0], #60	; 0x3c
    293c:	49f0000f 	ldmibmi	r0!, {r0, r1, r2, r3}^
    2940:	eb00000a 	bl	2970 <__standby_start+0x2970>
    2944:	18000002 	stmdane	r0, {r1}
    2948:	000014eb 	andeq	r1, r0, fp, ror #9
    294c:	0041ad01 	subeq	sl, r1, r1, lsl #26
    2950:	0a690000 	beq	1a42958 <__standby_start+0x1a42958>
    2954:	b2180000 	andslt	r0, r8, #0
    2958:	01000014 	tsteq	r0, r4, lsl r0
    295c:	000041ad 	andeq	r4, r0, sp, lsr #3
    2960:	000a7c00 	andeq	r7, sl, r0, lsl #24
    2964:	146f1900 	strbtne	r1, [pc], #-2304	; 296c <__standby_start+0x296c>
    2968:	af010000 	svcge	0x00010000
    296c:	00000071 	andeq	r0, r0, r1, ror r0
    2970:	00000a8f 	andeq	r0, r0, pc, lsl #21
    2974:	49011700 	stmdbmi	r1, {r8, r9, sl, ip}
    2978:	01000014 	tsteq	r0, r4, lsl r0
    297c:	004101c5 	subeq	r0, r1, r5, asr #3
    2980:	0ffc0000 	svceq	0x00fc0000
    2984:	1028f000 	eorne	pc, r8, r0
    2988:	0adcf000 	beq	ff73e990 <__bss_end+0xf73b374>
    298c:	03340000 	teqeq	r4, #0
    2990:	eb180000 	bl	602998 <__standby_start+0x602998>
    2994:	01000014 	tsteq	r0, r4, lsl r0
    2998:	000041c5 	andeq	r4, r0, r5, asr #3
    299c:	000afc00 	andeq	pc, sl, r0, lsl #24
    29a0:	14b21a00 	ldrtne	r1, [r2], #2560	; 0xa00
    29a4:	c5010000 	strgt	r0, [r1, #-0]
    29a8:	00000041 	andeq	r0, r0, r1, asr #32
    29ac:	6f195101 	svcvs	0x00195101
    29b0:	01000014 	tsteq	r0, r4, lsl r0
    29b4:	000250c7 	andeq	r5, r2, r7, asr #1
    29b8:	000b0f00 	andeq	r0, fp, r0, lsl #30
    29bc:	ac1b0000 	ldcge	0, cr0, [fp], {-0}
    29c0:	28000001 	stmdacs	r0, {r0}
    29c4:	48f00010 	ldmmi	r0!, {r4}^
    29c8:	02f00010 	rscseq	r0, r0, #16
    29cc:	0359007d 	cmpeq	r9, #125	; 0x7d
    29d0:	be1c0000 	cdplt	0, 1, cr0, cr12, cr0, {0}
    29d4:	2e000001 	cdpcs	0, 0, cr0, cr0, cr1, {0}
    29d8:	1d00000b 	stcne	0, cr0, [r0, #-44]	; 0xffffffd4
    29dc:	000001c9 	andeq	r0, r0, r9, asr #3
    29e0:	17005101 	strne	r5, [r0, -r1, lsl #2]
    29e4:	00153d01 	andseq	r3, r5, r1, lsl #26
    29e8:	01ec0100 	mvneq	r0, r0, lsl #2
    29ec:	000001a6 	andeq	r0, r0, r6, lsr #3
    29f0:	f0001048 			; <UNDEFINED> instruction: 0xf0001048
    29f4:	f0001134 			; <UNDEFINED> instruction: 0xf0001134
    29f8:	00000b41 	andeq	r0, r0, r1, asr #22
    29fc:	0000043a 	andeq	r0, r0, sl, lsr r4
    2a00:	00134419 	andseq	r4, r3, r9, lsl r4
    2a04:	a6ee0100 	strbtge	r0, [lr], r0, lsl #2
    2a08:	61000001 	tstvs	r0, r1
    2a0c:	1e00000b 	cdpne	0, 0, cr0, cr0, cr11, {0}
    2a10:	000000d8 	ldrdeq	r0, [r0], -r8
    2a14:	000003de 	ldrdeq	r0, [r0], -lr
    2a18:	00146f19 	andseq	r6, r4, r9, lsl pc
    2a1c:	50f20100 	rscspl	r0, r2, r0, lsl #2
    2a20:	a2000002 	andge	r0, r0, #2
    2a24:	1f00000b 	svcne	0x0000000b
    2a28:	00000186 	andeq	r0, r0, r6, lsl #3
    2a2c:	f0001074 			; <UNDEFINED> instruction: 0xf0001074
    2a30:	000000f0 	strdeq	r0, [r0], -r0	; <UNPREDICTABLE>
    2a34:	03baf501 			; <UNDEFINED> instruction: 0x03baf501
    2a38:	991c0000 	ldmdbls	ip, {}	; <UNPREDICTABLE>
    2a3c:	cd000001 	stcgt	0, cr0, [r0, #-4]
    2a40:	0000000b 	andeq	r0, r0, fp
    2a44:	0001ac20 	andeq	sl, r1, r0, lsr #24
    2a48:	0010a400 	andseq	sl, r0, r0, lsl #8
    2a4c:	0010b4f0 			; <UNDEFINED> instruction: 0x0010b4f0
    2a50:	010401f0 	strdeq	r0, [r4, -r0]
    2a54:	0001c91c 	andeq	ip, r1, ip, lsl r9
    2a58:	000beb00 	andeq	lr, fp, r0, lsl #22
    2a5c:	01be1c00 			; <UNDEFINED> instruction: 0x01be1c00
    2a60:	0bff0000 	bleq	fffc2a68 <__bss_end+0xffbf44c>
    2a64:	00000000 	andeq	r0, r0, r0
    2a68:	0010cc21 	andseq	ip, r0, r1, lsr #24
    2a6c:	001128f0 			; <UNDEFINED> instruction: 0x001128f0
    2a70:	146f22f0 	strbtne	r2, [pc], #-752	; 2a78 <__standby_start+0x2a78>
    2a74:	09010000 	stmdbeq	r1, {}	; <UNPREDICTABLE>
    2a78:	00025001 	andeq	r5, r2, r1
    2a7c:	000c1300 	andeq	r1, ip, r0, lsl #6
    2a80:	01862300 	orreq	r2, r6, r0, lsl #6
    2a84:	10e00000 	rscne	r0, r0, r0
    2a88:	0110f000 	tsteq	r0, r0
    2a8c:	0c010000 	stceq	0, cr0, [r1], {-0}
    2a90:	00041501 	andeq	r1, r4, r1, lsl #10
    2a94:	01991c00 	orrseq	r1, r9, r0, lsl #24
    2a98:	0c3e0000 	ldceq	0, cr0, [lr], #-0
    2a9c:	20000000 	andcs	r0, r0, r0
    2aa0:	000001ac 	andeq	r0, r0, ip, lsr #3
    2aa4:	f0001114 			; <UNDEFINED> instruction: 0xf0001114
    2aa8:	f0001124 			; <UNDEFINED> instruction: 0xf0001124
    2aac:	1c011a01 	stcne	10, cr1, [r1], {1}
    2ab0:	000001c9 	andeq	r0, r0, r9, asr #3
    2ab4:	00000c5c 	andeq	r0, r0, ip, asr ip
    2ab8:	0001be1c 	andeq	fp, r1, ip, lsl lr
    2abc:	000c7000 	andeq	r7, ip, r0
    2ac0:	00000000 	andeq	r0, r0, r0
    2ac4:	0001861b 	andeq	r8, r1, fp, lsl r6
    2ac8:	00113400 	andseq	r3, r1, r0, lsl #8
    2acc:	001168f0 			; <UNDEFINED> instruction: 0x001168f0
    2ad0:	007d02f0 	ldrshteq	r0, [sp], #-32	; 0xffffffe0
    2ad4:	00000458 	andeq	r0, r0, r8, asr r4
    2ad8:	0001991c 	andeq	r9, r1, ip, lsl r9
    2adc:	000c8400 	andeq	r8, ip, r0, lsl #8
    2ae0:	5b240000 	blpl	902ae8 <__standby_start+0x902ae8>
    2ae4:	05000013 	streq	r0, [r0, #-19]
    2ae8:	00006823 	andeq	r6, r0, r3, lsr #16
    2aec:	00010100 	andeq	r0, r1, r0, lsl #2
    2af0:	000000f2 	strdeq	r0, [r0], -r2
    2af4:	0b450002 	bleq	1142b04 <__standby_start+0x1142b04>
    2af8:	01040000 	mrseq	r0, (UNDEF: 4)
    2afc:	000001fd 	strdeq	r0, [r0], -sp
    2b00:	0015bd01 	andseq	fp, r5, r1, lsl #26
    2b04:	00014000 	andeq	r4, r1, r0
    2b08:	00116800 	andseq	r6, r1, r0, lsl #16
    2b0c:	0011bcf0 			; <UNDEFINED> instruction: 0x0011bcf0
    2b10:	000a8cf0 	strdeq	r8, [sl], -r0
    2b14:	06010200 	streq	r0, [r1], -r0, lsl #4
    2b18:	00000268 	andeq	r0, r0, r8, ror #4
    2b1c:	66080102 	strvs	r0, [r8], -r2, lsl #2
    2b20:	02000002 	andeq	r0, r0, #2
    2b24:	00b80502 	adcseq	r0, r8, r2, lsl #10
    2b28:	02020000 	andeq	r0, r2, #0
    2b2c:	0003ea07 	andeq	lr, r3, r7, lsl #20
    2b30:	05040300 	streq	r0, [r4, #-768]	; 0x300
    2b34:	00746e69 	rsbseq	r6, r4, r9, ror #28
    2b38:	f8070402 			; <UNDEFINED> instruction: 0xf8070402
    2b3c:	02000002 	andeq	r0, r0, #2
    2b40:	01dc0508 	bicseq	r0, ip, r8, lsl #10
    2b44:	08020000 	stmdaeq	r2, {}	; <UNPREDICTABLE>
    2b48:	0002ee07 	andeq	lr, r2, r7, lsl #28
    2b4c:	07040200 	streq	r0, [r4, -r0, lsl #4]
    2b50:	000002f3 	strdeq	r0, [r0], -r3
    2b54:	16260104 	strtne	r0, [r6], -r4, lsl #2
    2b58:	23010000 	movwcs	r0, #4096	; 0x1000
    2b5c:	00004101 	andeq	r4, r0, r1, lsl #2
    2b60:	00116800 	andseq	r6, r1, r0, lsl #16
    2b64:	001170f0 	ldrsheq	r7, [r1], -r0
    2b68:	007d02f0 	ldrshteq	r0, [sp], #-32	; 0xffffffe0
    2b6c:	15fc0104 	ldrbne	r0, [ip, #260]!	; 0x104
    2b70:	33010000 	movwcc	r0, #4096	; 0x1000
    2b74:	00004101 	andeq	r4, r0, r1, lsl #2
    2b78:	00117000 	andseq	r7, r1, r0
    2b7c:	001178f0 			; <UNDEFINED> instruction: 0x001178f0
    2b80:	007d02f0 	ldrshteq	r0, [sp], #-32	; 0xffffffe0
    2b84:	163c0105 	ldrtne	r0, [ip], -r5, lsl #2
    2b88:	43010000 	movwmi	r0, #4096	; 0x1000
    2b8c:	00004101 	andeq	r4, r0, r1, lsl #2
    2b90:	00117800 	andseq	r7, r1, r0, lsl #16
    2b94:	00119cf0 			; <UNDEFINED> instruction: 0x00119cf0
    2b98:	007d02f0 	ldrshteq	r0, [sp], #-32	; 0xffffffe0
    2b9c:	000000cd 	andeq	r0, r0, sp, asr #1
    2ba0:	0015f706 	andseq	pc, r5, r6, lsl #14
    2ba4:	41430100 	mrsmi	r0, (UNDEF: 83)
    2ba8:	a2000000 	andge	r0, r0, #0
    2bac:	0700000c 	streq	r0, [r0, -ip]
    2bb0:	0000164e 	andeq	r1, r0, lr, asr #12
    2bb4:	00484301 	subeq	r4, r8, r1, lsl #6
    2bb8:	51010000 	mrspl	r0, (UNDEF: 1)
    2bbc:	12010800 	andne	r0, r1, #0
    2bc0:	01000016 	tsteq	r0, r6, lsl r0
    2bc4:	0041015c 	subeq	r0, r1, ip, asr r1
    2bc8:	119c0000 	orrsne	r0, ip, r0
    2bcc:	11bcf000 			; <UNDEFINED> instruction: 0x11bcf000
    2bd0:	7d02f000 	stcvc	0, cr15, [r2, #-0]
    2bd4:	15f70600 	ldrbne	r0, [r7, #1536]!	; 0x600
    2bd8:	5c010000 	stcpl	0, cr0, [r1], {-0}
    2bdc:	00000041 	andeq	r0, r0, r1, asr #32
    2be0:	00000cb5 			; <UNDEFINED> instruction: 0x00000cb5
    2be4:	02330000 	eorseq	r0, r3, #0
    2be8:	00020000 	andeq	r0, r2, r0
    2bec:	00000bd4 	ldrdeq	r0, [r0], -r4
    2bf0:	01fd0104 	mvnseq	r0, r4, lsl #2
    2bf4:	d0010000 	andle	r0, r1, r0
    2bf8:	40000016 	andmi	r0, r0, r6, lsl r0
    2bfc:	bc000001 	stclt	0, cr0, [r0], {1}
    2c00:	acf00011 	ldclge	0, cr0, [r0], #68	; 0x44
    2c04:	0df00012 	ldcleq	0, cr0, [r0, #72]!	; 0x48
    2c08:	0200000b 	andeq	r0, r0, #11
    2c0c:	02680601 	rsbeq	r0, r8, #1048576	; 0x100000
    2c10:	01020000 	mrseq	r0, (UNDEF: 2)
    2c14:	00026608 	andeq	r6, r2, r8, lsl #12
    2c18:	05020200 	streq	r0, [r2, #-512]	; 0x200
    2c1c:	000000b8 	strheq	r0, [r0], -r8
    2c20:	ea070202 	b	1c3430 <__standby_start+0x1c3430>
    2c24:	03000003 	movweq	r0, #3
    2c28:	6e690504 	cdpvs	5, 6, cr0, cr9, cr4, {0}
    2c2c:	04020074 	streq	r0, [r2], #-116	; 0x74
    2c30:	0002f807 	andeq	pc, r2, r7, lsl #16
    2c34:	05080200 	streq	r0, [r8, #-512]	; 0x200
    2c38:	000001dc 	ldrdeq	r0, [r0], -ip
    2c3c:	ee070802 	cdp	8, 0, cr0, cr7, cr2, {0}
    2c40:	02000002 	andeq	r0, r0, #2
    2c44:	02f30704 	rscseq	r0, r3, #1048576	; 0x100000
    2c48:	04040000 	streq	r0, [r4], #-0
    2c4c:	0012da05 	andseq	sp, r2, r5, lsl #20
    2c50:	71270200 	teqvc	r7, r0, lsl #4
    2c54:	06000000 	streq	r0, [r0], -r0
    2c58:	00007704 	andeq	r7, r0, r4, lsl #14
    2c5c:	41010700 	tstmi	r1, r0, lsl #14
    2c60:	87000000 	strhi	r0, [r0, -r0]
    2c64:	08000000 	stmdaeq	r0, {}	; <UNPREDICTABLE>
    2c68:	00000064 	andeq	r0, r0, r4, rrx
    2c6c:	12f20900 	rscsne	r0, r2, #0
    2c70:	02080000 	andeq	r0, r8, #0
    2c74:	0000b02a 	andeq	fp, r0, sl, lsr #32
    2c78:	13290a00 	teqne	r9, #0
    2c7c:	2c020000 	stccs	0, cr0, [r2], {-0}
    2c80:	00000066 	andeq	r0, r0, r6, rrx
    2c84:	0b002302 	bleq	b894 <__standby_start+0xb894>
    2c88:	00677261 	rsbeq	r7, r7, r1, ror #4
    2c8c:	00642d02 	rsbeq	r2, r4, r2, lsl #26
    2c90:	23020000 	movwcs	r0, #8192	; 0x2000
    2c94:	4d090004 	stcmi	0, cr0, [r9, #-16]
    2c98:	40000013 	andmi	r0, r0, r3, lsl r0
    2c9c:	012c3302 	teqeq	ip, r2, lsl #6
    2ca0:	440a0000 	strmi	r0, [sl], #-0
    2ca4:	02000021 	andeq	r0, r0, #33	; 0x21
    2ca8:	00012c35 	andeq	r2, r1, r5, lsr ip
    2cac:	00230200 	eoreq	r0, r3, r0, lsl #4
    2cb0:	0017130a 	andseq	r1, r7, sl, lsl #6
    2cb4:	2c360200 	lfmcs	f0, 4, [r6], #-0
    2cb8:	02000001 	andeq	r0, r0, #1
    2cbc:	c00a0123 	andgt	r0, sl, r3, lsr #2
    2cc0:	02000010 	andeq	r0, r0, #16
    2cc4:	00012c37 	andeq	r2, r1, r7, lsr ip
    2cc8:	02230200 	eoreq	r0, r3, #0
    2ccc:	0012cb0a 	andseq	ip, r2, sl, lsl #22
    2cd0:	2c380200 	lfmcs	f0, 4, [r8], #-0
    2cd4:	02000001 	andeq	r0, r0, #1
    2cd8:	280a0323 	stmdacs	sl, {r0, r1, r5, r8, r9}
    2cdc:	02000014 	andeq	r0, r0, #20
    2ce0:	00013139 	andeq	r3, r1, r9, lsr r1
    2ce4:	04230200 	strteq	r0, [r3], #-512	; 0x200
    2ce8:	0062630b 	rsbeq	r6, r2, fp, lsl #6
    2cec:	013c3a02 	teqeq	ip, r2, lsl #20
    2cf0:	23020000 	movwcs	r0, #8192	; 0x2000
    2cf4:	12d20a08 	sbcsne	r0, r2, #32768	; 0x8000
    2cf8:	3b020000 	blcc	82d00 <__standby_start+0x82d00>
    2cfc:	00000141 	andeq	r0, r0, r1, asr #2
    2d00:	0a102302 	beq	40b910 <__standby_start+0x40b910>
    2d04:	00001392 	muleq	r0, r2, r3
    2d08:	01583c02 	cmpeq	r8, r2, lsl #24
    2d0c:	23020000 	movwcs	r0, #8192	; 0x2000
    2d10:	2c0c0014 	stccs	0, cr0, [ip], {20}
    2d14:	06000000 	streq	r0, [r0], -r0
    2d18:	00013704 	andeq	r3, r1, r4, lsl #14
    2d1c:	00b00c00 	adcseq	r0, r0, r0, lsl #24
    2d20:	870c0000 	strhi	r0, [ip, -r0]
    2d24:	06000000 	streq	r0, [r0], -r0
    2d28:	00014704 	andeq	r4, r1, r4, lsl #14
    2d2c:	480e0d00 	stmdami	lr, {r8, sl, fp}
    2d30:	58000000 	stmdapl	r0, {}	; <UNPREDICTABLE>
    2d34:	0f000001 	svceq	0x00000001
    2d38:	00000048 	andeq	r0, r0, r8, asr #32
    2d3c:	480c000a 	stmdami	ip, {r1, r3}
    2d40:	10000001 	andne	r0, r0, r1
    2d44:	0016b501 	andseq	fp, r6, r1, lsl #10
    2d48:	01280100 	teqeq	r8, r0, lsl #2
    2d4c:	00000041 	andeq	r0, r0, r1, asr #32
    2d50:	f00011bc 			; <UNDEFINED> instruction: 0xf00011bc
    2d54:	f00011e4 			; <UNDEFINED> instruction: 0xf00011e4
    2d58:	10007d02 	andne	r7, r0, r2, lsl #26
    2d5c:	00165601 	andseq	r5, r6, r1, lsl #12
    2d60:	013c0100 	teqeq	ip, r0, lsl #2
    2d64:	00000041 	andeq	r0, r0, r1, asr #32
    2d68:	f00011e4 			; <UNDEFINED> instruction: 0xf00011e4
    2d6c:	f00011ec 			; <UNDEFINED> instruction: 0xf00011ec
    2d70:	11007d02 	tstne	r0, r2, lsl #26
    2d74:	00167101 	andseq	r7, r6, r1, lsl #2
    2d78:	014d0100 	mrseq	r0, (UNDEF: 93)
    2d7c:	000001d8 	ldrdeq	r0, [r0], -r8
    2d80:	f00011ec 			; <UNDEFINED> instruction: 0xf00011ec
    2d84:	f0001280 			; <UNDEFINED> instruction: 0xf0001280
    2d88:	00000cc8 	andeq	r0, r0, r8, asr #25
    2d8c:	000001d8 	ldrdeq	r0, [r0], -r8
    2d90:	00170f12 	andseq	r0, r7, r2, lsl pc
    2d94:	484d0100 	stmdami	sp, {r8}^
    2d98:	e8000000 	stmda	r0, {}	; <UNPREDICTABLE>
    2d9c:	1300000c 	movwne	r0, #12
    2da0:	00001344 	andeq	r1, r0, r4, asr #6
    2da4:	01d84f01 	bicseq	r4, r8, r1, lsl #30
    2da8:	0d060000 	stceq	0, cr0, [r6, #-0]
    2dac:	18130000 	ldmdane	r3, {}	; <UNPREDICTABLE>
    2db0:	01000017 	tsteq	r0, r7, lsl r0
    2db4:	0001d850 	andeq	sp, r1, r0, asr r8
    2db8:	000d6000 	andeq	r6, sp, r0
    2dbc:	04060000 	streq	r0, [r6], #-0
    2dc0:	000000b0 	strheq	r0, [r0], -r0	; <UNPREDICTABLE>
    2dc4:	16940114 			; <UNDEFINED> instruction: 0x16940114
    2dc8:	80010000 	andhi	r0, r1, r0
    2dcc:	00128001 	andseq	r8, r2, r1
    2dd0:	0012acf0 			; <UNDEFINED> instruction: 0x0012acf0
    2dd4:	000d8af0 	strdeq	r8, [sp], -r0
    2dd8:	00020700 	andeq	r0, r2, r0, lsl #14
    2ddc:	13441200 	movtne	r1, #16896	; 0x4200
    2de0:	80010000 	andhi	r0, r1, r0
    2de4:	000001d8 	ldrdeq	r0, [r0], -r8
    2de8:	00000daa 	andeq	r0, r0, sl, lsr #27
    2dec:	16a71500 	strtne	r1, [r7], r0, lsl #10
    2df0:	1a010000 	bne	42df8 <__standby_start+0x42df8>
    2df4:	000001d8 	ldrdeq	r0, [r0], -r8
    2df8:	34980305 	ldrcc	r0, [r8], #773	; 0x305
    2dfc:	8815f000 	ldmdahi	r5, {ip, sp, lr, pc}
    2e00:	01000016 	tsteq	r0, r6, lsl r0
    2e04:	0001d81b 	andeq	sp, r1, fp, lsl r8
    2e08:	9c030500 	cfstr32ls	mvfx0, [r3], {-0}
    2e0c:	16f00034 			; <UNDEFINED> instruction: 0x16f00034
    2e10:	0000135b 	andeq	r1, r0, fp, asr r3
    2e14:	005d2303 	subseq	r2, sp, r3, lsl #6
    2e18:	01010000 	mrseq	r0, (UNDEF: 1)
    2e1c:	00028b00 	andeq	r8, r2, r0, lsl #22
    2e20:	fd000200 	stc2	2, cr0, [r0, #-0]
    2e24:	0400000c 	streq	r0, [r0], #-12
    2e28:	0001fd01 	andeq	pc, r1, r1, lsl #26
    2e2c:	17fc0100 	ldrbne	r0, [ip, r0, lsl #2]!
    2e30:	01400000 	mrseq	r0, (UNDEF: 64)
    2e34:	12ac0000 	adcne	r0, ip, #0
    2e38:	1424f000 	strtne	pc, [r4], #-0
    2e3c:	0bddf000 	bleq	ff77ee44 <__bss_end+0xf77b828>
    2e40:	01020000 	mrseq	r0, (UNDEF: 2)
    2e44:	00026806 	andeq	r6, r2, r6, lsl #16
    2e48:	08010200 	stmdaeq	r1, {r9}
    2e4c:	00000266 	andeq	r0, r0, r6, ror #4
    2e50:	b8050202 	stmdalt	r5, {r1, r9}
    2e54:	02000000 	andeq	r0, r0, #0
    2e58:	03ea0702 	mvneq	r0, #524288	; 0x80000
    2e5c:	04030000 	streq	r0, [r3], #-0
    2e60:	746e6905 	strbtvc	r6, [lr], #-2309	; 0x905
    2e64:	038e0400 	orreq	r0, lr, #0
    2e68:	13020000 	movwne	r0, #8192	; 0x2000
    2e6c:	00000053 	andeq	r0, r0, r3, asr r0
    2e70:	f8070402 			; <UNDEFINED> instruction: 0xf8070402
    2e74:	02000002 	andeq	r0, r0, #2
    2e78:	01dc0508 	bicseq	r0, ip, r8, lsl #10
    2e7c:	08020000 	stmdaeq	r2, {}	; <UNPREDICTABLE>
    2e80:	0002ee07 	andeq	lr, r2, r7, lsl #28
    2e84:	00480500 	subeq	r0, r8, r0, lsl #10
    2e88:	04020000 	streq	r0, [r2], #-0
    2e8c:	0002f307 	andeq	pc, r2, r7, lsl #6
    2e90:	29010600 	stmdbcs	r1, {r9, sl}
    2e94:	01000017 	tsteq	r0, r7, lsl r0
    2e98:	12ac010b 	adcne	r0, ip, #-1073741822	; 0xc0000002
    2e9c:	12ccf000 	sbcne	pc, ip, #0
    2ea0:	0dc8f000 	stcleq	0, cr15, [r8]
    2ea4:	009c0000 	addseq	r0, ip, r0
    2ea8:	1f070000 	svcne	0x00070000
    2eac:	01000017 	tsteq	r0, r7, lsl r0
    2eb0:	0000680e 	andeq	r6, r0, lr, lsl #16
    2eb4:	74910200 	ldrvc	r0, [r1], #512	; 0x200
    2eb8:	42010800 	andmi	r0, r1, #0
    2ebc:	01000018 	tsteq	r0, r8, lsl r0
    2ec0:	12cc0119 	sbcne	r0, ip, #1073741830	; 0x40000006
    2ec4:	12d0f000 	sbcsne	pc, r0, #0
    2ec8:	7d02f000 	stcvc	0, cr15, [r2, #-0]
    2ecc:	36010800 	strcc	r0, [r1], -r0, lsl #16
    2ed0:	01000017 	tsteq	r0, r7, lsl r0
    2ed4:	12d00129 	sbcsne	r0, r0, #1073741834	; 0x4000000a
    2ed8:	12d4f000 	sbcsne	pc, r4, #0
    2edc:	7d02f000 	stcvc	0, cr15, [r2, #-0]
    2ee0:	ec010800 	stc	8, cr0, [r1], {-0}
    2ee4:	01000017 	tsteq	r0, r7, lsl r0
    2ee8:	12d401ad 	sbcsne	r0, r4, #1073741867	; 0x4000002b
    2eec:	12d8f000 	sbcsne	pc, r8, #0
    2ef0:	7d02f000 	stcvc	0, cr15, [r2, #-0]
    2ef4:	55010800 	strpl	r0, [r1, #-2048]	; 0x800
    2ef8:	01000017 	tsteq	r0, r7, lsl r0
    2efc:	12d801b2 	sbcsne	r0, r8, #-2147483604	; 0x8000002c
    2f00:	12dcf000 	sbcsne	pc, ip, #0
    2f04:	7d02f000 	stcvc	0, cr15, [r2, #-0]
    2f08:	db010900 	blle	45310 <__standby_start+0x45310>
    2f0c:	01000017 	tsteq	r0, r7, lsl r0
    2f10:	12dc01b7 	sbcsne	r0, ip, #-1073741779	; 0xc000002d
    2f14:	12fcf000 	rscsne	pc, ip, #0
    2f18:	7d02f000 	stcvc	0, cr15, [r2, #-0]
    2f1c:	00011200 	andeq	r1, r1, r0, lsl #4
    2f20:	00690a00 	rsbeq	r0, r9, r0, lsl #20
    2f24:	0041b901 	subeq	fp, r1, r1, lsl #18
    2f28:	0de80000 	stcleq	0, cr0, [r8]
    2f2c:	08000000 	stmdaeq	r0, {}	; <UNPREDICTABLE>
    2f30:	00179e01 	andseq	r9, r7, r1, lsl #28
    2f34:	01c30100 	biceq	r0, r3, r0, lsl #2
    2f38:	f00012fc 			; <UNDEFINED> instruction: 0xf00012fc
    2f3c:	f0001300 			; <UNDEFINED> instruction: 0xf0001300
    2f40:	06007d02 	streq	r7, [r0], -r2, lsl #26
    2f44:	00174501 	andseq	r4, r7, r1, lsl #10
    2f48:	01c80100 	biceq	r0, r8, r0, lsl #2
    2f4c:	f0001300 			; <UNDEFINED> instruction: 0xf0001300
    2f50:	f0001328 			; <UNDEFINED> instruction: 0xf0001328
    2f54:	00000e2c 	andeq	r0, r0, ip, lsr #28
    2f58:	0000014d 	andeq	r0, r0, sp, asr #2
    2f5c:	6c61760b 	stclvs	6, cr7, [r1], #-44	; 0xffffffd4
    2f60:	68c80100 	stmiavs	r8, {r8}^
    2f64:	01000000 	mrseq	r0, (UNDEF: 0)
    2f68:	010c0050 	qaddeq	r0, r0, ip
    2f6c:	000017cc 	andeq	r1, r0, ip, asr #15
    2f70:	4801d001 	stmdami	r1, {r0, ip, lr, pc}
    2f74:	28000000 	stmdacs	r0, {}	; <UNPREDICTABLE>
    2f78:	38f00013 	ldmcc	r0!, {r0, r1, r4}^
    2f7c:	02f00013 	rscseq	r0, r0, #19
    2f80:	0106007d 	tsteq	r6, sp, ror r0
    2f84:	0000176b 	andeq	r1, r0, fp, ror #14
    2f88:	3801d501 	stmdacc	r1, {r0, r8, sl, ip, lr, pc}
    2f8c:	70f00013 	rscsvc	r0, r0, r3, lsl r0
    2f90:	4cf00013 	ldclmi	0, cr0, [r0], #76	; 0x4c
    2f94:	8c00000e 	stchi	0, cr0, [r0], {14}
    2f98:	0a000001 	beq	2fa4 <__standby_start+0x2fa4>
    2f9c:	d7010069 	strle	r0, [r1, -r9, rrx]
    2fa0:	00000041 	andeq	r0, r0, r1, asr #32
    2fa4:	00000e6c 	andeq	r0, r0, ip, ror #28
    2fa8:	b6010600 	strlt	r0, [r1], -r0, lsl #12
    2fac:	01000017 	tsteq	r0, r7, lsl r0
    2fb0:	137001e0 	cmnne	r0, #56	; 0x38
    2fb4:	138cf000 	orrne	pc, ip, #0
    2fb8:	0e80f000 	cdpeq	0, 8, cr15, cr0, cr0, {0}
    2fbc:	01b30000 			; <UNDEFINED> instruction: 0x01b30000
    2fc0:	760b0000 	strvc	r0, [fp], -r0
    2fc4:	01006c61 	tsteq	r0, r1, ror #24
    2fc8:	000068e0 	andeq	r6, r0, r0, ror #17
    2fcc:	00500100 	subseq	r0, r0, r0, lsl #2
    2fd0:	17830106 	strne	r0, [r3, r6, lsl #2]
    2fd4:	e6010000 	str	r0, [r1], -r0
    2fd8:	00138c01 	andseq	r8, r3, r1, lsl #24
    2fdc:	0013a8f0 			; <UNDEFINED> instruction: 0x0013a8f0
    2fe0:	000ea0f0 	strdeq	sl, [lr], -r0
    2fe4:	0001da00 	andeq	sp, r1, r0, lsl #20
    2fe8:	61760b00 	cmnvs	r6, r0, lsl #22
    2fec:	e601006c 	str	r0, [r1], -ip, rrx
    2ff0:	00000068 	andeq	r0, r0, r8, rrx
    2ff4:	08005001 	stmdaeq	r0, {r0, ip, lr}
    2ff8:	0017ae01 	andseq	sl, r7, r1, lsl #28
    2ffc:	01f20100 	mvnseq	r0, r0, lsl #2
    3000:	f00013a8 			; <UNDEFINED> instruction: 0xf00013a8
    3004:	f00013c0 			; <UNDEFINED> instruction: 0xf00013c0
    3008:	09007d02 	stmdbeq	r0, {r1, r8, sl, fp, ip, sp, lr}
    300c:	00185001 	andseq	r5, r8, r1
    3010:	01fa0100 	mvnseq	r0, r0, lsl #2
    3014:	f00013c0 			; <UNDEFINED> instruction: 0xf00013c0
    3018:	f00013d8 			; <UNDEFINED> instruction: 0xf00013d8
    301c:	14007d02 	strne	r7, [r0], #-3330	; 0xd02
    3020:	07000002 	streq	r0, [r0, -r2]
    3024:	000010b3 	strheq	r1, [r0], -r3
    3028:	0048fc01 	subeq	pc, r8, r1, lsl #24
    302c:	52010000 	andpl	r0, r1, #0
    3030:	36010d00 	strcc	r0, [r1], -r0, lsl #26
    3034:	01000018 	tsteq	r0, r8, lsl r0
    3038:	d8010106 	stmdale	r1, {r1, r2, r8}
    303c:	f0f00013 			; <UNDEFINED> instruction: 0xf0f00013
    3040:	02f00013 	rscseq	r0, r0, #19
    3044:	023c007d 	eorseq	r0, ip, #125	; 0x7d
    3048:	b30e0000 	movwlt	r0, #57344	; 0xe000
    304c:	01000010 	tsteq	r0, r0, lsl r0
    3050:	00480108 	subeq	r0, r8, r8, lsl #2
    3054:	52010000 	andpl	r0, r1, #0
    3058:	7b010f00 	blvc	46c60 <__standby_start+0x46c60>
    305c:	01000017 	tsteq	r0, r7, lsl r0
    3060:	f0010115 			; <UNDEFINED> instruction: 0xf0010115
    3064:	24f00013 	ldrbtcs	r0, [r0], #19
    3068:	c0f00014 	rscsgt	r0, r0, r4, lsl r0
    306c:	7700000e 	strvc	r0, [r0, -lr]
    3070:	10000002 	andne	r0, r0, r2
    3074:	006d756e 	rsbeq	r7, sp, lr, ror #10
    3078:	41011501 	tstmi	r1, r1, lsl #10
    307c:	e0000000 	and	r0, r0, r0
    3080:	1100000e 	tstne	r0, lr
    3084:	000010b3 	strheq	r1, [r0], -r3
    3088:	48011701 	stmdami	r1, {r0, r8, r9, sl, ip}
    308c:	f3000000 	vhadd.u8	d0, d0, d0
    3090:	0000000e 	andeq	r0, r0, lr
    3094:	00182b12 	andseq	r2, r8, r2, lsl fp
    3098:	89090100 	stmdbhi	r9, {r8}
    309c:	01000002 	tsteq	r0, r2
    30a0:	34a00305 	strtcc	r0, [r0], #773	; 0x305
    30a4:	4105f000 	mrsmi	pc, (UNDEF: 5)	; <UNPREDICTABLE>
    30a8:	00000000 	andeq	r0, r0, r0
    30ac:	0000046d 	andeq	r0, r0, sp, ror #8
    30b0:	0e2e0002 	cdpeq	0, 2, cr0, cr14, cr2, {0}
    30b4:	01040000 	mrseq	r0, (UNDEF: 4)
    30b8:	000001fd 	strdeq	r0, [r0], -sp
    30bc:	00192601 	andseq	r2, r9, r1, lsl #12
    30c0:	00014000 	andeq	r4, r1, r0
    30c4:	00142400 	andseq	r2, r4, r0, lsl #8
    30c8:	0015e0f0 	ldrsheq	lr, [r5], -r0
    30cc:	000c96f0 	strdeq	r9, [ip], -r0
    30d0:	06010200 	streq	r0, [r1], -r0, lsl #4
    30d4:	00000268 	andeq	r0, r0, r8, ror #4
    30d8:	66080102 	strvs	r0, [r8], -r2, lsl #2
    30dc:	02000002 	andeq	r0, r0, #2
    30e0:	00b80502 	adcseq	r0, r8, r2, lsl #10
    30e4:	02020000 	andeq	r0, r2, #0
    30e8:	0003ea07 	andeq	lr, r3, r7, lsl #20
    30ec:	0b430300 	bleq	10c3cf4 <__standby_start+0x10c3cf4>
    30f0:	12020000 	andne	r0, r2, #0
    30f4:	0000004c 	andeq	r0, r0, ip, asr #32
    30f8:	69050404 	stmdbvs	r5, {r2, sl}
    30fc:	0300746e 	movweq	r7, #1134	; 0x46e
    3100:	0000038e 	andeq	r0, r0, lr, lsl #7
    3104:	005e1302 	subseq	r1, lr, r2, lsl #6
    3108:	04020000 	streq	r0, [r2], #-0
    310c:	0002f807 	andeq	pc, r2, r7, lsl #16
    3110:	05080200 	streq	r0, [r8, #-512]	; 0x200
    3114:	000001dc 	ldrdeq	r0, [r0], -ip
    3118:	ee070802 	cdp	8, 0, cr0, cr7, cr2, {0}
    311c:	05000002 	streq	r0, [r0, #-2]
    3120:	0000049b 	muleq	r0, fp, r4
    3124:	98140304 	ldmdals	r4, {r2, r8, r9}
    3128:	06000000 	streq	r0, [r0], -r0
    312c:	00000194 	muleq	r0, r4, r1
    3130:	04e60601 	strbteq	r0, [r6], #1537	; 0x601
    3134:	06020000 	streq	r0, [r2], -r0
    3138:	00000381 	andeq	r0, r0, r1, lsl #7
    313c:	025b0603 	subseq	r0, fp, #3145728	; 0x300000
    3140:	00050000 	andeq	r0, r5, r0
    3144:	f3070402 	vshl.u8	d0, d2, d7
    3148:	07000002 	streq	r0, [r0, -r2]
    314c:	00195701 	andseq	r5, r9, r1, lsl #14
    3150:	013e0100 	teqeq	lr, r0, lsl #2
    3154:	00000053 	andeq	r0, r0, r3, asr r0
    3158:	0000bd01 	andeq	fp, r0, r1, lsl #26
    315c:	146f0800 	strbtne	r0, [pc], #-2048	; 3164 <__standby_start+0x3164>
    3160:	40010000 	andmi	r0, r1, r0
    3164:	00000053 	andeq	r0, r0, r3, asr r0
    3168:	d6010900 	strle	r0, [r1], -r0, lsl #18
    316c:	01000018 	tsteq	r0, r8, lsl r0
    3170:	ed01010b 	stfs	f0, [r1, #-44]	; 0xffffffd4
    3174:	0a000000 	beq	317c <__standby_start+0x317c>
    3178:	00001966 	andeq	r1, r0, r6, ror #18
    317c:	00530b01 	subseq	r0, r3, r1, lsl #22
    3180:	fb0a0000 	blx	28318a <__standby_start+0x28318a>
    3184:	01000018 	tsteq	r0, r8, lsl r0
    3188:	0000530b 	andeq	r5, r0, fp, lsl #6
    318c:	146f0800 	strbtne	r0, [pc], #-2048	; 3194 <__standby_start+0x3194>
    3190:	0e010000 	cdpeq	0, 0, cr0, cr1, cr0, {0}
    3194:	00000053 	andeq	r0, r0, r3, asr r0
    3198:	19870b00 	stmibne	r7, {r8, r9, fp}
    319c:	a9010000 	stmdbge	r1, {}	; <UNPREDICTABLE>
    31a0:	00005301 	andeq	r5, r0, r1, lsl #6
    31a4:	01150100 	tsteq	r5, r0, lsl #2
    31a8:	c00a0000 	andgt	r0, sl, r0
    31ac:	01000010 	tsteq	r0, r0, lsl r0
    31b0:	000073a9 	andeq	r7, r0, r9, lsr #7
    31b4:	196f0800 	stmdbne	pc!, {fp}^	; <UNPREDICTABLE>
    31b8:	ab010000 	blge	431c0 <__standby_start+0x431c0>
    31bc:	0000004c 	andeq	r0, r0, ip, asr #32
    31c0:	00bd0c00 	adcseq	r0, sp, r0, lsl #24
    31c4:	14240000 	strtne	r0, [r4], #-0
    31c8:	1450f000 	ldrbne	pc, [r0], #-0	; <UNPREDICTABLE>
    31cc:	7d02f000 	stcvc	0, cr15, [r2, #-0]
    31d0:	00014300 	andeq	r4, r1, r0, lsl #6
    31d4:	00cb0d00 	sbceq	r0, fp, r0, lsl #26
    31d8:	0f110000 	svceq	0x00110000
    31dc:	d60e0000 	strle	r0, [lr], -r0
    31e0:	01000000 	mrseq	r0, (UNDEF: 0)
    31e4:	00e10f51 	rsceq	r0, r1, r1, asr pc
    31e8:	0f240000 	svceq	0x00240000
    31ec:	10000000 	andne	r0, r0, r0
    31f0:	0018b301 	andseq	fp, r8, r1, lsl #6
    31f4:	01290100 	teqeq	r9, r0, lsl #2
    31f8:	f0001450 			; <UNDEFINED> instruction: 0xf0001450
    31fc:	f000146c 			; <UNDEFINED> instruction: 0xf000146c
    3200:	10007d02 	andne	r7, r0, r2, lsl #26
    3204:	0019b801 	andseq	fp, r9, r1, lsl #16
    3208:	01330100 	teqeq	r3, r0, lsl #2
    320c:	f000146c 			; <UNDEFINED> instruction: 0xf000146c
    3210:	f0001490 			; <UNDEFINED> instruction: 0xf0001490
    3214:	0c007d02 	stceq	13, cr7, [r0], {2}
    3218:	0000009f 	muleq	r0, pc, r0	; <UNPREDICTABLE>
    321c:	f0001490 			; <UNDEFINED> instruction: 0xf0001490
    3220:	f0001498 			; <UNDEFINED> instruction: 0xf0001498
    3224:	87007d02 	strhi	r7, [r0, -r2, lsl #26]
    3228:	11000001 	tstne	r0, r1
    322c:	000000b1 	strheq	r0, [r0], -r1
    3230:	12005001 	andne	r5, r0, #1
    3234:	0018a501 	andseq	sl, r8, r1, lsl #10
    3238:	01460100 	mrseq	r0, (UNDEF: 86)
    323c:	f0001498 			; <UNDEFINED> instruction: 0xf0001498
    3240:	f00014a8 			; <UNDEFINED> instruction: 0xf00014a8
    3244:	af007d02 	svcge	0x00007d02
    3248:	13000001 	movwne	r0, #1
    324c:	0000146f 	andeq	r1, r0, pc, ror #8
    3250:	00534801 	subseq	r4, r3, r1, lsl #16
    3254:	0f6d0000 	svceq	0x006d0000
    3258:	14000000 	strne	r0, [r0], #-0
    325c:	00190a01 	andseq	r0, r9, r1, lsl #20
    3260:	01510100 	cmpeq	r1, r0, lsl #2
    3264:	f00014a8 			; <UNDEFINED> instruction: 0xf00014a8
    3268:	f00014d0 			; <UNDEFINED> instruction: 0xf00014d0
    326c:	00000f9b 	muleq	r0, fp, pc	; <UNPREDICTABLE>
    3270:	00000222 	andeq	r0, r0, r2, lsr #4
    3274:	0016af13 	andseq	sl, r6, r3, lsl pc
    3278:	53530100 	cmppl	r3, #0
    327c:	bb000000 	bllt	3284 <__standby_start+0x3284>
    3280:	1500000f 	strne	r0, [r0, #-15]
    3284:	0000009f 	muleq	r0, pc, r0	; <UNPREDICTABLE>
    3288:	f00014ac 			; <UNDEFINED> instruction: 0xf00014ac
    328c:	f00014b0 			; <UNDEFINED> instruction: 0xf00014b0
    3290:	01fe5801 	mvnseq	r5, r1, lsl #16
    3294:	ac160000 	ldcge	0, cr0, [r6], {-0}
    3298:	b0f00014 	rscslt	r0, r0, r4, lsl r0
    329c:	0ff00014 	svceq	0x00f00014
    32a0:	000000b1 	strheq	r0, [r0], -r1
    32a4:	00000fcf 	andeq	r0, r0, pc, asr #31
    32a8:	9f170000 	svcls	0x00170000
    32ac:	b0000000 	andlt	r0, r0, r0
    32b0:	b4f00014 	ldrbtlt	r0, [r0], #20
    32b4:	01f00014 	mvnseq	r0, r4, lsl r0
    32b8:	14b01659 	ldrtne	r1, [r0], #1625	; 0x659
    32bc:	14b4f000 	ldrtne	pc, [r4], #0	; <UNPREDICTABLE>
    32c0:	b10ff000 	mrslt	pc, CPSR	; <UNPREDICTABLE>
    32c4:	e2000000 	and	r0, r0, #0
    32c8:	0000000f 	andeq	r0, r0, pc
    32cc:	01140000 	tsteq	r4, r0
    32d0:	000018c6 	andeq	r1, r0, r6, asr #17
    32d4:	d0016101 	andle	r6, r1, r1, lsl #2
    32d8:	50f00014 	rscspl	r0, r0, r4, lsl r0
    32dc:	f5f00015 			; <UNDEFINED> instruction: 0xf5f00015
    32e0:	1200000f 	andne	r0, r0, #15
    32e4:	18000003 	stmdane	r0, {r0, r1}
    32e8:	01007375 	tsteq	r0, r5, ror r3
    32ec:	00005361 	andeq	r5, r0, r1, ror #6
    32f0:	00101500 	andseq	r1, r0, r0, lsl #10
    32f4:	18cf1300 	stmiane	pc, {r8, r9, ip}^	; <UNPREDICTABLE>
    32f8:	63010000 	movwvs	r0, #4096	; 0x1000
    32fc:	00000053 	andeq	r0, r0, r3, asr r0
    3300:	0000103e 	andeq	r1, r0, lr, lsr r0
    3304:	72756319 	rsbsvc	r6, r5, #1677721600	; 0x64000000
    3308:	53640100 	cmnpl	r4, #0
    330c:	6e000000 	cdpvs	0, 0, cr0, cr0, cr0, {0}
    3310:	13000010 	movwne	r0, #16
    3314:	00001895 	muleq	r0, r5, r8
    3318:	00536501 	subseq	r6, r3, r1, lsl #10
    331c:	10a40000 	adcne	r0, r4, r0
    3320:	86130000 	ldrhi	r0, [r3], -r0
    3324:	01000018 	tsteq	r0, r8, lsl r0
    3328:	00005366 	andeq	r5, r0, r6, ror #6
    332c:	0010cf00 	andseq	ip, r0, r0, lsl #30
    3330:	756f1a00 	strbvc	r1, [pc, #-2560]!	; 2938 <__standby_start+0x2938>
    3334:	9a010074 	bls	4350c <__standby_start+0x4350c>
    3338:	f00014e8 			; <UNDEFINED> instruction: 0xf00014e8
    333c:	00009f15 	andeq	r9, r0, r5, lsl pc
    3340:	0014fc00 	andseq	pc, r4, r0, lsl #24
    3344:	001500f0 	ldrsheq	r0, [r5], -r0	; <UNPREDICTABLE>
    3348:	b57101f0 	ldrblt	r0, [r1, #-496]!	; 0x1f0
    334c:	16000002 	strne	r0, [r0], -r2
    3350:	f00014fc 			; <UNDEFINED> instruction: 0xf00014fc
    3354:	f0001500 			; <UNDEFINED> instruction: 0xf0001500
    3358:	0000b111 	andeq	fp, r0, r1, lsl r1
    335c:	00530100 	subseq	r0, r3, r0, lsl #2
    3360:	00bd1500 	adcseq	r1, sp, r0, lsl #10
    3364:	15200000 	strne	r0, [r0, #-0]!
    3368:	1538f000 	ldrne	pc, [r8, #-0]!
    336c:	7701f000 	strvc	pc, [r1, -r0]
    3370:	000002ee 	andeq	r0, r0, lr, ror #5
    3374:	0000d60d 	andeq	sp, r0, sp, lsl #12
    3378:	0010fa00 	andseq	pc, r0, r0, lsl #20
    337c:	00cb0d00 	sbceq	r0, fp, r0, lsl #26
    3380:	110e0000 	mrsne	r0, (UNDEF: 14)
    3384:	20160000 	andscs	r0, r6, r0
    3388:	38f00015 	ldmcc	r0!, {r0, r2, r4}^
    338c:	0ff00015 	svceq	0x00f00015
    3390:	000000e1 	andeq	r0, r0, r1, ror #1
    3394:	00001122 	andeq	r1, r0, r2, lsr #2
    3398:	9f170000 	svcls	0x00170000
    339c:	38000000 	stmdacc	r0, {}	; <UNPREDICTABLE>
    33a0:	3cf00015 	ldclcc	0, cr0, [r0], #84	; 0x54
    33a4:	01f00015 	mvnseq	r0, r5, lsl r0
    33a8:	1538167b 	ldrne	r1, [r8, #-1659]!	; 0x67b
    33ac:	153cf000 	ldrne	pc, [ip, #-0]!
    33b0:	b10ff000 	mrslt	pc, CPSR	; <UNPREDICTABLE>
    33b4:	46000000 	strmi	r0, [r0], -r0
    33b8:	00000011 	andeq	r0, r0, r1, lsl r0
    33bc:	01120000 	tsteq	r2, r0
    33c0:	0000189c 	muleq	r0, ip, r8
    33c4:	5001a101 	andpl	sl, r1, r1, lsl #2
    33c8:	5cf00015 	ldclpl	0, cr0, [r0], #84	; 0x54
    33cc:	02f00015 	rscseq	r0, r0, #21
    33d0:	0339007d 	teqeq	r9, #125	; 0x7d
    33d4:	6d180000 	ldcvs	0, cr0, [r8, #-0]
    33d8:	a1010073 	tstge	r1, r3, ror r0
    33dc:	00000053 	andeq	r0, r0, r3, asr r0
    33e0:	00001159 	andeq	r1, r0, r9, asr r1
    33e4:	e8011200 	stmda	r1, {r9, ip}
    33e8:	01000018 	tsteq	r0, r8, lsl r0
    33ec:	155c01c3 	ldrbne	r0, [ip, #-451]	; 0x1c3
    33f0:	1588f000 	strne	pc, [r8]
    33f4:	7d02f000 	stcvc	0, cr15, [r2, #-0]
    33f8:	00037d00 	andeq	r7, r3, r0, lsl #26
    33fc:	19661b00 	stmdbne	r6!, {r8, r9, fp, ip}^
    3400:	c3010000 	movwgt	r0, #4096	; 0x1000
    3404:	00000053 	andeq	r0, r0, r3, asr r0
    3408:	0000116c 	andeq	r1, r0, ip, ror #2
    340c:	0018fb1c 	andseq	pc, r8, ip, lsl fp	; <UNPREDICTABLE>
    3410:	53c30100 	bicpl	r0, r3, #0
    3414:	01000000 	mrseq	r0, (UNDEF: 0)
    3418:	146f1351 	strbtne	r1, [pc], #-849	; 3420 <__standby_start+0x3420>
    341c:	c6010000 	strgt	r0, [r1], -r0
    3420:	00000053 	andeq	r0, r0, r3, asr r0
    3424:	0000117f 	andeq	r1, r0, pc, ror r1
    3428:	75011200 	strvc	r1, [r1, #-512]	; 0x200
    342c:	01000019 	tsteq	r0, r9, lsl r0
    3430:	158801e1 	strne	r0, [r8, #481]	; 0x1e1
    3434:	15b4f000 	ldrne	pc, [r4, #0]!
    3438:	7d02f000 	stcvc	0, cr15, [r2, #-0]
    343c:	0003c900 	andeq	ip, r3, r0, lsl #18
    3440:	10c01c00 	sbcne	r1, r0, r0, lsl #24
    3444:	e1010000 	mrs	r0, (UNDEF: 1)
    3448:	00000073 	andeq	r0, r0, r3, ror r0
    344c:	6f135001 	svcvs	0x00135001
    3450:	01000019 	tsteq	r0, r9, lsl r0
    3454:	000053e4 	andeq	r5, r0, r4, ror #7
    3458:	0011c800 	andseq	ip, r1, r0, lsl #16
    345c:	00ed1700 	rsceq	r1, sp, r0, lsl #14
    3460:	15880000 	strne	r0, [r8]
    3464:	159cf000 	ldrne	pc, [ip]
    3468:	e501f000 	str	pc, [r1, #-0]
    346c:	0000fe0e 	andeq	pc, r0, lr, lsl #28
    3470:	00500100 	subseq	r0, r0, r0, lsl #2
    3474:	cc011d00 	stcgt	13, cr1, [r1], {-0}
    3478:	01000019 	tsteq	r0, r9, lsl r0
    347c:	004c01f4 	strdeq	r0, [ip], #-20	; 0xffffffec
    3480:	15b40000 	ldrne	r0, [r4, #0]!
    3484:	15e0f000 	strbne	pc, [r0, #0]!	; <UNPREDICTABLE>
    3488:	7d02f000 	stcvc	0, cr15, [r2, #-0]
    348c:	00042c00 	andeq	r2, r4, r0, lsl #24
    3490:	10c01b00 	sbcne	r1, r0, r0, lsl #22
    3494:	f4010000 	vst4.8	{d0-d3}, [r1], r0
    3498:	00000073 	andeq	r0, r0, r3, ror r0
    349c:	000011dc 	ldrdeq	r1, [r0], -ip
    34a0:	00196f13 	andseq	r6, r9, r3, lsl pc
    34a4:	4cf60100 	ldfmie	f0, [r6]
    34a8:	fc000000 	stc2	0, cr0, [r0], {-0}
    34ac:	13000011 	movwne	r0, #17
    34b0:	0000185d 	andeq	r1, r0, sp, asr r8
    34b4:	004cf701 	subeq	pc, ip, r1, lsl #14
    34b8:	121b0000 	andsne	r0, fp, #0
    34bc:	ed170000 	ldc	0, cr0, [r7, #-0]
    34c0:	b4000000 	strlt	r0, [r0], #-0
    34c4:	c8f00015 	ldmgt	r0!, {r0, r2, r4}^
    34c8:	01f00015 	mvnseq	r0, r5, lsl r0
    34cc:	00fe0df8 	ldrshteq	r0, [lr], #216	; 0xd8
    34d0:	11dc0000 	bicsne	r0, ip, r0
    34d4:	00000000 	andeq	r0, r0, r0
    34d8:	00209f1e 	eoreq	r9, r0, lr, lsl pc
    34dc:	53040100 	movwpl	r0, #16640	; 0x4100
    34e0:	05000000 	streq	r0, [r0, #-0]
    34e4:	0034b003 	eorseq	fp, r4, r3
    34e8:	191d1ef0 	ldmdbne	sp, {r4, r5, r6, r7, r9, sl, fp, ip}
    34ec:	05010000 	streq	r0, [r1, #-0]
    34f0:	00000053 	andeq	r0, r0, r3, asr r0
    34f4:	34ac0305 	strtcc	r0, [ip], #773	; 0x305
    34f8:	9b1ef000 	blls	7bf500 <__standby_start+0x7bf500>
    34fc:	01000019 	tsteq	r0, r9, lsl r0
    3500:	00005306 	andeq	r5, r0, r6, lsl #6
    3504:	a4030500 	strge	r0, [r3], #-1280	; 0x500
    3508:	1ef00034 	mrcne	0, 7, r0, cr0, cr4, {1}
    350c:	00001867 	andeq	r1, r0, r7, ror #16
    3510:	00530701 	subseq	r0, r3, r1, lsl #14
    3514:	03050000 	movweq	r0, #20480	; 0x5000
    3518:	f00034a8 			; <UNDEFINED> instruction: 0xf00034a8
    351c:	00014400 	andeq	r4, r1, r0, lsl #8
    3520:	f1000200 			; <UNDEFINED> instruction: 0xf1000200
    3524:	0400000f 	streq	r0, [r0], #-15
    3528:	0001fd01 	andeq	pc, r1, r1, lsl #26
    352c:	1a260100 	bne	983934 <__standby_start+0x983934>
    3530:	01400000 	mrseq	r0, (UNDEF: 64)
    3534:	15e00000 	strbne	r0, [r0, #0]!
    3538:	1680f000 	strne	pc, [r0], r0
    353c:	0d9df000 	ldceq	0, cr15, [sp]
    3540:	04020000 	streq	r0, [r2], #-0
    3544:	746e6905 	strbtvc	r6, [lr], #-2309	; 0x905
    3548:	07040300 	streq	r0, [r4, -r0, lsl #6]
    354c:	000002f3 	strdeq	r0, [r0], -r3
    3550:	f8070403 			; <UNDEFINED> instruction: 0xf8070403
    3554:	03000002 	movweq	r0, #2
    3558:	02660801 	rsbeq	r0, r6, #65536	; 0x10000
    355c:	01030000 	mrseq	r0, (UNDEF: 3)
    3560:	00026806 	andeq	r6, r2, r6, lsl #16
    3564:	05020300 	streq	r0, [r2, #-768]	; 0x300
    3568:	000000b8 	strheq	r0, [r0], -r8
    356c:	ea070203 	b	1c3d80 <__standby_start+0x1c3d80>
    3570:	04000003 	streq	r0, [r0], #-3
    3574:	0000038e 	andeq	r0, r0, lr, lsl #7
    3578:	00331303 	eorseq	r1, r3, r3, lsl #6
    357c:	08030000 	stmdaeq	r3, {}	; <UNPREDICTABLE>
    3580:	0001dc05 	andeq	sp, r1, r5, lsl #24
    3584:	07080300 	streq	r0, [r8, -r0, lsl #6]
    3588:	000002ee 	andeq	r0, r0, lr, ror #5
    358c:	0019e905 	andseq	lr, r9, r5, lsl #18
    3590:	35022400 	strcc	r2, [r2, #-1024]	; 0x400
    3594:	000000f9 	strdeq	r0, [r0], -r9
    3598:	001a6106 	andseq	r6, sl, r6, lsl #2
    359c:	56370200 	ldrtpl	r0, [r7], -r0, lsl #4
    35a0:	02000000 	andeq	r0, r0, #0
    35a4:	63070023 	movwvs	r0, #28707	; 0x7023
    35a8:	39020072 	stmdbcc	r2, {r1, r4, r5, r6}
    35ac:	00000056 	andeq	r0, r0, r6, asr r0
    35b0:	06042302 	streq	r2, [r4], -r2, lsl #6
    35b4:	00001a5c 	andeq	r1, r0, ip, asr sl
    35b8:	00563a02 	subseq	r3, r6, r2, lsl #20
    35bc:	23020000 	movwcs	r0, #8192	; 0x2000
    35c0:	1a660608 	bne	1984de8 <__standby_start+0x1984de8>
    35c4:	3c020000 	stccc	0, cr0, [r2], {-0}
    35c8:	00000056 	andeq	r0, r0, r6, asr r0
    35cc:	060c2302 	streq	r2, [ip], -r2, lsl #6
    35d0:	000019fe 	strdeq	r1, [r0], -lr
    35d4:	00563d02 	subseq	r3, r6, r2, lsl #26
    35d8:	23020000 	movwcs	r0, #8192	; 0x2000
    35dc:	19f80610 	ldmibne	r8!, {r4, r9, sl}^
    35e0:	3e020000 	cdpcc	0, 0, cr0, cr2, cr0, {0}
    35e4:	00000056 	andeq	r0, r0, r6, asr r0
    35e8:	06142302 	ldreq	r2, [r4], -r2, lsl #6
    35ec:	000019f3 	strdeq	r1, [r0], -r3
    35f0:	00564102 	subseq	r4, r6, r2, lsl #2
    35f4:	23020000 	movwcs	r0, #8192	; 0x2000
    35f8:	1a570618 	bne	15c4e60 <__standby_start+0x15c4e60>
    35fc:	44020000 	strmi	r0, [r2], #-0
    3600:	00000056 	andeq	r0, r0, r6, asr r0
    3604:	061c2302 	ldreq	r2, [ip], -r2, lsl #6
    3608:	000019de 	ldrdeq	r1, [r0], -lr
    360c:	00564502 	subseq	r4, r6, r2, lsl #10
    3610:	23020000 	movwcs	r0, #8192	; 0x2000
    3614:	01080020 	tsteq	r8, r0, lsr #32
    3618:	00001a17 	andeq	r1, r0, r7, lsl sl
    361c:	e0010701 	and	r0, r1, r1, lsl #14
    3620:	1cf00015 	ldclne	0, cr0, [r0], #84	; 0x54
    3624:	02f00016 	rscseq	r0, r0, #22
    3628:	011f007d 	tsteq	pc, sp, ror r0	; <UNPREDICTABLE>
    362c:	e3090000 	movw	r0, #36864	; 0x9000
    3630:	01000019 	tsteq	r0, r9, lsl r0
    3634:	00011f07 	andeq	r1, r1, r7, lsl #30
    3638:	00500100 	subseq	r0, r0, r0, lsl #2
    363c:	006f040a 	rsbeq	r0, pc, sl, lsl #8
    3640:	010b0000 	mrseq	r0, (UNDEF: 11)
    3644:	00001a05 	andeq	r1, r0, r5, lsl #20
    3648:	1c011e01 	stcne	14, cr1, [r1], {1}
    364c:	80f00016 	rscshi	r0, r0, r6, lsl r0
    3650:	02f00016 	rscseq	r0, r0, #22
    3654:	e309007d 	movw	r0, #36989	; 0x907d
    3658:	01000019 	tsteq	r0, r9, lsl r0
    365c:	00011f1e 	andeq	r1, r1, lr, lsl pc
    3660:	00500100 	subseq	r0, r0, r0, lsl #2
    3664:	00007f00 	andeq	r7, r0, r0, lsl #30
    3668:	99000200 	stmdbls	r0, {r9}
    366c:	04000010 	streq	r0, [r0], #-16
    3670:	000e5101 	andeq	r5, lr, r1, lsl #2
    3674:	00168000 	andseq	r8, r6, r0
    3678:	001bb0f0 	ldrsheq	fp, [fp], -r0
    367c:	637261f0 	cmnvs	r2, #60	; 0x3c
    3680:	72612f68 	rsbvc	r2, r1, #416	; 0x1a0
    3684:	616d2f6d 	cmnvs	sp, sp, ror #30
    3688:	732d6863 	teqvc	sp, #6488064	; 0x630000
    368c:	69786e75 	ldmdbvs	r8!, {r0, r2, r4, r5, r6, r9, sl, fp, sp, lr}^
    3690:	2f6d702f 	svccs	0x006d702f
    3694:	6e617473 	mcrvs	4, 3, r7, cr1, cr3, {3}
    3698:	2f796264 	svccs	0x00796264
    369c:	2e2e2f2e 	cdpcs	15, 2, cr2, cr14, cr14, {1}
    36a0:	6d656d2f 	stclvs	13, cr6, [r5, #-188]!	; 0xffffff44
    36a4:	756d6d5f 	strbvc	r6, [sp, #-3423]!	; 0xd5f
    36a8:	5f63705f 	svcpl	0x0063705f
    36ac:	2e6d7361 	cdpcs	3, 6, cr7, cr13, cr1, {3}
    36b0:	722f0053 	eorvc	r0, pc, #83	; 0x53
    36b4:	2f746f6f 	svccs	0x00746f6f
    36b8:	6b726f77 	blvs	1c9f49c <__standby_start+0x1c9f49c>
    36bc:	6e69732f 	cdpvs	3, 6, cr7, cr9, cr15, {1}
    36c0:	786e696c 	stmdavc	lr!, {r2, r3, r5, r6, r8, fp, sp, lr}^
    36c4:	3333612f 	teqcc	r3, #-1073741813	; 0xc000000b
    36c8:	63696c2f 	cmnvs	r9, #12032	; 0x2f00
    36cc:	2f656568 	svccs	0x00656568
    36d0:	756e696c 	strbvc	r6, [lr, #-2412]!	; 0x96c
    36d4:	2e332d78 	mrccs	13, 1, r2, cr3, cr8, {3}
    36d8:	4e470034 	mcrmi	0, 2, r0, cr7, cr4, {1}
    36dc:	53412055 	movtpl	r2, #4181	; 0x1055
    36e0:	322e3220 	eorcc	r3, lr, #2
    36e4:	80010032 	andhi	r0, r1, r2, lsr r0
    36e8:	0000162f 	andeq	r1, r0, pc, lsr #12
    36ec:	10ad0002 	adcne	r0, sp, r2
    36f0:	01040000 	mrseq	r0, (UNDEF: 4)
    36f4:	000001fd 	strdeq	r0, [r0], -sp
    36f8:	001b6501 	andseq	r6, fp, r1, lsl #10
    36fc:	00014000 	andeq	r4, r1, r0
    3700:	001bc000 	andseq	ip, fp, r0
    3704:	00202cf0 	strdeq	r2, [r0], -r0	; <UNPREDICTABLE>
    3708:	001004f0 			; <UNDEFINED> instruction: 0x001004f0
    370c:	06010200 	streq	r0, [r1], -r0, lsl #4
    3710:	00000268 	andeq	r0, r0, r8, ror #4
    3714:	66080102 	strvs	r0, [r8], -r2, lsl #2
    3718:	02000002 	andeq	r0, r0, #2
    371c:	00b80502 	adcseq	r0, r8, r2, lsl #10
    3720:	02020000 	andeq	r0, r2, #0
    3724:	0003ea07 	andeq	lr, r3, r7, lsl #20
    3728:	0b430300 	bleq	10c4330 <__standby_start+0x10c4330>
    372c:	12020000 	andne	r0, r2, #0
    3730:	0000004c 	andeq	r0, r0, ip, asr #32
    3734:	69050404 	stmdbvs	r5, {r2, sl}
    3738:	0300746e 	movweq	r7, #1134	; 0x46e
    373c:	0000038e 	andeq	r0, r0, lr, lsl #7
    3740:	005e1302 	subseq	r1, lr, r2, lsl #6
    3744:	04020000 	streq	r0, [r2], #-0
    3748:	0002f807 	andeq	pc, r2, r7, lsl #16
    374c:	05080200 	streq	r0, [r8, #-512]	; 0x200
    3750:	000001dc 	ldrdeq	r0, [r0], -ip
    3754:	ee070802 	cdp	8, 0, cr0, cr7, cr2, {0}
    3758:	05000002 	streq	r0, [r0, #-2]
    375c:	591a0304 	ldmdbpl	sl, {r2, r8, r9}
    3760:	06000001 	streq	r0, [r0], -r1
    3764:	00000774 	andeq	r0, r0, r4, ror r7
    3768:	00531c03 	subseq	r1, r3, r3, lsl #24
    376c:	02040000 	andeq	r0, r4, #0
    3770:	0023021e 	eoreq	r0, r3, lr, lsl r2
    3774:	000bdb06 	andeq	sp, fp, r6, lsl #22
    3778:	531d0300 	tstpl	sp, #0
    377c:	04000000 	streq	r0, [r0], #-0
    3780:	23021c02 	movwcs	r1, #11266	; 0x2c02
    3784:	076c0600 	strbeq	r0, [ip, -r0, lsl #12]!
    3788:	1e030000 	cdpne	0, 0, cr0, cr3, cr0, {0}
    378c:	00000053 	andeq	r0, r0, r3, asr r0
    3790:	021a0204 	andseq	r0, sl, #1073741824	; 0x40000000
    3794:	e5060023 	str	r0, [r6, #-35]	; 0x23
    3798:	0300000b 	movweq	r0, #11
    379c:	0000531f 	andeq	r5, r0, pc, lsl r3
    37a0:	18020400 	stmdane	r2, {sl}
    37a4:	06002302 	streq	r2, [r0], -r2, lsl #6
    37a8:	0000077c 	andeq	r0, r0, ip, ror r7
    37ac:	00532003 	subseq	r2, r3, r3
    37b0:	05040000 	streq	r0, [r4, #-0]
    37b4:	00230213 	eoreq	r0, r3, r3, lsl r2
    37b8:	000bef06 	andeq	lr, fp, r6, lsl #30
    37bc:	53210300 	teqpl	r1, #0
    37c0:	04000000 	streq	r0, [r0], #-0
    37c4:	23021003 	movwcs	r1, #8195	; 0x2003
    37c8:	078c0600 	streq	r0, [ip, r0, lsl #12]
    37cc:	22030000 	andcs	r0, r3, #0
    37d0:	00000053 	andeq	r0, r0, r3, asr r0
    37d4:	020e0204 	andeq	r0, lr, #1073741824	; 0x40000000
    37d8:	f9060023 			; <UNDEFINED> instruction: 0xf9060023
    37dc:	0300000b 	movweq	r0, #11
    37e0:	00005323 	andeq	r5, r0, r3, lsr #6
    37e4:	08060400 	stmdaeq	r6, {sl}
    37e8:	06002302 	streq	r2, [r0], -r2, lsl #6
    37ec:	00000973 	andeq	r0, r0, r3, ror r9
    37f0:	00532403 	subseq	r2, r3, r3, lsl #8
    37f4:	01040000 	mrseq	r0, (UNDEF: 4)
    37f8:	00230207 	eoreq	r0, r3, r7, lsl #4
    37fc:	000c0306 	andeq	r0, ip, r6, lsl #6
    3800:	53250300 	teqpl	r5, #0
    3804:	04000000 	streq	r0, [r0], #-0
    3808:	23020403 	movwcs	r0, #9219	; 0x2403
    380c:	0ae10600 	beq	ff845014 <__bss_end+0xf8419f8>
    3810:	26030000 	strcs	r0, [r3], -r0
    3814:	00000053 	andeq	r0, r0, r3, asr r0
    3818:	02030104 	andeq	r0, r3, #1
    381c:	0d060023 	stceq	0, cr0, [r6, #-140]	; 0xffffff74
    3820:	0300000c 	movweq	r0, #12
    3824:	00005327 	andeq	r5, r0, r7, lsr #6
    3828:	01020400 	tsteq	r2, r0, lsl #8
    382c:	06002302 	streq	r2, [r0], -r2, lsl #6
    3830:	00000b82 	andeq	r0, r0, r2, lsl #23
    3834:	00532803 	subseq	r2, r3, r3, lsl #16
    3838:	01040000 	mrseq	r0, (UNDEF: 4)
    383c:	00230200 	eoreq	r0, r3, r0, lsl #4
    3840:	03040700 	movweq	r0, #18176	; 0x4700
    3844:	00017818 	andeq	r7, r1, r8, lsl r8
    3848:	05f30800 	ldrbeq	r0, [r3, #2048]!	; 0x800
    384c:	19030000 	stmdbne	r3, {}	; <UNPREDICTABLE>
    3850:	00000053 	andeq	r0, r0, r3, asr r0
    3854:	000fdc08 	andeq	sp, pc, r8, lsl #24
    3858:	732a0300 	teqvc	sl, #0
    385c:	00000000 	andeq	r0, r0, r0
    3860:	000b8803 	andeq	r8, fp, r3, lsl #16
    3864:	592b0300 	stmdbpl	fp!, {r8, r9}
    3868:	09000001 	stmdbeq	r0, {r0}
    386c:	00000ba9 	andeq	r0, r0, r9, lsr #23
    3870:	4b2e0304 	blmi	b84488 <__standby_start+0xb84488>
    3874:	06000002 	streq	r0, [r0], -r2
    3878:	00000774 	andeq	r0, r0, r4, ror r7
    387c:	00533003 	subseq	r3, r3, r3
    3880:	05040000 	streq	r0, [r4, #-0]
    3884:	0023021b 	eoreq	r0, r3, fp, lsl r2
    3888:	000bdb06 	andeq	sp, fp, r6, lsl #22
    388c:	53310300 	teqpl	r1, #0
    3890:	04000000 	streq	r0, [r0], #-0
    3894:	23021803 	movwcs	r1, #10243	; 0x2803
    3898:	077c0600 	ldrbeq	r0, [ip, -r0, lsl #12]!
    389c:	32030000 	andcc	r0, r3, #0
    38a0:	00000053 	andeq	r0, r0, r3, asr r0
    38a4:	02110704 	andseq	r0, r1, #1048576	; 0x100000
    38a8:	e5060023 	str	r0, [r6, #-35]	; 0x23
    38ac:	0300000b 	movweq	r0, #11
    38b0:	00005333 	andeq	r5, r0, r3, lsr r3
    38b4:	10010400 	andne	r0, r1, r0, lsl #8
    38b8:	06002302 	streq	r2, [r0], -r2, lsl #6
    38bc:	0000078c 	andeq	r0, r0, ip, lsl #15
    38c0:	00533403 	subseq	r3, r3, r3, lsl #8
    38c4:	04040000 	streq	r0, [r4], #-0
    38c8:	0023020c 	eoreq	r0, r3, ip, lsl #4
    38cc:	000bef06 	andeq	lr, fp, r6, lsl #30
    38d0:	53350300 	teqpl	r5, #0
    38d4:	04000000 	streq	r0, [r0], #-0
    38d8:	23020804 	movwcs	r0, #10244	; 0x2804
    38dc:	0ab60600 	beq	fed850e4 <__bss_end+0xed81ac8>
    38e0:	36030000 	strcc	r0, [r3], -r0
    38e4:	00000053 	andeq	r0, r0, r3, asr r0
    38e8:	02070104 	andeq	r0, r7, #1
    38ec:	f9060023 			; <UNDEFINED> instruction: 0xf9060023
    38f0:	0300000b 	movweq	r0, #11
    38f4:	00005337 	andeq	r5, r0, r7, lsr r3
    38f8:	04030400 	streq	r0, [r3], #-1024	; 0x400
    38fc:	06002302 	streq	r2, [r0], -r2, lsl #6
    3900:	00000ae1 	andeq	r0, r0, r1, ror #21
    3904:	00533803 	subseq	r3, r3, r3, lsl #16
    3908:	01040000 	mrseq	r0, (UNDEF: 4)
    390c:	00230203 	eoreq	r0, r3, r3, lsl #4
    3910:	000c0306 	andeq	r0, ip, r6, lsl #6
    3914:	53390300 	teqpl	r9, #0
    3918:	04000000 	streq	r0, [r0], #-0
    391c:	23020102 	movwcs	r0, #8450	; 0x2102
    3920:	0b820600 	bleq	fe085128 <__bss_end+0xe081b0c>
    3924:	3a030000 	bcc	c392c <__standby_start+0xc392c>
    3928:	00000053 	andeq	r0, r0, r3, asr r0
    392c:	02000104 	andeq	r0, r0, #1
    3930:	03000023 	movweq	r0, #35	; 0x23
    3934:	00000aff 	strdeq	r0, [r0], -pc	; <UNPREDICTABLE>
    3938:	01833b03 	orreq	r3, r3, r3, lsl #22
    393c:	68090000 	stmdavs	r9, {}	; <UNPREDICTABLE>
    3940:	0400000b 	streq	r0, [r0], #-11
    3944:	03405003 	movteq	r5, #3
    3948:	74060000 	strvc	r0, [r6], #-0
    394c:	03000007 	movweq	r0, #7
    3950:	00005352 	andeq	r5, r0, r2, asr r3
    3954:	1e020400 	cfcpysne	mvf0, mvf2
    3958:	06002302 	streq	r2, [r0], -r2, lsl #6
    395c:	00000bdb 	ldrdeq	r0, [r0], -fp
    3960:	00535303 	subseq	r5, r3, r3, lsl #6
    3964:	02040000 	andeq	r0, r4, #0
    3968:	0023021c 	eoreq	r0, r3, ip, lsl r2
    396c:	00076c06 	andeq	r6, r7, r6, lsl #24
    3970:	53540300 	cmppl	r4, #0
    3974:	04000000 	streq	r0, [r0], #-0
    3978:	23021a02 	movwcs	r1, #10754	; 0x2a02
    397c:	0be50600 	bleq	ff945184 <__bss_end+0xf941b68>
    3980:	55030000 	strpl	r0, [r3, #-0]
    3984:	00000053 	andeq	r0, r0, r3, asr r0
    3988:	02180204 	andseq	r0, r8, #1073741824	; 0x40000000
    398c:	7c060023 	stcvc	0, cr0, [r6], {35}	; 0x23
    3990:	03000007 	movweq	r0, #7
    3994:	00005356 	andeq	r5, r0, r6, asr r3
    3998:	13050400 	movwne	r0, #21504	; 0x5400
    399c:	06002302 	streq	r2, [r0], -r2, lsl #6
    39a0:	00000bef 	andeq	r0, r0, pc, ror #23
    39a4:	00535703 	subseq	r5, r3, r3, lsl #14
    39a8:	07040000 	streq	r0, [r4, -r0]
    39ac:	0023020c 	eoreq	r0, r3, ip, lsl #4
    39b0:	00070f06 	andeq	r0, r7, r6, lsl #30
    39b4:	53580300 	cmppl	r8, #0
    39b8:	04000000 	streq	r0, [r0], #-0
    39bc:	23020b01 	movwcs	r0, #11009	; 0x2b01
    39c0:	0bf90600 	bleq	ffe451c8 <__bss_end+0xfe41bac>
    39c4:	59030000 	stmdbpl	r3, {}	; <UNPREDICTABLE>
    39c8:	00000053 	andeq	r0, r0, r3, asr r0
    39cc:	02080304 	andeq	r0, r8, #268435456	; 0x10000000
    39d0:	7b060023 	blvc	183a64 <__standby_start+0x183a64>
    39d4:	03000009 	movweq	r0, #9
    39d8:	0000535a 	andeq	r5, r0, sl, asr r3
    39dc:	07010400 	streq	r0, [r1, -r0, lsl #8]
    39e0:	06002302 	streq	r2, [r0], -r2, lsl #6
    39e4:	00000c03 	andeq	r0, r0, r3, lsl #24
    39e8:	00535b03 	subseq	r5, r3, r3, lsl #22
    39ec:	03040000 	movweq	r0, #16384	; 0x4000
    39f0:	00230204 	eoreq	r0, r3, r4, lsl #4
    39f4:	000ae106 	andeq	lr, sl, r6, lsl #2
    39f8:	535c0300 	cmppl	ip, #0
    39fc:	04000000 	streq	r0, [r0], #-0
    3a00:	23020301 	movwcs	r0, #8961	; 0x2301
    3a04:	0c0d0600 	stceq	6, cr0, [sp], {-0}
    3a08:	5d030000 	stcpl	0, cr0, [r3, #-0]
    3a0c:	00000053 	andeq	r0, r0, r3, asr r0
    3a10:	02010204 	andeq	r0, r1, #1073741824	; 0x40000000
    3a14:	82060023 	andhi	r0, r6, #35	; 0x23
    3a18:	0300000b 	movweq	r0, #11
    3a1c:	0000535e 	andeq	r5, r0, lr, asr r3
    3a20:	00010400 	andeq	r0, r1, r0, lsl #8
    3a24:	00002302 	andeq	r2, r0, r2, lsl #6
    3a28:	00073603 	andeq	r3, r7, r3, lsl #12
    3a2c:	565f0300 	ldrbpl	r0, [pc], -r0, lsl #6
    3a30:	09000002 	stmdbeq	r0, {r1}
    3a34:	00000e23 	andeq	r0, r0, r3, lsr #28
    3a38:	57620304 	strbpl	r0, [r2, -r4, lsl #6]!
    3a3c:	06000004 	streq	r0, [r0], -r4
    3a40:	00000774 	andeq	r0, r0, r4, ror r7
    3a44:	00536403 	subseq	r6, r3, r3, lsl #8
    3a48:	02040000 	andeq	r0, r4, #0
    3a4c:	0023021e 	eoreq	r0, r3, lr, lsl r2
    3a50:	000bdb06 	andeq	sp, fp, r6, lsl #22
    3a54:	53650300 	cmnpl	r5, #0
    3a58:	04000000 	streq	r0, [r0], #-0
    3a5c:	23021c02 	movwcs	r1, #11266	; 0x2c02
    3a60:	076c0600 	strbeq	r0, [ip, -r0, lsl #12]!
    3a64:	66030000 	strvs	r0, [r3], -r0
    3a68:	00000053 	andeq	r0, r0, r3, asr r0
    3a6c:	021a0204 	andseq	r0, sl, #1073741824	; 0x40000000
    3a70:	e5060023 	str	r0, [r6, #-35]	; 0x23
    3a74:	0300000b 	movweq	r0, #11
    3a78:	00005367 	andeq	r5, r0, r7, ror #6
    3a7c:	18020400 	stmdane	r2, {sl}
    3a80:	06002302 	streq	r2, [r0], -r2, lsl #6
    3a84:	0000077c 	andeq	r0, r0, ip, ror r7
    3a88:	00536803 	subseq	r6, r3, r3, lsl #16
    3a8c:	05040000 	streq	r0, [r4, #-0]
    3a90:	00230213 	eoreq	r0, r3, r3, lsl r2
    3a94:	000bef06 	andeq	lr, fp, r6, lsl #30
    3a98:	53690300 	cmnpl	r9, #0
    3a9c:	04000000 	streq	r0, [r0], #-0
    3aa0:	23021003 	movwcs	r1, #8195	; 0x2003
    3aa4:	0cf70600 	ldcleq	6, cr0, [r7]
    3aa8:	6a030000 	bvs	c3ab0 <__standby_start+0xc3ab0>
    3aac:	00000053 	andeq	r0, r0, r3, asr r0
    3ab0:	020e0204 	andeq	r0, lr, #1073741824	; 0x40000000
    3ab4:	7f060023 	svcvc	0x00060023
    3ab8:	03000005 	movweq	r0, #5
    3abc:	0000536b 	andeq	r5, r0, fp, ror #6
    3ac0:	0d010400 	cfstrseq	mvf0, [r1, #-0]
    3ac4:	06002302 	streq	r2, [r0], -r2, lsl #6
    3ac8:	00000bf9 	strdeq	r0, [r0], -r9
    3acc:	00536c03 	subseq	r6, r3, r3, lsl #24
    3ad0:	05040000 	streq	r0, [r4, #-0]
    3ad4:	00230208 	eoreq	r0, r3, r8, lsl #4
    3ad8:	000a5c06 	andeq	r5, sl, r6, lsl #24
    3adc:	536d0300 	cmnpl	sp, #0
    3ae0:	04000000 	streq	r0, [r0], #-0
    3ae4:	23020701 	movwcs	r0, #9985	; 0x2701
    3ae8:	0a160600 	beq	5852f0 <__standby_start+0x5852f0>
    3aec:	6e030000 	cdpvs	0, 0, cr0, cr3, cr0, {0}
    3af0:	00000053 	andeq	r0, r0, r3, asr r0
    3af4:	02060104 	andeq	r0, r6, #1
    3af8:	03060023 	movweq	r0, #24611	; 0x6023
    3afc:	0300000c 	movweq	r0, #12
    3b00:	0000536f 	andeq	r5, r0, pc, ror #6
    3b04:	04020400 	streq	r0, [r2], #-1024	; 0x400
    3b08:	06002302 	streq	r2, [r0], -r2, lsl #6
    3b0c:	00000ae1 	andeq	r0, r0, r1, ror #21
    3b10:	00537003 	subseq	r7, r3, r3
    3b14:	01040000 	mrseq	r0, (UNDEF: 4)
    3b18:	00230203 	eoreq	r0, r3, r3, lsl #4
    3b1c:	000c0d06 	andeq	r0, ip, r6, lsl #26
    3b20:	53710300 	cmnpl	r1, #0
    3b24:	04000000 	streq	r0, [r0], #-0
    3b28:	23020102 	movwcs	r0, #8450	; 0x2102
    3b2c:	0b820600 	bleq	fe085334 <__bss_end+0xe081d18>
    3b30:	72030000 	andvc	r0, r3, #0
    3b34:	00000053 	andeq	r0, r0, r3, asr r0
    3b38:	02000104 	andeq	r0, r0, #1
    3b3c:	03000023 	movweq	r0, #35	; 0x23
    3b40:	0000066d 	andeq	r0, r0, sp, ror #12
    3b44:	034b7303 	movteq	r7, #45827	; 0xb303
    3b48:	3f090000 	svccc	0x00090000
    3b4c:	04000008 	streq	r0, [r0], #-8
    3b50:	053b7503 	ldreq	r7, [fp, #-1283]!	; 0x503
    3b54:	74060000 	strvc	r0, [r6], #-0
    3b58:	03000007 	movweq	r0, #7
    3b5c:	00005377 	andeq	r5, r0, r7, ror r3
    3b60:	1c040400 	cfstrsne	mvf0, [r4], {-0}
    3b64:	06002302 	streq	r2, [r0], -r2, lsl #6
    3b68:	00000bdb 	ldrdeq	r0, [r0], -fp
    3b6c:	00537803 	subseq	r7, r3, r3, lsl #16
    3b70:	04040000 	streq	r0, [r4], #-0
    3b74:	00230218 	eoreq	r0, r3, r8, lsl r2
    3b78:	00077c06 	andeq	r7, r7, r6, lsl #24
    3b7c:	53790300 	cmnpl	r9, #0
    3b80:	04000000 	streq	r0, [r0], #-0
    3b84:	23021107 	movwcs	r1, #8455	; 0x2107
    3b88:	0be50600 	bleq	ff945390 <__bss_end+0xf941d74>
    3b8c:	7a030000 	bvc	c3b94 <__standby_start+0xc3b94>
    3b90:	00000053 	andeq	r0, r0, r3, asr r0
    3b94:	020c0504 	andeq	r0, ip, #16777216	; 0x1000000
    3b98:	b6060023 	strlt	r0, [r6], -r3, lsr #32
    3b9c:	0300000a 	movweq	r0, #10
    3ba0:	0000537b 	andeq	r5, r0, fp, ror r3
    3ba4:	0b010400 	bleq	44bac <__standby_start+0x44bac>
    3ba8:	06002302 	streq	r2, [r0], -r2, lsl #6
    3bac:	00000bef 	andeq	r0, r0, pc, ror #23
    3bb0:	00537c03 	subseq	r7, r3, r3, lsl #24
    3bb4:	03040000 	movweq	r0, #16384	; 0x4000
    3bb8:	00230208 	eoreq	r0, r3, r8, lsl #4
    3bbc:	000b3b06 	andeq	r3, fp, r6, lsl #22
    3bc0:	537d0300 	cmnpl	sp, #0
    3bc4:	04000000 	streq	r0, [r0], #-0
    3bc8:	23020701 	movwcs	r0, #9985	; 0x2701
    3bcc:	0c470600 	mcrreq	6, 0, r0, r7, cr0
    3bd0:	7e030000 	cdpvc	0, 0, cr0, cr3, cr0, {0}
    3bd4:	00000053 	andeq	r0, r0, r3, asr r0
    3bd8:	02060104 	andeq	r0, r6, #1
    3bdc:	f9060023 			; <UNDEFINED> instruction: 0xf9060023
    3be0:	0300000b 	movweq	r0, #11
    3be4:	0000537f 	andeq	r5, r0, pc, ror r3
    3be8:	04020400 	streq	r0, [r2], #-1024	; 0x400
    3bec:	06002302 	streq	r2, [r0], -r2, lsl #6
    3bf0:	00000ae1 	andeq	r0, r0, r1, ror #21
    3bf4:	00538003 	subseq	r8, r3, r3
    3bf8:	01040000 	mrseq	r0, (UNDEF: 4)
    3bfc:	00230203 	eoreq	r0, r3, r3, lsl #4
    3c00:	000c0306 	andeq	r0, ip, r6, lsl #6
    3c04:	53810300 	orrpl	r0, r1, #0
    3c08:	04000000 	streq	r0, [r0], #-0
    3c0c:	23020102 	movwcs	r0, #8450	; 0x2102
    3c10:	0b820600 	bleq	fe085418 <__bss_end+0xe081dfc>
    3c14:	82030000 	andhi	r0, r3, #0
    3c18:	00000053 	andeq	r0, r0, r3, asr r0
    3c1c:	02000104 	andeq	r0, r0, #1
    3c20:	03000023 	movweq	r0, #35	; 0x23
    3c24:	000008cd 	andeq	r0, r0, sp, asr #17
    3c28:	04628303 	strbteq	r8, [r2], #-771	; 0x303
    3c2c:	c5090000 	strgt	r0, [r9, #-0]
    3c30:	0400000a 	streq	r0, [r0], #-10
    3c34:	06968603 	ldreq	r8, [r6], r3, lsl #12
    3c38:	74060000 	strvc	r0, [r6], #-0
    3c3c:	03000007 	movweq	r0, #7
    3c40:	00005388 	andeq	r5, r0, r8, lsl #7
    3c44:	1c040400 	cfstrsne	mvf0, [r4], {-0}
    3c48:	06002302 	streq	r2, [r0], -r2, lsl #6
    3c4c:	0000076c 	andeq	r0, r0, ip, ror #14
    3c50:	00538903 	subseq	r8, r3, r3, lsl #18
    3c54:	02040000 	andeq	r0, r4, #0
    3c58:	0023021a 	eoreq	r0, r3, sl, lsl r2
    3c5c:	000bdb06 	andeq	sp, fp, r6, lsl #22
    3c60:	538a0300 	orrpl	r0, sl, #0
    3c64:	04000000 	streq	r0, [r0], #-0
    3c68:	23021802 	movwcs	r1, #10242	; 0x2802
    3c6c:	077c0600 	ldrbeq	r0, [ip, -r0, lsl #12]!
    3c70:	8b030000 	blhi	c3c78 <__standby_start+0xc3c78>
    3c74:	00000053 	andeq	r0, r0, r3, asr r0
    3c78:	02140404 	andseq	r0, r4, #67108864	; 0x4000000
    3c7c:	e5060023 	str	r0, [r6, #-35]	; 0x23
    3c80:	0300000b 	movweq	r0, #11
    3c84:	0000538c 	andeq	r5, r0, ip, lsl #7
    3c88:	10040400 	andne	r0, r4, r0, lsl #8
    3c8c:	06002302 	streq	r2, [r0], -r2, lsl #6
    3c90:	0000075a 	andeq	r0, r0, sl, asr r7
    3c94:	00538d03 	subseq	r8, r3, r3, lsl #26
    3c98:	01040000 	mrseq	r0, (UNDEF: 4)
    3c9c:	0023020f 	eoreq	r0, r3, pc, lsl #4
    3ca0:	000b4906 	andeq	r4, fp, r6, lsl #18
    3ca4:	538f0300 	orrpl	r0, pc, #0
    3ca8:	04000000 	streq	r0, [r0], #-0
    3cac:	23020e01 	movwcs	r0, #11777	; 0x2e01
    3cb0:	0bef0600 	bleq	ffbc54b8 <__bss_end+0xfbc1e9c>
    3cb4:	90030000 	andls	r0, r3, r0
    3cb8:	00000053 	andeq	r0, r0, r3, asr r0
    3cbc:	020c0204 	andeq	r0, ip, #1073741824	; 0x40000000
    3cc0:	b6060023 	strlt	r0, [r6], -r3, lsr #32
    3cc4:	0300000a 	movweq	r0, #10
    3cc8:	00005391 	muleq	r0, r1, r3
    3ccc:	0b010400 	bleq	44cd4 <__standby_start+0x44cd4>
    3cd0:	06002302 	streq	r2, [r0], -r2, lsl #6
    3cd4:	00000635 	andeq	r0, r0, r5, lsr r6
    3cd8:	00539203 	subseq	r9, r3, r3, lsl #4
    3cdc:	01040000 	mrseq	r0, (UNDEF: 4)
    3ce0:	0023020a 	eoreq	r0, r3, sl, lsl #4
    3ce4:	0006a906 	andeq	sl, r6, r6, lsl #18
    3ce8:	53930300 	orrspl	r0, r3, #0
    3cec:	04000000 	streq	r0, [r0], #-0
    3cf0:	23020901 	movwcs	r0, #10497	; 0x2901
    3cf4:	0bd40600 	bleq	ff5054fc <__bss_end+0xf501ee0>
    3cf8:	94030000 	strls	r0, [r3], #-0
    3cfc:	00000053 	andeq	r0, r0, r3, asr r0
    3d00:	02080104 	andeq	r0, r8, #1
    3d04:	f9060023 			; <UNDEFINED> instruction: 0xf9060023
    3d08:	0300000b 	movweq	r0, #11
    3d0c:	00005395 	muleq	r0, r5, r3
    3d10:	07010400 	streq	r0, [r1, -r0, lsl #8]
    3d14:	06002302 	streq	r2, [r0], -r2, lsl #6
    3d18:	00000af3 	strdeq	r0, [r0], -r3
    3d1c:	00539603 	subseq	r9, r3, r3, lsl #12
    3d20:	01040000 	mrseq	r0, (UNDEF: 4)
    3d24:	00230206 	eoreq	r0, r3, r6, lsl #4
    3d28:	000b7c06 	andeq	r7, fp, r6, lsl #24
    3d2c:	53970300 	orrspl	r0, r7, #0
    3d30:	04000000 	streq	r0, [r0], #-0
    3d34:	23020501 	movwcs	r0, #9473	; 0x2501
    3d38:	0cb70600 	ldceq	6, cr0, [r7]
    3d3c:	98030000 	stmdals	r3, {}	; <UNPREDICTABLE>
    3d40:	00000053 	andeq	r0, r0, r3, asr r0
    3d44:	02040104 	andeq	r0, r4, #1
    3d48:	e1060023 	tst	r6, r3, lsr #32
    3d4c:	0300000a 	movweq	r0, #10
    3d50:	00005399 	muleq	r0, r9, r3
    3d54:	03010400 	movweq	r0, #5120	; 0x1400
    3d58:	06002302 	streq	r2, [r0], -r2, lsl #6
    3d5c:	00000c03 	andeq	r0, r0, r3, lsl #24
    3d60:	00539a03 	subseq	r9, r3, r3, lsl #20
    3d64:	02040000 	andeq	r0, r4, #0
    3d68:	00230201 	eoreq	r0, r3, r1, lsl #4
    3d6c:	000b8206 	andeq	r8, fp, r6, lsl #4
    3d70:	539b0300 	orrspl	r0, fp, #0
    3d74:	04000000 	streq	r0, [r0], #-0
    3d78:	23020001 	movwcs	r0, #8193	; 0x2001
    3d7c:	b5030000 	strlt	r0, [r3, #-0]
    3d80:	03000005 	movweq	r0, #5
    3d84:	0005469c 	muleq	r5, ip, r6
    3d88:	03040500 	movweq	r0, #17664	; 0x4500
    3d8c:	000710a4 	andeq	r1, r7, r4, lsr #1
    3d90:	0dc50600 	stcleq	6, cr0, [r5]
    3d94:	a6030000 	strge	r0, [r3], -r0
    3d98:	00000053 	andeq	r0, r0, r3, asr r0
    3d9c:	021e0204 	andseq	r0, lr, #1073741824	; 0x40000000
    3da0:	db060023 	blle	183e34 <__standby_start+0x183e34>
    3da4:	0300000b 	movweq	r0, #11
    3da8:	000053a7 	andeq	r5, r0, r7, lsr #7
    3dac:	18060400 	stmdane	r6, {sl}
    3db0:	06002302 	streq	r2, [r0], -r2, lsl #6
    3db4:	00000bbd 			; <UNDEFINED> instruction: 0x00000bbd
    3db8:	0053a803 	subseq	sl, r3, r3, lsl #16
    3dbc:	02040000 	andeq	r0, r4, #0
    3dc0:	00230216 	eoreq	r0, r3, r6, lsl r2
    3dc4:	000be506 	andeq	lr, fp, r6, lsl #10
    3dc8:	53a90300 			; <UNDEFINED> instruction: 0x53a90300
    3dcc:	04000000 	streq	r0, [r0], #-0
    3dd0:	23021006 	movwcs	r1, #8198	; 0x2006
    3dd4:	08630600 	stmdaeq	r3!, {r9, sl}^
    3dd8:	aa030000 	bge	c3de0 <__standby_start+0xc3de0>
    3ddc:	00000053 	andeq	r0, r0, r3, asr r0
    3de0:	020e0204 	andeq	r0, lr, #1073741824	; 0x40000000
    3de4:	ef060023 	svc	0x00060023
    3de8:	0300000b 	movweq	r0, #11
    3dec:	000053ab 	andeq	r5, r0, fp, lsr #7
    3df0:	000e0400 	andeq	r0, lr, r0, lsl #8
    3df4:	00002302 	andeq	r2, r0, r2, lsl #6
    3df8:	a2030407 	andge	r0, r3, #117440512	; 0x7000000
    3dfc:	0000072f 	andeq	r0, r0, pc, lsr #14
    3e00:	0005f308 	andeq	pc, r5, r8, lsl #6
    3e04:	53a30300 			; <UNDEFINED> instruction: 0x53a30300
    3e08:	08000000 	stmdaeq	r0, {}	; <UNPREDICTABLE>
    3e0c:	00000fdc 	ldrdeq	r0, [r0], -ip
    3e10:	06a1ac03 	strteq	sl, [r1], r3, lsl #24
    3e14:	03000000 	movweq	r0, #0
    3e18:	0000068b 	andeq	r0, r0, fp, lsl #13
    3e1c:	0710ad03 	ldreq	sl, [r0, -r3, lsl #26]
    3e20:	9b090000 	blls	243e28 <__standby_start+0x243e28>
    3e24:	04000005 	streq	r0, [r0], #-5
    3e28:	07beb403 	ldreq	fp, [lr, r3, lsl #8]!
    3e2c:	db060000 	blle	183e34 <__standby_start+0x183e34>
    3e30:	0300000b 	movweq	r0, #11
    3e34:	000053b6 			; <UNDEFINED> instruction: 0x000053b6
    3e38:	1c040400 	cfstrsne	mvf0, [r4], {-0}
    3e3c:	06002302 	streq	r2, [r0], -r2, lsl #6
    3e40:	00000a20 	andeq	r0, r0, r0, lsr #20
    3e44:	0053b703 	subseq	fp, r3, r3, lsl #14
    3e48:	02040000 	andeq	r0, r4, #0
    3e4c:	0023021a 	eoreq	r0, r3, sl, lsl r2
    3e50:	000d8806 	andeq	r8, sp, r6, lsl #16
    3e54:	53b80300 			; <UNDEFINED> instruction: 0x53b80300
    3e58:	04000000 	streq	r0, [r0], #-0
    3e5c:	23021802 	movwcs	r1, #10242	; 0x2802
    3e60:	0b330600 	bleq	cc5668 <__standby_start+0xcc5668>
    3e64:	b9030000 	stmdblt	r3, {}	; <UNPREDICTABLE>
    3e68:	00000053 	andeq	r0, r0, r3, asr r0
    3e6c:	02160204 	andseq	r0, r6, #1073741824	; 0x40000000
    3e70:	e5060023 	str	r0, [r6, #-35]	; 0x23
    3e74:	0300000b 	movweq	r0, #11
    3e78:	000053ba 			; <UNDEFINED> instruction: 0x000053ba
    3e7c:	14020400 	strne	r0, [r2], #-1024	; 0x400
    3e80:	06002302 	streq	r2, [r0], -r2, lsl #6
    3e84:	00000b1e 	andeq	r0, r0, lr, lsl fp
    3e88:	0053bb03 	subseq	fp, r3, r3, lsl #22
    3e8c:	02040000 	andeq	r0, r4, #0
    3e90:	00230212 	eoreq	r0, r3, r2, lsl r2
    3e94:	000bef06 	andeq	lr, fp, r6, lsl #30
    3e98:	53bc0300 			; <UNDEFINED> instruction: 0x53bc0300
    3e9c:	04000000 	streq	r0, [r0], #-0
    3ea0:	23020012 	movwcs	r0, #8210	; 0x2012
    3ea4:	0a030000 	beq	c3eac <__standby_start+0xc3eac>
    3ea8:	0300000d 	movweq	r0, #13
    3eac:	00073abd 			; <UNDEFINED> instruction: 0x00073abd
    3eb0:	0d310900 	ldceq	9, cr0, [r1, #-0]
    3eb4:	03040000 	movweq	r0, #16384	; 0x4000
    3eb8:	00083cc3 	andeq	r3, r8, r3, asr #25
    3ebc:	07ff0600 	ldrbeq	r0, [pc, r0, lsl #12]!
    3ec0:	c5030000 	strgt	r0, [r3, #-0]
    3ec4:	00000053 	andeq	r0, r0, r3, asr r0
    3ec8:	021b0504 	andseq	r0, fp, #16777216	; 0x1000000
    3ecc:	bc060023 	stclt	0, cr0, [r6], {35}	; 0x23
    3ed0:	0300000d 	movweq	r0, #13
    3ed4:	000053c6 	andeq	r5, r0, r6, asr #7
    3ed8:	100b0400 	andne	r0, fp, r0, lsl #8
    3edc:	06002302 	streq	r2, [r0], -r2, lsl #6
    3ee0:	00000804 	andeq	r0, r0, r4, lsl #16
    3ee4:	0053c703 	subseq	ip, r3, r3, lsl #14
    3ee8:	02040000 	andeq	r0, r4, #0
    3eec:	0023020e 	eoreq	r0, r3, lr, lsl #4
    3ef0:	000be506 	andeq	lr, fp, r6, lsl #10
    3ef4:	53c80300 	bicpl	r0, r8, #0
    3ef8:	04000000 	streq	r0, [r0], #-0
    3efc:	23020806 	movwcs	r0, #10246	; 0x2806
    3f00:	0b220600 	bleq	885708 <__standby_start+0x885708>
    3f04:	c9030000 	stmdbgt	r3, {}	; <UNPREDICTABLE>
    3f08:	00000053 	andeq	r0, r0, r3, asr r0
    3f0c:	02060204 	andeq	r0, r6, #1073741824	; 0x40000000
    3f10:	ef060023 	svc	0x00060023
    3f14:	0300000b 	movweq	r0, #11
    3f18:	000053ca 	andeq	r5, r0, sl, asr #7
    3f1c:	00060400 	andeq	r0, r6, r0, lsl #8
    3f20:	00002302 	andeq	r2, r0, r2, lsl #6
    3f24:	000a6803 	andeq	r6, sl, r3, lsl #16
    3f28:	c9cb0300 	stmibgt	fp, {r8, r9}^
    3f2c:	09000007 	stmdbeq	r0, {r0, r1, r2}
    3f30:	0000090c 	andeq	r0, r0, ip, lsl #18
    3f34:	76cd0304 	strbvc	r0, [sp], r4, lsl #6
    3f38:	06000008 	streq	r0, [r0], -r8
    3f3c:	00000d7f 	andeq	r0, r0, pc, ror sp
    3f40:	0053cf03 	subseq	ip, r3, r3, lsl #30
    3f44:	10040000 	andne	r0, r4, r0
    3f48:	00230210 	eoreq	r0, r3, r0, lsl r2
    3f4c:	000dbc06 	andeq	fp, sp, r6, lsl #24
    3f50:	53d00300 	bicspl	r0, r0, #0
    3f54:	04000000 	streq	r0, [r0], #-0
    3f58:	23020010 	movwcs	r0, #8208	; 0x2010
    3f5c:	84030000 	strhi	r0, [r3], #-0
    3f60:	0300000c 	movweq	r0, #12
    3f64:	000847d1 	ldrdeq	r4, [r8], -r1
    3f68:	0e0d0a00 	vmlaeq.f32	s0, s26, s0
    3f6c:	02dc0000 	sbcseq	r0, ip, #0
    3f70:	1065d303 	rsbne	sp, r5, r3, lsl #6
    3f74:	af0b0000 	svcge	0x000b0000
    3f78:	03000008 	movweq	r0, #8
    3f7c:	001065d5 			; <UNDEFINED> instruction: 0x001065d5
    3f80:	00230200 	eoreq	r0, r3, r0, lsl #4
    3f84:	000bdb0b 	andeq	sp, fp, fp, lsl #22
    3f88:	6ad60300 	bvs	ff584b90 <__bss_end+0xf581574>
    3f8c:	02000010 	andeq	r0, r0, #16
    3f90:	050b0423 	streq	r0, [fp, #-1059]	; 0x423
    3f94:	0300000e 	movweq	r0, #14
    3f98:	00106fd7 			; <UNDEFINED> instruction: 0x00106fd7
    3f9c:	08230200 	stmdaeq	r3!, {r9}
    3fa0:	000be50b 	andeq	lr, fp, fp, lsl #10
    3fa4:	6ad80300 	bvs	ff604bac <__bss_end+0xf601590>
    3fa8:	02000010 	andeq	r0, r0, #16
    3fac:	4a0b0c23 	bmi	2c7040 <__standby_start+0x2c7040>
    3fb0:	0300000a 	movweq	r0, #10
    3fb4:	00106ad9 			; <UNDEFINED> instruction: 0x00106ad9
    3fb8:	10230200 	eorne	r0, r3, r0, lsl #4
    3fbc:	000bef0b 	andeq	lr, fp, fp, lsl #30
    3fc0:	6ada0300 	bvs	ff684bc8 <__bss_end+0xf6815ac>
    3fc4:	02000010 	andeq	r0, r0, #16
    3fc8:	4f0b1423 	svcmi	0x000b1423
    3fcc:	03000006 	movweq	r0, #6
    3fd0:	00106adb 			; <UNDEFINED> instruction: 0x00106adb
    3fd4:	18230200 	stmdane	r3!, {r9}
    3fd8:	000bf90b 	andeq	pc, fp, fp, lsl #18
    3fdc:	6adc0300 	bvs	ff704be4 <__bss_end+0xf7015c8>
    3fe0:	02000010 	andeq	r0, r0, #16
    3fe4:	600b1c23 	andvs	r1, fp, r3, lsr #24
    3fe8:	0300000b 	movweq	r0, #11
    3fec:	001074dd 			; <UNDEFINED> instruction: 0x001074dd
    3ff0:	20230200 	eorcs	r0, r3, r0, lsl #4
    3ff4:	000c030b 	andeq	r0, ip, fp, lsl #6
    3ff8:	6ade0300 	bvs	ff784c00 <__bss_end+0xf7815e4>
    3ffc:	02000010 	andeq	r0, r0, #16
    4000:	090b2423 	stmdbeq	fp, {r0, r1, r5, sl, sp}
    4004:	03000006 	movweq	r0, #6
    4008:	001079df 			; <UNDEFINED> instruction: 0x001079df
    400c:	28230200 	stmdacs	r3!, {r9}
    4010:	000c0d0b 	andeq	r0, ip, fp, lsl #26
    4014:	6ae00300 	bvs	ff804c1c <__bss_end+0xf801600>
    4018:	02000010 	andeq	r0, r0, #16
    401c:	550b2c23 	strpl	r2, [fp, #-3107]	; 0xc23
    4020:	0300000b 	movweq	r0, #11
    4024:	00106ae1 	andseq	r6, r0, r1, ror #21
    4028:	30230200 	eorcc	r0, r3, r0, lsl #4
    402c:	000c170b 	andeq	r1, ip, fp, lsl #14
    4030:	6ae20300 	bvs	ff884c38 <__bss_end+0xf88161c>
    4034:	02000010 	andeq	r0, r0, #16
    4038:	f90b3423 			; <UNDEFINED> instruction: 0xf90b3423
    403c:	03000008 	movweq	r0, #8
    4040:	00107ee3 	andseq	r7, r0, r3, ror #29
    4044:	38230200 	stmdacc	r3!, {r9}
    4048:	000c210b 	andeq	r2, ip, fp, lsl #2
    404c:	6ae40300 	bvs	ff904c54 <__bss_end+0xf901638>
    4050:	02000010 	andeq	r0, r0, #16
    4054:	610b3c23 	tstvs	fp, r3, lsr #24
    4058:	03000007 	movweq	r0, #7
    405c:	001083e5 	andseq	r8, r0, r5, ror #7
    4060:	40230200 	eormi	r0, r3, r0, lsl #4
    4064:	000e370b 	andeq	r3, lr, fp, lsl #14
    4068:	6ae60300 	bvs	ff984c70 <__bss_end+0xf981654>
    406c:	02000010 	andeq	r0, r0, #16
    4070:	460b4423 	strmi	r4, [fp], -r3, lsr #8
    4074:	03000006 	movweq	r0, #6
    4078:	00106ae7 	andseq	r6, r0, r7, ror #21
    407c:	48230200 	stmdami	r3!, {r9}
    4080:	000b9e0b 	andeq	r9, fp, fp, lsl #28
    4084:	6ae80300 	bvs	ffa04c8c <__bss_end+0xfa01670>
    4088:	02000010 	andeq	r0, r0, #16
    408c:	520b4c23 	andpl	r4, fp, #8960	; 0x2300
    4090:	0300000a 	movweq	r0, #10
    4094:	001088e9 	andseq	r8, r0, r9, ror #17
    4098:	50230200 	eorpl	r0, r3, r0, lsl #4
    409c:	000a200b 	andeq	r2, sl, fp
    40a0:	8dea0300 	stclhi	3, cr0, [sl]
    40a4:	02000010 	andeq	r0, r0, #16
    40a8:	840b5423 	strhi	r5, [fp], #-1059	; 0x423
    40ac:	03000007 	movweq	r0, #7
    40b0:	001092eb 	andseq	r9, r0, fp, ror #5
    40b4:	58230200 	stmdapl	r3!, {r9}
    40b8:	000d260b 	andeq	r2, sp, fp, lsl #12
    40bc:	6aec0300 	bvs	ffb04cc4 <__bss_end+0xfb016a8>
    40c0:	02000010 	andeq	r0, r0, #16
    40c4:	790b5c23 	stmdbvc	fp, {r0, r1, r5, sl, fp, ip, lr}
    40c8:	03000008 	movweq	r0, #8
    40cc:	00106aed 	andseq	r6, r0, sp, ror #21
    40d0:	60230200 	eorvs	r0, r3, r0, lsl #4
    40d4:	0008820b 	andeq	r8, r8, fp, lsl #4
    40d8:	6aee0300 	bvs	ffb84ce0 <__bss_end+0xfb816c4>
    40dc:	02000010 	andeq	r0, r0, #16
    40e0:	cf0b6423 	svcgt	0x000b6423
    40e4:	0300000d 	movweq	r0, #13
    40e8:	00106aef 	andseq	r6, r0, pc, ror #21
    40ec:	68230200 	stmdavs	r3!, {r9}
    40f0:	000abc0b 	andeq	fp, sl, fp, lsl #24
    40f4:	6af00300 	bvs	ffc04cfc <__bss_end+0xfc016e0>
    40f8:	02000010 	andeq	r0, r0, #16
    40fc:	2b0b6c23 	blcs	2df190 <__standby_start+0x2df190>
    4100:	0300000c 	movweq	r0, #12
    4104:	0010a7f1 			; <UNDEFINED> instruction: 0x0010a7f1
    4108:	70230200 	eorvc	r0, r3, r0, lsl #4
    410c:	000e1d0b 	andeq	r1, lr, fp, lsl #26
    4110:	6af20300 	bvs	ffc84d18 <__bss_end+0xfc816fc>
    4114:	03000010 	movweq	r0, #16
    4118:	0b018023 	bleq	641ac <__standby_start+0x641ac>
    411c:	00000dd8 	ldrdeq	r0, [r0], -r8
    4120:	106af303 	rsbne	pc, sl, r3, lsl #6
    4124:	23030000 	movwcs	r0, #12288	; 0x3000
    4128:	530c0184 	movwpl	r0, #49540	; 0xc184
    412c:	03003064 	movweq	r3, #100	; 0x64
    4130:	00106af4 			; <UNDEFINED> instruction: 0x00106af4
    4134:	88230300 	stmdahi	r3!, {r8, r9}
    4138:	64530c01 	ldrbvs	r0, [r3], #-3073	; 0xc01
    413c:	f5030031 			; <UNDEFINED> instruction: 0xf5030031
    4140:	0000106a 	andeq	r1, r0, sl, rrx
    4144:	018c2303 	orreq	r2, ip, r3, lsl #6
    4148:	3264530c 	rsbcc	r5, r4, #805306368	; 0x30000000
    414c:	6af60300 	bvs	ffd84d54 <__bss_end+0xfd81738>
    4150:	03000010 	movweq	r0, #16
    4154:	0b019023 	bleq	681e8 <__standby_start+0x681e8>
    4158:	00000de3 	andeq	r0, r0, r3, ror #27
    415c:	10bcf703 	adcsne	pc, ip, r3, lsl #14
    4160:	23030000 	movwcs	r0, #12288	; 0x3000
    4164:	530c0194 	movwpl	r0, #49556	; 0xc194
    4168:	f8030073 			; <UNDEFINED> instruction: 0xf8030073
    416c:	0000106a 	andeq	r1, r0, sl, rrx
    4170:	019c2303 	orrseq	r2, ip, r3, lsl #6
    4174:	000c660b 	andeq	r6, ip, fp, lsl #12
    4178:	6af90300 	bvs	ffe44d80 <__bss_end+0xfe41764>
    417c:	03000010 	movweq	r0, #16
    4180:	0b01a023 	bleq	6c214 <__standby_start+0x6c214>
    4184:	00000c6b 	andeq	r0, r0, fp, ror #24
    4188:	106afa03 	rsbne	pc, sl, r3, lsl #20
    418c:	23030000 	movwcs	r0, #12288	; 0x3000
    4190:	ee0b01a4 	adf<illegal precision>p	f0, f3, f4
    4194:	0300000d 	movweq	r0, #13
    4198:	0010c1fb 			; <UNDEFINED> instruction: 0x0010c1fb
    419c:	a8230300 	stmdage	r3!, {r8, r9}
    41a0:	063c0b01 	ldrteq	r0, [ip], -r1, lsl #22
    41a4:	fc030000 	stc2	0, cr0, [r3], {-0}
    41a8:	0000106a 	andeq	r1, r0, sl, rrx
    41ac:	01b02303 	lslseq	r2, r3, #6
    41b0:	0006410b 	andeq	r4, r6, fp, lsl #2
    41b4:	6afd0300 	bvs	fff44dbc <__bss_end+0xff417a0>
    41b8:	03000010 	movweq	r0, #16
    41bc:	0b01b423 	bleq	71250 <__standby_start+0x71250>
    41c0:	00000901 	andeq	r0, r0, r1, lsl #18
    41c4:	10c6fe03 	sbcne	pc, r6, r3, lsl #28
    41c8:	23030000 	movwcs	r0, #12288	; 0x3000
    41cc:	ab0b01b8 	blge	2c48b4 <__standby_start+0x2c48b4>
    41d0:	0300000c 	movweq	r0, #12
    41d4:	00106aff 			; <UNDEFINED> instruction: 0x00106aff
    41d8:	c0230300 	eorgt	r0, r3, r0, lsl #6
    41dc:	0a0b0d01 	beq	2c75e8 <__standby_start+0x2c75e8>
    41e0:	00030000 	andeq	r0, r3, r0
    41e4:	0010cb01 	andseq	ip, r0, r1, lsl #22
    41e8:	c4230300 	strtgt	r0, [r3], #-768	; 0x300
    41ec:	73550e01 	cmpvc	r5, #16
    41f0:	01030062 	tsteq	r3, r2, rrx
    41f4:	00106a01 	andseq	r6, r0, r1, lsl #20
    41f8:	cc230300 	stcgt	3, cr0, [r3], #-0
    41fc:	07f30d01 	ldrbeq	r0, [r3, r1, lsl #26]!
    4200:	02030000 	andeq	r0, r3, #0
    4204:	00106a01 	andseq	r6, r0, r1, lsl #20
    4208:	d0230300 	eorle	r0, r3, r0, lsl #6
    420c:	09230d01 	stmdbeq	r3!, {r0, r8, sl, fp}
    4210:	03030000 	movweq	r0, #12288	; 0x3000
    4214:	0010e001 	andseq	lr, r0, r1
    4218:	d4230300 	strtle	r0, [r3], #-768	; 0x300
    421c:	0df90d01 	ldcleq	13, cr0, [r9, #4]!
    4220:	04030000 	streq	r0, [r3], #-0
    4224:	00106a01 	andseq	r6, r0, r1, lsl #20
    4228:	f0230300 			; <UNDEFINED> instruction: 0xf0230300
    422c:	0d020d01 	stceq	13, cr0, [r2, #-4]
    4230:	05030000 	streq	r0, [r3, #-0]
    4234:	00106a01 	andseq	r6, r0, r1, lsl #20
    4238:	f4230300 	vld2.8	{d0-d3}, [r3], r0
    423c:	095a0d01 	ldmdbeq	sl, {r0, r8, sl, fp}^
    4240:	06030000 	streq	r0, [r3], -r0
    4244:	00106a01 	andseq	r6, r0, r1, lsl #20
    4248:	f8230300 			; <UNDEFINED> instruction: 0xf8230300
    424c:	0a840d01 	beq	fe107658 <__bss_end+0xe10403c>
    4250:	07030000 	streq	r0, [r3, -r0]
    4254:	00106a01 	andseq	r6, r0, r1, lsl #20
    4258:	fc230300 	stc2	3, cr0, [r3], #-0
    425c:	0b150d01 	bleq	547668 <__standby_start+0x547668>
    4260:	08030000 	stmdaeq	r3, {}	; <UNPREDICTABLE>
    4264:	00106a01 	andseq	r6, r0, r1, lsl #20
    4268:	80230300 	eorhi	r0, r3, r0, lsl #6
    426c:	65420e02 	strbvs	r0, [r2, #-3586]	; 0xe02
    4270:	09030030 	stmdbeq	r3, {r4, r5}
    4274:	00106a01 	andseq	r6, r0, r1, lsl #20
    4278:	84230300 	strthi	r0, [r3], #-768	; 0x300
    427c:	0a3e0d02 	beq	f8768c <__standby_start+0xf8768c>
    4280:	0a030000 	beq	c4288 <__standby_start+0xc4288>
    4284:	00106a01 	andseq	r6, r0, r1, lsl #20
    4288:	88230300 	stmdahi	r3!, {r8, r9}
    428c:	65460e02 	strbvs	r0, [r6, #-3586]	; 0xe02
    4290:	0b030030 	bleq	c4358 <__standby_start+0xc4358>
    4294:	00106a01 	andseq	r6, r0, r1, lsl #20
    4298:	8c230300 	stchi	3, cr0, [r3], #-0
    429c:	05cf0d02 	strbeq	r0, [pc, #3330]	; 4fa6 <__standby_start+0x4fa6>
    42a0:	0c030000 	stceq	0, cr0, [r3], {-0}
    42a4:	00106a01 	andseq	r6, r0, r1, lsl #20
    42a8:	90230300 	eorls	r0, r3, r0, lsl #6
    42ac:	05db0d02 	ldrbeq	r0, [fp, #3330]	; 0xd02
    42b0:	0d030000 	stceq	0, cr0, [r3, #-0]
    42b4:	00106a01 	andseq	r6, r0, r1, lsl #20
    42b8:	94230300 	strtls	r0, [r3], #-768	; 0x300
    42bc:	05f90d02 	ldrbeq	r0, [r9, #3330]!	; 0xd02
    42c0:	0e030000 	cdpeq	0, 0, cr0, cr3, cr0, {0}
    42c4:	00106a01 	andseq	r6, r0, r1, lsl #20
    42c8:	98230300 	stmdals	r3!, {r8, r9}
    42cc:	05e70d02 	strbeq	r0, [r7, #3330]!	; 0xd02
    42d0:	0f030000 	svceq	0x00030000
    42d4:	00106a01 	andseq	r6, r0, r1, lsl #20
    42d8:	9c230300 	stcls	3, cr0, [r3], #-0
    42dc:	092e0d02 	stmdbeq	lr!, {r1, r8, sl, fp}
    42e0:	10030000 	andne	r0, r3, r0
    42e4:	0010f501 	andseq	pc, r0, r1, lsl #10
    42e8:	a0230300 	eorge	r0, r3, r0, lsl #6
    42ec:	06010d02 	streq	r0, [r1], -r2, lsl #26
    42f0:	11030000 	mrsne	r0, (UNDEF: 3)
    42f4:	00106a01 	andseq	r6, r0, r1, lsl #20
    42f8:	ac230300 	stcge	3, cr0, [r3], #-0
    42fc:	06110d02 	ldreq	r0, [r1], -r2, lsl #26
    4300:	12030000 	andne	r0, r3, #0
    4304:	00106a01 	andseq	r6, r0, r1, lsl #20
    4308:	b0230300 	eorlt	r0, r3, r0, lsl #6
    430c:	0c420d02 	mcrreq	13, 0, r0, r2, cr2
    4310:	13030000 	movwne	r0, #12288	; 0x3000
    4314:	00106a01 	andseq	r6, r0, r1, lsl #20
    4318:	b4230300 	strtlt	r0, [r3], #-768	; 0x300
    431c:	061d0d02 	ldreq	r0, [sp], -r2, lsl #26
    4320:	14030000 	strne	r0, [r3], #-0
    4324:	00106a01 	andseq	r6, r0, r1, lsl #20
    4328:	b8230300 	stmdalt	r3!, {r8, r9}
    432c:	65560e02 	ldrbvs	r0, [r6, #-3586]	; 0xe02
    4330:	01150300 	tsteq	r5, r0, lsl #6
    4334:	0000106a 	andeq	r1, r0, sl, rrx
    4338:	02bc2303 	adcseq	r2, ip, #201326592	; 0xc000000
    433c:	0008b70d 	andeq	fp, r8, sp, lsl #14
    4340:	01160300 	tsteq	r6, r0, lsl #6
    4344:	0000106a 	andeq	r1, r0, sl, rrx
    4348:	02c02303 	sbceq	r2, r0, #201326592	; 0xc000000
    434c:	7376410e 	cmnvc	r6, #-2147483645	; 0x80000003
    4350:	01170300 	tsteq	r7, r0, lsl #6
    4354:	0000106a 	andeq	r1, r0, sl, rrx
    4358:	02c42303 	sbceq	r2, r4, #201326592	; 0xc000000
    435c:	0006290d 	andeq	r2, r6, sp, lsl #18
    4360:	01180300 	tsteq	r8, r0, lsl #6
    4364:	0000106a 	andeq	r1, r0, sl, rrx
    4368:	02c82303 	sbceq	r2, r8, #201326592	; 0xc000000
    436c:	0009390d 	andeq	r3, r9, sp, lsl #18
    4370:	01190300 	tsteq	r9, r0, lsl #6
    4374:	0000106a 	andeq	r1, r0, sl, rrx
    4378:	02cc2303 	sbceq	r2, ip, #201326592	; 0xc000000
    437c:	0006d00d 	andeq	sp, r6, sp
    4380:	011a0300 	tsteq	sl, r0, lsl #6
    4384:	0000106a 	andeq	r1, r0, sl, rrx
    4388:	02d02303 	sbcseq	r2, r0, #201326592	; 0xc000000
    438c:	0006dc0d 	andeq	sp, r6, sp, lsl #24
    4390:	011b0300 	tsteq	fp, r0, lsl #6
    4394:	0000106a 	andeq	r1, r0, sl, rrx
    4398:	02d42303 	sbcseq	r2, r4, #201326592	; 0xc000000
    439c:	0006e80d 	andeq	lr, r6, sp, lsl #16
    43a0:	011c0300 	tsteq	ip, r0, lsl #6
    43a4:	0000106a 	andeq	r1, r0, sl, rrx
    43a8:	02d82303 	sbcseq	r2, r8, #201326592	; 0xc000000
    43ac:	0007540d 	andeq	r5, r7, sp, lsl #8
    43b0:	011d0300 	tsteq	sp, r0, lsl #6
    43b4:	0000106a 	andeq	r1, r0, sl, rrx
    43b8:	02dc2303 	sbcseq	r2, ip, #201326592	; 0xc000000
    43bc:	0006f40d 	andeq	pc, r6, sp, lsl #8
    43c0:	011e0300 	tsteq	lr, r0, lsl #6
    43c4:	0000106a 	andeq	r1, r0, sl, rrx
    43c8:	02e02303 	rsceq	r2, r0, #201326592	; 0xc000000
    43cc:	0009440d 	andeq	r4, r9, sp, lsl #8
    43d0:	011f0300 	tsteq	pc, r0, lsl #6
    43d4:	0000106a 	andeq	r1, r0, sl, rrx
    43d8:	02e42303 	rsceq	r2, r4, #201326592	; 0xc000000
    43dc:	0006830d 	andeq	r8, r6, sp, lsl #6
    43e0:	01200300 	teqeq	r0, r0, lsl #6
    43e4:	0000106a 	andeq	r1, r0, sl, rrx
    43e8:	02e82303 	rsceq	r2, r8, #201326592	; 0xc000000
    43ec:	000d730d 	andeq	r7, sp, sp, lsl #6
    43f0:	01210300 	teqeq	r1, r0, lsl #6
    43f4:	0000106a 	andeq	r1, r0, sl, rrx
    43f8:	02ec2303 	rsceq	r2, ip, #201326592	; 0xc000000
    43fc:	00094f0d 	andeq	r4, r9, sp, lsl #30
    4400:	01220300 	teqeq	r2, r0, lsl #6
    4404:	000010fa 	strdeq	r1, [r0], -sl
    4408:	02f02303 	rscseq	r2, r0, #201326592	; 0xc000000
    440c:	00085b0d 	andeq	r5, r8, sp, lsl #22
    4410:	01230300 	teqeq	r3, r0, lsl #6
    4414:	0000106a 	andeq	r1, r0, sl, rrx
    4418:	03802303 	orreq	r2, r0, #201326592	; 0xc000000
    441c:	0008130d 	andeq	r1, r8, sp, lsl #6
    4420:	01240300 	teqeq	r4, r0, lsl #6
    4424:	0000106a 	andeq	r1, r0, sl, rrx
    4428:	03842303 	orreq	r2, r4, #201326592	; 0xc000000
    442c:	00081f0d 	andeq	r1, r8, sp, lsl #30
    4430:	01250300 	teqeq	r5, r0, lsl #6
    4434:	0000106a 	andeq	r1, r0, sl, rrx
    4438:	03882303 	orreq	r2, r8, #201326592	; 0xc000000
    443c:	00082b0d 	andeq	r2, r8, sp, lsl #22
    4440:	01260300 	teqeq	r6, r0, lsl #6
    4444:	0000106a 	andeq	r1, r0, sl, rrx
    4448:	038c2303 	orreq	r2, ip, #201326592	; 0xc000000
    444c:	000a280d 	andeq	r2, sl, sp, lsl #16
    4450:	01270300 	teqeq	r7, r0, lsl #6
    4454:	000010ff 	strdeq	r1, [r0], -pc	; <UNPREDICTABLE>
    4458:	03902303 	orrseq	r2, r0, #201326592	; 0xc000000
    445c:	0008530d 	andeq	r5, r8, sp, lsl #6
    4460:	01280300 	teqeq	r8, r0, lsl #6
    4464:	0000106a 	andeq	r1, r0, sl, rrx
    4468:	03a02303 	moveq	r2, #201326592	; 0xc000000
    446c:	0007db0d 	andeq	sp, r7, sp, lsl #22
    4470:	01290300 	teqeq	r9, r0, lsl #6
    4474:	0000106a 	andeq	r1, r0, sl, rrx
    4478:	03a42303 			; <UNDEFINED> instruction: 0x03a42303
    447c:	000a910d 	andeq	r9, sl, sp, lsl #2
    4480:	012a0300 	teqeq	sl, r0, lsl #6
    4484:	0000106a 	andeq	r1, r0, sl, rrx
    4488:	03a82303 			; <UNDEFINED> instruction: 0x03a82303
    448c:	00086d0d 	andeq	r6, r8, sp, lsl #26
    4490:	012b0300 	teqeq	fp, r0, lsl #6
    4494:	0000106a 	andeq	r1, r0, sl, rrx
    4498:	03ac2303 			; <UNDEFINED> instruction: 0x03ac2303
    449c:	7374410e 	cmnvc	r4, #-2147483645	; 0x80000003
    44a0:	012c0300 	teqeq	ip, r0, lsl #6
    44a4:	0000106a 	andeq	r1, r0, sl, rrx
    44a8:	03b02303 	movseq	r2, #201326592	; 0xc000000
    44ac:	000a330d 	andeq	r3, sl, sp, lsl #6
    44b0:	012d0300 	teqeq	sp, r0, lsl #6
    44b4:	00001114 	andeq	r1, r0, r4, lsl r1
    44b8:	03b42303 			; <UNDEFINED> instruction: 0x03b42303
    44bc:	0008370d 	andeq	r3, r8, sp, lsl #14
    44c0:	012e0300 	teqeq	lr, r0, lsl #6
    44c4:	00001119 	andeq	r1, r0, r9, lsl r1
    44c8:	04802303 	streq	r2, [r0], #771	; 0x303
    44cc:	000add0d 	andeq	sp, sl, sp, lsl #26
    44d0:	012f0300 	teqeq	pc, r0, lsl #6
    44d4:	0000106a 	andeq	r1, r0, sl, rrx
    44d8:	04842303 	streq	r2, [r4], #771	; 0x303
    44dc:	000db00d 	andeq	fp, sp, sp
    44e0:	01300300 	teqeq	r0, r0, lsl #6
    44e4:	0000112e 	andeq	r1, r0, lr, lsr #2
    44e8:	04882303 	streq	r2, [r8], #771	; 0x303
    44ec:	0009b70d 	andeq	fp, r9, sp, lsl #14
    44f0:	01310300 	teqeq	r1, r0, lsl #6
    44f4:	00001143 	andeq	r1, r0, r3, asr #2
    44f8:	04a02303 	strteq	r2, [r0], #771	; 0x303
    44fc:	0006b00d 	andeq	fp, r6, sp
    4500:	01320300 	teqeq	r2, r0, lsl #6
    4504:	0000106a 	andeq	r1, r0, sl, rrx
    4508:	04a42303 	strteq	r2, [r4], #771	; 0x303
    450c:	00088b0d 	andeq	r8, r8, sp, lsl #22
    4510:	01330300 	teqeq	r3, r0, lsl #6
    4514:	0000106a 	andeq	r1, r0, sl, rrx
    4518:	04a82303 	strteq	r2, [r8], #771	; 0x303
    451c:	0009f90d 	andeq	pc, r9, sp, lsl #18
    4520:	01340300 	teqeq	r4, r0, lsl #6
    4524:	0000106a 	andeq	r1, r0, sl, rrx
    4528:	04ac2303 	strteq	r2, [ip], #771	; 0x303
    452c:	000ae60d 	andeq	lr, sl, sp, lsl #12
    4530:	01350300 	teqeq	r5, r0, lsl #6
    4534:	0000106a 	andeq	r1, r0, sl, rrx
    4538:	04b02303 	ldrteq	r2, [r0], #771	; 0x303
    453c:	000c9d0d 	andeq	r9, ip, sp, lsl #26
    4540:	01360300 	teqeq	r6, r0, lsl #6
    4544:	0000106a 	andeq	r1, r0, sl, rrx
    4548:	04b42303 	ldrteq	r2, [r4], #771	; 0x303
    454c:	0007940d 	andeq	r9, r7, sp, lsl #8
    4550:	01370300 	teqeq	r7, r0, lsl #6
    4554:	0000106a 	andeq	r1, r0, sl, rrx
    4558:	04b82303 	ldrteq	r2, [r8], #771	; 0x303
    455c:	0007d00d 	andeq	sp, r7, sp
    4560:	01380300 	teqeq	r8, r0, lsl #6
    4564:	0000106a 	andeq	r1, r0, sl, rrx
    4568:	04bc2303 	ldrteq	r2, [ip], #771	; 0x303
    456c:	0009c00d 	andeq	ip, r9, sp
    4570:	01390300 	teqeq	r9, r0, lsl #6
    4574:	0000106a 	andeq	r1, r0, sl, rrx
    4578:	04c02303 	strbeq	r2, [r0], #771	; 0x303
    457c:	00072a0d 	andeq	r2, r7, sp, lsl #20
    4580:	013a0300 	teqeq	sl, r0, lsl #6
    4584:	0000106a 	andeq	r1, r0, sl, rrx
    4588:	04c42303 	strbeq	r2, [r4], #771	; 0x303
    458c:	000b290d 	andeq	r2, fp, sp, lsl #18
    4590:	013b0300 	teqeq	fp, r0, lsl #6
    4594:	0000106a 	andeq	r1, r0, sl, rrx
    4598:	04c82303 	strbeq	r2, [r8], #771	; 0x303
    459c:	000ce70d 	andeq	lr, ip, sp, lsl #14
    45a0:	013c0300 	teqeq	ip, r0, lsl #6
    45a4:	0000106a 	andeq	r1, r0, sl, rrx
    45a8:	04cc2303 	strbeq	r2, [ip], #771	; 0x303
    45ac:	00074c0d 	andeq	r4, r7, sp, lsl #24
    45b0:	013d0300 	teqeq	sp, r0, lsl #6
    45b4:	0000106a 	andeq	r1, r0, sl, rrx
    45b8:	04d02303 	ldrbeq	r2, [r0], #771	; 0x303
    45bc:	0007a00d 	andeq	sl, r7, sp
    45c0:	013e0300 	teqeq	lr, r0, lsl #6
    45c4:	00001148 	andeq	r1, r0, r8, asr #2
    45c8:	04d42303 	ldrbeq	r2, [r4], #771	; 0x303
    45cc:	000a030d 	andeq	r0, sl, sp, lsl #6
    45d0:	013f0300 	teqeq	pc, r0, lsl #6
    45d4:	0000106a 	andeq	r1, r0, sl, rrx
    45d8:	04e02303 	strbteq	r2, [r0], #771	; 0x303
    45dc:	0007ac0d 	andeq	sl, r7, sp, lsl #24
    45e0:	01400300 	mrseq	r0, SPSR_irq
    45e4:	0000114d 	andeq	r1, r0, sp, asr #2
    45e8:	04e42303 	strbteq	r2, [r4], #771	; 0x303
    45ec:	0009d80d 	andeq	sp, r9, sp, lsl #16
    45f0:	01410300 	mrseq	r0, (UNDEF: 113)
    45f4:	0000106a 	andeq	r1, r0, sl, rrx
    45f8:	04f02303 	ldrbteq	r2, [r0], #771	; 0x303
    45fc:	0007b80d 	andeq	fp, r7, sp, lsl #16
    4600:	01420300 	mrseq	r0, SPSR_svc
    4604:	00001152 	andeq	r1, r0, r2, asr r1
    4608:	04f42303 	ldrbteq	r2, [r4], #771	; 0x303
    460c:	0009cc0d 	andeq	ip, r9, sp, lsl #24
    4610:	01430300 	mrseq	r0, (UNDEF: 115)
    4614:	0000106a 	andeq	r1, r0, sl, rrx
    4618:	05802303 	streq	r2, [r0, #771]	; 0x303
    461c:	000c4f0d 	andeq	r4, ip, sp, lsl #30
    4620:	01440300 	mrseq	r0, SPSR_abt
    4624:	0000106a 	andeq	r1, r0, sl, rrx
    4628:	05842303 	streq	r2, [r4, #771]	; 0x303
    462c:	000d930d 	andeq	r9, sp, sp, lsl #6
    4630:	01450300 	mrseq	r0, (UNDEF: 117)
    4634:	0000106a 	andeq	r1, r0, sl, rrx
    4638:	05882303 	streq	r2, [r8, #771]	; 0x303
    463c:	000da30d 	andeq	sl, sp, sp, lsl #6
    4640:	01460300 	mrseq	r0, SPSR_und
    4644:	0000106a 	andeq	r1, r0, sl, rrx
    4648:	058c2303 	streq	r2, [ip, #771]	; 0x303
    464c:	00058b0d 	andeq	r8, r5, sp, lsl #22
    4650:	01470300 	mrseq	r0, (UNDEF: 119)
    4654:	0000106a 	andeq	r1, r0, sl, rrx
    4658:	05902303 	ldreq	r2, [r0, #771]	; 0x303
    465c:	000c700d 	andeq	r7, ip, sp
    4660:	01480300 	mrseq	r0, (UNDEF: 120)
    4664:	00001157 	andeq	r1, r0, r7, asr r1
    4668:	05942303 	ldreq	r2, [r4, #771]	; 0x303
    466c:	00071c0d 	andeq	r1, r7, sp, lsl #24
    4670:	01490300 	mrseq	r0, (UNDEF: 121)
    4674:	0000106a 	andeq	r1, r0, sl, rrx
    4678:	059c2303 	ldreq	r2, [ip, #771]	; 0x303
    467c:	0009640d 	andeq	r6, r9, sp, lsl #8
    4680:	014a0300 	mrseq	r0, (UNDEF: 122)
    4684:	0000106a 	andeq	r1, r0, sl, rrx
    4688:	05a02303 	streq	r2, [r0, #771]!	; 0x303
    468c:	0007000d 	andeq	r0, r7, sp
    4690:	014b0300 	mrseq	r0, (UNDEF: 123)
    4694:	0000106a 	andeq	r1, r0, sl, rrx
    4698:	05a42303 	streq	r2, [r4, #771]!	; 0x303
    469c:	000c350d 	andeq	r3, ip, sp, lsl #10
    46a0:	014c0300 	mrseq	r0, SPSR_mon
    46a4:	0000106a 	andeq	r1, r0, sl, rrx
    46a8:	05a82303 	streq	r2, [r8, #771]!	; 0x303
    46ac:	000d4b0d 	andeq	r4, sp, sp, lsl #22
    46b0:	014d0300 	mrseq	r0, (UNDEF: 125)
    46b4:	0000106a 	andeq	r1, r0, sl, rrx
    46b8:	05ac2303 	streq	r2, [ip, #771]!	; 0x303
    46bc:	000d5f0d 	andeq	r5, sp, sp, lsl #30
    46c0:	014e0300 	mrseq	r0, SPSR_hyp
    46c4:	0000106a 	andeq	r1, r0, sl, rrx
    46c8:	05b02303 	ldreq	r2, [r0, #771]!	; 0x303
    46cc:	0007c40d 	andeq	ip, r7, sp, lsl #8
    46d0:	014f0300 	mrseq	r0, (UNDEF: 127)
    46d4:	0000115c 	andeq	r1, r0, ip, asr r1
    46d8:	05b42303 	ldreq	r2, [r4, #771]!	; 0x303
    46dc:	000a980d 	andeq	r9, sl, sp, lsl #16
    46e0:	01500300 	cmpeq	r0, r0, lsl #6
    46e4:	0000106a 	andeq	r1, r0, sl, rrx
    46e8:	05c02303 	strbeq	r2, [r0, #771]	; 0x303
    46ec:	000aa20d 	andeq	sl, sl, sp, lsl #4
    46f0:	01510300 	cmpeq	r1, r0, lsl #6
    46f4:	0000106a 	andeq	r1, r0, sl, rrx
    46f8:	05c42303 	strbeq	r2, [r4, #771]	; 0x303
    46fc:	000aac0d 	andeq	sl, sl, sp, lsl #24
    4700:	01520300 	cmpeq	r2, r0, lsl #6
    4704:	0000106a 	andeq	r1, r0, sl, rrx
    4708:	05c82303 	strbeq	r2, [r8, #771]	; 0x303
    470c:	0009e30d 	andeq	lr, r9, sp, lsl #6
    4710:	01530300 	cmpeq	r3, r0, lsl #6
    4714:	0000106a 	andeq	r1, r0, sl, rrx
    4718:	05cc2303 	strbeq	r2, [ip, #771]	; 0x303
    471c:	000bca0d 	andeq	ip, fp, sp, lsl #20
    4720:	01540300 	cmpeq	r4, r0, lsl #6
    4724:	0000106a 	andeq	r1, r0, sl, rrx
    4728:	05d02303 	ldrbeq	r2, [r0, #771]	; 0x303
    472c:	0009ee0d 	andeq	lr, r9, sp, lsl #28
    4730:	01550300 	cmpeq	r5, r0, lsl #6
    4734:	0000106a 	andeq	r1, r0, sl, rrx
    4738:	05d42303 	ldrbeq	r2, [r4, #771]	; 0x303
    473c:	0008090d 	andeq	r0, r8, sp, lsl #18
    4740:	01560300 	cmpeq	r6, r0, lsl #6
    4744:	0000106a 	andeq	r1, r0, sl, rrx
    4748:	05d82303 	ldrbeq	r2, [r8, #771]	; 0x303
    474c:	01780f00 	cmneq	r8, r0, lsl #30
    4750:	530f0000 	movwpl	r0, #61440	; 0xf000
    4754:	0f000000 	svceq	0x00000000
    4758:	0000024b 	andeq	r0, r0, fp, asr #4
    475c:	0003400f 	andeq	r4, r3, pc
    4760:	04570f00 	ldrbeq	r0, [r7], #-3840	; 0xf00
    4764:	3b0f0000 	blcc	3c476c <__standby_start+0x3c476c>
    4768:	0f000005 	svceq	0x00000005
    476c:	00000696 	muleq	r0, r6, r6
    4770:	00072f0f 	andeq	r2, r7, pc, lsl #30
    4774:	07be0f00 	ldreq	r0, [lr, r0, lsl #30]!
    4778:	3c0f0000 	stccc	0, cr0, [pc], {-0}
    477c:	10000008 	andne	r0, r0, r8
    4780:	00000053 	andeq	r0, r0, r3, asr r0
    4784:	000010a7 	andeq	r1, r0, r7, lsr #1
    4788:	00005e11 	andeq	r5, r0, r1, lsl lr
    478c:	0f000300 	svceq	0x00000300
    4790:	00001097 	muleq	r0, r7, r0
    4794:	00005310 	andeq	r5, r0, r0, lsl r3
    4798:	0010bc00 	andseq	fp, r0, r0, lsl #24
    479c:	005e1100 	subseq	r1, lr, r0, lsl #2
    47a0:	00010000 	andeq	r0, r1, r0
    47a4:	0010ac0f 	andseq	sl, r0, pc, lsl #24
    47a8:	10ac0f00 	adcne	r0, ip, r0, lsl #30
    47ac:	ac0f0000 	stcge	0, cr0, [pc], {-0}
    47b0:	0f000010 	svceq	0x00000010
    47b4:	000010ac 	andeq	r1, r0, ip, lsr #1
    47b8:	00005310 	andeq	r5, r0, r0, lsl r3
    47bc:	0010e000 	andseq	lr, r0, r0
    47c0:	005e1100 	subseq	r1, lr, r0, lsl #2
    47c4:	00060000 	andeq	r0, r6, r0
    47c8:	0010d00f 	andseq	sp, r0, pc
    47cc:	00531000 	subseq	r1, r3, r0
    47d0:	10f50000 	rscsne	r0, r5, r0
    47d4:	5e110000 	cdppl	0, 1, cr0, cr1, cr0, {0}
    47d8:	02000000 	andeq	r0, r0, #0
    47dc:	10e50f00 	rscne	r0, r5, r0, lsl #30
    47e0:	970f0000 	strls	r0, [pc, -r0]
    47e4:	0f000010 	svceq	0x00000010
    47e8:	00001097 	muleq	r0, r7, r0
    47ec:	00005310 	andeq	r5, r0, r0, lsl r3
    47f0:	00111400 	andseq	r1, r1, r0, lsl #8
    47f4:	005e1100 	subseq	r1, lr, r0, lsl #2
    47f8:	00120000 	andseq	r0, r2, r0
    47fc:	0011040f 	andseq	r0, r1, pc, lsl #8
    4800:	08760f00 	ldmdaeq	r6!, {r8, r9, sl, fp}^
    4804:	53100000 	tstpl	r0, #0
    4808:	2e000000 	cdpcs	0, 0, cr0, cr0, cr0, {0}
    480c:	11000011 	tstne	r0, r1, lsl r0
    4810:	0000005e 	andeq	r0, r0, lr, asr r0
    4814:	1e0f0005 	cdpne	0, 0, cr0, cr15, cr5, {0}
    4818:	10000011 	andne	r0, r0, r1, lsl r0
    481c:	00000053 	andeq	r0, r0, r3, asr r0
    4820:	00001143 	andeq	r1, r0, r3, asr #2
    4824:	00005e11 	andeq	r5, r0, r1, lsl lr
    4828:	0f000000 	svceq	0x00000000
    482c:	00001133 	andeq	r1, r0, r3, lsr r1
    4830:	0010e50f 	andseq	lr, r0, pc, lsl #10
    4834:	10e50f00 	rscne	r0, r5, r0, lsl #30
    4838:	e50f0000 	str	r0, [pc, #-0]	; 4840 <__standby_start+0x4840>
    483c:	0f000010 	svceq	0x00000010
    4840:	000010ac 	andeq	r1, r0, ip, lsr #1
    4844:	0010e50f 	andseq	lr, r0, pc, lsl #10
    4848:	0cd51200 	lfmeq	f1, 2, [r5], {0}
    484c:	57030000 	strpl	r0, [r3, -r0]
    4850:	00088101 	andeq	r8, r8, r1, lsl #2
    4854:	61041300 	mrsvs	r1, LR_abt
    4858:	02000011 	andeq	r0, r0, #17
    485c:	02f30704 	rscseq	r0, r3, #1048576	; 0x100000
    4860:	7f140000 	svcvc	0x00140000
    4864:	0100001a 	tsteq	r0, sl, lsl r0
    4868:	0053011f 	subseq	r0, r3, pc, lsl r1
    486c:	d7010000 	strle	r0, [r1, -r0]
    4870:	15000011 	strne	r0, [r0, #-17]
    4874:	00001b34 	andeq	r1, r0, r4, lsr fp
    4878:	00531f01 	subseq	r1, r3, r1, lsl #30
    487c:	ee160000 	cdp	0, 1, cr0, cr6, cr0, {0}
    4880:	0100001a 	tsteq	r0, sl, lsl r0
    4884:	00005321 	andeq	r5, r0, r1, lsr #6
    4888:	1b131600 	blne	4ca090 <__standby_start+0x4ca090>
    488c:	22010000 	andcs	r0, r1, #0
    4890:	00000053 	andeq	r0, r0, r3, asr r0
    4894:	67657217 			; <UNDEFINED> instruction: 0x67657217
    4898:	d7230100 	strle	r0, [r3, -r0, lsl #2]!
    489c:	16000011 			; <UNDEFINED> instruction: 0x16000011
    48a0:	00001b2c 	andeq	r1, r0, ip, lsr #22
    48a4:	116d2401 	cmnne	sp, r1, lsl #8
    48a8:	6d160000 	ldcvs	0, cr0, [r6, #-0]
    48ac:	01000000 	mrseq	r0, (UNDEF: 0)
    48b0:	00005325 	andeq	r5, r0, r5, lsr #6
    48b4:	00691700 	rsbeq	r1, r9, r0, lsl #14
    48b8:	00532601 	subseq	r2, r3, r1, lsl #12
    48bc:	13000000 	movwne	r0, #0
    48c0:	0011dd04 	andseq	sp, r1, r4, lsl #26
    48c4:	005e0f00 	subseq	r0, lr, r0, lsl #30
    48c8:	8e180000 	cdphi	0, 1, cr0, cr8, cr0, {0}
    48cc:	0100001a 	tsteq	r0, sl, lsl r0
    48d0:	1a0101e7 	bne	45074 <__standby_start+0x45074>
    48d4:	15000012 	strne	r0, [r0, #-18]
    48d8:	00001b34 	andeq	r1, r0, r4, lsr fp
    48dc:	0053e701 	subseq	lr, r3, r1, lsl #14
    48e0:	6d160000 	ldcvs	0, cr0, [r6, #-0]
    48e4:	01000000 	mrseq	r0, (UNDEF: 0)
    48e8:	000053e9 	andeq	r5, r0, r9, ror #7
    48ec:	00691700 	rsbeq	r1, r9, r0, lsl #14
    48f0:	0053ea01 	subseq	lr, r3, r1, lsl #20
    48f4:	72170000 	andsvc	r0, r7, #0
    48f8:	01006765 	tsteq	r0, r5, ror #14
    48fc:	0011d7eb 	andseq	sp, r1, fp, ror #15
    4900:	96190000 	ldrls	r0, [r9], -r0
    4904:	0100001b 	tsteq	r0, fp, lsl r0
    4908:	0101011c 	tsteq	r1, ip, lsl r1
    490c:	00001233 	andeq	r1, r0, r3, lsr r2
    4910:	0100631a 	tsteq	r0, sl, lsl r3
    4914:	1233011c 	eorsne	r0, r3, #7
    4918:	02000000 	andeq	r0, r0, #0
    491c:	026f0801 	rsbeq	r0, pc, #65536	; 0x10000
    4920:	ac1b0000 	ldcge	0, cr0, [fp], {-0}
    4924:	0100001b 	tsteq	r0, fp, lsl r0
    4928:	33010124 	movwcc	r0, #4388	; 0x1124
    492c:	01000012 	tsteq	r0, r2, lsl r0
    4930:	00001259 	andeq	r1, r0, r9, asr r2
    4934:	001ab61c 	andseq	fp, sl, ip, lsl r6
    4938:	01260100 	teqeq	r6, r0, lsl #2
    493c:	00000053 	andeq	r0, r0, r3, asr r0
    4940:	1b031900 	blne	cad48 <__standby_start+0xcad48>
    4944:	82010000 	andhi	r0, r1, #0
    4948:	72010101 	andvc	r0, r1, #1073741824	; 0x40000000
    494c:	1a000012 	bne	499c <__standby_start+0x499c>
    4950:	82010063 	andhi	r0, r1, #99	; 0x63
    4954:	00123301 	andseq	r3, r2, r1, lsl #6
    4958:	cc1b0000 	ldcgt	0, cr0, [fp], {-0}
    495c:	0100001a 	tsteq	r0, sl, lsl r0
    4960:	3301018a 	movwcc	r0, #4490	; 0x118a
    4964:	01000012 	tsteq	r0, r2, lsl r0
    4968:	00001291 	muleq	r0, r1, r2
    496c:	001ab61c 	andseq	fp, sl, ip, lsl r6
    4970:	018c0100 	orreq	r0, ip, r0, lsl #2
    4974:	00000053 	andeq	r0, r0, r3, asr r0
    4978:	117a1d00 	cmnne	sl, r0, lsl #26
    497c:	1bc00000 	blne	ff004984 <__bss_end+0xf001368>
    4980:	1c80f000 	stcne	0, cr15, [r0], {0}
    4984:	123af000 	eorsne	pc, sl, #0
    4988:	13200000 	teqne	r0, #0
    498c:	8b1e0000 	blhi	784994 <__standby_start+0x784994>
    4990:	5a000011 	bpl	49dc <__standby_start+0x49dc>
    4994:	1f000012 	svcne	0x00000012
    4998:	00001196 	muleq	r0, r6, r1
    499c:	00001278 	andeq	r1, r0, r8, ror r2
    49a0:	0011a11f 	andseq	sl, r1, pc, lsl r1
    49a4:	00129700 	andseq	r9, r2, r0, lsl #14
    49a8:	11ac1f00 			; <UNDEFINED> instruction: 0x11ac1f00
    49ac:	12b50000 	adcsne	r0, r5, #0
    49b0:	b71f0000 	ldrlt	r0, [pc, -r0]
    49b4:	dd000011 	stcle	0, cr0, [r0, #-68]	; 0xffffffbc
    49b8:	20000012 	andcs	r0, r0, r2, lsl r0
    49bc:	000011c2 	andeq	r1, r0, r2, asr #3
    49c0:	11cd2000 	bicne	r2, sp, r0
    49c4:	21000000 	mrscs	r0, (UNDEF: 0)
    49c8:	0000117a 	andeq	r1, r0, sl, ror r1
    49cc:	f0001c08 			; <UNDEFINED> instruction: 0xf0001c08
    49d0:	00000128 	andeq	r0, r0, r8, lsr #2
    49d4:	40221f01 	eormi	r1, r2, r1, lsl #30
    49d8:	23000001 	movwcs	r0, #1
    49dc:	00001196 	muleq	r0, r6, r1
    49e0:	0011a123 	andseq	sl, r1, r3, lsr #2
    49e4:	11ac2400 			; <UNDEFINED> instruction: 0x11ac2400
    49e8:	85d80000 	ldrbhi	r0, [r8]
    49ec:	237f8e88 	cmncs	pc, #2176	; 0x880
    49f0:	000011b7 			; <UNDEFINED> instruction: 0x000011b7
    49f4:	00118b25 	andseq	r8, r1, r5, lsr #22
    49f8:	11c22000 	bicne	r2, r2, r0
    49fc:	20000000 	andcs	r0, r0, r0
    4a00:	000011cd 	andeq	r1, r0, sp, asr #3
    4a04:	00000000 	andeq	r0, r0, r0
    4a08:	1adc0126 	bne	ff704ea8 <__bss_end+0xf70188c>
    4a0c:	fe010000 	cdp2	0, 0, cr0, cr1, cr0, {0}
    4a10:	001c8001 	andseq	r8, ip, r1
    4a14:	001d20f0 	ldrsheq	r2, [sp], -r0
    4a18:	0012fbf0 			; <UNDEFINED> instruction: 0x0012fbf0
    4a1c:	00139b00 	andseq	r9, r3, r0, lsl #22
    4a20:	66642700 	strbtvs	r2, [r4], -r0, lsl #14
    4a24:	01000100 	mrseq	r0, (UNDEF: 16)
    4a28:	00000053 	andeq	r0, r0, r3, asr r0
    4a2c:	0000131b 	andeq	r1, r0, fp, lsl r3
    4a30:	72636c27 	rsbvc	r6, r3, #9984	; 0x2700
    4a34:	01010100 	mrseq	r0, (UNDEF: 17)
    4a38:	00000053 	andeq	r0, r0, r3, asr r0
    4a3c:	00001332 	andeq	r1, r0, r2, lsr r3
    4a40:	001b1328 	andseq	r1, fp, r8, lsr #6
    4a44:	01020100 	mrseq	r0, (UNDEF: 18)
    4a48:	00000053 	andeq	r0, r0, r3, asr r0
    4a4c:	00001345 	andeq	r1, r0, r5, asr #6
    4a50:	0011e229 	andseq	lr, r1, r9, lsr #4
    4a54:	001c8400 	andseq	r8, ip, r0, lsl #8
    4a58:	000158f0 	strdeq	r5, [r1], -r0
    4a5c:	01040100 	mrseq	r0, (UNDEF: 20)
    4a60:	0011ef2a 	andseq	lr, r1, sl, lsr #30
    4a64:	70220000 	eorvc	r0, r2, r0
    4a68:	2b000001 	blcs	4a74 <__standby_start+0x4a74>
    4a6c:	0000120e 	andeq	r1, r0, lr, lsl #4
    4a70:	01c208b4 	strheq	r0, [r2, #132]	; 0x84
    4a74:	0011fa20 	andseq	pc, r1, r0, lsr #20
    4a78:	05200000 	streq	r0, [r0, #-0]!
    4a7c:	00000012 	andeq	r0, r0, r2, lsl r0
    4a80:	2c000000 	stccs	0, cr0, [r0], {-0}
    4a84:	001a6d01 	andseq	r6, sl, r1, lsl #26
    4a88:	012d0100 	teqeq	sp, r0, lsl #2
    4a8c:	00004101 	andeq	r4, r0, r1, lsl #2
    4a90:	001d2000 	andseq	r2, sp, r0
    4a94:	001db0f0 	ldrsheq	fp, [sp], -r0
    4a98:	001367f0 			; <UNDEFINED> instruction: 0x001367f0
    4a9c:	0013fe00 	andseq	pc, r3, r0, lsl #28
    4aa0:	1bf52d00 	blne	ffd4fea8 <__bss_end+0xfd4c88c>
    4aa4:	2d010000 	stccs	0, cr0, [r1, #-0]
    4aa8:	0013fe01 	andseq	pc, r3, r1, lsl #28
    4aac:	00138700 	andseq	r8, r3, r0, lsl #14
    4ab0:	121a2e00 	andsne	r2, sl, #0
    4ab4:	1d440000 	stclne	0, cr0, [r4, #-0]
    4ab8:	0188f000 	orreq	pc, r8, r0
    4abc:	3b010000 	blcc	44ac4 <__standby_start+0x44ac4>
    4ac0:	0013e301 	andseq	lr, r3, r1, lsl #6
    4ac4:	12282500 	eorne	r2, r8, #0
    4ac8:	2f000000 	svccs	0x00000000
    4acc:	0000121a 	andeq	r1, r0, sl, lsl r2
    4ad0:	f0001d60 			; <UNDEFINED> instruction: 0xf0001d60
    4ad4:	f0001d78 			; <UNDEFINED> instruction: 0xf0001d78
    4ad8:	1e013d01 	cdpne	13, 0, cr3, cr1, cr1, {0}
    4adc:	00001228 	andeq	r1, r0, r8, lsr #4
    4ae0:	000013b2 			; <UNDEFINED> instruction: 0x000013b2
    4ae4:	04130000 	ldreq	r0, [r3], #-0
    4ae8:	00001404 	andeq	r1, r0, r4, lsl #8
    4aec:	00123330 	andseq	r3, r2, r0, lsr r3
    4af0:	3d012c00 	stccc	12, cr2, [r1, #-0]
    4af4:	0100001b 	tsteq	r0, fp, lsl r0
    4af8:	53010143 	movwpl	r0, #4419	; 0x1143
    4afc:	b0000000 	andlt	r0, r0, r0
    4b00:	3cf0001d 	ldclcc	0, cr0, [r0], #116	; 0x74
    4b04:	c5f0001e 	ldrbgt	r0, [r0, #30]!
    4b08:	7e000013 	mcrvc	0, 0, r0, cr0, cr3, {0}
    4b0c:	31000014 	tstcc	r0, r4, lsl r0
    4b10:	00667562 	rsbeq	r7, r6, r2, ror #10
    4b14:	7e014301 	cdpvc	3, 0, cr4, cr1, cr1, {0}
    4b18:	e5000014 	str	r0, [r0, #-20]
    4b1c:	32000013 	andcc	r0, r0, #19
    4b20:	4301006e 	movwmi	r0, #4206	; 0x106e
    4b24:	00005301 	andeq	r5, r0, r1, lsl #6
    4b28:	27510100 	ldrbcs	r0, [r1, -r0, lsl #2]
    4b2c:	45010069 	strmi	r0, [r1, #-105]	; 0x69
    4b30:	00005301 	andeq	r5, r0, r1, lsl #6
    4b34:	0013f800 	andseq	pc, r3, r0, lsl #16
    4b38:	00633300 	rsbeq	r3, r3, r0, lsl #6
    4b3c:	33014601 	movwcc	r4, #5633	; 0x1601
    4b40:	01000012 	tsteq	r0, r2, lsl r0
    4b44:	123a2953 	eorsne	r2, sl, #1359872	; 0x14c000
    4b48:	1ddc0000 	ldclne	0, cr0, [ip]
    4b4c:	01a8f000 			; <UNDEFINED> instruction: 0x01a8f000
    4b50:	4d010000 	stcmi	0, cr0, [r1, #-0]
    4b54:	01d02201 	bicseq	r2, r0, r1, lsl #4
    4b58:	4c1f0000 	ldcmi	0, cr0, [pc], {-0}
    4b5c:	17000012 	smladne	r0, r2, r0, r0
    4b60:	00000014 	andeq	r0, r0, r4, lsl r0
    4b64:	04130000 	ldreq	r0, [r3], #-0
    4b68:	00001233 	andeq	r1, r0, r3, lsr r2
    4b6c:	1aaa0134 	bne	fea85044 <__bss_end+0xea81a28>
    4b70:	55010000 	strpl	r0, [r1, #-0]
    4b74:	1e3c0101 	rsfnee	f0, f4, f1
    4b78:	1edcf000 	cdpne	0, 13, cr15, cr12, cr0, {0}
    4b7c:	1442f000 	strbne	pc, [r2], #-0	; <UNPREDICTABLE>
    4b80:	15010000 	strne	r0, [r1, #-0]
    4b84:	13280000 	teqne	r8, #0
    4b88:	0100001b 	tsteq	r0, fp, lsl r0
    4b8c:	00530158 	subseq	r0, r3, r8, asr r1
    4b90:	14620000 	strbtne	r0, [r2], #-0
    4b94:	64270000 	strtvs	r0, [r7], #-0
    4b98:	59010066 	stmdbpl	r1, {r1, r2, r5, r6}
    4b9c:	00005301 	andeq	r5, r0, r1, lsl #6
    4ba0:	00148400 	andseq	r8, r4, r0, lsl #8
    4ba4:	636c2700 	cmnvs	ip, #0
    4ba8:	5a010072 	bpl	44d78 <__standby_start+0x44d78>
    4bac:	00005301 	andeq	r5, r0, r1, lsl #6
    4bb0:	00149b00 	andseq	r9, r4, r0, lsl #22
    4bb4:	11e22900 	mvnne	r2, r0, lsl #18
    4bb8:	1e400000 	cdpne	0, 4, cr0, cr0, cr0, {0}
    4bbc:	01f8f000 	mvnseq	pc, r0
    4bc0:	5c010000 	stcpl	0, cr0, [r1], {-0}
    4bc4:	11ef2a01 	mvnne	r2, r1, lsl #20
    4bc8:	22010000 	andcs	r0, r1, #0
    4bcc:	00000210 	andeq	r0, r0, r0, lsl r2
    4bd0:	00120e24 	andseq	r0, r2, r4, lsr #28
    4bd4:	8891b400 	ldmhi	r1, {sl, ip, sp, pc}
    4bd8:	fa207f8e 	blx	824a18 <__standby_start+0x824a18>
    4bdc:	00000011 	andeq	r0, r0, r1, lsl r0
    4be0:	00120520 	andseq	r0, r2, r0, lsr #10
    4be4:	00000000 	andeq	r0, r0, r0
    4be8:	c2013500 	andgt	r3, r1, #0
    4bec:	0100001b 	tsteq	r0, fp, lsl r0
    4bf0:	dc010173 	stfles	f0, [r1], {115}	; 0x73
    4bf4:	10f0001e 	rscsne	r0, r0, lr, lsl r0
    4bf8:	02f0001f 	rscseq	r0, r0, #31
    4bfc:	012c007d 	teqeq	ip, sp, ror r0
    4c00:	00001af7 	strdeq	r1, [r0], -r7
    4c04:	01019f01 	tsteq	r1, r1, lsl #30
    4c08:	00000041 	andeq	r0, r0, r1, asr #32
    4c0c:	f0001f10 			; <UNDEFINED> instruction: 0xf0001f10
    4c10:	f0001fa0 			; <UNDEFINED> instruction: 0xf0001fa0
    4c14:	000014ae 	andeq	r1, r0, lr, lsr #9
    4c18:	00001579 	andeq	r1, r0, r9, ror r5
    4c1c:	001bf52d 	andseq	pc, fp, sp, lsr #10
    4c20:	019f0100 	orrseq	r0, pc, r0, lsl #2
    4c24:	000013fe 	strdeq	r1, [r0], -lr
    4c28:	000014ce 	andeq	r1, r0, lr, asr #9
    4c2c:	0012592e 	andseq	r5, r2, lr, lsr #18
    4c30:	001f3400 	andseq	r3, pc, r0, lsl #8
    4c34:	000228f0 	strdeq	r2, [r2], -r0
    4c38:	01ad0100 			; <UNDEFINED> instruction: 0x01ad0100
    4c3c:	0000155e 	andeq	r1, r0, lr, asr r5
    4c40:	00126725 	andseq	r6, r2, r5, lsr #14
    4c44:	592f0000 	stmdbpl	pc!, {}	; <UNPREDICTABLE>
    4c48:	50000012 	andpl	r0, r0, r2, lsl r0
    4c4c:	68f0001f 	ldmvs	r0!, {r0, r1, r2, r3, r4}^
    4c50:	01f0001f 	mvnseq	r0, pc, lsl r0
    4c54:	671e01af 	ldrvs	r0, [lr, -pc, lsr #3]
    4c58:	f9000012 			; <UNDEFINED> instruction: 0xf9000012
    4c5c:	00000014 	andeq	r0, r0, r4, lsl r0
    4c60:	9e012c00 	cdpls	12, 0, cr2, cr1, cr0, {0}
    4c64:	0100001a 	tsteq	r0, sl, lsl r0
    4c68:	530101b6 	movwpl	r0, #4534	; 0x11b6
    4c6c:	a0000000 	andge	r0, r0, r0
    4c70:	2cf0001f 	ldclcs	0, cr0, [r0], #124	; 0x7c
    4c74:	0cf00020 	ldcleq	0, cr0, [r0], #128	; 0x80
    4c78:	ee000015 	mcr	0, 0, r0, cr0, cr5, {0}
    4c7c:	31000015 	tstcc	r0, r5, lsl r0
    4c80:	00667562 	rsbeq	r7, r6, r2, ror #10
    4c84:	7e01b601 	cfmadd32vc	mvax0, mvfx11, mvfx1, mvfx1
    4c88:	2c000014 	stccs	0, cr0, [r0], {20}
    4c8c:	32000015 	andcc	r0, r0, #21
    4c90:	b601006e 	strlt	r0, [r1], -lr, rrx
    4c94:	00005301 	andeq	r5, r0, r1, lsl #6
    4c98:	27510100 	ldrbcs	r0, [r1, -r0, lsl #2]
    4c9c:	b8010069 	stmdalt	r1, {r0, r3, r5, r6}
    4ca0:	00005301 	andeq	r5, r0, r1, lsl #6
    4ca4:	00153f00 	andseq	r3, r5, r0, lsl #30
    4ca8:	00633300 	rsbeq	r3, r3, r0, lsl #6
    4cac:	3301b901 	movwcc	fp, #6401	; 0x1901
    4cb0:	01000012 	tsteq	r0, r2, lsl r0
    4cb4:	12722953 	rsbsne	r2, r2, #1359872	; 0x14c000
    4cb8:	1fcc0000 	svcne	0x00cc0000
    4cbc:	0248f000 	subeq	pc, r8, #0
    4cc0:	c0010000 	andgt	r0, r1, r0
    4cc4:	02702201 	rsbseq	r2, r0, #268435456	; 0x10000000
    4cc8:	841f0000 	ldrhi	r0, [pc], #-0	; 4cd0 <__standby_start+0x4cd0>
    4ccc:	5e000012 	mcrpl	0, 0, r0, cr0, cr2, {0}
    4cd0:	00000015 	andeq	r0, r0, r5, lsl r0
    4cd4:	ce360000 	cdpgt	0, 3, cr0, cr6, cr0, {0}
    4cd8:	0100001b 	tsteq	r0, fp, lsl r0
    4cdc:	0000531a 	andeq	r5, r0, sl, lsl r3
    4ce0:	b4030500 	strlt	r0, [r3], #-1280	; 0x500
    4ce4:	36f00034 			; <UNDEFINED> instruction: 0x36f00034
    4ce8:	00001b4f 	andeq	r1, r0, pc, asr #22
    4cec:	00531b01 	subseq	r1, r3, r1, lsl #22
    4cf0:	03050000 	movweq	r0, #20480	; 0x5000
    4cf4:	f00034b8 			; <UNDEFINED> instruction: 0xf00034b8
    4cf8:	001abb36 	andseq	fp, sl, r6, lsr fp
    4cfc:	531c0100 	tstpl	ip, #0
    4d00:	05000000 	streq	r0, [r0, #-0]
    4d04:	0034bc03 	eorseq	fp, r4, r3, lsl #24
    4d08:	1b1936f0 	blne	6528d0 <__standby_start+0x6528d0>
    4d0c:	1d010000 	stcne	0, cr0, [r1, #-0]
    4d10:	00000053 	andeq	r0, r0, r3, asr r0
    4d14:	34c00305 	strbcc	r0, [r0], #773	; 0x305
    4d18:	d300f000 	movwle	pc, #0	; <UNPREDICTABLE>
    4d1c:	02000007 	andeq	r0, r0, #7
    4d20:	00139600 	andseq	r9, r3, r0, lsl #12
    4d24:	fd010400 	stc2	4, cr0, [r1, #-0]
    4d28:	01000001 	tsteq	r0, r1
    4d2c:	00001c64 	andeq	r1, r0, r4, ror #24
    4d30:	00000140 	andeq	r0, r0, r0, asr #2
    4d34:	f000202c 			; <UNDEFINED> instruction: 0xf000202c
    4d38:	f0002818 			; <UNDEFINED> instruction: 0xf0002818
    4d3c:	000011b3 			; <UNDEFINED> instruction: 0x000011b3
    4d40:	68060102 	stmdavs	r6, {r1, r8}
    4d44:	02000002 	andeq	r0, r0, #2
    4d48:	02660801 	rsbeq	r0, r6, #65536	; 0x10000
    4d4c:	02020000 	andeq	r0, r2, #0
    4d50:	0000b805 	andeq	fp, r0, r5, lsl #16
    4d54:	07020200 	streq	r0, [r2, -r0, lsl #4]
    4d58:	000003ea 	andeq	r0, r0, sl, ror #7
    4d5c:	000b4303 	andeq	r4, fp, r3, lsl #6
    4d60:	4c120200 	lfmmi	f0, 4, [r2], {-0}
    4d64:	04000000 	streq	r0, [r0], #-0
    4d68:	6e690504 	cdpvs	5, 6, cr0, cr9, cr4, {0}
    4d6c:	04020074 	streq	r0, [r2], #-116	; 0x74
    4d70:	0002f807 	andeq	pc, r2, r7, lsl #16
    4d74:	05080200 	streq	r0, [r8, #-512]	; 0x200
    4d78:	000001dc 	ldrdeq	r0, [r0], -ip
    4d7c:	ee070802 	cdp	8, 0, cr0, cr7, cr2, {0}
    4d80:	03000002 	movweq	r0, #2
    4d84:	00001be3 	andeq	r1, r0, r3, ror #23
    4d88:	00531802 	subseq	r1, r3, r2, lsl #16
    4d8c:	04020000 	streq	r0, [r2], #-0
    4d90:	0002f307 	andeq	pc, r2, r7, lsl #6
    4d94:	03040500 	movweq	r0, #17664	; 0x4500
    4d98:	00001c18 	andeq	r1, r0, r8, lsl ip
    4d9c:	00872803 	addeq	r2, r7, r3, lsl #16
    4da0:	27060000 	strcs	r0, [r6, -r0]
    4da4:	0400001c 	streq	r0, [r0], #-28
    4da8:	00a10004 	adceq	r0, r1, r4
    4dac:	5f070000 	svcpl	0x00070000
    4db0:	7a00001c 	bvc	4e28 <__standby_start+0x4e28>
    4db4:	02000000 	andeq	r0, r0, #0
    4db8:	00010023 	andeq	r0, r1, r3, lsr #32
    4dbc:	001c2903 	andseq	r2, ip, r3, lsl #18
    4dc0:	7c660300 	stclvc	3, cr0, [r6], #-0
    4dc4:	08000000 	stmdaeq	r0, {}	; <UNPREDICTABLE>
    4dc8:	00001c49 	andeq	r1, r0, r9, asr #24
    4dcc:	ea015b01 	b	5b9d8 <__standby_start+0x5b9d8>
    4dd0:	01000000 	mrseq	r0, (UNDEF: 0)
    4dd4:	000000ea 	andeq	r0, r0, sl, ror #1
    4dd8:	001c1309 	andseq	r1, ip, r9, lsl #6
    4ddc:	ea5b0100 	b	16c51e4 <__standby_start+0x16c51e4>
    4de0:	0a000000 	beq	4de8 <__standby_start+0x4de8>
    4de4:	00637273 	rsbeq	r7, r3, r3, ror r2
    4de8:	00f75b01 	rscseq	r5, r7, r1, lsl #22
    4dec:	60090000 	andvs	r0, r9, r0
    4df0:	01000019 	tsteq	r0, r9, lsl r0
    4df4:	0000685b 	andeq	r6, r0, fp, asr r8
    4df8:	6d740b00 	vldmdbvs	r4!, {d16-d15}
    4dfc:	5d010070 	stcpl	0, cr0, [r1, #-448]	; 0xfffffe40
    4e00:	000000ea 	andeq	r0, r0, sl, ror #1
    4e04:	f0040c00 			; <UNDEFINED> instruction: 0xf0040c00
    4e08:	02000000 	andeq	r0, r0, #0
    4e0c:	026f0801 	rsbeq	r0, pc, #65536	; 0x10000
    4e10:	040c0000 	streq	r0, [ip], #-0
    4e14:	000000fd 	strdeq	r0, [r0], -sp
    4e18:	0000f00d 	andeq	pc, r0, sp
    4e1c:	1c580800 	mrrcne	8, 0, r0, r8, cr0
    4e20:	1d010000 	stcne	0, cr0, [r1, #-0]
    4e24:	00006801 	andeq	r6, r0, r1, lsl #16
    4e28:	01270100 	teqeq	r7, r0, lsl #2
    4e2c:	730a0000 	movwvc	r0, #40960	; 0xa000
    4e30:	f71d0100 			; <UNDEFINED> instruction: 0xf71d0100
    4e34:	0b000000 	bleq	4e3c <__standby_start+0x4e3c>
    4e38:	01006373 	tsteq	r0, r3, ror r3
    4e3c:	0000f71f 	andeq	pc, r0, pc, lsl r7	; <UNPREDICTABLE>
    4e40:	3d080000 	stccc	0, cr0, [r8, #-0]
    4e44:	0100001c 	tsteq	r0, ip, lsl r0
    4e48:	00ea012e 	rsceq	r0, sl, lr, lsr #2
    4e4c:	5a010000 	bpl	44e54 <__standby_start+0x44e54>
    4e50:	09000001 	stmdbeq	r0, {r0}
    4e54:	00001c13 	andeq	r1, r0, r3, lsl ip
    4e58:	00ea2e01 	rsceq	r2, sl, r1, lsl #28
    4e5c:	730a0000 	movwvc	r0, #40960	; 0xa000
    4e60:	01006372 	tsteq	r0, r2, ror r3
    4e64:	0000f72e 	andeq	pc, r0, lr, lsr #14
    4e68:	6d740b00 	vldmdbvs	r4!, {d16-d15}
    4e6c:	30010070 	andcc	r0, r1, r0, ror r0
    4e70:	000000ea 	andeq	r0, r0, sl, ror #1
    4e74:	1c440800 	mcrrne	8, 0, r0, r4, cr0
    4e78:	9f010000 	svcls	0x00010000
    4e7c:	0000ea01 	andeq	lr, r0, r1, lsl #20
    4e80:	01c00100 	biceq	r0, r0, r0, lsl #2
    4e84:	6f090000 	svcvs	0x00090000
    4e88:	01000014 	tsteq	r0, r4, lsl r0
    4e8c:	00004c9f 	muleq	r0, pc, ip	; <UNPREDICTABLE>
    4e90:	1bf50900 	blne	ffd47298 <__bss_end+0xfd43c7c>
    4e94:	9f010000 	svcls	0x00010000
    4e98:	000000ea 	andeq	r0, r0, sl, ror #1
    4e9c:	001ca909 	andseq	sl, ip, r9, lsl #18
    4ea0:	4c9f0100 	ldfmis	f0, [pc], {0}
    4ea4:	0e000000 	cdpeq	0, 0, cr0, cr0, cr0, {0}
    4ea8:	00001bfc 	strdeq	r1, [r0], -ip
    4eac:	01c0a101 	biceq	sl, r0, r1, lsl #2
    4eb0:	bc0e0000 	stclt	0, cr0, [lr], {-0}
    4eb4:	0100001c 	tsteq	r0, ip, lsl r0
    4eb8:	00004ca2 	andeq	r4, r0, r2, lsr #25
    4ebc:	00690b00 	rsbeq	r0, r9, r0, lsl #22
    4ec0:	004ca301 	subeq	sl, ip, r1, lsl #6
    4ec4:	6a0b0000 	bvs	2c4ecc <__standby_start+0x2c4ecc>
    4ec8:	4ca40100 	stfmis	f0, [r4]
    4ecc:	0e000000 	cdpeq	0, 0, cr0, cr0, cr0, {0}
    4ed0:	00001bef 	andeq	r1, r0, pc, ror #23
    4ed4:	01d0a501 	bicseq	sl, r0, r1, lsl #10
    4ed8:	0f000000 	svceq	0x00000000
    4edc:	000000f0 	strdeq	r0, [r0], -r0	; <UNPREDICTABLE>
    4ee0:	000001d0 	ldrdeq	r0, [r0], -r0	; <UNPREDICTABLE>
    4ee4:	00005310 	andeq	r5, r0, r0, lsl r3
    4ee8:	0f000f00 	svceq	0x00000f00
    4eec:	000000f0 	strdeq	r0, [r0], -r0	; <UNPREDICTABLE>
    4ef0:	000001e0 	andeq	r0, r0, r0, ror #3
    4ef4:	00005310 	andeq	r5, r0, r0, lsl r3
    4ef8:	11001000 	mrsne	r1, (UNDEF: 0)
    4efc:	00001c9d 	muleq	r0, sp, ip
    4f00:	ea01ce01 	b	7870c <__standby_start+0x7870c>
    4f04:	2c000000 	stccs	0, cr0, [r0], {-0}
    4f08:	e8f00020 	ldm	r0!, {r5}^
    4f0c:	89f00020 	ldmibhi	r0!, {r5}^
    4f10:	61000015 	tstvs	r0, r5, lsl r0
    4f14:	12000002 	andne	r0, r0, #2
    4f18:	0000146f 	andeq	r1, r0, pc, ror #8
    4f1c:	0053ce01 	subseq	ip, r3, r1, lsl #28
    4f20:	15b60000 	ldrne	r0, [r6, #0]!
    4f24:	f5120000 			; <UNDEFINED> instruction: 0xf5120000
    4f28:	0100001b 	tsteq	r0, fp, lsl r0
    4f2c:	0000eace 	andeq	lr, r0, lr, asr #21
    4f30:	0015ea00 	andseq	lr, r5, r0, lsl #20
    4f34:	1ca91200 	sfmne	f1, 4, [r9]
    4f38:	ce010000 	cdpgt	0, 0, cr0, cr1, cr0, {0}
    4f3c:	0000004c 	andeq	r0, r0, ip, asr #32
    4f40:	00001608 	andeq	r1, r0, r8, lsl #12
    4f44:	001bfc13 	andseq	pc, fp, r3, lsl ip	; <UNPREDICTABLE>
    4f48:	c0d00100 	sbcsgt	r0, r0, r0, lsl #2
    4f4c:	02000001 	andeq	r0, r0, #1
    4f50:	69145091 	ldmdbvs	r4, {r0, r4, r7, ip, lr}
    4f54:	4cd10100 	ldfmie	f0, [r1], {0}
    4f58:	26000000 	strcs	r0, [r0], -r0
    4f5c:	14000016 	strne	r0, [r0], #-22
    4f60:	d201006a 	andle	r0, r1, #106	; 0x6a
    4f64:	0000004c 	andeq	r0, r0, ip, asr #32
    4f68:	0000164f 	andeq	r1, r0, pc, asr #12
    4f6c:	001bef13 	andseq	lr, fp, r3, lsl pc
    4f70:	d0d30100 	sbcsle	r0, r3, r0, lsl #2
    4f74:	03000001 	movweq	r0, #1
    4f78:	007fbc91 			; <UNDEFINED> instruction: 0x007fbc91
    4f7c:	001c3115 	andseq	r3, ip, r5, lsl r1
    4f80:	016a0100 	cmneq	sl, r0, lsl #2
    4f84:	00004101 	andeq	r4, r0, r1, lsl #2
    4f88:	0020e800 	eoreq	lr, r0, r0, lsl #16
    4f8c:	002190f0 	strdeq	r9, [r1], -r0	; <UNPREDICTABLE>
    4f90:	001663f0 			; <UNDEFINED> instruction: 0x001663f0
    4f94:	0002f900 	andeq	pc, r2, r0, lsl #18
    4f98:	1bf51600 	blne	ffd4a7a0 <__bss_end+0xfd47184>
    4f9c:	6a010000 	bvs	44fa4 <__standby_start+0x44fa4>
    4fa0:	0000ea01 	andeq	lr, r0, r1, lsl #20
    4fa4:	00168f00 	andseq	r8, r6, r0, lsl #30
    4fa8:	656c1700 	strbvs	r1, [ip, #-1792]!	; 0x700
    4fac:	6a01006e 	bvs	4516c <__standby_start+0x4516c>
    4fb0:	00004101 	andeq	r4, r0, r1, lsl #2
    4fb4:	0016ad00 	andseq	sl, r6, r0, lsl #26
    4fb8:	1c371600 	ldcne	6, cr1, [r7], #-0
    4fbc:	6a010000 	bvs	44fc4 <__standby_start+0x44fc4>
    4fc0:	00004101 	andeq	r4, r0, r1, lsl #2
    4fc4:	0016cb00 	andseq	ip, r6, r0, lsl #22
    4fc8:	1c951800 	ldcne	8, cr1, [r5], {0}
    4fcc:	6e010000 	cdpvs	0, 0, cr0, cr1, cr0, {0}
    4fd0:	0001d001 	andeq	sp, r1, r1
    4fd4:	5c910200 	lfmpl	f0, 4, [r1], {0}
    4fd8:	0000ac19 	andeq	sl, r0, r9, lsl ip
    4fdc:	00212400 	eoreq	r2, r1, r0, lsl #8
    4fe0:	000298f0 	strdeq	r9, [r2], -r0
    4fe4:	01720100 	cmneq	r2, r0, lsl #2
    4fe8:	0000d31a 	andeq	sp, r0, sl, lsl r3
    4fec:	0016e900 	andseq	lr, r6, r0, lsl #18
    4ff0:	00c81a00 	sbceq	r1, r8, r0, lsl #20
    4ff4:	171f0000 	ldrne	r0, [pc, -r0]
    4ff8:	bd1a0000 	ldclt	0, cr0, [sl, #-0]
    4ffc:	41000000 	mrsmi	r0, (UNDEF: 0)
    5000:	1b000017 	blne	5064 <__standby_start+0x5064>
    5004:	000002b0 			; <UNDEFINED> instruction: 0x000002b0
    5008:	0000de1c 	andeq	sp, r0, ip, lsl lr
    500c:	0017a100 	andseq	sl, r7, r0, lsl #2
    5010:	00000000 	andeq	r0, r0, r0
    5014:	00015a1d 	andeq	r5, r1, sp, lsl sl
    5018:	00219000 	eoreq	r9, r1, r0
    501c:	002278f0 	strdeq	r7, [r2], -r0	; <UNPREDICTABLE>
    5020:	0017b4f0 			; <UNDEFINED> instruction: 0x0017b4f0
    5024:	00035200 	andeq	r5, r3, r0, lsl #4
    5028:	016b1a00 	cmneq	fp, r0, lsl #20
    502c:	17e10000 	strbne	r0, [r1, r0]!
    5030:	761a0000 	ldrvc	r0, [sl], -r0
    5034:	15000001 	strne	r0, [r0, #-1]
    5038:	1e000018 	mcrne	0, 0, r0, cr0, cr8, {0}
    503c:	0000018c 	andeq	r0, r0, ip, lsl #3
    5040:	1c589102 	ldfnep	f1, [r8], {2}
    5044:	00000197 	muleq	r0, r7, r1
    5048:	00001833 	andeq	r1, r0, r3, lsr r8
    504c:	0001a21c 	andeq	sl, r1, ip, lsl r2
    5050:	00185e00 	andseq	r5, r8, r0, lsl #28
    5054:	01ab1c00 			; <UNDEFINED> instruction: 0x01ab1c00
    5058:	18930000 	ldmne	r3, {}	; <UNPREDICTABLE>
    505c:	b41e0000 	ldrlt	r0, [lr], #-0
    5060:	02000001 	andeq	r0, r0, #1
    5064:	811f4491 			; <UNDEFINED> instruction: 0x811f4491
    5068:	0a000001 	beq	5074 <__standby_start+0x5074>
    506c:	a2012000 	andge	r2, r1, #0
    5070:	0100001c 	tsteq	r0, ip, lsl r0
    5074:	41010104 	tstmi	r1, r4, lsl #2
    5078:	78000000 	stmdavc	r0, {}	; <UNPREDICTABLE>
    507c:	48f00022 	ldmmi	r0!, {r1, r5}^
    5080:	b2f00025 	rscslt	r0, r0, #37	; 0x25
    5084:	83000018 	movwhi	r0, #24
    5088:	16000005 	strne	r0, [r0], -r5
    508c:	00001c51 	andeq	r1, r0, r1, asr ip
    5090:	f7010401 			; <UNDEFINED> instruction: 0xf7010401
    5094:	eb000000 	bl	509c <__standby_start+0x509c>
    5098:	21000018 	tstcs	r0, r8, lsl r0
    509c:	001bea18 	andseq	lr, fp, r8, lsl sl
    50a0:	01060100 	mrseq	r0, (UNDEF: 22)
    50a4:	000000a1 	andeq	r0, r0, r1, lsr #1
    50a8:	184c9102 	stmdane	ip, {r1, r8, ip, pc}^
    50ac:	00001bf5 	strdeq	r1, [r0], -r5
    50b0:	c0010701 	andgt	r0, r1, r1, lsl #14
    50b4:	03000001 	movweq	r0, #1
    50b8:	227fbc91 	rsbscs	fp, pc, #37120	; 0x9100
    50bc:	00001c12 	andeq	r1, r0, r2, lsl ip
    50c0:	ea010801 	b	470cc <__standby_start+0x470cc>
    50c4:	2e000000 	cdpcs	0, 0, cr0, cr0, cr0, {0}
    50c8:	22000019 	andcs	r0, r0, #25
    50cc:	00001bde 	ldrdeq	r1, [r0], -lr
    50d0:	ea010901 	b	474dc <__standby_start+0x474dc>
    50d4:	a0000000 	andge	r0, r0, r0
    50d8:	22000019 	andcs	r0, r0, #25
    50dc:	00001c37 	andeq	r1, r0, r7, lsr ip
    50e0:	41010a01 	tstmi	r1, r1, lsl #20
    50e4:	b6000000 	strlt	r0, [r0], -r0
    50e8:	23000019 	movwcs	r0, #25
    50ec:	006e656c 	rsbeq	r6, lr, ip, ror #10
    50f0:	41010b01 	tstmi	r1, r1, lsl #22
    50f4:	d4000000 	strle	r0, [r0], #-0
    50f8:	24000019 	strcs	r0, [r0], #-25
    50fc:	00000102 	andeq	r0, r0, r2, lsl #2
    5100:	f0002398 			; <UNDEFINED> instruction: 0xf0002398
    5104:	f00023b8 			; <UNDEFINED> instruction: 0xf00023b8
    5108:	11013c01 	tstne	r1, r1, lsl #24
    510c:	1a000004 	bne	5124 <__standby_start+0x5124>
    5110:	00000113 	andeq	r0, r0, r3, lsl r1
    5114:	00001a2a 	andeq	r1, r0, sl, lsr #20
    5118:	00239825 	eoreq	r9, r3, r5, lsr #16
    511c:	0023b8f0 	strdeq	fp, [r3], -r0	; <UNPREDICTABLE>
    5120:	011c1cf0 			; <UNDEFINED> instruction: 0x011c1cf0
    5124:	1a3d0000 	bne	f4512c <__standby_start+0xf4512c>
    5128:	00000000 	andeq	r0, r0, r0
    512c:	00012724 	andeq	r2, r1, r4, lsr #14
    5130:	0023d400 	eoreq	sp, r3, r0, lsl #8
    5134:	0023e4f0 	strdeq	lr, [r3], -r0	; <UNPREDICTABLE>
    5138:	013e01f0 			; <UNDEFINED> instruction: 0x013e01f0
    513c:	0000044b 	andeq	r0, r0, fp, asr #8
    5140:	0001431a 	andeq	r4, r1, sl, lsl r3
    5144:	001a6800 	andseq	r6, sl, r0, lsl #16
    5148:	01381a00 	teqeq	r8, r0, lsl #20
    514c:	1a7b0000 	bne	1ec5154 <__standby_start+0x1ec5154>
    5150:	d4250000 	strtle	r0, [r5], #-0
    5154:	e4f00023 	ldrbt	r0, [r0], #35	; 0x23
    5158:	1cf00023 	ldclne	0, cr0, [r0], #140	; 0x8c
    515c:	0000014e 	andeq	r0, r0, lr, asr #2
    5160:	00001a99 	muleq	r0, r9, sl
    5164:	27240000 	strcs	r0, [r4, -r0]!
    5168:	04000001 	streq	r0, [r0], #-1
    516c:	14f00024 	ldrbtne	r0, [r0], #36	; 0x24
    5170:	01f00024 	mvnseq	r0, r4, lsr #32
    5174:	0485014c 	streq	r0, [r5], #332	; 0x14c
    5178:	431a0000 	tstmi	sl, #0
    517c:	ac000001 	stcge	0, cr0, [r0], {1}
    5180:	1a00001a 	bne	51f0 <__standby_start+0x51f0>
    5184:	00000138 	andeq	r0, r0, r8, lsr r1
    5188:	00001ac2 	andeq	r1, r0, r2, asr #21
    518c:	00240425 	eoreq	r0, r4, r5, lsr #8
    5190:	002414f0 	strdeq	r1, [r4], -r0	; <UNPREDICTABLE>
    5194:	014e1cf0 	strdeq	r1, [lr, #-192]	; 0xffffff40
    5198:	1ae00000 	bne	ff8051a0 <__bss_end+0xf801b84>
    519c:	00000000 	andeq	r0, r0, r0
    51a0:	00010224 	andeq	r0, r1, r4, lsr #4
    51a4:	00241400 	eoreq	r1, r4, r0, lsl #8
    51a8:	002434f0 	strdeq	r3, [r4], -r0	; <UNPREDICTABLE>
    51ac:	014d01f0 	strdeq	r0, [sp, #-16]
    51b0:	000004b2 			; <UNDEFINED> instruction: 0x000004b2
    51b4:	00011326 	andeq	r1, r1, r6, lsr #6
    51b8:	24142500 	ldrcs	r2, [r4], #-1280	; 0x500
    51bc:	2434f000 	ldrtcs	pc, [r4], #-0	; <UNPREDICTABLE>
    51c0:	1c1cf000 	ldcne	0, cr15, [ip], {-0}
    51c4:	f3000001 	vhadd.u8	d0, d0, d1
    51c8:	0000001a 	andeq	r0, r0, sl, lsl r0
    51cc:	01022400 	tsteq	r2, r0, lsl #8
    51d0:	24580000 	ldrbcs	r0, [r8], #-0
    51d4:	2478f000 	ldrbtcs	pc, [r8], #-0	; <UNPREDICTABLE>
    51d8:	3201f000 	andcc	pc, r1, #0
    51dc:	0004e301 	andeq	lr, r4, r1, lsl #6
    51e0:	01131a00 	tsteq	r3, r0, lsl #20
    51e4:	1b210000 	blne	8451ec <__standby_start+0x8451ec>
    51e8:	58250000 	stmdapl	r5!, {}	; <UNPREDICTABLE>
    51ec:	78f00024 	ldmvc	r0!, {r2, r5}^
    51f0:	1cf00024 	ldclne	0, cr0, [r0], #144	; 0x90
    51f4:	0000011c 	andeq	r0, r0, ip, lsl r1
    51f8:	00001b34 	andeq	r1, r0, r4, lsr fp
    51fc:	27240000 	strcs	r0, [r4, -r0]!
    5200:	94000001 	strls	r0, [r0], #-1
    5204:	a4f00024 	ldrbtge	r0, [r0], #36	; 0x24
    5208:	01f00024 	mvnseq	r0, r4, lsr #32
    520c:	051d0134 	ldreq	r0, [sp, #-308]	; 0x134
    5210:	431a0000 	tstmi	sl, #0
    5214:	5f000001 	svcpl	0x00000001
    5218:	1a00001b 	bne	528c <__standby_start+0x528c>
    521c:	00000138 	andeq	r0, r0, r8, lsr r1
    5220:	00001b72 	andeq	r1, r0, r2, ror fp
    5224:	00249425 	eoreq	r9, r4, r5, lsr #8
    5228:	0024a4f0 	strdeq	sl, [r4], -r0	; <UNPREDICTABLE>
    522c:	014e1cf0 	strdeq	r1, [lr, #-192]	; 0xffffff40
    5230:	1b900000 	blne	fe405238 <__bss_end+0xe401c1c>
    5234:	00000000 	andeq	r0, r0, r0
    5238:	00010224 	andeq	r0, r1, r4, lsr #4
    523c:	0024f000 	eoreq	pc, r4, r0
    5240:	002510f0 	strdeq	r1, [r5], -r0	; <UNPREDICTABLE>
    5244:	012701f0 	strdeq	r0, [r7, -r0]!	; <UNPREDICTABLE>
    5248:	0000054c 	andeq	r0, r0, ip, asr #10
    524c:	00011327 	andeq	r1, r1, r7, lsr #6
    5250:	25560100 	ldrbcs	r0, [r6, #-256]	; 0x100
    5254:	f00024f0 			; <UNDEFINED> instruction: 0xf00024f0
    5258:	f0002510 			; <UNDEFINED> instruction: 0xf0002510
    525c:	00011c1c 	andeq	r1, r1, ip, lsl ip
    5260:	001ba300 	andseq	sl, fp, r0, lsl #6
    5264:	28000000 	stmdacs	r0, {}	; <UNPREDICTABLE>
    5268:	00000127 	andeq	r0, r0, r7, lsr #2
    526c:	f000252c 			; <UNDEFINED> instruction: 0xf000252c
    5270:	f000253c 			; <UNDEFINED> instruction: 0xf000253c
    5274:	1a012901 	bne	4f680 <__standby_start+0x4f680>
    5278:	00000143 	andeq	r0, r0, r3, asr #2
    527c:	00001bce 	andeq	r1, r0, lr, asr #23
    5280:	0001381a 	andeq	r3, r1, sl, lsl r8
    5284:	001be100 	andseq	lr, fp, r0, lsl #2
    5288:	252c2500 	strcs	r2, [ip, #-1280]!	; 0x500
    528c:	253cf000 	ldrcs	pc, [ip, #-0]!
    5290:	4e1cf000 	cdpmi	0, 1, cr15, cr12, cr0, {0}
    5294:	ff000001 			; <UNDEFINED> instruction: 0xff000001
    5298:	0000001b 	andeq	r0, r0, fp, lsl r0
    529c:	01200000 	teqeq	r0, r0
    52a0:	00001caf 	andeq	r1, r0, pc, lsr #25
    52a4:	01017901 	tsteq	r1, r1, lsl #18
    52a8:	00000041 	andeq	r0, r0, r1, asr #32
    52ac:	f0002548 			; <UNDEFINED> instruction: 0xf0002548
    52b0:	f0002818 			; <UNDEFINED> instruction: 0xf0002818
    52b4:	00001c12 	andeq	r1, r0, r2, lsl ip
    52b8:	000007b4 			; <UNDEFINED> instruction: 0x000007b4
    52bc:	001c5116 	andseq	r5, ip, r6, lsl r1
    52c0:	01790100 	cmneq	r9, r0, lsl #2
    52c4:	000000f7 	strdeq	r0, [r0], -r7
    52c8:	00001c4b 	andeq	r1, r0, fp, asr #24
    52cc:	1bea1821 	blne	ffa8b358 <__bss_end+0xfa87d3c>
    52d0:	7b010000 	blvc	452d8 <__standby_start+0x452d8>
    52d4:	0000a101 	andeq	sl, r0, r1, lsl #2
    52d8:	4c910200 	lfmmi	f0, 4, [r1], {0}
    52dc:	001bf518 	andseq	pc, fp, r8, lsl r5	; <UNPREDICTABLE>
    52e0:	017c0100 	cmneq	ip, r0, lsl #2
    52e4:	000001c0 	andeq	r0, r0, r0, asr #3
    52e8:	7fbc9103 	svcvc	0x00bc9103
    52ec:	001c1222 	andseq	r1, ip, r2, lsr #4
    52f0:	017d0100 	cmneq	sp, r0, lsl #2
    52f4:	000000ea 	andeq	r0, r0, sl, ror #1
    52f8:	00001c8e 	andeq	r1, r0, lr, lsl #25
    52fc:	001bde22 	andseq	sp, fp, r2, lsr #28
    5300:	017e0100 	cmneq	lr, r0, lsl #2
    5304:	000000ea 	andeq	r0, r0, sl, ror #1
    5308:	00001d00 	andeq	r1, r0, r0, lsl #26
    530c:	001c3722 	andseq	r3, ip, r2, lsr #14
    5310:	017f0100 	cmneq	pc, r0, lsl #2
    5314:	00000041 	andeq	r0, r0, r1, asr #32
    5318:	00001d16 	andeq	r1, r0, r6, lsl sp
    531c:	6e656c23 	cdpvs	12, 6, cr6, cr5, cr3, {1}
    5320:	01800100 	orreq	r0, r0, r0, lsl #2
    5324:	00000041 	andeq	r0, r0, r1, asr #32
    5328:	00001d34 	andeq	r1, r0, r4, lsr sp
    532c:	00010224 	andeq	r0, r1, r4, lsr #4
    5330:	00266800 	eoreq	r6, r6, r0, lsl #16
    5334:	002688f0 	strdeq	r8, [r6], -r0	; <UNPREDICTABLE>
    5338:	01b101f0 			; <UNDEFINED> instruction: 0x01b101f0
    533c:	00000642 	andeq	r0, r0, r2, asr #12
    5340:	0001131a 	andeq	r1, r1, sl, lsl r3
    5344:	001d8a00 	andseq	r8, sp, r0, lsl #20
    5348:	26682500 	strbtcs	r2, [r8], -r0, lsl #10
    534c:	2688f000 	strcs	pc, [r8], r0
    5350:	1c1cf000 	ldcne	0, cr15, [ip], {-0}
    5354:	9d000001 	stcls	0, cr0, [r0, #-4]
    5358:	0000001d 	andeq	r0, r0, sp, lsl r0
    535c:	01272400 	teqeq	r7, r0, lsl #8
    5360:	26a40000 	strtcs	r0, [r4], r0
    5364:	26b4f000 	ldrtcs	pc, [r4], r0	; <UNPREDICTABLE>
    5368:	b301f000 	movwlt	pc, #4096	; 0x1000	; <UNPREDICTABLE>
    536c:	00067c01 	andeq	r7, r6, r1, lsl #24
    5370:	01431a00 	cmpeq	r3, r0, lsl #20
    5374:	1dc80000 	stclne	0, cr0, [r8]
    5378:	381a0000 	ldmdacc	sl, {}	; <UNPREDICTABLE>
    537c:	db000001 	blle	5388 <__standby_start+0x5388>
    5380:	2500001d 	strcs	r0, [r0, #-29]
    5384:	f00026a4 			; <UNDEFINED> instruction: 0xf00026a4
    5388:	f00026b4 			; <UNDEFINED> instruction: 0xf00026b4
    538c:	00014e1c 	andeq	r4, r1, ip, lsl lr
    5390:	001df900 	andseq	pc, sp, r0, lsl #18
    5394:	24000000 	strcs	r0, [r0], #-0
    5398:	00000127 	andeq	r0, r0, r7, lsr #2
    539c:	f00026d4 			; <UNDEFINED> instruction: 0xf00026d4
    53a0:	f00026e4 			; <UNDEFINED> instruction: 0xf00026e4
    53a4:	b601c101 	strlt	ip, [r1], -r1, lsl #2
    53a8:	1a000006 	bne	53c8 <__standby_start+0x53c8>
    53ac:	00000143 	andeq	r0, r0, r3, asr #2
    53b0:	00001e0c 	andeq	r1, r0, ip, lsl #28
    53b4:	0001381a 	andeq	r3, r1, sl, lsl r8
    53b8:	001e2200 	andseq	r2, lr, r0, lsl #4
    53bc:	26d42500 	ldrbcs	r2, [r4], r0, lsl #10
    53c0:	26e4f000 	strbtcs	pc, [r4], r0	; <UNPREDICTABLE>
    53c4:	4e1cf000 	cdpmi	0, 1, cr15, cr12, cr0, {0}
    53c8:	40000001 	andmi	r0, r0, r1
    53cc:	0000001e 	andeq	r0, r0, lr, lsl r0
    53d0:	01022400 	tsteq	r2, r0, lsl #8
    53d4:	26e40000 	strbtcs	r0, [r4], r0
    53d8:	2704f000 	strcs	pc, [r4, -r0]
    53dc:	c201f000 	andgt	pc, r1, #0
    53e0:	0006e301 	andeq	lr, r6, r1, lsl #6
    53e4:	01132600 	tsteq	r3, r0, lsl #12
    53e8:	e4250000 	strt	r0, [r5], #-0
    53ec:	04f00026 	ldrbteq	r0, [r0], #38	; 0x26
    53f0:	1cf00027 	ldclne	0, cr0, [r0], #156	; 0x9c
    53f4:	0000011c 	andeq	r0, r0, ip, lsl r1
    53f8:	00001e53 	andeq	r1, r0, r3, asr lr
    53fc:	02240000 	eoreq	r0, r4, #0
    5400:	28000001 	stmdacs	r0, {r0}
    5404:	48f00027 	ldmmi	r0!, {r0, r1, r2, r5}^
    5408:	01f00027 	mvnseq	r0, r7, lsr #32
    540c:	071401a7 	ldreq	r0, [r4, -r7, lsr #3]
    5410:	131a0000 	tstne	sl, #0
    5414:	81000001 	tsthi	r0, r1
    5418:	2500001e 	strcs	r0, [r0, #-30]
    541c:	f0002728 			; <UNDEFINED> instruction: 0xf0002728
    5420:	f0002748 			; <UNDEFINED> instruction: 0xf0002748
    5424:	00011c1c 	andeq	r1, r1, ip, lsl ip
    5428:	001e9400 	andseq	r9, lr, r0, lsl #8
    542c:	24000000 	strcs	r0, [r0], #-0
    5430:	00000127 	andeq	r0, r0, r7, lsr #2
    5434:	f0002764 			; <UNDEFINED> instruction: 0xf0002764
    5438:	f0002774 			; <UNDEFINED> instruction: 0xf0002774
    543c:	4e01a901 	cdpmi	9, 0, cr10, cr1, cr1, {0}
    5440:	1a000007 	bne	5464 <__standby_start+0x5464>
    5444:	00000143 	andeq	r0, r0, r3, asr #2
    5448:	00001ebf 			; <UNDEFINED> instruction: 0x00001ebf
    544c:	0001381a 	andeq	r3, r1, sl, lsl r8
    5450:	001ed200 	andseq	sp, lr, r0, lsl #4
    5454:	27642500 	strbcs	r2, [r4, -r0, lsl #10]!
    5458:	2774f000 	ldrbcs	pc, [r4, -r0]!	; <UNPREDICTABLE>
    545c:	4e1cf000 	cdpmi	0, 1, cr15, cr12, cr0, {0}
    5460:	f0000001 			; <UNDEFINED> instruction: 0xf0000001
    5464:	0000001e 	andeq	r0, r0, lr, lsl r0
    5468:	01022400 	tsteq	r2, r0, lsl #8
    546c:	27c00000 	strbcs	r0, [r0, r0]
    5470:	27e0f000 	strbcs	pc, [r0, r0]!	; <UNPREDICTABLE>
    5474:	9c01f000 	stcls	0, cr15, [r1], {-0}
    5478:	00077d01 	andeq	r7, r7, r1, lsl #26
    547c:	01132700 	tsteq	r3, r0, lsl #14
    5480:	56010000 	strpl	r0, [r1], -r0
    5484:	0027c025 	eoreq	ip, r7, r5, lsr #32
    5488:	0027e0f0 	strdeq	lr, [r7], -r0	; <UNPREDICTABLE>
    548c:	011c1cf0 			; <UNDEFINED> instruction: 0x011c1cf0
    5490:	1f030000 	svcne	0x00030000
    5494:	00000000 	andeq	r0, r0, r0
    5498:	00012728 	andeq	r2, r1, r8, lsr #14
    549c:	0027fc00 	eoreq	pc, r7, r0, lsl #24
    54a0:	00280cf0 	strdeq	r0, [r8], -r0	; <UNPREDICTABLE>
    54a4:	019e01f0 			; <UNDEFINED> instruction: 0x019e01f0
    54a8:	0001431a 	andeq	r4, r1, sl, lsl r3
    54ac:	001f2e00 	andseq	r2, pc, r0, lsl #28
    54b0:	01381a00 	teqeq	r8, r0, lsl #20
    54b4:	1f410000 	svcne	0x00410000
    54b8:	fc250000 	stc2	0, cr0, [r5], #-0
    54bc:	0cf00027 	ldcleq	0, cr0, [r0], #156	; 0x9c
    54c0:	1cf00028 	ldclne	0, cr0, [r0], #160	; 0xa0
    54c4:	0000014e 	andeq	r0, r0, lr, asr #2
    54c8:	00001f5f 	andeq	r1, r0, pc, asr pc
    54cc:	0f000000 	svceq	0x00000000
    54d0:	000000f0 	strdeq	r0, [r0], -r0	; <UNPREDICTABLE>
    54d4:	000007c4 	andeq	r0, r0, r4, asr #15
    54d8:	00005310 	andeq	r5, r0, r0, lsl r3
    54dc:	1800ff00 	stmdane	r0, {r8, r9, sl, fp, ip, sp, lr, pc}
    54e0:	00001c02 	andeq	r1, r0, r2, lsl #24
    54e4:	b4010301 	strlt	r0, [r1], #-769	; 0x301
    54e8:	05000007 	streq	r0, [r0, #-7]
    54ec:	0034c403 	eorseq	ip, r4, r3, lsl #8
    54f0:	007b00f0 	ldrshteq	r0, [fp], #-0
    54f4:	00020000 	andeq	r0, r2, r0
    54f8:	0000159f 	muleq	r0, pc, r5	; <UNPREDICTABLE>
    54fc:	14df0104 	ldrbne	r0, [pc], #260	; 5504 <__standby_start+0x5504>
    5500:	28180000 	ldmdacs	r8, {}	; <UNPREDICTABLE>
    5504:	29f4f000 	ldmibcs	r4!, {ip, sp, lr, pc}^
    5508:	7261f000 	rsbvc	pc, r1, #0
    550c:	612f6863 	teqvs	pc, r3, ror #16
    5510:	6d2f6d72 	stcvs	13, cr6, [pc, #-456]!	; 5350 <__standby_start+0x5350>
    5514:	2d686361 	stclcs	3, cr6, [r8, #-388]!	; 0xfffffe7c
    5518:	786e7573 	stmdavc	lr!, {r0, r1, r4, r5, r6, r8, sl, ip, sp, lr}^
    551c:	6d702f69 	ldclvs	15, cr2, [r0, #-420]!	; 0xfffffe5c
    5520:	6174732f 	cmnvs	r4, pc, lsr #6
    5524:	7962646e 	stmdbvc	r2!, {r1, r2, r3, r5, r6, sl, sp, lr}^
    5528:	2e2f2e2f 	cdpcs	14, 2, cr2, cr15, cr15, {1}
    552c:	656d2f2e 	strbvs	r2, [sp, #-3886]!	; 0xf2e
    5530:	69645f6d 	stmdbvs	r4!, {r0, r2, r3, r5, r6, r8, r9, sl, fp, ip, lr}^
    5534:	62696c76 	rsbvs	r6, r9, #30208	; 0x7600
    5538:	2f00532e 	svccs	0x0000532e
    553c:	746f6f72 	strbtvc	r6, [pc], #-3954	; 5544 <__standby_start+0x5544>
    5540:	726f772f 	rsbvc	r7, pc, #12320768	; 0xbc0000
    5544:	69732f6b 	ldmdbvs	r3!, {r0, r1, r3, r5, r6, r8, r9, sl, fp, sp}^
    5548:	6e696c6e 	cdpvs	12, 6, cr6, cr9, cr14, {3}
    554c:	33612f78 	cmncc	r1, #480	; 0x1e0
    5550:	696c2f33 	stmdbvs	ip!, {r0, r1, r4, r5, r8, r9, sl, fp, sp}^
    5554:	65656863 	strbvs	r6, [r5, #-2147]!	; 0x863
    5558:	6e696c2f 	cdpvs	12, 6, cr6, cr9, cr15, {1}
    555c:	332d7875 	teqcc	sp, #7667712	; 0x750000
    5560:	4700342e 	strmi	r3, [r0, -lr, lsr #8]
    5564:	4120554e 	teqmi	r0, lr, asr #10
    5568:	2e322053 	mrccs	0, 1, r2, cr2, cr3, {2}
    556c:	01003232 	tsteq	r0, r2, lsr r2
    5570:	0000ef80 	andeq	lr, r0, r0, lsl #31
    5574:	b3000200 	movwlt	r0, #512	; 0x200
    5578:	04000015 	streq	r0, [r0], #-21
    557c:	0001fd01 	andeq	pc, r1, r1, lsl #26
    5580:	1cfe0100 	ldfnee	f0, [lr]
    5584:	01400000 	mrseq	r0, (UNDEF: 64)
    5588:	29f40000 	ldmibcs	r4!, {}^	; <UNPREDICTABLE>
    558c:	2a4cf000 	bcs	1341594 <__standby_start+0x1341594>
    5590:	158ef000 	strne	pc, [lr]
    5594:	01020000 	mrseq	r0, (UNDEF: 2)
    5598:	00026806 	andeq	r6, r2, r6, lsl #16
    559c:	08010200 	stmdaeq	r1, {r9}
    55a0:	00000266 	andeq	r0, r0, r6, ror #4
    55a4:	b8050202 	stmdalt	r5, {r1, r9}
    55a8:	02000000 	andeq	r0, r0, #0
    55ac:	03ea0702 	mvneq	r0, #524288	; 0x80000
    55b0:	43030000 	movwmi	r0, #12288	; 0x3000
    55b4:	0200000b 	andeq	r0, r0, #11
    55b8:	00004c12 	andeq	r4, r0, r2, lsl ip
    55bc:	05040400 	streq	r0, [r4, #-1024]	; 0x400
    55c0:	00746e69 	rsbseq	r6, r4, r9, ror #28
    55c4:	00038e03 	andeq	r8, r3, r3, lsl #28
    55c8:	5e130200 	cdppl	2, 1, cr0, cr3, cr0, {0}
    55cc:	02000000 	andeq	r0, r0, #0
    55d0:	02f80704 	rscseq	r0, r8, #1048576	; 0x100000
    55d4:	08020000 	stmdaeq	r2, {}	; <UNPREDICTABLE>
    55d8:	0001dc05 	andeq	sp, r1, r5, lsl #24
    55dc:	07080200 	streq	r0, [r8, -r0, lsl #4]
    55e0:	000002ee 	andeq	r0, r0, lr, ror #5
    55e4:	f3070402 	vshl.u8	d0, d2, d7
    55e8:	05000002 	streq	r0, [r0, #-2]
    55ec:	001cc501 	andseq	ip, ip, r1, lsl #10
    55f0:	01030100 	mrseq	r0, (UNDEF: 19)
    55f4:	f00029f4 			; <UNDEFINED> instruction: 0xf00029f4
    55f8:	f0002a00 			; <UNDEFINED> instruction: 0xf0002a00
    55fc:	06007d02 	streq	r7, [r0], -r2, lsl #26
    5600:	001cea01 	andseq	lr, ip, r1, lsl #20
    5604:	01080100 	mrseq	r0, (UNDEF: 24)
    5608:	00000053 	andeq	r0, r0, r3, asr r0
    560c:	f0002a00 			; <UNDEFINED> instruction: 0xf0002a00
    5610:	f0002a4c 			; <UNDEFINED> instruction: 0xf0002a4c
    5614:	07007d02 	streq	r7, [r0, -r2, lsl #26]
    5618:	00001ce1 	andeq	r1, r0, r1, ror #25
    561c:	00530801 	subseq	r0, r3, r1, lsl #16
    5620:	1f720000 	svcne	0x00720000
    5624:	d8070000 	stmdale	r7, {}	; <UNPREDICTABLE>
    5628:	0100001c 	tsteq	r0, ip, lsl r0
    562c:	00005308 	andeq	r5, r0, r8, lsl #6
    5630:	001f8500 	andseq	r8, pc, r0, lsl #10
    5634:	1cf70800 	ldclne	8, cr0, [r7]
    5638:	0a010000 	beq	45640 <__standby_start+0x45640>
    563c:	00000053 	andeq	r0, r0, r3, asr r0
    5640:	00001f98 	muleq	r0, r8, pc	; <UNPREDICTABLE>
    5644:	001cd008 	andseq	sp, ip, r8
    5648:	530b0100 	movwpl	r0, #45312	; 0xb100
    564c:	d0000000 	andle	r0, r0, r0
    5650:	0800001f 	stmdaeq	r0, {r0, r1, r2, r3, r4}
    5654:	00001028 	andeq	r1, r0, r8, lsr #32
    5658:	00410c01 	subeq	r0, r1, r1, lsl #24
    565c:	1ffa0000 	svcne	0x00fa0000
    5660:	00000000 	andeq	r0, r0, r0
    5664:	000001dc 	ldrdeq	r0, [r0], -ip
    5668:	16340002 	ldrtne	r0, [r4], -r2
    566c:	01040000 	mrseq	r0, (UNDEF: 4)
    5670:	000001fd 	strdeq	r0, [r0], -sp
    5674:	001d4b01 	andseq	r4, sp, r1, lsl #22
    5678:	00014000 	andeq	r4, r1, r0
    567c:	002a4c00 	eoreq	r4, sl, r0, lsl #24
    5680:	002bd8f0 	strdeq	sp, [fp], -r0	; <UNPREDICTABLE>
    5684:	001616f0 			; <UNDEFINED> instruction: 0x001616f0
    5688:	06010200 	streq	r0, [r1], -r0, lsl #4
    568c:	00000268 	andeq	r0, r0, r8, ror #4
    5690:	66080102 	strvs	r0, [r8], -r2, lsl #2
    5694:	02000002 	andeq	r0, r0, #2
    5698:	00b80502 	adcseq	r0, r8, r2, lsl #10
    569c:	02020000 	andeq	r0, r2, #0
    56a0:	0003ea07 	andeq	lr, r3, r7, lsl #20
    56a4:	0b430300 	bleq	10c62ac <__standby_start+0x10c62ac>
    56a8:	12020000 	andne	r0, r2, #0
    56ac:	0000004c 	andeq	r0, r0, ip, asr #32
    56b0:	69050404 	stmdbvs	r5, {r2, sl}
    56b4:	0300746e 	movweq	r7, #1134	; 0x46e
    56b8:	0000038e 	andeq	r0, r0, lr, lsl #7
    56bc:	005e1302 	subseq	r1, lr, r2, lsl #6
    56c0:	04020000 	streq	r0, [r2], #-0
    56c4:	0002f807 	andeq	pc, r2, r7, lsl #16
    56c8:	05080200 	streq	r0, [r8, #-512]	; 0x200
    56cc:	000001dc 	ldrdeq	r0, [r0], -ip
    56d0:	ee070802 	cdp	8, 0, cr0, cr7, cr2, {0}
    56d4:	05000002 	streq	r0, [r0, #-2]
    56d8:	00000053 	andeq	r0, r0, r3, asr r0
    56dc:	00011106 	andeq	r1, r1, r6, lsl #2
    56e0:	18030400 	stmdane	r3, {sl}
    56e4:	000000ab 	andeq	r0, r0, fp, lsr #1
    56e8:	00041707 	andeq	r1, r4, r7, lsl #14
    56ec:	29073200 	stmdbcs	r7, {r9, ip, sp}
    56f0:	33000004 	movwcc	r0, #4
    56f4:	0000fd07 	andeq	pc, r0, r7, lsl #26
    56f8:	fd070000 	stc2	0, cr0, [r7, #-0]
    56fc:	3e000003 	cdpcc	0, 0, cr0, cr0, cr3, {0}
    5700:	0003d807 	andeq	sp, r3, r7, lsl #16
    5704:	0700c000 	streq	ip, [r0, -r0]
    5708:	000004d3 	ldrdeq	r0, [r0], -r3
    570c:	020000d1 	andeq	r0, r0, #209	; 0xd1
    5710:	02f30704 	rscseq	r0, r3, #1048576	; 0x100000
    5714:	04080000 	streq	r0, [r8], #-0
    5718:	1d820109 	stfnes	f0, [r2, #36]	; 0x24
    571c:	22010000 	andcs	r0, r1, #0
    5720:	00004101 	andeq	r4, r0, r1, lsl #2
    5724:	002a4c00 	eoreq	r4, sl, r0, lsl #24
    5728:	002adcf0 	strdeq	sp, [sl], -r0	; <UNPREDICTABLE>
    572c:	002024f0 	strdeq	r2, [r0], -r0	; <UNPREDICTABLE>
    5730:	0000df00 	andeq	sp, r0, r0, lsl #30
    5734:	00690a00 	rsbeq	r0, r9, r0, lsl #20
    5738:	00532401 	subseq	r2, r3, r1, lsl #8
    573c:	20440000 	subcs	r0, r4, r0
    5740:	09000000 	stmdbeq	r0, {}	; <UNPREDICTABLE>
    5744:	001d3001 	andseq	r3, sp, r1
    5748:	01570100 	cmpeq	r7, r0, lsl #2
    574c:	00000041 	andeq	r0, r0, r1, asr #32
    5750:	f0002adc 			; <UNDEFINED> instruction: 0xf0002adc
    5754:	f0002b30 			; <UNDEFINED> instruction: 0xf0002b30
    5758:	00002063 	andeq	r2, r0, r3, rrx
    575c:	00000119 	andeq	r0, r0, r9, lsl r1
    5760:	0100690a 	tsteq	r0, sl, lsl #18
    5764:	00004c59 	andeq	r4, r0, r9, asr ip
    5768:	00208300 	eoreq	r8, r0, r0, lsl #6
    576c:	1d8f0b00 	vstrne	d0, [pc]	; 5774 <__standby_start+0x5774>
    5770:	5a010000 	bpl	45778 <__standby_start+0x45778>
    5774:	00000073 	andeq	r0, r0, r3, ror r0
    5778:	000020a2 	andeq	r2, r0, r2, lsr #1
    577c:	a8010900 	stmdage	r1, {r8, fp}
    5780:	0100001d 	tsteq	r0, sp, lsl r0
    5784:	00410171 	subeq	r0, r1, r1, ror r1
    5788:	2b300000 	blcs	c05790 <__standby_start+0xc05790>
    578c:	2b88f000 	blcs	fe241794 <__bss_end+0xe23e178>
    5790:	20cdf000 	sbccs	pc, sp, r0
    5794:	01640000 	cmneq	r4, r0
    5798:	730c0000 	movwvc	r0, #49152	; 0xc000
    579c:	01006372 	tsteq	r0, r2, ror r3
    57a0:	00007871 	andeq	r7, r0, r1, ror r8
    57a4:	0020ed00 	eoreq	lr, r0, r0, lsl #26
    57a8:	1d9a0b00 	vldrne	d0, [sl]
    57ac:	73010000 	movwvc	r0, #4096	; 0x1000
    57b0:	00000053 	andeq	r0, r0, r3, asr r0
    57b4:	00002100 	andeq	r2, r0, r0, lsl #2
    57b8:	001da10b 	andseq	sl, sp, fp, lsl #2
    57bc:	53740100 	cmnpl	r4, #0
    57c0:	17000000 	strne	r0, [r0, -r0]
    57c4:	00000021 	andeq	r0, r0, r1, lsr #32
    57c8:	1d3d010d 	ldfnes	f0, [sp, #-52]!	; 0xffffffcc
    57cc:	8f010000 	svchi	0x00010000
    57d0:	00004101 	andeq	r4, r0, r1, lsl #2
    57d4:	002b8800 	eoreq	r8, fp, r0, lsl #16
    57d8:	002bd8f0 	strdeq	sp, [fp], -r0	; <UNPREDICTABLE>
    57dc:	007d02f0 	ldrshteq	r0, [sp], #-32	; 0xffffffe0
    57e0:	000001bd 			; <UNDEFINED> instruction: 0x000001bd
    57e4:	6372730c 	cmnvs	r2, #805306368	; 0x30000000
    57e8:	788f0100 	stmvc	pc, {r8}	; <UNPREDICTABLE>
    57ec:	39000000 	stmdbcc	r0, {}	; <UNPREDICTABLE>
    57f0:	0b000021 	bleq	587c <__standby_start+0x587c>
    57f4:	000012cb 	andeq	r1, r0, fp, asr #5
    57f8:	00419101 	subeq	r9, r1, r1, lsl #2
    57fc:	214c0000 	mrscs	r0, (UNDEF: 76)
    5800:	9a0b0000 	bls	2c5808 <__standby_start+0x2c5808>
    5804:	0100001d 	tsteq	r0, sp, lsl r0
    5808:	00005392 	muleq	r0, r2, r3
    580c:	00216000 	eoreq	r6, r1, r0
    5810:	1da10b00 	stcne	11, cr0, [r1]
    5814:	93010000 	movwls	r0, #4096	; 0x1000
    5818:	00000053 	andeq	r0, r0, r3, asr r0
    581c:	00002177 	andeq	r2, r0, r7, ror r1
    5820:	1db70e00 	ldcne	14, cr0, [r7]
    5824:	14010000 	strne	r0, [r1], #-0
    5828:	000000b2 	strheq	r0, [r0], -r2
    582c:	35c40305 	strbcc	r0, [r4, #773]	; 0x305
    5830:	790ef000 	stmdbvc	lr, {ip, sp, lr, pc}
    5834:	0100001d 	tsteq	r0, sp, lsl r0
    5838:	0000b215 	andeq	fp, r0, r5, lsl r2
    583c:	c8030500 	stmdagt	r3, {r8, sl}
    5840:	00f00035 	rscseq	r0, r0, r5, lsr r0
    5844:	000003e8 	andeq	r0, r0, r8, ror #7
    5848:	16ff0002 	ldrbtne	r0, [pc], r2
    584c:	01040000 	mrseq	r0, (UNDEF: 4)
    5850:	000001fd 	strdeq	r0, [r0], -sp
    5854:	001f9301 	andseq	r9, pc, r1, lsl #6
    5858:	00014000 	andeq	r4, r1, r0
    585c:	002bd800 	eoreq	sp, fp, r0, lsl #16
    5860:	002d70f0 	strdeq	r7, [sp], -r0	; <UNPREDICTABLE>
    5864:	001710f0 	ldrsheq	r1, [r7], -r0
    5868:	06010200 	streq	r0, [r1], -r0, lsl #4
    586c:	00000268 	andeq	r0, r0, r8, ror #4
    5870:	66080102 	strvs	r0, [r8], -r2, lsl #2
    5874:	02000002 	andeq	r0, r0, #2
    5878:	00b80502 	adcseq	r0, r8, r2, lsl #10
    587c:	02020000 	andeq	r0, r2, #0
    5880:	0003ea07 	andeq	lr, r3, r7, lsl #20
    5884:	0b430300 	bleq	10c648c <__standby_start+0x10c648c>
    5888:	12020000 	andne	r0, r2, #0
    588c:	0000004c 	andeq	r0, r0, ip, asr #32
    5890:	69050404 	stmdbvs	r5, {r2, sl}
    5894:	0300746e 	movweq	r7, #1134	; 0x46e
    5898:	0000038e 	andeq	r0, r0, lr, lsl #7
    589c:	005e1302 	subseq	r1, lr, r2, lsl #6
    58a0:	04020000 	streq	r0, [r2], #-0
    58a4:	0002f807 	andeq	pc, r2, r7, lsl #16
    58a8:	05080200 	streq	r0, [r8, #-512]	; 0x200
    58ac:	000001dc 	ldrdeq	r0, [r0], -ip
    58b0:	ee070802 	cdp	8, 0, cr0, cr7, cr2, {0}
    58b4:	05000002 	streq	r0, [r0, #-2]
    58b8:	00000053 	andeq	r0, r0, r3, asr r0
    58bc:	00005306 	andeq	r5, r0, r6, lsl #6
    58c0:	00008800 	andeq	r8, r0, r0, lsl #16
    58c4:	005e0700 	subseq	r0, lr, r0, lsl #14
    58c8:	00030000 	andeq	r0, r3, r0
    58cc:	00005306 	andeq	r5, r0, r6, lsl #6
    58d0:	00009800 	andeq	r9, r0, r0, lsl #16
    58d4:	005e0700 	subseq	r0, lr, r0, lsl #14
    58d8:	00010000 	andeq	r0, r1, r0
    58dc:	001f0208 	andseq	r0, pc, r8, lsl #4
    58e0:	1503bc00 	strne	fp, [r3, #-3072]	; 0xc00
    58e4:	000002b6 			; <UNDEFINED> instruction: 0x000002b6
    58e8:	001dd609 	andseq	sp, sp, r9, lsl #12
    58ec:	73180300 	tstvc	r8, #0
    58f0:	02000000 	andeq	r0, r0, #0
    58f4:	55090023 	strpl	r0, [r9, #-35]	; 0x23
    58f8:	0300001f 	movweq	r0, #31
    58fc:	00007319 	andeq	r7, r0, r9, lsl r3
    5900:	04230200 	strteq	r0, [r3], #-512	; 0x200
    5904:	000bdb09 	andeq	sp, fp, r9, lsl #22
    5908:	b61a0300 	ldrlt	r0, [sl], -r0, lsl #6
    590c:	02000002 	andeq	r0, r0, #2
    5910:	d3090823 	movwle	r0, #38947	; 0x9823
    5914:	0300001f 	movweq	r0, #31
    5918:	0000731c 	andeq	r7, r0, ip, lsl r3
    591c:	10230200 	eorne	r0, r3, r0, lsl #4
    5920:	001ddd09 	andseq	sp, sp, r9, lsl #26
    5924:	731d0300 	tstvc	sp, #0
    5928:	02000000 	andeq	r0, r0, #0
    592c:	ff091423 			; <UNDEFINED> instruction: 0xff091423
    5930:	0300001d 	movweq	r0, #29
    5934:	0000731e 	andeq	r7, r0, lr, lsl r3
    5938:	18230200 	stmdane	r3!, {r9}
    593c:	000be509 	andeq	lr, fp, r9, lsl #10
    5940:	731f0300 	tstvc	pc, #0
    5944:	02000000 	andeq	r0, r0, #0
    5948:	f7091c23 			; <UNDEFINED> instruction: 0xf7091c23
    594c:	0300001d 	movweq	r0, #29
    5950:	00007321 	andeq	r7, r0, r1, lsr #6
    5954:	20230200 	eorcs	r0, r3, r0, lsl #4
    5958:	001f2909 	andseq	r2, pc, r9, lsl #18
    595c:	73220300 	teqvc	r2, #0
    5960:	02000000 	andeq	r0, r0, #0
    5964:	5c092423 	cfstrspl	mvf2, [r9], {35}	; 0x23
    5968:	0300001f 	movweq	r0, #31
    596c:	00007323 	andeq	r7, r0, r3, lsr #6
    5970:	28230200 	stmdacs	r3!, {r9}
    5974:	000bef09 	andeq	lr, fp, r9, lsl #30
    5978:	73240300 	teqvc	r4, #0
    597c:	02000000 	andeq	r0, r0, #0
    5980:	93092c23 	movwls	r2, #39971	; 0x9c23
    5984:	0300001e 	movweq	r0, #30
    5988:	00007326 	andeq	r7, r0, r6, lsr #6
    598c:	30230200 	eorcc	r0, r3, r0, lsl #4
    5990:	001e1209 	andseq	r1, lr, r9, lsl #4
    5994:	73270300 	teqvc	r7, #0
    5998:	02000000 	andeq	r0, r0, #0
    599c:	2d093423 	cfstrscs	mvf3, [r9, #-140]	; 0xffffff74
    59a0:	0300001e 	movweq	r0, #30
    59a4:	00007328 	andeq	r7, r0, r8, lsr #6
    59a8:	38230200 	stmdacc	r3!, {r9}
    59ac:	000bf909 	andeq	pc, fp, r9, lsl #18
    59b0:	73290300 	teqvc	r9, #0
    59b4:	02000000 	andeq	r0, r0, #0
    59b8:	46093c23 	strmi	r3, [r9], -r3, lsr #24
    59bc:	0300001f 	movweq	r0, #31
    59c0:	0000732b 	andeq	r7, r0, fp, lsr #6
    59c4:	40230200 	eormi	r0, r3, r0, lsl #4
    59c8:	001f6709 	andseq	r6, pc, r9, lsl #14
    59cc:	732c0300 	teqvc	ip, #0
    59d0:	02000000 	andeq	r0, r0, #0
    59d4:	03094423 	movweq	r4, #37923	; 0x9423
    59d8:	0300000c 	movweq	r0, #12
    59dc:	0002bb2d 	andeq	fp, r2, sp, lsr #22
    59e0:	48230200 	stmdami	r3!, {r9}
    59e4:	001fdb09 	andseq	sp, pc, r9, lsl #22
    59e8:	732f0300 	teqvc	pc, #0
    59ec:	02000000 	andeq	r0, r0, #0
    59f0:	5a095023 	bpl	259a84 <__standby_start+0x259a84>
    59f4:	0300001e 	movweq	r0, #30
    59f8:	00007330 	andeq	r7, r0, r0, lsr r3
    59fc:	54230200 	strtpl	r0, [r3], #-512	; 0x200
    5a00:	001e6509 	andseq	r6, lr, r9, lsl #10
    5a04:	73310300 	teqvc	r1, #0
    5a08:	02000000 	andeq	r0, r0, #0
    5a0c:	0d095823 	stceq	8, cr5, [r9, #-140]	; 0xffffff74
    5a10:	0300000c 	movweq	r0, #12
    5a14:	00007332 	andeq	r7, r0, r2, lsr r3
    5a18:	5c230200 	sfmpl	f0, 4, [r3], #-0
    5a1c:	001e0a09 	andseq	r0, lr, r9, lsl #20
    5a20:	73340300 	teqvc	r4, #0
    5a24:	02000000 	andeq	r0, r0, #0
    5a28:	88096023 	stmdahi	r9, {r0, r1, r5, sp, lr}
    5a2c:	0300001f 	movweq	r0, #31
    5a30:	00007335 	andeq	r7, r0, r5, lsr r3
    5a34:	64230200 	strtvs	r0, [r3], #-512	; 0x200
    5a38:	001fc109 	andseq	ip, pc, r9, lsl #2
    5a3c:	73360300 	teqvc	r6, #0
    5a40:	02000000 	andeq	r0, r0, #0
    5a44:	17096823 	strne	r6, [r9, -r3, lsr #16]
    5a48:	0300000c 	movweq	r0, #12
    5a4c:	0002d037 	andeq	sp, r2, r7, lsr r0
    5a50:	6c230200 	sfmvs	f0, 4, [r3], #-0
    5a54:	001f4e09 	andseq	r4, pc, r9, lsl #28
    5a58:	73390300 	teqvc	r9, #0
    5a5c:	03000000 	movweq	r0, #0
    5a60:	09018023 	stmdbeq	r1, {r0, r1, r5, pc}
    5a64:	00001f80 	andeq	r1, r0, r0, lsl #31
    5a68:	00733a03 	rsbseq	r3, r3, r3, lsl #20
    5a6c:	23030000 	movwcs	r0, #12288	; 0x3000
    5a70:	ce090184 	adfgt<illegal precision>	f0, f1, f4
    5a74:	0300001d 	movweq	r0, #29
    5a78:	0000733b 	andeq	r7, r0, fp, lsr r3
    5a7c:	88230300 	stmdahi	r3!, {r8, r9}
    5a80:	1f3f0901 	svcne	0x003f0901
    5a84:	3c030000 	stccc	0, cr0, [r3], {-0}
    5a88:	00000073 	andeq	r0, r0, r3, ror r0
    5a8c:	018c2303 	orreq	r2, ip, r3, lsl #6
    5a90:	000c2109 	andeq	r2, ip, r9, lsl #2
    5a94:	d53f0300 	ldrle	r0, [pc, #-768]!	; 579c <__standby_start+0x579c>
    5a98:	03000002 	movweq	r0, #2
    5a9c:	09019023 	stmdbeq	r1, {r0, r1, r5, ip, pc}
    5aa0:	00001ee5 	andeq	r1, r0, r5, ror #29
    5aa4:	00734203 	rsbseq	r4, r3, r3, lsl #4
    5aa8:	23030000 	movwcs	r0, #12288	; 0x3000
    5aac:	c00901a0 	andgt	r0, r9, r0, lsr #3
    5ab0:	0300001d 	movweq	r0, #29
    5ab4:	00007343 	andeq	r7, r0, r3, asr #6
    5ab8:	a4230300 	strtge	r0, [r3], #-768	; 0x300
    5abc:	1e890901 	cdpne	9, 8, cr0, cr9, cr1, {0}
    5ac0:	44030000 	strmi	r0, [r3], #-0
    5ac4:	000002da 	ldrdeq	r0, [r0], -sl
    5ac8:	01a82303 			; <UNDEFINED> instruction: 0x01a82303
    5acc:	001de809 	andseq	lr, sp, r9, lsl #16
    5ad0:	73470300 	movtvc	r0, #29440	; 0x7300
    5ad4:	03000000 	movweq	r0, #0
    5ad8:	0901b023 	stmdbeq	r1, {r0, r1, r5, ip, sp, pc}
    5adc:	00001f72 	andeq	r1, r0, r2, ror pc
    5ae0:	00734803 	rsbseq	r4, r3, r3, lsl #16
    5ae4:	23030000 	movwcs	r0, #12288	; 0x3000
    5ae8:	9b0901b4 	blls	2461c0 <__standby_start+0x2461c0>
    5aec:	0300001e 	movweq	r0, #30
    5af0:	00007349 	andeq	r7, r0, r9, asr #6
    5af4:	b8230300 	stmdalt	r3!, {r8, r9}
    5af8:	88050001 	stmdahi	r5, {r0}
    5afc:	05000000 	streq	r0, [r0, #-0]
    5b00:	00000088 	andeq	r0, r0, r8, lsl #1
    5b04:	00005306 	andeq	r5, r0, r6, lsl #6
    5b08:	0002d000 	andeq	sp, r2, r0
    5b0c:	005e0700 	subseq	r0, lr, r0, lsl #14
    5b10:	00040000 	andeq	r0, r4, r0
    5b14:	0002c005 	andeq	ip, r2, r5
    5b18:	00780500 	rsbseq	r0, r8, r0, lsl #10
    5b1c:	88050000 	stmdahi	r5, {}	; <UNPREDICTABLE>
    5b20:	03000000 	movweq	r0, #0
    5b24:	00001e1d 	andeq	r1, r0, sp, lsl lr
    5b28:	00984b03 	addseq	r4, r8, r3, lsl #22
    5b2c:	04020000 	streq	r0, [r2], #-0
    5b30:	0002f307 	andeq	pc, r2, r7, lsl #6
    5b34:	e3010a00 	movw	r0, #6656	; 0x1a00
    5b38:	0100001f 	tsteq	r0, pc, lsl r0
    5b3c:	00410111 	subeq	r0, r1, r1, lsl r1
    5b40:	2bd80000 	blcs	ff605b48 <__bss_end+0xf60252c>
    5b44:	2c38f000 	ldccs	0, cr15, [r8], #-0
    5b48:	7d02f000 	stcvc	0, cr15, [r2, #-0]
    5b4c:	00031d00 	andeq	r1, r3, r0, lsl #26
    5b50:	1f340b00 	svcne	0x00340b00
    5b54:	11010000 	mrsne	r0, (UNDEF: 1)
    5b58:	0000031d 	andeq	r0, r0, sp, lsl r3
    5b5c:	00002199 	muleq	r0, r9, r1
    5b60:	df040c00 	svcle	0x00040c00
    5b64:	0a000002 	beq	5b74 <__standby_start+0x5b74>
    5b68:	001ef201 	andseq	pc, lr, r1, lsl #4
    5b6c:	012f0100 	teqeq	pc, r0, lsl #2
    5b70:	00000041 	andeq	r0, r0, r1, asr #32
    5b74:	f0002c38 			; <UNDEFINED> instruction: 0xf0002c38
    5b78:	f0002c88 			; <UNDEFINED> instruction: 0xf0002c88
    5b7c:	4f007d02 	svcmi	0x00007d02
    5b80:	0b000003 	bleq	5b94 <__standby_start+0x5b94>
    5b84:	00001f34 	andeq	r1, r0, r4, lsr pc
    5b88:	031d2f01 	tsteq	sp, #4
    5b8c:	21b70000 			; <UNDEFINED> instruction: 0x21b70000
    5b90:	0d000000 	stceq	0, cr0, [r0, #-0]
    5b94:	001ed801 	andseq	sp, lr, r1, lsl #16
    5b98:	01490100 	mrseq	r0, (UNDEF: 89)
    5b9c:	00000041 	andeq	r0, r0, r1, asr #32
    5ba0:	f0002c88 			; <UNDEFINED> instruction: 0xf0002c88
    5ba4:	f0002cc0 			; <UNDEFINED> instruction: 0xf0002cc0
    5ba8:	0d007d02 	stceq	13, cr7, [r0, #-8]
    5bac:	001e4d01 	andseq	r4, lr, r1, lsl #26
    5bb0:	01610100 	cmneq	r1, r0, lsl #2
    5bb4:	00000041 	andeq	r0, r0, r1, asr #32
    5bb8:	f0002cc0 			; <UNDEFINED> instruction: 0xf0002cc0
    5bbc:	f0002ce8 			; <UNDEFINED> instruction: 0xf0002ce8
    5bc0:	0e007d02 	cdpeq	13, 0, cr7, cr0, cr2, {0}
    5bc4:	001ec001 	andseq	ip, lr, r1
    5bc8:	01790100 	cmneq	r9, r0, lsl #2
    5bcc:	f0002ce8 			; <UNDEFINED> instruction: 0xf0002ce8
    5bd0:	f0002d30 			; <UNDEFINED> instruction: 0xf0002d30
    5bd4:	0e007d02 	cdpeq	13, 0, cr7, cr0, cr2, {0}
    5bd8:	001f1001 	andseq	r1, pc, r1
    5bdc:	019a0100 	orrseq	r0, sl, r0, lsl #2
    5be0:	f0002d30 			; <UNDEFINED> instruction: 0xf0002d30
    5be4:	f0002d70 			; <UNDEFINED> instruction: 0xf0002d70
    5be8:	0f007d02 	svceq	0x00007d02
    5bec:	00001fcc 	andeq	r1, r0, ip, asr #31
    5bf0:	031d0301 	tsteq	sp, #67108864	; 0x4000000
    5bf4:	03050000 	movweq	r0, #20480	; 0x5000
    5bf8:	f00035cc 			; <UNDEFINED> instruction: 0xf00035cc
    5bfc:	001e700f 	andseq	r7, lr, pc
    5c00:	53040100 	movwpl	r0, #16640	; 0x4100
    5c04:	05000000 	streq	r0, [r0, #-0]
    5c08:	0035d003 	eorseq	sp, r5, r3
    5c0c:	1eaa0ff0 	mcrne	15, 5, r0, cr10, cr0, {7}
    5c10:	04010000 	streq	r0, [r1], #-0
    5c14:	00000053 	andeq	r0, r0, r3, asr r0
    5c18:	35d40305 	ldrbcc	r0, [r4, #773]	; 0x305
    5c1c:	380ff000 	stmdacc	pc, {ip, sp, lr, pc}	; <UNPREDICTABLE>
    5c20:	0100001e 	tsteq	r0, lr, lsl r0
    5c24:	00005304 	andeq	r5, r0, r4, lsl #6
    5c28:	d8030500 	stmdale	r3, {r8, sl}
    5c2c:	00f00035 	rscseq	r0, r0, r5, lsr r0
    5c30:	00000061 	andeq	r0, r0, r1, rrx
    5c34:	17d90002 	ldrbne	r0, [r9, r2]
    5c38:	01040000 	mrseq	r0, (UNDEF: 4)
    5c3c:	000001fd 	strdeq	r0, [r0], -sp
    5c40:	001ff001 	andseq	pc, pc, r1
    5c44:	00014000 	andeq	r4, r1, r0
    5c48:	002d7000 	eoreq	r7, sp, r0
    5c4c:	002d70f0 	strdeq	r7, [sp], -r0	; <UNPREDICTABLE>
    5c50:	0017dbf0 			; <UNDEFINED> instruction: 0x0017dbf0
    5c54:	06010200 	streq	r0, [r1], -r0, lsl #4
    5c58:	00000268 	andeq	r0, r0, r8, ror #4
    5c5c:	66080102 	strvs	r0, [r8], -r2, lsl #2
    5c60:	02000002 	andeq	r0, r0, #2
    5c64:	00b80502 	adcseq	r0, r8, r2, lsl #10
    5c68:	02020000 	andeq	r0, r2, #0
    5c6c:	0003ea07 	andeq	lr, r3, r7, lsl #20
    5c70:	05040300 	streq	r0, [r4, #-768]	; 0x300
    5c74:	00746e69 	rsbseq	r6, r4, r9, ror #28
    5c78:	f8070402 			; <UNDEFINED> instruction: 0xf8070402
    5c7c:	02000002 	andeq	r0, r0, #2
    5c80:	01dc0508 	bicseq	r0, ip, r8, lsl #10
    5c84:	08020000 	stmdaeq	r2, {}	; <UNPREDICTABLE>
    5c88:	0002ee07 	andeq	lr, r2, r7, lsl #28
    5c8c:	07040200 	streq	r0, [r4, -r0, lsl #4]
    5c90:	000002f3 	strdeq	r0, [r0], -r3
    5c94:	00153500 	andseq	r3, r5, r0, lsl #10
    5c98:	03000200 	movweq	r0, #512	; 0x200
    5c9c:	04000018 	streq	r0, [r0], #-24
    5ca0:	0001fd01 	andeq	pc, r1, r1, lsl #26
    5ca4:	20210100 	eorcs	r0, r1, r0, lsl #2
    5ca8:	01400000 	mrseq	r0, (UNDEF: 64)
    5cac:	2d700000 	ldclcs	0, cr0, [r0, #-0]
    5cb0:	30c0f000 	sbccc	pc, r0, r0
    5cb4:	17f8f000 	ldrbne	pc, [r8, r0]!	; <UNPREDICTABLE>
    5cb8:	01020000 	mrseq	r0, (UNDEF: 2)
    5cbc:	00026806 	andeq	r6, r2, r6, lsl #16
    5cc0:	10a30300 	adcne	r0, r3, r0, lsl #6
    5cc4:	0f020000 	svceq	0x00020000
    5cc8:	00000037 	andeq	r0, r0, r7, lsr r0
    5ccc:	66080102 	strvs	r0, [r8], -r2, lsl #2
    5cd0:	02000002 	andeq	r0, r0, #2
    5cd4:	00b80502 	adcseq	r0, r8, r2, lsl #10
    5cd8:	02020000 	andeq	r0, r2, #0
    5cdc:	0003ea07 	andeq	lr, r3, r7, lsl #20
    5ce0:	0b430300 	bleq	10c68e8 <__standby_start+0x10c68e8>
    5ce4:	12020000 	andne	r0, r2, #0
    5ce8:	00000057 	andeq	r0, r0, r7, asr r0
    5cec:	69050404 	stmdbvs	r5, {r2, sl}
    5cf0:	0300746e 	movweq	r7, #1134	; 0x46e
    5cf4:	0000038e 	andeq	r0, r0, lr, lsl #7
    5cf8:	00691302 	rsbeq	r1, r9, r2, lsl #6
    5cfc:	04020000 	streq	r0, [r2], #-0
    5d00:	0002f807 	andeq	pc, r2, r7, lsl #16
    5d04:	05080200 	streq	r0, [r8, #-512]	; 0x200
    5d08:	000001dc 	ldrdeq	r0, [r0], -ip
    5d0c:	ee070802 	cdp	8, 0, cr0, cr7, cr2, {0}
    5d10:	05000002 	streq	r0, [r0, #-2]
    5d14:	641a0304 	ldrvs	r0, [sl], #-772	; 0x304
    5d18:	06000001 	streq	r0, [r0], -r1
    5d1c:	00000774 	andeq	r0, r0, r4, ror r7
    5d20:	005e1c03 	subseq	r1, lr, r3, lsl #24
    5d24:	02040000 	andeq	r0, r4, #0
    5d28:	0023021e 	eoreq	r0, r3, lr, lsl r2
    5d2c:	000bdb06 	andeq	sp, fp, r6, lsl #22
    5d30:	5e1d0300 	cdppl	3, 1, cr0, cr13, cr0, {0}
    5d34:	04000000 	streq	r0, [r0], #-0
    5d38:	23021c02 	movwcs	r1, #11266	; 0x2c02
    5d3c:	076c0600 	strbeq	r0, [ip, -r0, lsl #12]!
    5d40:	1e030000 	cdpne	0, 0, cr0, cr3, cr0, {0}
    5d44:	0000005e 	andeq	r0, r0, lr, asr r0
    5d48:	021a0204 	andseq	r0, sl, #1073741824	; 0x40000000
    5d4c:	e5060023 	str	r0, [r6, #-35]	; 0x23
    5d50:	0300000b 	movweq	r0, #11
    5d54:	00005e1f 	andeq	r5, r0, pc, lsl lr
    5d58:	18020400 	stmdane	r2, {sl}
    5d5c:	06002302 	streq	r2, [r0], -r2, lsl #6
    5d60:	0000077c 	andeq	r0, r0, ip, ror r7
    5d64:	005e2003 	subseq	r2, lr, r3
    5d68:	05040000 	streq	r0, [r4, #-0]
    5d6c:	00230213 	eoreq	r0, r3, r3, lsl r2
    5d70:	000bef06 	andeq	lr, fp, r6, lsl #30
    5d74:	5e210300 	cdppl	3, 2, cr0, cr1, cr0, {0}
    5d78:	04000000 	streq	r0, [r0], #-0
    5d7c:	23021003 	movwcs	r1, #8195	; 0x2003
    5d80:	078c0600 	streq	r0, [ip, r0, lsl #12]
    5d84:	22030000 	andcs	r0, r3, #0
    5d88:	0000005e 	andeq	r0, r0, lr, asr r0
    5d8c:	020e0204 	andeq	r0, lr, #1073741824	; 0x40000000
    5d90:	f9060023 			; <UNDEFINED> instruction: 0xf9060023
    5d94:	0300000b 	movweq	r0, #11
    5d98:	00005e23 	andeq	r5, r0, r3, lsr #28
    5d9c:	08060400 	stmdaeq	r6, {sl}
    5da0:	06002302 	streq	r2, [r0], -r2, lsl #6
    5da4:	00000973 	andeq	r0, r0, r3, ror r9
    5da8:	005e2403 	subseq	r2, lr, r3, lsl #8
    5dac:	01040000 	mrseq	r0, (UNDEF: 4)
    5db0:	00230207 	eoreq	r0, r3, r7, lsl #4
    5db4:	000c0306 	andeq	r0, ip, r6, lsl #6
    5db8:	5e250300 	cdppl	3, 2, cr0, cr5, cr0, {0}
    5dbc:	04000000 	streq	r0, [r0], #-0
    5dc0:	23020403 	movwcs	r0, #9219	; 0x2403
    5dc4:	0ae10600 	beq	ff8475cc <__bss_end+0xf843fb0>
    5dc8:	26030000 	strcs	r0, [r3], -r0
    5dcc:	0000005e 	andeq	r0, r0, lr, asr r0
    5dd0:	02030104 	andeq	r0, r3, #1
    5dd4:	0d060023 	stceq	0, cr0, [r6, #-140]	; 0xffffff74
    5dd8:	0300000c 	movweq	r0, #12
    5ddc:	00005e27 	andeq	r5, r0, r7, lsr #28
    5de0:	01020400 	tsteq	r2, r0, lsl #8
    5de4:	06002302 	streq	r2, [r0], -r2, lsl #6
    5de8:	00000b82 	andeq	r0, r0, r2, lsl #23
    5dec:	005e2803 	subseq	r2, lr, r3, lsl #16
    5df0:	01040000 	mrseq	r0, (UNDEF: 4)
    5df4:	00230200 	eoreq	r0, r3, r0, lsl #4
    5df8:	03040700 	movweq	r0, #18176	; 0x4700
    5dfc:	00018318 	andeq	r8, r1, r8, lsl r3
    5e00:	05f30800 	ldrbeq	r0, [r3, #2048]!	; 0x800
    5e04:	19030000 	stmdbne	r3, {}	; <UNPREDICTABLE>
    5e08:	0000005e 	andeq	r0, r0, lr, asr r0
    5e0c:	000fdc08 	andeq	sp, pc, r8, lsl #24
    5e10:	7e2a0300 	cdpvc	3, 2, cr0, cr10, cr0, {0}
    5e14:	00000000 	andeq	r0, r0, r0
    5e18:	000b8803 	andeq	r8, fp, r3, lsl #16
    5e1c:	642b0300 	strtvs	r0, [fp], #-768	; 0x300
    5e20:	09000001 	stmdbeq	r0, {r0}
    5e24:	00000ba9 	andeq	r0, r0, r9, lsr #23
    5e28:	562e0304 	strtpl	r0, [lr], -r4, lsl #6
    5e2c:	06000002 	streq	r0, [r0], -r2
    5e30:	00000774 	andeq	r0, r0, r4, ror r7
    5e34:	005e3003 	subseq	r3, lr, r3
    5e38:	05040000 	streq	r0, [r4, #-0]
    5e3c:	0023021b 	eoreq	r0, r3, fp, lsl r2
    5e40:	000bdb06 	andeq	sp, fp, r6, lsl #22
    5e44:	5e310300 	cdppl	3, 3, cr0, cr1, cr0, {0}
    5e48:	04000000 	streq	r0, [r0], #-0
    5e4c:	23021803 	movwcs	r1, #10243	; 0x2803
    5e50:	077c0600 	ldrbeq	r0, [ip, -r0, lsl #12]!
    5e54:	32030000 	andcc	r0, r3, #0
    5e58:	0000005e 	andeq	r0, r0, lr, asr r0
    5e5c:	02110704 	andseq	r0, r1, #1048576	; 0x100000
    5e60:	e5060023 	str	r0, [r6, #-35]	; 0x23
    5e64:	0300000b 	movweq	r0, #11
    5e68:	00005e33 	andeq	r5, r0, r3, lsr lr
    5e6c:	10010400 	andne	r0, r1, r0, lsl #8
    5e70:	06002302 	streq	r2, [r0], -r2, lsl #6
    5e74:	0000078c 	andeq	r0, r0, ip, lsl #15
    5e78:	005e3403 	subseq	r3, lr, r3, lsl #8
    5e7c:	04040000 	streq	r0, [r4], #-0
    5e80:	0023020c 	eoreq	r0, r3, ip, lsl #4
    5e84:	000bef06 	andeq	lr, fp, r6, lsl #30
    5e88:	5e350300 	cdppl	3, 3, cr0, cr5, cr0, {0}
    5e8c:	04000000 	streq	r0, [r0], #-0
    5e90:	23020804 	movwcs	r0, #10244	; 0x2804
    5e94:	0ab60600 	beq	fed8769c <__bss_end+0xed84080>
    5e98:	36030000 	strcc	r0, [r3], -r0
    5e9c:	0000005e 	andeq	r0, r0, lr, asr r0
    5ea0:	02070104 	andeq	r0, r7, #1
    5ea4:	f9060023 			; <UNDEFINED> instruction: 0xf9060023
    5ea8:	0300000b 	movweq	r0, #11
    5eac:	00005e37 	andeq	r5, r0, r7, lsr lr
    5eb0:	04030400 	streq	r0, [r3], #-1024	; 0x400
    5eb4:	06002302 	streq	r2, [r0], -r2, lsl #6
    5eb8:	00000ae1 	andeq	r0, r0, r1, ror #21
    5ebc:	005e3803 	subseq	r3, lr, r3, lsl #16
    5ec0:	01040000 	mrseq	r0, (UNDEF: 4)
    5ec4:	00230203 	eoreq	r0, r3, r3, lsl #4
    5ec8:	000c0306 	andeq	r0, ip, r6, lsl #6
    5ecc:	5e390300 	cdppl	3, 3, cr0, cr9, cr0, {0}
    5ed0:	04000000 	streq	r0, [r0], #-0
    5ed4:	23020102 	movwcs	r0, #8450	; 0x2102
    5ed8:	0b820600 	bleq	fe0876e0 <__bss_end+0xe0840c4>
    5edc:	3a030000 	bcc	c5ee4 <__standby_start+0xc5ee4>
    5ee0:	0000005e 	andeq	r0, r0, lr, asr r0
    5ee4:	02000104 	andeq	r0, r0, #1
    5ee8:	03000023 	movweq	r0, #35	; 0x23
    5eec:	00000aff 	strdeq	r0, [r0], -pc	; <UNPREDICTABLE>
    5ef0:	018e3b03 	orreq	r3, lr, r3, lsl #22
    5ef4:	68090000 	stmdavs	r9, {}	; <UNPREDICTABLE>
    5ef8:	0400000b 	streq	r0, [r0], #-11
    5efc:	034b5003 	movteq	r5, #45059	; 0xb003
    5f00:	74060000 	strvc	r0, [r6], #-0
    5f04:	03000007 	movweq	r0, #7
    5f08:	00005e52 	andeq	r5, r0, r2, asr lr
    5f0c:	1e020400 	cfcpysne	mvf0, mvf2
    5f10:	06002302 	streq	r2, [r0], -r2, lsl #6
    5f14:	00000bdb 	ldrdeq	r0, [r0], -fp
    5f18:	005e5303 	subseq	r5, lr, r3, lsl #6
    5f1c:	02040000 	andeq	r0, r4, #0
    5f20:	0023021c 	eoreq	r0, r3, ip, lsl r2
    5f24:	00076c06 	andeq	r6, r7, r6, lsl #24
    5f28:	5e540300 	cdppl	3, 5, cr0, cr4, cr0, {0}
    5f2c:	04000000 	streq	r0, [r0], #-0
    5f30:	23021a02 	movwcs	r1, #10754	; 0x2a02
    5f34:	0be50600 	bleq	ff94773c <__bss_end+0xf944120>
    5f38:	55030000 	strpl	r0, [r3, #-0]
    5f3c:	0000005e 	andeq	r0, r0, lr, asr r0
    5f40:	02180204 	andseq	r0, r8, #1073741824	; 0x40000000
    5f44:	7c060023 	stcvc	0, cr0, [r6], {35}	; 0x23
    5f48:	03000007 	movweq	r0, #7
    5f4c:	00005e56 	andeq	r5, r0, r6, asr lr
    5f50:	13050400 	movwne	r0, #21504	; 0x5400
    5f54:	06002302 	streq	r2, [r0], -r2, lsl #6
    5f58:	00000bef 	andeq	r0, r0, pc, ror #23
    5f5c:	005e5703 	subseq	r5, lr, r3, lsl #14
    5f60:	07040000 	streq	r0, [r4, -r0]
    5f64:	0023020c 	eoreq	r0, r3, ip, lsl #4
    5f68:	00070f06 	andeq	r0, r7, r6, lsl #30
    5f6c:	5e580300 	cdppl	3, 5, cr0, cr8, cr0, {0}
    5f70:	04000000 	streq	r0, [r0], #-0
    5f74:	23020b01 	movwcs	r0, #11009	; 0x2b01
    5f78:	0bf90600 	bleq	ffe47780 <__bss_end+0xfe44164>
    5f7c:	59030000 	stmdbpl	r3, {}	; <UNPREDICTABLE>
    5f80:	0000005e 	andeq	r0, r0, lr, asr r0
    5f84:	02080304 	andeq	r0, r8, #268435456	; 0x10000000
    5f88:	7b060023 	blvc	18601c <__standby_start+0x18601c>
    5f8c:	03000009 	movweq	r0, #9
    5f90:	00005e5a 	andeq	r5, r0, sl, asr lr
    5f94:	07010400 	streq	r0, [r1, -r0, lsl #8]
    5f98:	06002302 	streq	r2, [r0], -r2, lsl #6
    5f9c:	00000c03 	andeq	r0, r0, r3, lsl #24
    5fa0:	005e5b03 	subseq	r5, lr, r3, lsl #22
    5fa4:	03040000 	movweq	r0, #16384	; 0x4000
    5fa8:	00230204 	eoreq	r0, r3, r4, lsl #4
    5fac:	000ae106 	andeq	lr, sl, r6, lsl #2
    5fb0:	5e5c0300 	cdppl	3, 5, cr0, cr12, cr0, {0}
    5fb4:	04000000 	streq	r0, [r0], #-0
    5fb8:	23020301 	movwcs	r0, #8961	; 0x2301
    5fbc:	0c0d0600 	stceq	6, cr0, [sp], {-0}
    5fc0:	5d030000 	stcpl	0, cr0, [r3, #-0]
    5fc4:	0000005e 	andeq	r0, r0, lr, asr r0
    5fc8:	02010204 	andeq	r0, r1, #1073741824	; 0x40000000
    5fcc:	82060023 	andhi	r0, r6, #35	; 0x23
    5fd0:	0300000b 	movweq	r0, #11
    5fd4:	00005e5e 	andeq	r5, r0, lr, asr lr
    5fd8:	00010400 	andeq	r0, r1, r0, lsl #8
    5fdc:	00002302 	andeq	r2, r0, r2, lsl #6
    5fe0:	00073603 	andeq	r3, r7, r3, lsl #12
    5fe4:	615f0300 	cmpvs	pc, r0, lsl #6
    5fe8:	09000002 	stmdbeq	r0, {r1}
    5fec:	00000e23 	andeq	r0, r0, r3, lsr #28
    5ff0:	62620304 	rsbvs	r0, r2, #268435456	; 0x10000000
    5ff4:	06000004 	streq	r0, [r0], -r4
    5ff8:	00000774 	andeq	r0, r0, r4, ror r7
    5ffc:	005e6403 	subseq	r6, lr, r3, lsl #8
    6000:	02040000 	andeq	r0, r4, #0
    6004:	0023021e 	eoreq	r0, r3, lr, lsl r2
    6008:	000bdb06 	andeq	sp, fp, r6, lsl #22
    600c:	5e650300 	cdppl	3, 6, cr0, cr5, cr0, {0}
    6010:	04000000 	streq	r0, [r0], #-0
    6014:	23021c02 	movwcs	r1, #11266	; 0x2c02
    6018:	076c0600 	strbeq	r0, [ip, -r0, lsl #12]!
    601c:	66030000 	strvs	r0, [r3], -r0
    6020:	0000005e 	andeq	r0, r0, lr, asr r0
    6024:	021a0204 	andseq	r0, sl, #1073741824	; 0x40000000
    6028:	e5060023 	str	r0, [r6, #-35]	; 0x23
    602c:	0300000b 	movweq	r0, #11
    6030:	00005e67 	andeq	r5, r0, r7, ror #28
    6034:	18020400 	stmdane	r2, {sl}
    6038:	06002302 	streq	r2, [r0], -r2, lsl #6
    603c:	0000077c 	andeq	r0, r0, ip, ror r7
    6040:	005e6803 	subseq	r6, lr, r3, lsl #16
    6044:	05040000 	streq	r0, [r4, #-0]
    6048:	00230213 	eoreq	r0, r3, r3, lsl r2
    604c:	000bef06 	andeq	lr, fp, r6, lsl #30
    6050:	5e690300 	cdppl	3, 6, cr0, cr9, cr0, {0}
    6054:	04000000 	streq	r0, [r0], #-0
    6058:	23021003 	movwcs	r1, #8195	; 0x2003
    605c:	0cf70600 	ldcleq	6, cr0, [r7]
    6060:	6a030000 	bvs	c6068 <__standby_start+0xc6068>
    6064:	0000005e 	andeq	r0, r0, lr, asr r0
    6068:	020e0204 	andeq	r0, lr, #1073741824	; 0x40000000
    606c:	7f060023 	svcvc	0x00060023
    6070:	03000005 	movweq	r0, #5
    6074:	00005e6b 	andeq	r5, r0, fp, ror #28
    6078:	0d010400 	cfstrseq	mvf0, [r1, #-0]
    607c:	06002302 	streq	r2, [r0], -r2, lsl #6
    6080:	00000bf9 	strdeq	r0, [r0], -r9
    6084:	005e6c03 	subseq	r6, lr, r3, lsl #24
    6088:	05040000 	streq	r0, [r4, #-0]
    608c:	00230208 	eoreq	r0, r3, r8, lsl #4
    6090:	000a5c06 	andeq	r5, sl, r6, lsl #24
    6094:	5e6d0300 	cdppl	3, 6, cr0, cr13, cr0, {0}
    6098:	04000000 	streq	r0, [r0], #-0
    609c:	23020701 	movwcs	r0, #9985	; 0x2701
    60a0:	0a160600 	beq	5878a8 <__standby_start+0x5878a8>
    60a4:	6e030000 	cdpvs	0, 0, cr0, cr3, cr0, {0}
    60a8:	0000005e 	andeq	r0, r0, lr, asr r0
    60ac:	02060104 	andeq	r0, r6, #1
    60b0:	03060023 	movweq	r0, #24611	; 0x6023
    60b4:	0300000c 	movweq	r0, #12
    60b8:	00005e6f 	andeq	r5, r0, pc, ror #28
    60bc:	04020400 	streq	r0, [r2], #-1024	; 0x400
    60c0:	06002302 	streq	r2, [r0], -r2, lsl #6
    60c4:	00000ae1 	andeq	r0, r0, r1, ror #21
    60c8:	005e7003 	subseq	r7, lr, r3
    60cc:	01040000 	mrseq	r0, (UNDEF: 4)
    60d0:	00230203 	eoreq	r0, r3, r3, lsl #4
    60d4:	000c0d06 	andeq	r0, ip, r6, lsl #26
    60d8:	5e710300 	cdppl	3, 7, cr0, cr1, cr0, {0}
    60dc:	04000000 	streq	r0, [r0], #-0
    60e0:	23020102 	movwcs	r0, #8450	; 0x2102
    60e4:	0b820600 	bleq	fe0878ec <__bss_end+0xe0842d0>
    60e8:	72030000 	andvc	r0, r3, #0
    60ec:	0000005e 	andeq	r0, r0, lr, asr r0
    60f0:	02000104 	andeq	r0, r0, #1
    60f4:	03000023 	movweq	r0, #35	; 0x23
    60f8:	0000066d 	andeq	r0, r0, sp, ror #12
    60fc:	03567303 	cmpeq	r6, #201326592	; 0xc000000
    6100:	3f090000 	svccc	0x00090000
    6104:	04000008 	streq	r0, [r0], #-8
    6108:	05467503 	strbeq	r7, [r6, #-1283]	; 0x503
    610c:	74060000 	strvc	r0, [r6], #-0
    6110:	03000007 	movweq	r0, #7
    6114:	00005e77 	andeq	r5, r0, r7, ror lr
    6118:	1c040400 	cfstrsne	mvf0, [r4], {-0}
    611c:	06002302 	streq	r2, [r0], -r2, lsl #6
    6120:	00000bdb 	ldrdeq	r0, [r0], -fp
    6124:	005e7803 	subseq	r7, lr, r3, lsl #16
    6128:	04040000 	streq	r0, [r4], #-0
    612c:	00230218 	eoreq	r0, r3, r8, lsl r2
    6130:	00077c06 	andeq	r7, r7, r6, lsl #24
    6134:	5e790300 	cdppl	3, 7, cr0, cr9, cr0, {0}
    6138:	04000000 	streq	r0, [r0], #-0
    613c:	23021107 	movwcs	r1, #8455	; 0x2107
    6140:	0be50600 	bleq	ff947948 <__bss_end+0xf94432c>
    6144:	7a030000 	bvc	c614c <__standby_start+0xc614c>
    6148:	0000005e 	andeq	r0, r0, lr, asr r0
    614c:	020c0504 	andeq	r0, ip, #16777216	; 0x1000000
    6150:	b6060023 	strlt	r0, [r6], -r3, lsr #32
    6154:	0300000a 	movweq	r0, #10
    6158:	00005e7b 	andeq	r5, r0, fp, ror lr
    615c:	0b010400 	bleq	47164 <__standby_start+0x47164>
    6160:	06002302 	streq	r2, [r0], -r2, lsl #6
    6164:	00000bef 	andeq	r0, r0, pc, ror #23
    6168:	005e7c03 	subseq	r7, lr, r3, lsl #24
    616c:	03040000 	movweq	r0, #16384	; 0x4000
    6170:	00230208 	eoreq	r0, r3, r8, lsl #4
    6174:	000b3b06 	andeq	r3, fp, r6, lsl #22
    6178:	5e7d0300 	cdppl	3, 7, cr0, cr13, cr0, {0}
    617c:	04000000 	streq	r0, [r0], #-0
    6180:	23020701 	movwcs	r0, #9985	; 0x2701
    6184:	0c470600 	mcrreq	6, 0, r0, r7, cr0
    6188:	7e030000 	cdpvc	0, 0, cr0, cr3, cr0, {0}
    618c:	0000005e 	andeq	r0, r0, lr, asr r0
    6190:	02060104 	andeq	r0, r6, #1
    6194:	f9060023 			; <UNDEFINED> instruction: 0xf9060023
    6198:	0300000b 	movweq	r0, #11
    619c:	00005e7f 	andeq	r5, r0, pc, ror lr
    61a0:	04020400 	streq	r0, [r2], #-1024	; 0x400
    61a4:	06002302 	streq	r2, [r0], -r2, lsl #6
    61a8:	00000ae1 	andeq	r0, r0, r1, ror #21
    61ac:	005e8003 	subseq	r8, lr, r3
    61b0:	01040000 	mrseq	r0, (UNDEF: 4)
    61b4:	00230203 	eoreq	r0, r3, r3, lsl #4
    61b8:	000c0306 	andeq	r0, ip, r6, lsl #6
    61bc:	5e810300 	cdppl	3, 8, cr0, cr1, cr0, {0}
    61c0:	04000000 	streq	r0, [r0], #-0
    61c4:	23020102 	movwcs	r0, #8450	; 0x2102
    61c8:	0b820600 	bleq	fe0879d0 <__bss_end+0xe0843b4>
    61cc:	82030000 	andhi	r0, r3, #0
    61d0:	0000005e 	andeq	r0, r0, lr, asr r0
    61d4:	02000104 	andeq	r0, r0, #1
    61d8:	03000023 	movweq	r0, #35	; 0x23
    61dc:	000008cd 	andeq	r0, r0, sp, asr #17
    61e0:	046d8303 	strbteq	r8, [sp], #-771	; 0x303
    61e4:	c5090000 	strgt	r0, [r9, #-0]
    61e8:	0400000a 	streq	r0, [r0], #-10
    61ec:	06a18603 	strteq	r8, [r1], r3, lsl #12
    61f0:	74060000 	strvc	r0, [r6], #-0
    61f4:	03000007 	movweq	r0, #7
    61f8:	00005e88 	andeq	r5, r0, r8, lsl #29
    61fc:	1c040400 	cfstrsne	mvf0, [r4], {-0}
    6200:	06002302 	streq	r2, [r0], -r2, lsl #6
    6204:	0000076c 	andeq	r0, r0, ip, ror #14
    6208:	005e8903 	subseq	r8, lr, r3, lsl #18
    620c:	02040000 	andeq	r0, r4, #0
    6210:	0023021a 	eoreq	r0, r3, sl, lsl r2
    6214:	000bdb06 	andeq	sp, fp, r6, lsl #22
    6218:	5e8a0300 	cdppl	3, 8, cr0, cr10, cr0, {0}
    621c:	04000000 	streq	r0, [r0], #-0
    6220:	23021802 	movwcs	r1, #10242	; 0x2802
    6224:	077c0600 	ldrbeq	r0, [ip, -r0, lsl #12]!
    6228:	8b030000 	blhi	c6230 <__standby_start+0xc6230>
    622c:	0000005e 	andeq	r0, r0, lr, asr r0
    6230:	02140404 	andseq	r0, r4, #67108864	; 0x4000000
    6234:	e5060023 	str	r0, [r6, #-35]	; 0x23
    6238:	0300000b 	movweq	r0, #11
    623c:	00005e8c 	andeq	r5, r0, ip, lsl #29
    6240:	10040400 	andne	r0, r4, r0, lsl #8
    6244:	06002302 	streq	r2, [r0], -r2, lsl #6
    6248:	0000075a 	andeq	r0, r0, sl, asr r7
    624c:	005e8d03 	subseq	r8, lr, r3, lsl #26
    6250:	01040000 	mrseq	r0, (UNDEF: 4)
    6254:	0023020f 	eoreq	r0, r3, pc, lsl #4
    6258:	000b4906 	andeq	r4, fp, r6, lsl #18
    625c:	5e8f0300 	cdppl	3, 8, cr0, cr15, cr0, {0}
    6260:	04000000 	streq	r0, [r0], #-0
    6264:	23020e01 	movwcs	r0, #11777	; 0x2e01
    6268:	0bef0600 	bleq	ffbc7a70 <__bss_end+0xfbc4454>
    626c:	90030000 	andls	r0, r3, r0
    6270:	0000005e 	andeq	r0, r0, lr, asr r0
    6274:	020c0204 	andeq	r0, ip, #1073741824	; 0x40000000
    6278:	b6060023 	strlt	r0, [r6], -r3, lsr #32
    627c:	0300000a 	movweq	r0, #10
    6280:	00005e91 	muleq	r0, r1, lr
    6284:	0b010400 	bleq	4728c <__standby_start+0x4728c>
    6288:	06002302 	streq	r2, [r0], -r2, lsl #6
    628c:	00000635 	andeq	r0, r0, r5, lsr r6
    6290:	005e9203 	subseq	r9, lr, r3, lsl #4
    6294:	01040000 	mrseq	r0, (UNDEF: 4)
    6298:	0023020a 	eoreq	r0, r3, sl, lsl #4
    629c:	0006a906 	andeq	sl, r6, r6, lsl #18
    62a0:	5e930300 	cdppl	3, 9, cr0, cr3, cr0, {0}
    62a4:	04000000 	streq	r0, [r0], #-0
    62a8:	23020901 	movwcs	r0, #10497	; 0x2901
    62ac:	0bd40600 	bleq	ff507ab4 <__bss_end+0xf504498>
    62b0:	94030000 	strls	r0, [r3], #-0
    62b4:	0000005e 	andeq	r0, r0, lr, asr r0
    62b8:	02080104 	andeq	r0, r8, #1
    62bc:	f9060023 			; <UNDEFINED> instruction: 0xf9060023
    62c0:	0300000b 	movweq	r0, #11
    62c4:	00005e95 	muleq	r0, r5, lr
    62c8:	07010400 	streq	r0, [r1, -r0, lsl #8]
    62cc:	06002302 	streq	r2, [r0], -r2, lsl #6
    62d0:	00000af3 	strdeq	r0, [r0], -r3
    62d4:	005e9603 	subseq	r9, lr, r3, lsl #12
    62d8:	01040000 	mrseq	r0, (UNDEF: 4)
    62dc:	00230206 	eoreq	r0, r3, r6, lsl #4
    62e0:	000b7c06 	andeq	r7, fp, r6, lsl #24
    62e4:	5e970300 	cdppl	3, 9, cr0, cr7, cr0, {0}
    62e8:	04000000 	streq	r0, [r0], #-0
    62ec:	23020501 	movwcs	r0, #9473	; 0x2501
    62f0:	0cb70600 	ldceq	6, cr0, [r7]
    62f4:	98030000 	stmdals	r3, {}	; <UNPREDICTABLE>
    62f8:	0000005e 	andeq	r0, r0, lr, asr r0
    62fc:	02040104 	andeq	r0, r4, #1
    6300:	e1060023 	tst	r6, r3, lsr #32
    6304:	0300000a 	movweq	r0, #10
    6308:	00005e99 	muleq	r0, r9, lr
    630c:	03010400 	movweq	r0, #5120	; 0x1400
    6310:	06002302 	streq	r2, [r0], -r2, lsl #6
    6314:	00000c03 	andeq	r0, r0, r3, lsl #24
    6318:	005e9a03 	subseq	r9, lr, r3, lsl #20
    631c:	02040000 	andeq	r0, r4, #0
    6320:	00230201 	eoreq	r0, r3, r1, lsl #4
    6324:	000b8206 	andeq	r8, fp, r6, lsl #4
    6328:	5e9b0300 	cdppl	3, 9, cr0, cr11, cr0, {0}
    632c:	04000000 	streq	r0, [r0], #-0
    6330:	23020001 	movwcs	r0, #8193	; 0x2001
    6334:	b5030000 	strlt	r0, [r3, #-0]
    6338:	03000005 	movweq	r0, #5
    633c:	0005519c 	muleq	r5, ip, r1
    6340:	03040500 	movweq	r0, #17664	; 0x4500
    6344:	00071ba4 	andeq	r1, r7, r4, lsr #23
    6348:	0dc50600 	stcleq	6, cr0, [r5]
    634c:	a6030000 	strge	r0, [r3], -r0
    6350:	0000005e 	andeq	r0, r0, lr, asr r0
    6354:	021e0204 	andseq	r0, lr, #1073741824	; 0x40000000
    6358:	db060023 	blle	1863ec <__standby_start+0x1863ec>
    635c:	0300000b 	movweq	r0, #11
    6360:	00005ea7 	andeq	r5, r0, r7, lsr #29
    6364:	18060400 	stmdane	r6, {sl}
    6368:	06002302 	streq	r2, [r0], -r2, lsl #6
    636c:	00000bbd 			; <UNDEFINED> instruction: 0x00000bbd
    6370:	005ea803 	subseq	sl, lr, r3, lsl #16
    6374:	02040000 	andeq	r0, r4, #0
    6378:	00230216 	eoreq	r0, r3, r6, lsl r2
    637c:	000be506 	andeq	lr, fp, r6, lsl #10
    6380:	5ea90300 	cdppl	3, 10, cr0, cr9, cr0, {0}
    6384:	04000000 	streq	r0, [r0], #-0
    6388:	23021006 	movwcs	r1, #8198	; 0x2006
    638c:	08630600 	stmdaeq	r3!, {r9, sl}^
    6390:	aa030000 	bge	c6398 <__standby_start+0xc6398>
    6394:	0000005e 	andeq	r0, r0, lr, asr r0
    6398:	020e0204 	andeq	r0, lr, #1073741824	; 0x40000000
    639c:	ef060023 	svc	0x00060023
    63a0:	0300000b 	movweq	r0, #11
    63a4:	00005eab 	andeq	r5, r0, fp, lsr #29
    63a8:	000e0400 	andeq	r0, lr, r0, lsl #8
    63ac:	00002302 	andeq	r2, r0, r2, lsl #6
    63b0:	a2030407 	andge	r0, r3, #117440512	; 0x7000000
    63b4:	0000073a 	andeq	r0, r0, sl, lsr r7
    63b8:	0005f308 	andeq	pc, r5, r8, lsl #6
    63bc:	5ea30300 	cdppl	3, 10, cr0, cr3, cr0, {0}
    63c0:	08000000 	stmdaeq	r0, {}	; <UNPREDICTABLE>
    63c4:	00000fdc 	ldrdeq	r0, [r0], -ip
    63c8:	06acac03 	strteq	sl, [ip], r3, lsl #24
    63cc:	03000000 	movweq	r0, #0
    63d0:	0000068b 	andeq	r0, r0, fp, lsl #13
    63d4:	071bad03 	ldreq	sl, [fp, -r3, lsl #26]
    63d8:	9b090000 	blls	2463e0 <__standby_start+0x2463e0>
    63dc:	04000005 	streq	r0, [r0], #-5
    63e0:	07c9b403 	strbeq	fp, [r9, r3, lsl #8]
    63e4:	db060000 	blle	1863ec <__standby_start+0x1863ec>
    63e8:	0300000b 	movweq	r0, #11
    63ec:	00005eb6 			; <UNDEFINED> instruction: 0x00005eb6
    63f0:	1c040400 	cfstrsne	mvf0, [r4], {-0}
    63f4:	06002302 	streq	r2, [r0], -r2, lsl #6
    63f8:	00000a20 	andeq	r0, r0, r0, lsr #20
    63fc:	005eb703 	subseq	fp, lr, r3, lsl #14
    6400:	02040000 	andeq	r0, r4, #0
    6404:	0023021a 	eoreq	r0, r3, sl, lsl r2
    6408:	000d8806 	andeq	r8, sp, r6, lsl #16
    640c:	5eb80300 	cdppl	3, 11, cr0, cr8, cr0, {0}
    6410:	04000000 	streq	r0, [r0], #-0
    6414:	23021802 	movwcs	r1, #10242	; 0x2802
    6418:	0b330600 	bleq	cc7c20 <__standby_start+0xcc7c20>
    641c:	b9030000 	stmdblt	r3, {}	; <UNPREDICTABLE>
    6420:	0000005e 	andeq	r0, r0, lr, asr r0
    6424:	02160204 	andseq	r0, r6, #1073741824	; 0x40000000
    6428:	e5060023 	str	r0, [r6, #-35]	; 0x23
    642c:	0300000b 	movweq	r0, #11
    6430:	00005eba 			; <UNDEFINED> instruction: 0x00005eba
    6434:	14020400 	strne	r0, [r2], #-1024	; 0x400
    6438:	06002302 	streq	r2, [r0], -r2, lsl #6
    643c:	00000b1e 	andeq	r0, r0, lr, lsl fp
    6440:	005ebb03 	subseq	fp, lr, r3, lsl #22
    6444:	02040000 	andeq	r0, r4, #0
    6448:	00230212 	eoreq	r0, r3, r2, lsl r2
    644c:	000bef06 	andeq	lr, fp, r6, lsl #30
    6450:	5ebc0300 	cdppl	3, 11, cr0, cr12, cr0, {0}
    6454:	04000000 	streq	r0, [r0], #-0
    6458:	23020012 	movwcs	r0, #8210	; 0x2012
    645c:	0a030000 	beq	c6464 <__standby_start+0xc6464>
    6460:	0300000d 	movweq	r0, #13
    6464:	000745bd 			; <UNDEFINED> instruction: 0x000745bd
    6468:	0d310900 	ldceq	9, cr0, [r1, #-0]
    646c:	03040000 	movweq	r0, #16384	; 0x4000
    6470:	000847c3 	andeq	r4, r8, r3, asr #15
    6474:	07ff0600 	ldrbeq	r0, [pc, r0, lsl #12]!
    6478:	c5030000 	strgt	r0, [r3, #-0]
    647c:	0000005e 	andeq	r0, r0, lr, asr r0
    6480:	021b0504 	andseq	r0, fp, #16777216	; 0x1000000
    6484:	bc060023 	stclt	0, cr0, [r6], {35}	; 0x23
    6488:	0300000d 	movweq	r0, #13
    648c:	00005ec6 	andeq	r5, r0, r6, asr #29
    6490:	100b0400 	andne	r0, fp, r0, lsl #8
    6494:	06002302 	streq	r2, [r0], -r2, lsl #6
    6498:	00000804 	andeq	r0, r0, r4, lsl #16
    649c:	005ec703 	subseq	ip, lr, r3, lsl #14
    64a0:	02040000 	andeq	r0, r4, #0
    64a4:	0023020e 	eoreq	r0, r3, lr, lsl #4
    64a8:	000be506 	andeq	lr, fp, r6, lsl #10
    64ac:	5ec80300 	cdppl	3, 12, cr0, cr8, cr0, {0}
    64b0:	04000000 	streq	r0, [r0], #-0
    64b4:	23020806 	movwcs	r0, #10246	; 0x2806
    64b8:	0b220600 	bleq	887cc0 <__standby_start+0x887cc0>
    64bc:	c9030000 	stmdbgt	r3, {}	; <UNPREDICTABLE>
    64c0:	0000005e 	andeq	r0, r0, lr, asr r0
    64c4:	02060204 	andeq	r0, r6, #1073741824	; 0x40000000
    64c8:	ef060023 	svc	0x00060023
    64cc:	0300000b 	movweq	r0, #11
    64d0:	00005eca 	andeq	r5, r0, sl, asr #29
    64d4:	00060400 	andeq	r0, r6, r0, lsl #8
    64d8:	00002302 	andeq	r2, r0, r2, lsl #6
    64dc:	000a6803 	andeq	r6, sl, r3, lsl #16
    64e0:	d4cb0300 	strble	r0, [fp], #768	; 0x300
    64e4:	09000007 	stmdbeq	r0, {r0, r1, r2}
    64e8:	0000090c 	andeq	r0, r0, ip, lsl #18
    64ec:	81cd0304 	bichi	r0, sp, r4, lsl #6
    64f0:	06000008 	streq	r0, [r0], -r8
    64f4:	00000d7f 	andeq	r0, r0, pc, ror sp
    64f8:	005ecf03 	subseq	ip, lr, r3, lsl #30
    64fc:	10040000 	andne	r0, r4, r0
    6500:	00230210 	eoreq	r0, r3, r0, lsl r2
    6504:	000dbc06 	andeq	fp, sp, r6, lsl #24
    6508:	5ed00300 	cdppl	3, 13, cr0, cr0, cr0, {0}
    650c:	04000000 	streq	r0, [r0], #-0
    6510:	23020010 	movwcs	r0, #8208	; 0x2010
    6514:	84030000 	strhi	r0, [r3], #-0
    6518:	0300000c 	movweq	r0, #12
    651c:	000852d1 	ldrdeq	r5, [r8], -r1
    6520:	0e0d0a00 	vmlaeq.f32	s0, s26, s0
    6524:	02dc0000 	sbcseq	r0, ip, #0
    6528:	1070d303 	rsbsne	sp, r0, r3, lsl #6
    652c:	af0b0000 	svcge	0x000b0000
    6530:	03000008 	movweq	r0, #8
    6534:	001070d5 	ldrsbeq	r7, [r0], -r5
    6538:	00230200 	eoreq	r0, r3, r0, lsl #4
    653c:	000bdb0b 	andeq	sp, fp, fp, lsl #22
    6540:	75d60300 	ldrbvc	r0, [r6, #768]	; 0x300
    6544:	02000010 	andeq	r0, r0, #16
    6548:	050b0423 	streq	r0, [fp, #-1059]	; 0x423
    654c:	0300000e 	movweq	r0, #14
    6550:	00107ad7 			; <UNDEFINED> instruction: 0x00107ad7
    6554:	08230200 	stmdaeq	r3!, {r9}
    6558:	000be50b 	andeq	lr, fp, fp, lsl #10
    655c:	75d80300 	ldrbvc	r0, [r8, #768]	; 0x300
    6560:	02000010 	andeq	r0, r0, #16
    6564:	4a0b0c23 	bmi	2c95f8 <__standby_start+0x2c95f8>
    6568:	0300000a 	movweq	r0, #10
    656c:	001075d9 			; <UNDEFINED> instruction: 0x001075d9
    6570:	10230200 	eorne	r0, r3, r0, lsl #4
    6574:	000bef0b 	andeq	lr, fp, fp, lsl #30
    6578:	75da0300 	ldrbvc	r0, [sl, #768]	; 0x300
    657c:	02000010 	andeq	r0, r0, #16
    6580:	4f0b1423 	svcmi	0x000b1423
    6584:	03000006 	movweq	r0, #6
    6588:	001075db 			; <UNDEFINED> instruction: 0x001075db
    658c:	18230200 	stmdane	r3!, {r9}
    6590:	000bf90b 	andeq	pc, fp, fp, lsl #18
    6594:	75dc0300 	ldrbvc	r0, [ip, #768]	; 0x300
    6598:	02000010 	andeq	r0, r0, #16
    659c:	600b1c23 	andvs	r1, fp, r3, lsr #24
    65a0:	0300000b 	movweq	r0, #11
    65a4:	00107fdd 			; <UNDEFINED> instruction: 0x00107fdd
    65a8:	20230200 	eorcs	r0, r3, r0, lsl #4
    65ac:	000c030b 	andeq	r0, ip, fp, lsl #6
    65b0:	75de0300 	ldrbvc	r0, [lr, #768]	; 0x300
    65b4:	02000010 	andeq	r0, r0, #16
    65b8:	090b2423 	stmdbeq	fp, {r0, r1, r5, sl, sp}
    65bc:	03000006 	movweq	r0, #6
    65c0:	001084df 			; <UNDEFINED> instruction: 0x001084df
    65c4:	28230200 	stmdacs	r3!, {r9}
    65c8:	000c0d0b 	andeq	r0, ip, fp, lsl #26
    65cc:	75e00300 	strbvc	r0, [r0, #768]!	; 0x300
    65d0:	02000010 	andeq	r0, r0, #16
    65d4:	550b2c23 	strpl	r2, [fp, #-3107]	; 0xc23
    65d8:	0300000b 	movweq	r0, #11
    65dc:	001075e1 	andseq	r7, r0, r1, ror #11
    65e0:	30230200 	eorcc	r0, r3, r0, lsl #4
    65e4:	000c170b 	andeq	r1, ip, fp, lsl #14
    65e8:	75e20300 	strbvc	r0, [r2, #768]!	; 0x300
    65ec:	02000010 	andeq	r0, r0, #16
    65f0:	f90b3423 			; <UNDEFINED> instruction: 0xf90b3423
    65f4:	03000008 	movweq	r0, #8
    65f8:	001089e3 	andseq	r8, r0, r3, ror #19
    65fc:	38230200 	stmdacc	r3!, {r9}
    6600:	000c210b 	andeq	r2, ip, fp, lsl #2
    6604:	75e40300 	strbvc	r0, [r4, #768]!	; 0x300
    6608:	02000010 	andeq	r0, r0, #16
    660c:	610b3c23 	tstvs	fp, r3, lsr #24
    6610:	03000007 	movweq	r0, #7
    6614:	00108ee5 	andseq	r8, r0, r5, ror #29
    6618:	40230200 	eormi	r0, r3, r0, lsl #4
    661c:	000e370b 	andeq	r3, lr, fp, lsl #14
    6620:	75e60300 	strbvc	r0, [r6, #768]!	; 0x300
    6624:	02000010 	andeq	r0, r0, #16
    6628:	460b4423 	strmi	r4, [fp], -r3, lsr #8
    662c:	03000006 	movweq	r0, #6
    6630:	001075e7 	andseq	r7, r0, r7, ror #11
    6634:	48230200 	stmdami	r3!, {r9}
    6638:	000b9e0b 	andeq	r9, fp, fp, lsl #28
    663c:	75e80300 	strbvc	r0, [r8, #768]!	; 0x300
    6640:	02000010 	andeq	r0, r0, #16
    6644:	520b4c23 	andpl	r4, fp, #8960	; 0x2300
    6648:	0300000a 	movweq	r0, #10
    664c:	001093e9 	andseq	r9, r0, r9, ror #7
    6650:	50230200 	eorpl	r0, r3, r0, lsl #4
    6654:	000a200b 	andeq	r2, sl, fp
    6658:	98ea0300 	stmials	sl!, {r8, r9}^
    665c:	02000010 	andeq	r0, r0, #16
    6660:	840b5423 	strhi	r5, [fp], #-1059	; 0x423
    6664:	03000007 	movweq	r0, #7
    6668:	00109deb 	andseq	r9, r0, fp, ror #27
    666c:	58230200 	stmdapl	r3!, {r9}
    6670:	000d260b 	andeq	r2, sp, fp, lsl #12
    6674:	75ec0300 	strbvc	r0, [ip, #768]!	; 0x300
    6678:	02000010 	andeq	r0, r0, #16
    667c:	790b5c23 	stmdbvc	fp, {r0, r1, r5, sl, fp, ip, lr}
    6680:	03000008 	movweq	r0, #8
    6684:	001075ed 	andseq	r7, r0, sp, ror #11
    6688:	60230200 	eorvs	r0, r3, r0, lsl #4
    668c:	0008820b 	andeq	r8, r8, fp, lsl #4
    6690:	75ee0300 	strbvc	r0, [lr, #768]!	; 0x300
    6694:	02000010 	andeq	r0, r0, #16
    6698:	cf0b6423 	svcgt	0x000b6423
    669c:	0300000d 	movweq	r0, #13
    66a0:	001075ef 	andseq	r7, r0, pc, ror #11
    66a4:	68230200 	stmdavs	r3!, {r9}
    66a8:	000abc0b 	andeq	fp, sl, fp, lsl #24
    66ac:	75f00300 	ldrbvc	r0, [r0, #768]!	; 0x300
    66b0:	02000010 	andeq	r0, r0, #16
    66b4:	2b0b6c23 	blcs	2e1748 <__standby_start+0x2e1748>
    66b8:	0300000c 	movweq	r0, #12
    66bc:	0010b2f1 			; <UNDEFINED> instruction: 0x0010b2f1
    66c0:	70230200 	eorvc	r0, r3, r0, lsl #4
    66c4:	000e1d0b 	andeq	r1, lr, fp, lsl #26
    66c8:	75f20300 	ldrbvc	r0, [r2, #768]!	; 0x300
    66cc:	03000010 	movweq	r0, #16
    66d0:	0b018023 	bleq	66764 <__standby_start+0x66764>
    66d4:	00000dd8 	ldrdeq	r0, [r0], -r8
    66d8:	1075f303 	rsbsne	pc, r5, r3, lsl #6
    66dc:	23030000 	movwcs	r0, #12288	; 0x3000
    66e0:	530c0184 	movwpl	r0, #49540	; 0xc184
    66e4:	03003064 	movweq	r3, #100	; 0x64
    66e8:	001075f4 			; <UNDEFINED> instruction: 0x001075f4
    66ec:	88230300 	stmdahi	r3!, {r8, r9}
    66f0:	64530c01 	ldrbvs	r0, [r3], #-3073	; 0xc01
    66f4:	f5030031 			; <UNDEFINED> instruction: 0xf5030031
    66f8:	00001075 	andeq	r1, r0, r5, ror r0
    66fc:	018c2303 	orreq	r2, ip, r3, lsl #6
    6700:	3264530c 	rsbcc	r5, r4, #805306368	; 0x30000000
    6704:	75f60300 	ldrbvc	r0, [r6, #768]!	; 0x300
    6708:	03000010 	movweq	r0, #16
    670c:	0b019023 	bleq	6a7a0 <__standby_start+0x6a7a0>
    6710:	00000de3 	andeq	r0, r0, r3, ror #27
    6714:	10c7f703 	sbcne	pc, r7, r3, lsl #14
    6718:	23030000 	movwcs	r0, #12288	; 0x3000
    671c:	530c0194 	movwpl	r0, #49556	; 0xc194
    6720:	f8030073 			; <UNDEFINED> instruction: 0xf8030073
    6724:	00001075 	andeq	r1, r0, r5, ror r0
    6728:	019c2303 	orrseq	r2, ip, r3, lsl #6
    672c:	000c660b 	andeq	r6, ip, fp, lsl #12
    6730:	75f90300 	ldrbvc	r0, [r9, #768]!	; 0x300
    6734:	03000010 	movweq	r0, #16
    6738:	0b01a023 	bleq	6e7cc <__standby_start+0x6e7cc>
    673c:	00000c6b 	andeq	r0, r0, fp, ror #24
    6740:	1075fa03 	rsbsne	pc, r5, r3, lsl #20
    6744:	23030000 	movwcs	r0, #12288	; 0x3000
    6748:	ee0b01a4 	adf<illegal precision>p	f0, f3, f4
    674c:	0300000d 	movweq	r0, #13
    6750:	0010ccfb 			; <UNDEFINED> instruction: 0x0010ccfb
    6754:	a8230300 	stmdage	r3!, {r8, r9}
    6758:	063c0b01 	ldrteq	r0, [ip], -r1, lsl #22
    675c:	fc030000 	stc2	0, cr0, [r3], {-0}
    6760:	00001075 	andeq	r1, r0, r5, ror r0
    6764:	01b02303 	lslseq	r2, r3, #6
    6768:	0006410b 	andeq	r4, r6, fp, lsl #2
    676c:	75fd0300 	ldrbvc	r0, [sp, #768]!	; 0x300
    6770:	03000010 	movweq	r0, #16
    6774:	0b01b423 	bleq	73808 <__standby_start+0x73808>
    6778:	00000901 	andeq	r0, r0, r1, lsl #18
    677c:	10d1fe03 	sbcsne	pc, r1, r3, lsl #28
    6780:	23030000 	movwcs	r0, #12288	; 0x3000
    6784:	ab0b01b8 	blge	2c6e6c <__standby_start+0x2c6e6c>
    6788:	0300000c 	movweq	r0, #12
    678c:	001075ff 			; <UNDEFINED> instruction: 0x001075ff
    6790:	c0230300 	eorgt	r0, r3, r0, lsl #6
    6794:	0a0b0d01 	beq	2c9ba0 <__standby_start+0x2c9ba0>
    6798:	00030000 	andeq	r0, r3, r0
    679c:	0010d601 	andseq	sp, r0, r1, lsl #12
    67a0:	c4230300 	strtgt	r0, [r3], #-768	; 0x300
    67a4:	73550e01 	cmpvc	r5, #16
    67a8:	01030062 	tsteq	r3, r2, rrx
    67ac:	00107501 	andseq	r7, r0, r1, lsl #10
    67b0:	cc230300 	stcgt	3, cr0, [r3], #-0
    67b4:	07f30d01 	ldrbeq	r0, [r3, r1, lsl #26]!
    67b8:	02030000 	andeq	r0, r3, #0
    67bc:	00107501 	andseq	r7, r0, r1, lsl #10
    67c0:	d0230300 	eorle	r0, r3, r0, lsl #6
    67c4:	09230d01 	stmdbeq	r3!, {r0, r8, sl, fp}
    67c8:	03030000 	movweq	r0, #12288	; 0x3000
    67cc:	0010eb01 	andseq	lr, r0, r1, lsl #22
    67d0:	d4230300 	strtle	r0, [r3], #-768	; 0x300
    67d4:	0df90d01 	ldcleq	13, cr0, [r9, #4]!
    67d8:	04030000 	streq	r0, [r3], #-0
    67dc:	00107501 	andseq	r7, r0, r1, lsl #10
    67e0:	f0230300 			; <UNDEFINED> instruction: 0xf0230300
    67e4:	0d020d01 	stceq	13, cr0, [r2, #-4]
    67e8:	05030000 	streq	r0, [r3, #-0]
    67ec:	00107501 	andseq	r7, r0, r1, lsl #10
    67f0:	f4230300 	vld2.8	{d0-d3}, [r3], r0
    67f4:	095a0d01 	ldmdbeq	sl, {r0, r8, sl, fp}^
    67f8:	06030000 	streq	r0, [r3], -r0
    67fc:	00107501 	andseq	r7, r0, r1, lsl #10
    6800:	f8230300 			; <UNDEFINED> instruction: 0xf8230300
    6804:	0a840d01 	beq	fe109c10 <__bss_end+0xe1065f4>
    6808:	07030000 	streq	r0, [r3, -r0]
    680c:	00107501 	andseq	r7, r0, r1, lsl #10
    6810:	fc230300 	stc2	3, cr0, [r3], #-0
    6814:	0b150d01 	bleq	549c20 <__standby_start+0x549c20>
    6818:	08030000 	stmdaeq	r3, {}	; <UNPREDICTABLE>
    681c:	00107501 	andseq	r7, r0, r1, lsl #10
    6820:	80230300 	eorhi	r0, r3, r0, lsl #6
    6824:	65420e02 	strbvs	r0, [r2, #-3586]	; 0xe02
    6828:	09030030 	stmdbeq	r3, {r4, r5}
    682c:	00107501 	andseq	r7, r0, r1, lsl #10
    6830:	84230300 	strthi	r0, [r3], #-768	; 0x300
    6834:	0a3e0d02 	beq	f89c44 <__standby_start+0xf89c44>
    6838:	0a030000 	beq	c6840 <__standby_start+0xc6840>
    683c:	00107501 	andseq	r7, r0, r1, lsl #10
    6840:	88230300 	stmdahi	r3!, {r8, r9}
    6844:	65460e02 	strbvs	r0, [r6, #-3586]	; 0xe02
    6848:	0b030030 	bleq	c6910 <__standby_start+0xc6910>
    684c:	00107501 	andseq	r7, r0, r1, lsl #10
    6850:	8c230300 	stchi	3, cr0, [r3], #-0
    6854:	05cf0d02 	strbeq	r0, [pc, #3330]	; 755e <__standby_start+0x755e>
    6858:	0c030000 	stceq	0, cr0, [r3], {-0}
    685c:	00107501 	andseq	r7, r0, r1, lsl #10
    6860:	90230300 	eorls	r0, r3, r0, lsl #6
    6864:	05db0d02 	ldrbeq	r0, [fp, #3330]	; 0xd02
    6868:	0d030000 	stceq	0, cr0, [r3, #-0]
    686c:	00107501 	andseq	r7, r0, r1, lsl #10
    6870:	94230300 	strtls	r0, [r3], #-768	; 0x300
    6874:	05f90d02 	ldrbeq	r0, [r9, #3330]!	; 0xd02
    6878:	0e030000 	cdpeq	0, 0, cr0, cr3, cr0, {0}
    687c:	00107501 	andseq	r7, r0, r1, lsl #10
    6880:	98230300 	stmdals	r3!, {r8, r9}
    6884:	05e70d02 	strbeq	r0, [r7, #3330]!	; 0xd02
    6888:	0f030000 	svceq	0x00030000
    688c:	00107501 	andseq	r7, r0, r1, lsl #10
    6890:	9c230300 	stcls	3, cr0, [r3], #-0
    6894:	092e0d02 	stmdbeq	lr!, {r1, r8, sl, fp}
    6898:	10030000 	andne	r0, r3, r0
    689c:	00110001 	andseq	r0, r1, r1
    68a0:	a0230300 	eorge	r0, r3, r0, lsl #6
    68a4:	06010d02 	streq	r0, [r1], -r2, lsl #26
    68a8:	11030000 	mrsne	r0, (UNDEF: 3)
    68ac:	00107501 	andseq	r7, r0, r1, lsl #10
    68b0:	ac230300 	stcge	3, cr0, [r3], #-0
    68b4:	06110d02 	ldreq	r0, [r1], -r2, lsl #26
    68b8:	12030000 	andne	r0, r3, #0
    68bc:	00107501 	andseq	r7, r0, r1, lsl #10
    68c0:	b0230300 	eorlt	r0, r3, r0, lsl #6
    68c4:	0c420d02 	mcrreq	13, 0, r0, r2, cr2
    68c8:	13030000 	movwne	r0, #12288	; 0x3000
    68cc:	00107501 	andseq	r7, r0, r1, lsl #10
    68d0:	b4230300 	strtlt	r0, [r3], #-768	; 0x300
    68d4:	061d0d02 	ldreq	r0, [sp], -r2, lsl #26
    68d8:	14030000 	strne	r0, [r3], #-0
    68dc:	00107501 	andseq	r7, r0, r1, lsl #10
    68e0:	b8230300 	stmdalt	r3!, {r8, r9}
    68e4:	65560e02 	ldrbvs	r0, [r6, #-3586]	; 0xe02
    68e8:	01150300 	tsteq	r5, r0, lsl #6
    68ec:	00001075 	andeq	r1, r0, r5, ror r0
    68f0:	02bc2303 	adcseq	r2, ip, #201326592	; 0xc000000
    68f4:	0008b70d 	andeq	fp, r8, sp, lsl #14
    68f8:	01160300 	tsteq	r6, r0, lsl #6
    68fc:	00001075 	andeq	r1, r0, r5, ror r0
    6900:	02c02303 	sbceq	r2, r0, #201326592	; 0xc000000
    6904:	7376410e 	cmnvc	r6, #-2147483645	; 0x80000003
    6908:	01170300 	tsteq	r7, r0, lsl #6
    690c:	00001075 	andeq	r1, r0, r5, ror r0
    6910:	02c42303 	sbceq	r2, r4, #201326592	; 0xc000000
    6914:	0006290d 	andeq	r2, r6, sp, lsl #18
    6918:	01180300 	tsteq	r8, r0, lsl #6
    691c:	00001075 	andeq	r1, r0, r5, ror r0
    6920:	02c82303 	sbceq	r2, r8, #201326592	; 0xc000000
    6924:	0009390d 	andeq	r3, r9, sp, lsl #18
    6928:	01190300 	tsteq	r9, r0, lsl #6
    692c:	00001075 	andeq	r1, r0, r5, ror r0
    6930:	02cc2303 	sbceq	r2, ip, #201326592	; 0xc000000
    6934:	0006d00d 	andeq	sp, r6, sp
    6938:	011a0300 	tsteq	sl, r0, lsl #6
    693c:	00001075 	andeq	r1, r0, r5, ror r0
    6940:	02d02303 	sbcseq	r2, r0, #201326592	; 0xc000000
    6944:	0006dc0d 	andeq	sp, r6, sp, lsl #24
    6948:	011b0300 	tsteq	fp, r0, lsl #6
    694c:	00001075 	andeq	r1, r0, r5, ror r0
    6950:	02d42303 	sbcseq	r2, r4, #201326592	; 0xc000000
    6954:	0006e80d 	andeq	lr, r6, sp, lsl #16
    6958:	011c0300 	tsteq	ip, r0, lsl #6
    695c:	00001075 	andeq	r1, r0, r5, ror r0
    6960:	02d82303 	sbcseq	r2, r8, #201326592	; 0xc000000
    6964:	0007540d 	andeq	r5, r7, sp, lsl #8
    6968:	011d0300 	tsteq	sp, r0, lsl #6
    696c:	00001075 	andeq	r1, r0, r5, ror r0
    6970:	02dc2303 	sbcseq	r2, ip, #201326592	; 0xc000000
    6974:	0006f40d 	andeq	pc, r6, sp, lsl #8
    6978:	011e0300 	tsteq	lr, r0, lsl #6
    697c:	00001075 	andeq	r1, r0, r5, ror r0
    6980:	02e02303 	rsceq	r2, r0, #201326592	; 0xc000000
    6984:	0009440d 	andeq	r4, r9, sp, lsl #8
    6988:	011f0300 	tsteq	pc, r0, lsl #6
    698c:	00001075 	andeq	r1, r0, r5, ror r0
    6990:	02e42303 	rsceq	r2, r4, #201326592	; 0xc000000
    6994:	0006830d 	andeq	r8, r6, sp, lsl #6
    6998:	01200300 	teqeq	r0, r0, lsl #6
    699c:	00001075 	andeq	r1, r0, r5, ror r0
    69a0:	02e82303 	rsceq	r2, r8, #201326592	; 0xc000000
    69a4:	000d730d 	andeq	r7, sp, sp, lsl #6
    69a8:	01210300 	teqeq	r1, r0, lsl #6
    69ac:	00001075 	andeq	r1, r0, r5, ror r0
    69b0:	02ec2303 	rsceq	r2, ip, #201326592	; 0xc000000
    69b4:	00094f0d 	andeq	r4, r9, sp, lsl #30
    69b8:	01220300 	teqeq	r2, r0, lsl #6
    69bc:	00001105 	andeq	r1, r0, r5, lsl #2
    69c0:	02f02303 	rscseq	r2, r0, #201326592	; 0xc000000
    69c4:	00085b0d 	andeq	r5, r8, sp, lsl #22
    69c8:	01230300 	teqeq	r3, r0, lsl #6
    69cc:	00001075 	andeq	r1, r0, r5, ror r0
    69d0:	03802303 	orreq	r2, r0, #201326592	; 0xc000000
    69d4:	0008130d 	andeq	r1, r8, sp, lsl #6
    69d8:	01240300 	teqeq	r4, r0, lsl #6
    69dc:	00001075 	andeq	r1, r0, r5, ror r0
    69e0:	03842303 	orreq	r2, r4, #201326592	; 0xc000000
    69e4:	00081f0d 	andeq	r1, r8, sp, lsl #30
    69e8:	01250300 	teqeq	r5, r0, lsl #6
    69ec:	00001075 	andeq	r1, r0, r5, ror r0
    69f0:	03882303 	orreq	r2, r8, #201326592	; 0xc000000
    69f4:	00082b0d 	andeq	r2, r8, sp, lsl #22
    69f8:	01260300 	teqeq	r6, r0, lsl #6
    69fc:	00001075 	andeq	r1, r0, r5, ror r0
    6a00:	038c2303 	orreq	r2, ip, #201326592	; 0xc000000
    6a04:	000a280d 	andeq	r2, sl, sp, lsl #16
    6a08:	01270300 	teqeq	r7, r0, lsl #6
    6a0c:	0000110a 	andeq	r1, r0, sl, lsl #2
    6a10:	03902303 	orrseq	r2, r0, #201326592	; 0xc000000
    6a14:	0008530d 	andeq	r5, r8, sp, lsl #6
    6a18:	01280300 	teqeq	r8, r0, lsl #6
    6a1c:	00001075 	andeq	r1, r0, r5, ror r0
    6a20:	03a02303 	moveq	r2, #201326592	; 0xc000000
    6a24:	0007db0d 	andeq	sp, r7, sp, lsl #22
    6a28:	01290300 	teqeq	r9, r0, lsl #6
    6a2c:	00001075 	andeq	r1, r0, r5, ror r0
    6a30:	03a42303 			; <UNDEFINED> instruction: 0x03a42303
    6a34:	000a910d 	andeq	r9, sl, sp, lsl #2
    6a38:	012a0300 	teqeq	sl, r0, lsl #6
    6a3c:	00001075 	andeq	r1, r0, r5, ror r0
    6a40:	03a82303 			; <UNDEFINED> instruction: 0x03a82303
    6a44:	00086d0d 	andeq	r6, r8, sp, lsl #26
    6a48:	012b0300 	teqeq	fp, r0, lsl #6
    6a4c:	00001075 	andeq	r1, r0, r5, ror r0
    6a50:	03ac2303 			; <UNDEFINED> instruction: 0x03ac2303
    6a54:	7374410e 	cmnvc	r4, #-2147483645	; 0x80000003
    6a58:	012c0300 	teqeq	ip, r0, lsl #6
    6a5c:	00001075 	andeq	r1, r0, r5, ror r0
    6a60:	03b02303 	movseq	r2, #201326592	; 0xc000000
    6a64:	000a330d 	andeq	r3, sl, sp, lsl #6
    6a68:	012d0300 	teqeq	sp, r0, lsl #6
    6a6c:	0000111f 	andeq	r1, r0, pc, lsl r1
    6a70:	03b42303 			; <UNDEFINED> instruction: 0x03b42303
    6a74:	0008370d 	andeq	r3, r8, sp, lsl #14
    6a78:	012e0300 	teqeq	lr, r0, lsl #6
    6a7c:	00001124 	andeq	r1, r0, r4, lsr #2
    6a80:	04802303 	streq	r2, [r0], #771	; 0x303
    6a84:	000add0d 	andeq	sp, sl, sp, lsl #26
    6a88:	012f0300 	teqeq	pc, r0, lsl #6
    6a8c:	00001075 	andeq	r1, r0, r5, ror r0
    6a90:	04842303 	streq	r2, [r4], #771	; 0x303
    6a94:	000db00d 	andeq	fp, sp, sp
    6a98:	01300300 	teqeq	r0, r0, lsl #6
    6a9c:	00001139 	andeq	r1, r0, r9, lsr r1
    6aa0:	04882303 	streq	r2, [r8], #771	; 0x303
    6aa4:	0009b70d 	andeq	fp, r9, sp, lsl #14
    6aa8:	01310300 	teqeq	r1, r0, lsl #6
    6aac:	0000114e 	andeq	r1, r0, lr, asr #2
    6ab0:	04a02303 	strteq	r2, [r0], #771	; 0x303
    6ab4:	0006b00d 	andeq	fp, r6, sp
    6ab8:	01320300 	teqeq	r2, r0, lsl #6
    6abc:	00001075 	andeq	r1, r0, r5, ror r0
    6ac0:	04a42303 	strteq	r2, [r4], #771	; 0x303
    6ac4:	00088b0d 	andeq	r8, r8, sp, lsl #22
    6ac8:	01330300 	teqeq	r3, r0, lsl #6
    6acc:	00001075 	andeq	r1, r0, r5, ror r0
    6ad0:	04a82303 	strteq	r2, [r8], #771	; 0x303
    6ad4:	0009f90d 	andeq	pc, r9, sp, lsl #18
    6ad8:	01340300 	teqeq	r4, r0, lsl #6
    6adc:	00001075 	andeq	r1, r0, r5, ror r0
    6ae0:	04ac2303 	strteq	r2, [ip], #771	; 0x303
    6ae4:	000ae60d 	andeq	lr, sl, sp, lsl #12
    6ae8:	01350300 	teqeq	r5, r0, lsl #6
    6aec:	00001075 	andeq	r1, r0, r5, ror r0
    6af0:	04b02303 	ldrteq	r2, [r0], #771	; 0x303
    6af4:	000c9d0d 	andeq	r9, ip, sp, lsl #26
    6af8:	01360300 	teqeq	r6, r0, lsl #6
    6afc:	00001075 	andeq	r1, r0, r5, ror r0
    6b00:	04b42303 	ldrteq	r2, [r4], #771	; 0x303
    6b04:	0007940d 	andeq	r9, r7, sp, lsl #8
    6b08:	01370300 	teqeq	r7, r0, lsl #6
    6b0c:	00001075 	andeq	r1, r0, r5, ror r0
    6b10:	04b82303 	ldrteq	r2, [r8], #771	; 0x303
    6b14:	0007d00d 	andeq	sp, r7, sp
    6b18:	01380300 	teqeq	r8, r0, lsl #6
    6b1c:	00001075 	andeq	r1, r0, r5, ror r0
    6b20:	04bc2303 	ldrteq	r2, [ip], #771	; 0x303
    6b24:	0009c00d 	andeq	ip, r9, sp
    6b28:	01390300 	teqeq	r9, r0, lsl #6
    6b2c:	00001075 	andeq	r1, r0, r5, ror r0
    6b30:	04c02303 	strbeq	r2, [r0], #771	; 0x303
    6b34:	00072a0d 	andeq	r2, r7, sp, lsl #20
    6b38:	013a0300 	teqeq	sl, r0, lsl #6
    6b3c:	00001075 	andeq	r1, r0, r5, ror r0
    6b40:	04c42303 	strbeq	r2, [r4], #771	; 0x303
    6b44:	000b290d 	andeq	r2, fp, sp, lsl #18
    6b48:	013b0300 	teqeq	fp, r0, lsl #6
    6b4c:	00001075 	andeq	r1, r0, r5, ror r0
    6b50:	04c82303 	strbeq	r2, [r8], #771	; 0x303
    6b54:	000ce70d 	andeq	lr, ip, sp, lsl #14
    6b58:	013c0300 	teqeq	ip, r0, lsl #6
    6b5c:	00001075 	andeq	r1, r0, r5, ror r0
    6b60:	04cc2303 	strbeq	r2, [ip], #771	; 0x303
    6b64:	00074c0d 	andeq	r4, r7, sp, lsl #24
    6b68:	013d0300 	teqeq	sp, r0, lsl #6
    6b6c:	00001075 	andeq	r1, r0, r5, ror r0
    6b70:	04d02303 	ldrbeq	r2, [r0], #771	; 0x303
    6b74:	0007a00d 	andeq	sl, r7, sp
    6b78:	013e0300 	teqeq	lr, r0, lsl #6
    6b7c:	00001153 	andeq	r1, r0, r3, asr r1
    6b80:	04d42303 	ldrbeq	r2, [r4], #771	; 0x303
    6b84:	000a030d 	andeq	r0, sl, sp, lsl #6
    6b88:	013f0300 	teqeq	pc, r0, lsl #6
    6b8c:	00001075 	andeq	r1, r0, r5, ror r0
    6b90:	04e02303 	strbteq	r2, [r0], #771	; 0x303
    6b94:	0007ac0d 	andeq	sl, r7, sp, lsl #24
    6b98:	01400300 	mrseq	r0, SPSR_irq
    6b9c:	00001158 	andeq	r1, r0, r8, asr r1
    6ba0:	04e42303 	strbteq	r2, [r4], #771	; 0x303
    6ba4:	0009d80d 	andeq	sp, r9, sp, lsl #16
    6ba8:	01410300 	mrseq	r0, (UNDEF: 113)
    6bac:	00001075 	andeq	r1, r0, r5, ror r0
    6bb0:	04f02303 	ldrbteq	r2, [r0], #771	; 0x303
    6bb4:	0007b80d 	andeq	fp, r7, sp, lsl #16
    6bb8:	01420300 	mrseq	r0, SPSR_svc
    6bbc:	0000115d 	andeq	r1, r0, sp, asr r1
    6bc0:	04f42303 	ldrbteq	r2, [r4], #771	; 0x303
    6bc4:	0009cc0d 	andeq	ip, r9, sp, lsl #24
    6bc8:	01430300 	mrseq	r0, (UNDEF: 115)
    6bcc:	00001075 	andeq	r1, r0, r5, ror r0
    6bd0:	05802303 	streq	r2, [r0, #771]	; 0x303
    6bd4:	000c4f0d 	andeq	r4, ip, sp, lsl #30
    6bd8:	01440300 	mrseq	r0, SPSR_abt
    6bdc:	00001075 	andeq	r1, r0, r5, ror r0
    6be0:	05842303 	streq	r2, [r4, #771]	; 0x303
    6be4:	000d930d 	andeq	r9, sp, sp, lsl #6
    6be8:	01450300 	mrseq	r0, (UNDEF: 117)
    6bec:	00001075 	andeq	r1, r0, r5, ror r0
    6bf0:	05882303 	streq	r2, [r8, #771]	; 0x303
    6bf4:	000da30d 	andeq	sl, sp, sp, lsl #6
    6bf8:	01460300 	mrseq	r0, SPSR_und
    6bfc:	00001075 	andeq	r1, r0, r5, ror r0
    6c00:	058c2303 	streq	r2, [ip, #771]	; 0x303
    6c04:	00058b0d 	andeq	r8, r5, sp, lsl #22
    6c08:	01470300 	mrseq	r0, (UNDEF: 119)
    6c0c:	00001075 	andeq	r1, r0, r5, ror r0
    6c10:	05902303 	ldreq	r2, [r0, #771]	; 0x303
    6c14:	000c700d 	andeq	r7, ip, sp
    6c18:	01480300 	mrseq	r0, (UNDEF: 120)
    6c1c:	00001162 	andeq	r1, r0, r2, ror #2
    6c20:	05942303 	ldreq	r2, [r4, #771]	; 0x303
    6c24:	00071c0d 	andeq	r1, r7, sp, lsl #24
    6c28:	01490300 	mrseq	r0, (UNDEF: 121)
    6c2c:	00001075 	andeq	r1, r0, r5, ror r0
    6c30:	059c2303 	ldreq	r2, [ip, #771]	; 0x303
    6c34:	0009640d 	andeq	r6, r9, sp, lsl #8
    6c38:	014a0300 	mrseq	r0, (UNDEF: 122)
    6c3c:	00001075 	andeq	r1, r0, r5, ror r0
    6c40:	05a02303 	streq	r2, [r0, #771]!	; 0x303
    6c44:	0007000d 	andeq	r0, r7, sp
    6c48:	014b0300 	mrseq	r0, (UNDEF: 123)
    6c4c:	00001075 	andeq	r1, r0, r5, ror r0
    6c50:	05a42303 	streq	r2, [r4, #771]!	; 0x303
    6c54:	000c350d 	andeq	r3, ip, sp, lsl #10
    6c58:	014c0300 	mrseq	r0, SPSR_mon
    6c5c:	00001075 	andeq	r1, r0, r5, ror r0
    6c60:	05a82303 	streq	r2, [r8, #771]!	; 0x303
    6c64:	000d4b0d 	andeq	r4, sp, sp, lsl #22
    6c68:	014d0300 	mrseq	r0, (UNDEF: 125)
    6c6c:	00001075 	andeq	r1, r0, r5, ror r0
    6c70:	05ac2303 	streq	r2, [ip, #771]!	; 0x303
    6c74:	000d5f0d 	andeq	r5, sp, sp, lsl #30
    6c78:	014e0300 	mrseq	r0, SPSR_hyp
    6c7c:	00001075 	andeq	r1, r0, r5, ror r0
    6c80:	05b02303 	ldreq	r2, [r0, #771]!	; 0x303
    6c84:	0007c40d 	andeq	ip, r7, sp, lsl #8
    6c88:	014f0300 	mrseq	r0, (UNDEF: 127)
    6c8c:	00001167 	andeq	r1, r0, r7, ror #2
    6c90:	05b42303 	ldreq	r2, [r4, #771]!	; 0x303
    6c94:	000a980d 	andeq	r9, sl, sp, lsl #16
    6c98:	01500300 	cmpeq	r0, r0, lsl #6
    6c9c:	00001075 	andeq	r1, r0, r5, ror r0
    6ca0:	05c02303 	strbeq	r2, [r0, #771]	; 0x303
    6ca4:	000aa20d 	andeq	sl, sl, sp, lsl #4
    6ca8:	01510300 	cmpeq	r1, r0, lsl #6
    6cac:	00001075 	andeq	r1, r0, r5, ror r0
    6cb0:	05c42303 	strbeq	r2, [r4, #771]	; 0x303
    6cb4:	000aac0d 	andeq	sl, sl, sp, lsl #24
    6cb8:	01520300 	cmpeq	r2, r0, lsl #6
    6cbc:	00001075 	andeq	r1, r0, r5, ror r0
    6cc0:	05c82303 	strbeq	r2, [r8, #771]	; 0x303
    6cc4:	0009e30d 	andeq	lr, r9, sp, lsl #6
    6cc8:	01530300 	cmpeq	r3, r0, lsl #6
    6ccc:	00001075 	andeq	r1, r0, r5, ror r0
    6cd0:	05cc2303 	strbeq	r2, [ip, #771]	; 0x303
    6cd4:	000bca0d 	andeq	ip, fp, sp, lsl #20
    6cd8:	01540300 	cmpeq	r4, r0, lsl #6
    6cdc:	00001075 	andeq	r1, r0, r5, ror r0
    6ce0:	05d02303 	ldrbeq	r2, [r0, #771]	; 0x303
    6ce4:	0009ee0d 	andeq	lr, r9, sp, lsl #28
    6ce8:	01550300 	cmpeq	r5, r0, lsl #6
    6cec:	00001075 	andeq	r1, r0, r5, ror r0
    6cf0:	05d42303 	ldrbeq	r2, [r4, #771]	; 0x303
    6cf4:	0008090d 	andeq	r0, r8, sp, lsl #18
    6cf8:	01560300 	cmpeq	r6, r0, lsl #6
    6cfc:	00001075 	andeq	r1, r0, r5, ror r0
    6d00:	05d82303 	ldrbeq	r2, [r8, #771]	; 0x303
    6d04:	01830f00 	orreq	r0, r3, r0, lsl #30
    6d08:	5e0f0000 	cdppl	0, 0, cr0, cr15, cr0, {0}
    6d0c:	0f000000 	svceq	0x00000000
    6d10:	00000256 	andeq	r0, r0, r6, asr r2
    6d14:	00034b0f 	andeq	r4, r3, pc, lsl #22
    6d18:	04620f00 	strbteq	r0, [r2], #-3840	; 0xf00
    6d1c:	460f0000 	strmi	r0, [pc], -r0
    6d20:	0f000005 	svceq	0x00000005
    6d24:	000006a1 	andeq	r0, r0, r1, lsr #13
    6d28:	00073a0f 	andeq	r3, r7, pc, lsl #20
    6d2c:	07c90f00 	strbeq	r0, [r9, r0, lsl #30]
    6d30:	470f0000 	strmi	r0, [pc, -r0]
    6d34:	10000008 	andne	r0, r0, r8
    6d38:	0000005e 	andeq	r0, r0, lr, asr r0
    6d3c:	000010b2 	strheq	r1, [r0], -r2
    6d40:	00006911 	andeq	r6, r0, r1, lsl r9
    6d44:	0f000300 	svceq	0x00000300
    6d48:	000010a2 	andeq	r1, r0, r2, lsr #1
    6d4c:	00005e10 	andeq	r5, r0, r0, lsl lr
    6d50:	0010c700 	andseq	ip, r0, r0, lsl #14
    6d54:	00691100 	rsbeq	r1, r9, r0, lsl #2
    6d58:	00010000 	andeq	r0, r1, r0
    6d5c:	0010b70f 	andseq	fp, r0, pc, lsl #14
    6d60:	10b70f00 	adcsne	r0, r7, r0, lsl #30
    6d64:	b70f0000 	strlt	r0, [pc, -r0]
    6d68:	0f000010 	svceq	0x00000010
    6d6c:	000010b7 	strheq	r1, [r0], -r7
    6d70:	00005e10 	andeq	r5, r0, r0, lsl lr
    6d74:	0010eb00 	andseq	lr, r0, r0, lsl #22
    6d78:	00691100 	rsbeq	r1, r9, r0, lsl #2
    6d7c:	00060000 	andeq	r0, r6, r0
    6d80:	0010db0f 	andseq	sp, r0, pc, lsl #22
    6d84:	005e1000 	subseq	r1, lr, r0
    6d88:	11000000 	mrsne	r0, (UNDEF: 0)
    6d8c:	69110000 	ldmdbvs	r1, {}	; <UNPREDICTABLE>
    6d90:	02000000 	andeq	r0, r0, #0
    6d94:	10f00f00 	rscsne	r0, r0, r0, lsl #30
    6d98:	a20f0000 	andge	r0, pc, #0
    6d9c:	0f000010 	svceq	0x00000010
    6da0:	000010a2 	andeq	r1, r0, r2, lsr #1
    6da4:	00005e10 	andeq	r5, r0, r0, lsl lr
    6da8:	00111f00 	andseq	r1, r1, r0, lsl #30
    6dac:	00691100 	rsbeq	r1, r9, r0, lsl #2
    6db0:	00120000 	andseq	r0, r2, r0
    6db4:	00110f0f 	andseq	r0, r1, pc, lsl #30
    6db8:	08810f00 	stmeq	r1, {r8, r9, sl, fp}
    6dbc:	5e100000 	cdppl	0, 1, cr0, cr0, cr0, {0}
    6dc0:	39000000 	stmdbcc	r0, {}	; <UNPREDICTABLE>
    6dc4:	11000011 	tstne	r0, r1, lsl r0
    6dc8:	00000069 	andeq	r0, r0, r9, rrx
    6dcc:	290f0005 	stmdbcs	pc, {r0, r2}	; <UNPREDICTABLE>
    6dd0:	10000011 	andne	r0, r0, r1, lsl r0
    6dd4:	0000005e 	andeq	r0, r0, lr, asr r0
    6dd8:	0000114e 	andeq	r1, r0, lr, asr #2
    6ddc:	00006911 	andeq	r6, r0, r1, lsl r9
    6de0:	0f000000 	svceq	0x00000000
    6de4:	0000113e 	andeq	r1, r0, lr, lsr r1
    6de8:	0010f00f 	andseq	pc, r0, pc
    6dec:	10f00f00 	rscsne	r0, r0, r0, lsl #30
    6df0:	f00f0000 			; <UNDEFINED> instruction: 0xf00f0000
    6df4:	0f000010 	svceq	0x00000010
    6df8:	000010b7 	strheq	r1, [r0], -r7
    6dfc:	0010f00f 	andseq	pc, r0, pc
    6e00:	0cd51200 	lfmeq	f1, 2, [r5], {0}
    6e04:	57030000 	strpl	r0, [r3, -r0]
    6e08:	00088c01 	andeq	r8, r8, r1, lsl #24
    6e0c:	6c041300 	stcvs	3, cr1, [r4], {-0}
    6e10:	09000011 	stmdbeq	r0, {r0, r4}
    6e14:	0000214a 	andeq	r2, r0, sl, asr #2
    6e18:	a7180408 	ldrge	r0, [r8, -r8, lsl #8]
    6e1c:	0b000011 	bleq	6e68 <__standby_start+0x6e68>
    6e20:	00002060 	andeq	r2, r0, r0, rrx
    6e24:	005e1904 	subseq	r1, lr, r4, lsl #18
    6e28:	23020000 	movwcs	r0, #8192	; 0x2000
    6e2c:	20cc0b00 	sbccs	r0, ip, r0, lsl #22
    6e30:	1a040000 	bne	106e38 <__standby_start+0x106e38>
    6e34:	0000005e 	andeq	r0, r0, lr, asr r0
    6e38:	00042302 	andeq	r2, r4, r2, lsl #6
    6e3c:	00216409 	eoreq	r6, r1, r9, lsl #8
    6e40:	1d042400 	cfstrsne	mvf2, [r4, #-0]
    6e44:	00001232 	andeq	r1, r0, r2, lsr r2
    6e48:	0021790b 	eoreq	r7, r1, fp, lsl #18
    6e4c:	5e1e0400 	cfmulspl	mvf0, mvf14, mvf0
    6e50:	02000000 	andeq	r0, r0, #0
    6e54:	6f0b0023 	svcvs	0x000b0023
    6e58:	04000021 	streq	r0, [r0], #-33	; 0x21
    6e5c:	00005e1f 	andeq	r5, r0, pc, lsl lr
    6e60:	04230200 	strteq	r0, [r3], #-512	; 0x200
    6e64:	0020d80b 	eoreq	sp, r0, fp, lsl #16
    6e68:	5e200400 	cdppl	4, 2, cr0, cr0, cr0, {0}
    6e6c:	02000000 	andeq	r0, r0, #0
    6e70:	4a0b0823 	bmi	2c8f04 <__standby_start+0x2c8f04>
    6e74:	0400000a 	streq	r0, [r0], #-10
    6e78:	00005e22 	andeq	r5, r0, r2, lsr #28
    6e7c:	0c230200 	sfmeq	f0, 4, [r3], #-0
    6e80:	00064f0b 	andeq	r4, r6, fp, lsl #30
    6e84:	5e230400 	cdppl	4, 2, cr0, cr3, cr0, {0}
    6e88:	02000000 	andeq	r0, r0, #0
    6e8c:	8b0b1023 	blhi	2caf20 <__standby_start+0x2caf20>
    6e90:	04000008 	streq	r0, [r0], #-8
    6e94:	00005e24 	andeq	r5, r0, r4, lsr #28
    6e98:	14230200 	strtne	r0, [r3], #-512	; 0x200
    6e9c:	0009f90b 	andeq	pc, r9, fp, lsl #18
    6ea0:	5e250400 	cdppl	4, 2, cr0, cr5, cr0, {0}
    6ea4:	02000000 	andeq	r0, r0, #0
    6ea8:	930b1823 	movwls	r1, #47139	; 0xb823
    6eac:	0400000d 	streq	r0, [r0], #-13
    6eb0:	00005e26 	andeq	r5, r0, r6, lsr #28
    6eb4:	1c230200 	sfmne	f0, 4, [r3], #-0
    6eb8:	000da30b 	andeq	sl, sp, fp, lsl #6
    6ebc:	5e270400 	cdppl	4, 2, cr0, cr7, cr0, {0}
    6ec0:	02000000 	andeq	r0, r0, #0
    6ec4:	09002023 	stmdbeq	r0, {r0, r1, r5, sp}
    6ec8:	00002086 	andeq	r2, r0, r6, lsl #1
    6ecc:	85320408 	ldrhi	r0, [r2, #-1032]!	; 0x408
    6ed0:	0b000012 	bleq	6f20 <__standby_start+0x6f20>
    6ed4:	0000077c 	andeq	r0, r0, ip, ror r7
    6ed8:	002c3304 	eoreq	r3, ip, r4, lsl #6
    6edc:	23020000 	movwcs	r0, #8192	; 0x2000
    6ee0:	076c0b00 	strbeq	r0, [ip, -r0, lsl #22]!
    6ee4:	34040000 	strcc	r0, [r4], #-0
    6ee8:	0000002c 	andeq	r0, r0, ip, lsr #32
    6eec:	0b012302 	bleq	4fafc <__standby_start+0x4fafc>
    6ef0:	00000774 	andeq	r0, r0, r4, ror r7
    6ef4:	002c3504 	eoreq	r3, ip, r4, lsl #10
    6ef8:	23020000 	movwcs	r0, #8192	; 0x2000
    6efc:	078c0b02 	streq	r0, [ip, r2, lsl #22]
    6f00:	36040000 	strcc	r0, [r4], -r0
    6f04:	0000002c 	andeq	r0, r0, ip, lsr #32
    6f08:	0c032302 	stceq	3, cr2, [r3], {2}
    6f0c:	006c6c50 	rsbeq	r6, ip, r0, asr ip
    6f10:	005e3704 	subseq	r3, lr, r4, lsl #14
    6f14:	23020000 	movwcs	r0, #8192	; 0x2000
    6f18:	40090004 	andmi	r0, r9, r4
    6f1c:	40000021 	andmi	r0, r0, r1, lsr #32
    6f20:	12ae3a04 	adcne	r3, lr, #16384	; 0x4000
    6f24:	7d0b0000 	stcvc	0, cr0, [fp, #-0]
    6f28:	0400000c 	streq	r0, [r0], #-12
    6f2c:	0011783b 	andseq	r7, r1, fp, lsr r8
    6f30:	00230200 	eoreq	r0, r3, r0, lsl #4
    6f34:	0020e10b 	eoreq	lr, r0, fp, lsl #2
    6f38:	ae3c0400 	cfabssge	mvf0, mvf12
    6f3c:	02000012 	andeq	r0, r0, #18
    6f40:	10000423 	andne	r0, r0, r3, lsr #8
    6f44:	0000005e 	andeq	r0, r0, lr, asr r0
    6f48:	000012be 			; <UNDEFINED> instruction: 0x000012be
    6f4c:	00006911 	andeq	r6, r0, r1, lsl r9
    6f50:	02000e00 	andeq	r0, r0, #0
    6f54:	02f30704 	rscseq	r0, r3, #1048576	; 0x100000
    6f58:	01140000 	tsteq	r4, r0
    6f5c:	00002068 	andeq	r2, r0, r8, rrx
    6f60:	78011501 	stmdavc	r1, {r0, r8, sl, ip}
    6f64:	70000011 	andvc	r0, r0, r1, lsl r0
    6f68:	a0f0002d 	rscsge	r0, r0, sp, lsr #32
    6f6c:	02f0002d 	rscseq	r0, r0, #45	; 0x2d
    6f70:	12f1007d 	rscsne	r0, r1, #125	; 0x7d
    6f74:	34150000 	ldrcc	r0, [r5], #-0
    6f78:	0100001b 	tsteq	r0, fp, lsl r0
    6f7c:	00005e15 	andeq	r5, r0, r5, lsl lr
    6f80:	0021d500 	eoreq	sp, r1, r0, lsl #10
    6f84:	01160000 	tsteq	r6, r0
    6f88:	00002134 	andeq	r2, r0, r4, lsr r1
    6f8c:	78012e01 	stmdavc	r1, {r0, r9, sl, fp, sp}
    6f90:	a0000011 	andge	r0, r0, r1, lsl r0
    6f94:	b0f0002d 	rscslt	r0, r0, sp, lsr #32
    6f98:	02f0002d 	rscseq	r0, r0, #45	; 0x2d
    6f9c:	0114007d 	tsteq	r4, sp, ror r0
    6fa0:	000020b7 	strheq	r2, [r0], -r7
    6fa4:	4c014501 	cfstr32mi	mvfx4, [r1], {1}
    6fa8:	b0000000 	andlt	r0, r0, r0
    6fac:	ecf0002d 	ldcl	0, cr0, [r0], #180	; 0xb4
    6fb0:	02f0002d 	rscseq	r0, r0, #45	; 0x2d
    6fb4:	1335007d 	teqne	r5, #125	; 0x7d
    6fb8:	3f150000 	svccc	0x00150000
    6fbc:	01000021 	tsteq	r0, r1, lsr #32
    6fc0:	00133545 	andseq	r3, r3, r5, asr #10
    6fc4:	0021e800 	eoreq	lr, r1, r0, lsl #16
    6fc8:	04130000 	ldreq	r0, [r3], #-0
    6fcc:	00001285 	andeq	r1, r0, r5, lsl #5
    6fd0:	21540114 	cmpcs	r4, r4, lsl r1
    6fd4:	60010000 	andvs	r0, r1, r0
    6fd8:	00004c01 	andeq	r4, r0, r1, lsl #24
    6fdc:	002dec00 	eoreq	lr, sp, r0, lsl #24
    6fe0:	002e20f0 	strdeq	r2, [lr], -r0	; <UNPREDICTABLE>
    6fe4:	007d02f0 	ldrshteq	r0, [sp], #-32	; 0xffffffe0
    6fe8:	00001367 	andeq	r1, r0, r7, ror #6
    6fec:	00213f15 	eoreq	r3, r1, r5, lsl pc
    6ff0:	35600100 	strbcc	r0, [r0, #-256]!	; 0x100
    6ff4:	06000013 			; <UNDEFINED> instruction: 0x06000013
    6ff8:	00000022 	andeq	r0, r0, r2, lsr #32
    6ffc:	21250117 	teqcs	r5, r7, lsl r1
    7000:	7e010000 	cdpvc	0, 0, cr0, cr1, cr0, {0}
    7004:	00004c01 	andeq	r4, r0, r1, lsl #24
    7008:	002e2000 	eoreq	r2, lr, r0
    700c:	002e88f0 	strdeq	r8, [lr], -r0	; <UNPREDICTABLE>
    7010:	002224f0 	strdeq	r2, [r2], -r0	; <UNPREDICTABLE>
    7014:	00139400 	andseq	r9, r3, r0, lsl #8
    7018:	20c41500 	sbccs	r1, r4, r0, lsl #10
    701c:	7e010000 	cdpvc	0, 0, cr0, cr1, cr0, {0}
    7020:	00001394 	muleq	r0, r4, r3
    7024:	00002244 	andeq	r2, r0, r4, asr #4
    7028:	7e041300 	cdpvc	3, 0, cr1, cr4, cr0, {0}
    702c:	17000011 	smladne	r0, r1, r0, r0
    7030:	0020a801 	eoreq	sl, r0, r1, lsl #16
    7034:	01a20100 			; <UNDEFINED> instruction: 0x01a20100
    7038:	0000004c 	andeq	r0, r0, ip, asr #32
    703c:	f0002e88 			; <UNDEFINED> instruction: 0xf0002e88
    7040:	f0002ed0 			; <UNDEFINED> instruction: 0xf0002ed0
    7044:	00002262 	andeq	r2, r0, r2, ror #4
    7048:	000013c7 	andeq	r1, r0, r7, asr #7
    704c:	0020c415 	eoreq	ip, r0, r5, lsl r4
    7050:	94a20100 	strtls	r0, [r2], #256	; 0x100
    7054:	82000013 	andhi	r0, r0, #19
    7058:	00000022 	andeq	r0, r0, r2, lsr #32
    705c:	20ee0117 	rsccs	r0, lr, r7, lsl r1
    7060:	bc010000 	stclt	0, cr0, [r1], {-0}
    7064:	00004c01 	andeq	r4, r0, r1, lsl #24
    7068:	002ed000 	eoreq	sp, lr, r0
    706c:	002f30f0 	strdeq	r3, [pc], -r0	; <UNPREDICTABLE>
    7070:	0022a0f0 	strdeq	sl, [r2], -r0	; <UNPREDICTABLE>
    7074:	0013f400 	andseq	pc, r3, r0, lsl #8
    7078:	21111500 	tstcs	r1, r0, lsl #10
    707c:	bc010000 	stclt	0, cr0, [r1], {-0}
    7080:	000013f4 	strdeq	r1, [r0], -r4
    7084:	000022c0 	andeq	r2, r0, r0, asr #5
    7088:	32041300 	andcc	r1, r4, #0
    708c:	17000012 	smladne	r0, r2, r0, r0
    7090:	00210501 	eoreq	r0, r1, r1, lsl #10
    7094:	01dc0100 	bicseq	r0, ip, r0, lsl #2
    7098:	0000004c 	andeq	r0, r0, ip, asr #32
    709c:	f0002f30 			; <UNDEFINED> instruction: 0xf0002f30
    70a0:	f0002f80 			; <UNDEFINED> instruction: 0xf0002f80
    70a4:	000022de 	ldrdeq	r2, [r0], -lr
    70a8:	00001427 	andeq	r1, r0, r7, lsr #8
    70ac:	00211115 	eoreq	r1, r1, r5, lsl r1
    70b0:	f4dc0100 			; <UNDEFINED> instruction: 0xf4dc0100
    70b4:	fe000013 	mcr2	0, 0, r0, cr0, cr3, {0}
    70b8:	00000022 	andeq	r0, r0, r2, lsr #32
    70bc:	20750114 	rsbscs	r0, r5, r4, lsl r1
    70c0:	f9010000 			; <UNDEFINED> instruction: 0xf9010000
    70c4:	00004c01 	andeq	r4, r0, r1, lsl #24
    70c8:	002f8000 	eoreq	r8, pc, r0
    70cc:	002ff4f0 	strdeq	pc, [pc], -r0	; <UNPREDICTABLE>
    70d0:	007d02f0 	ldrshteq	r0, [sp], #-32	; 0xffffffe0
    70d4:	00001453 	andeq	r1, r0, r3, asr r4
    70d8:	00211c15 	eoreq	r1, r1, r5, lsl ip
    70dc:	53f90100 	mvnspl	r0, #0
    70e0:	1c000014 	stcne	0, cr0, [r0], {20}
    70e4:	00000023 	andeq	r0, r0, r3, lsr #32
    70e8:	11a70413 			; <UNDEFINED> instruction: 0x11a70413
    70ec:	01180000 	tsteq	r8, r0
    70f0:	0000204f 	andeq	r2, r0, pc, asr #32
    70f4:	01012501 	tsteq	r1, r1, lsl #10
    70f8:	0000004c 	andeq	r0, r0, ip, asr #32
    70fc:	f0002ff4 			; <UNDEFINED> instruction: 0xf0002ff4
    7100:	f0003054 			; <UNDEFINED> instruction: 0xf0003054
    7104:	87007d02 	strhi	r7, [r0, -r2, lsl #26]
    7108:	19000014 	stmdbne	r0, {r2, r4}
    710c:	0000211c 	andeq	r2, r0, ip, lsl r1
    7110:	53012501 	movwpl	r2, #5377	; 0x1501
    7114:	3a000014 	bcc	716c <__standby_start+0x716c>
    7118:	00000023 	andeq	r0, r0, r3, lsr #32
    711c:	20930118 	addscs	r0, r3, r8, lsl r1
    7120:	6a010000 	bvs	47128 <__standby_start+0x47128>
    7124:	005e0101 	subseq	r0, lr, r1, lsl #2
    7128:	30540000 	subscc	r0, r4, r0
    712c:	30c0f000 	sbccc	pc, r0, r0
    7130:	7d02f000 	stcvc	0, cr15, [r2, #-0]
    7134:	00150500 	andseq	r0, r5, r0, lsl #10
    7138:	077c1a00 	ldrbeq	r1, [ip, -r0, lsl #20]!
    713c:	6c010000 	stcvs	0, cr0, [r1], {-0}
    7140:	00005e01 	andeq	r5, r0, r1, lsl #28
    7144:	00235800 	eoreq	r5, r3, r0, lsl #16
    7148:	076c1a00 	strbeq	r1, [ip, -r0, lsl #20]!
    714c:	6d010000 	stcvs	0, cr0, [r1, #-0]
    7150:	00005e01 	andeq	r5, r0, r1, lsl #28
    7154:	00239000 	eoreq	r9, r3, r0
    7158:	07741a00 	ldrbeq	r1, [r4, -r0, lsl #20]!
    715c:	6e010000 	cdpvs	0, 0, cr0, cr1, cr0, {0}
    7160:	00005e01 	andeq	r5, r0, r1, lsl #28
    7164:	0023b000 	eoreq	fp, r3, r0
    7168:	078c1a00 	streq	r1, [ip, r0, lsl #20]
    716c:	6f010000 	svcvs	0x00010000
    7170:	00005e01 	andeq	r5, r0, r1, lsl #28
    7174:	0023e800 	eoreq	lr, r3, r0, lsl #16
    7178:	105a1a00 	subsne	r1, sl, r0, lsl #20
    717c:	70010000 	andvc	r0, r1, r0
    7180:	00005e01 	andeq	r5, r0, r1, lsl #28
    7184:	00242000 	eoreq	r2, r4, r0
    7188:	209f1a00 	addscs	r1, pc, r0, lsl #20
    718c:	71010000 	mrsvc	r0, (UNDEF: 1)
    7190:	00005e01 	andeq	r5, r0, r1, lsl #28
    7194:	00244a00 	eoreq	r4, r4, r0, lsl #20
    7198:	7d1b0000 	ldcvc	0, cr0, [fp, #-0]
    719c:	0100000c 	tsteq	r0, ip
    71a0:	00117804 	andseq	r7, r1, r4, lsl #16
    71a4:	dc030500 	cfstr32le	mvfx0, [r3], {-0}
    71a8:	1bf00035 	blne	ffc07284 <__bss_end+0xfc03c68>
    71ac:	000006bd 			; <UNDEFINED> instruction: 0x000006bd
    71b0:	01833501 	orreq	r3, r3, r1, lsl #10
    71b4:	03050000 	movweq	r0, #20480	; 0x5000
    71b8:	f00035e4 			; <UNDEFINED> instruction: 0xf00035e4
    71bc:	000cc01b 	andeq	ip, ip, fp, lsl r0
    71c0:	3a360100 	bcc	d875c8 <__standby_start+0xd875c8>
    71c4:	05000007 	streq	r0, [r0, #-7]
    71c8:	0035e003 	eorseq	lr, r5, r3
    71cc:	006100f0 	strdeq	r0, [r1], #-0	; <UNPREDICTABLE>
    71d0:	00020000 	andeq	r0, r2, r0
    71d4:	0000199d 	muleq	r0, sp, r9
    71d8:	01fd0104 	mvnseq	r0, r4, lsl #2
    71dc:	83010000 	movwhi	r0, #4096	; 0x1000
    71e0:	40000021 	andmi	r0, r0, r1, lsr #32
    71e4:	c0000001 	andgt	r0, r0, r1
    71e8:	c0f00030 	rscsgt	r0, r0, r0, lsr r0
    71ec:	63f00030 	mvnsvs	r0, #48	; 0x30
    71f0:	02000019 	andeq	r0, r0, #25
    71f4:	02680601 	rsbeq	r0, r8, #1048576	; 0x100000
    71f8:	01020000 	mrseq	r0, (UNDEF: 2)
    71fc:	00026608 	andeq	r6, r2, r8, lsl #12
    7200:	05020200 	streq	r0, [r2, #-512]	; 0x200
    7204:	000000b8 	strheq	r0, [r0], -r8
    7208:	ea070202 	b	1c7a18 <__standby_start+0x1c7a18>
    720c:	03000003 	movweq	r0, #3
    7210:	6e690504 	cdpvs	5, 6, cr0, cr9, cr4, {0}
    7214:	04020074 	streq	r0, [r2], #-116	; 0x74
    7218:	0002f807 	andeq	pc, r2, r7, lsl #16
    721c:	05080200 	streq	r0, [r8, #-512]	; 0x200
    7220:	000001dc 	ldrdeq	r0, [r0], -ip
    7224:	ee070802 	cdp	8, 0, cr0, cr7, cr2, {0}
    7228:	02000002 	andeq	r0, r0, #2
    722c:	02f30704 	rscseq	r0, r3, #1048576	; 0x100000
    7230:	Address 0x00007230 is out of bounds.


Disassembly of section .debug_abbrev:

00000000 <.debug_abbrev>:
       0:	25011101 	strcs	r1, [r1, #-257]	; 0x101
       4:	030b130e 	movweq	r1, #45838	; 0xb30e
       8:	110e1b0e 	tstne	lr, lr, lsl #22
       c:	10011201 	andne	r1, r1, r1, lsl #4
      10:	02000006 	andeq	r0, r0, #6
      14:	0b0b0024 	bleq	2c00ac <__standby_start+0x2c00ac>
      18:	0e030b3e 	vmoveq.16	d3[0], r0
      1c:	24030000 	strcs	r0, [r3], #-0
      20:	3e0b0b00 	vmlacc.f64	d0, d11, d0
      24:	0008030b 	andeq	r0, r8, fp, lsl #6
      28:	00160400 	andseq	r0, r6, r0, lsl #8
      2c:	0b3a0e03 	bleq	e83840 <__standby_start+0xe83840>
      30:	13490b3b 	movtne	r0, #39739	; 0x9b3b
      34:	04050000 	streq	r0, [r5], #-0
      38:	0b0e0301 	bleq	380c44 <__standby_start+0x380c44>
      3c:	3b0b3a0b 	blcc	2ce870 <__standby_start+0x2ce870>
      40:	0013010b 	andseq	r0, r3, fp, lsl #2
      44:	00280600 	eoreq	r0, r8, r0, lsl #12
      48:	0d1c0e03 	ldceq	14, cr0, [ip, #-12]
      4c:	13070000 	movwne	r0, #28672	; 0x7000
      50:	0b0e0301 	bleq	380c5c <__standby_start+0x380c5c>
      54:	3b0b3a0b 	blcc	2ce888 <__standby_start+0x2ce888>
      58:	0013010b 	andseq	r0, r3, fp, lsl #2
      5c:	000d0800 	andeq	r0, sp, r0, lsl #16
      60:	0b3a0803 	bleq	e82074 <__standby_start+0xe82074>
      64:	13490b3b 	movtne	r0, #39739	; 0x9b3b
      68:	00000a38 	andeq	r0, r0, r8, lsr sl
      6c:	03000d09 	movweq	r0, #3337	; 0xd09
      70:	3b0b3a0e 	blcc	2ce8b0 <__standby_start+0x2ce8b0>
      74:	3813490b 	ldmdacc	r3, {r0, r1, r3, r8, fp, lr}
      78:	0a00000a 	beq	a8 <__standby_start+0xa8>
      7c:	0e030113 	mcreq	1, 0, r0, cr3, cr3, {0}
      80:	0b3a050b 	bleq	e814b4 <__standby_start+0xe814b4>
      84:	13010b3b 	movwne	r0, #6971	; 0x1b3b
      88:	010b0000 	mrseq	r0, (UNDEF: 11)
      8c:	01134901 	tsteq	r3, r1, lsl #18
      90:	0c000013 	stceq	0, cr0, [r0], {19}
      94:	13490021 	movtne	r0, #36897	; 0x9021
      98:	00000b2f 	andeq	r0, r0, pc, lsr #22
      9c:	0b000f0d 	bleq	3cd8 <__standby_start+0x3cd8>
      a0:	0013490b 	andseq	r4, r3, fp, lsl #18
      a4:	01040e00 	tsteq	r4, r0, lsl #28
      a8:	0b3a0b0b 	bleq	e82cdc <__standby_start+0xe82cdc>
      ac:	13010b3b 	movwne	r0, #6971	; 0x1b3b
      b0:	2e0f0000 	cdpcs	0, 0, cr0, cr15, cr0, {0}
      b4:	3a0e0300 	bcc	380cbc <__standby_start+0x380cbc>
      b8:	27053b0b 	strcs	r3, [r5, -fp, lsl #22]
      bc:	000b200c 	andeq	r2, fp, ip
      c0:	002e1000 	eoreq	r1, lr, r0
      c4:	0b3a0e03 	bleq	e838d8 <__standby_start+0xe838d8>
      c8:	0c270b3b 	stceq	11, cr0, [r7], #-236	; 0xffffff14
      cc:	00000b20 	andeq	r0, r0, r0, lsr #22
      d0:	3f012e11 	svccc	0x00012e11
      d4:	3a0e030c 	bcc	380d0c <__standby_start+0x380d0c>
      d8:	270b3b0b 	strcs	r3, [fp, -fp, lsl #22]
      dc:	1113490c 	tstne	r3, ip, lsl #18
      e0:	40011201 	andmi	r1, r1, r1, lsl #4
      e4:	00130106 	andseq	r0, r3, r6, lsl #2
      e8:	00051200 	andeq	r1, r5, r0, lsl #4
      ec:	0b3a0803 	bleq	e82100 <__standby_start+0xe82100>
      f0:	13490b3b 	movtne	r0, #39739	; 0x9b3b
      f4:	00000602 	andeq	r0, r0, r2, lsl #12
      f8:	03003413 	movweq	r3, #1043	; 0x413
      fc:	3b0b3a0e 	blcc	2ce93c <__standby_start+0x2ce93c>
     100:	0213490b 	andseq	r4, r3, #180224	; 0x2c000
     104:	14000006 	strne	r0, [r0], #-6
     108:	1331011d 	teqne	r1, #1073741831	; 0x40000007
     10c:	01120111 	tsteq	r2, r1, lsl r1
     110:	0b590b58 	bleq	1642e78 <__standby_start+0x1642e78>
     114:	00001301 	andeq	r1, r0, r1, lsl #6
     118:	31001d15 	tstcc	r0, r5, lsl sp
     11c:	12011113 	andne	r1, r1, #-1073741820	; 0xc0000004
     120:	590b5801 	stmdbpl	fp, {r0, fp, ip, lr}
     124:	16000005 	strne	r0, [r0], -r5
     128:	1331001d 	teqne	r1, #29
     12c:	01120111 	tsteq	r2, r1, lsl r1
     130:	0b590b58 	bleq	1642e98 <__standby_start+0x1642e98>
     134:	1d170000 	ldcne	0, cr0, [r7, #-0]
     138:	52133100 	andspl	r3, r3, #0
     13c:	58065501 	stmdapl	r6, {r0, r8, sl, ip, lr}
     140:	000b590b 	andeq	r5, fp, fp, lsl #18
     144:	00341800 	eorseq	r1, r4, r0, lsl #16
     148:	0b3a0e03 	bleq	e8395c <__standby_start+0xe8395c>
     14c:	13490b3b 	movtne	r0, #39739	; 0x9b3b
     150:	00000a02 	andeq	r0, r0, r2, lsl #20
     154:	03003419 	movweq	r3, #1049	; 0x419
     158:	3b0b3a0e 	blcc	2ce998 <__standby_start+0x2ce998>
     15c:	1c13490b 	ldcne	9, cr4, [r3], {11}
     160:	1a00000b 	bne	194 <__standby_start+0x194>
     164:	13490021 	movtne	r0, #36897	; 0x9021
     168:	0000052f 	andeq	r0, r0, pc, lsr #10
     16c:	0300341b 	movweq	r3, #1051	; 0x41b
     170:	3b0b3a0e 	blcc	2ce9b0 <__standby_start+0x2ce9b0>
     174:	0013490b 	andseq	r4, r3, fp, lsl #18
     178:	00341c00 	eorseq	r1, r4, r0, lsl #24
     17c:	0b3a0e03 	bleq	e83990 <__standby_start+0xe83990>
     180:	13490b3b 	movtne	r0, #39739	; 0x9b3b
     184:	0a020c3f 	beq	83288 <__standby_start+0x83288>
     188:	341d0000 	ldrcc	r0, [sp], #-0
     18c:	3a0e0300 	bcc	380d94 <__standby_start+0x380d94>
     190:	490b3b0b 	stmdbmi	fp, {r0, r1, r3, r8, r9, fp, ip, sp}
     194:	3c0c3f13 	stccc	15, cr3, [ip], {19}
     198:	0000000c 	andeq	r0, r0, ip
     19c:	25011101 	strcs	r1, [r1, #-257]	; 0x101
     1a0:	030b130e 	movweq	r1, #45838	; 0xb30e
     1a4:	110e1b0e 	tstne	lr, lr, lsl #22
     1a8:	10011201 	andne	r1, r1, r1, lsl #4
     1ac:	02000006 	andeq	r0, r0, #6
     1b0:	0b0b0024 	bleq	2c0248 <__standby_start+0x2c0248>
     1b4:	0e030b3e 	vmoveq.16	d3[0], r0
     1b8:	24030000 	strcs	r0, [r3], #-0
     1bc:	3e0b0b00 	vmlacc.f64	d0, d11, d0
     1c0:	0008030b 	andeq	r0, r8, fp, lsl #6
     1c4:	00160400 	andseq	r0, r6, r0, lsl #8
     1c8:	0b3a0e03 	bleq	e839dc <__standby_start+0xe839dc>
     1cc:	13490b3b 	movtne	r0, #39739	; 0x9b3b
     1d0:	0f050000 	svceq	0x00050000
     1d4:	000b0b00 	andeq	r0, fp, r0, lsl #22
     1d8:	012e0600 	teqeq	lr, r0, lsl #12
     1dc:	0e030c3f 	mcreq	12, 0, r0, cr3, cr15, {1}
     1e0:	0b3b0b3a 	bleq	ec2ed0 <__standby_start+0xec2ed0>
     1e4:	01110c27 	tsteq	r1, r7, lsr #24
     1e8:	0a400112 	beq	1000638 <__standby_start+0x1000638>
     1ec:	00001301 	andeq	r1, r0, r1, lsl #6
     1f0:	03000507 	movweq	r0, #1287	; 0x507
     1f4:	3b0b3a0e 	blcc	2cea34 <__standby_start+0x2cea34>
     1f8:	0213490b 	andseq	r4, r3, #180224	; 0x2c000
     1fc:	08000006 	stmdaeq	r0, {r1, r2}
     200:	08030005 	stmdaeq	r3, {r0, r2}
     204:	0b3b0b3a 	bleq	ec2ef4 <__standby_start+0xec2ef4>
     208:	06021349 	streq	r1, [r2], -r9, asr #6
     20c:	34090000 	strcc	r0, [r9], #-0
     210:	3a0e0300 	bcc	380e18 <__standby_start+0x380e18>
     214:	490b3b0b 	stmdbmi	fp, {r0, r1, r3, r8, r9, fp, ip, sp}
     218:	00060213 	andeq	r0, r6, r3, lsl r2
     21c:	00340a00 	eorseq	r0, r4, r0, lsl #20
     220:	0b3a0e03 	bleq	e83a34 <__standby_start+0xe83a34>
     224:	13490b3b 	movtne	r0, #39739	; 0x9b3b
     228:	00000a02 	andeq	r0, r0, r2, lsl #20
     22c:	0b000f0b 	bleq	3e60 <__standby_start+0x3e60>
     230:	0013490b 	andseq	r4, r3, fp, lsl #18
     234:	00340c00 	eorseq	r0, r4, r0, lsl #24
     238:	0b3a0e03 	bleq	e83a4c <__standby_start+0xe83a4c>
     23c:	13490b3b 	movtne	r0, #39739	; 0x9b3b
     240:	0c3c0c3f 	ldceq	12, cr0, [ip], #-252	; 0xffffff04
     244:	01000000 	mrseq	r0, (UNDEF: 0)
     248:	0e250111 	mcreq	1, 1, r0, cr5, cr1, {0}
     24c:	0e030b13 	vmoveq.32	d3[0], r0
     250:	01110e1b 	tsteq	r1, fp, lsl lr
     254:	06100112 			; <UNDEFINED> instruction: 0x06100112
     258:	24020000 	strcs	r0, [r2], #-0
     25c:	3e0b0b00 	vmlacc.f64	d0, d11, d0
     260:	000e030b 	andeq	r0, lr, fp, lsl #6
     264:	00160300 	andseq	r0, r6, r0, lsl #6
     268:	0b3a0e03 	bleq	e83a7c <__standby_start+0xe83a7c>
     26c:	13490b3b 	movtne	r0, #39739	; 0x9b3b
     270:	24040000 	strcs	r0, [r4], #-0
     274:	3e0b0b00 	vmlacc.f64	d0, d11, d0
     278:	0008030b 	andeq	r0, r8, fp, lsl #6
     27c:	01130500 	tsteq	r3, r0, lsl #10
     280:	0b3a0b0b 	bleq	e82eb4 <__standby_start+0xe82eb4>
     284:	13010b3b 	movwne	r0, #6971	; 0x1b3b
     288:	0d060000 	stceq	0, cr0, [r6, #-0]
     28c:	3a0e0300 	bcc	380e94 <__standby_start+0x380e94>
     290:	490b3b0b 	stmdbmi	fp, {r0, r1, r3, r8, r9, fp, ip, sp}
     294:	0d0b0b13 	vstreq	d0, [fp, #-76]	; 0xffffffb4
     298:	380b0c0b 	stmdacc	fp, {r0, r1, r3, sl, fp}
     29c:	0700000a 	streq	r0, [r0, -sl]
     2a0:	0b0b0117 	bleq	2c0704 <__standby_start+0x2c0704>
     2a4:	0b3b0b3a 	bleq	ec2f94 <__standby_start+0xec2f94>
     2a8:	00001301 	andeq	r1, r0, r1, lsl #6
     2ac:	03000d08 	movweq	r0, #3336	; 0xd08
     2b0:	3b0b3a0e 	blcc	2ceaf0 <__standby_start+0x2ceaf0>
     2b4:	0013490b 	andseq	r4, r3, fp, lsl #18
     2b8:	01130900 	tsteq	r3, r0, lsl #18
     2bc:	0b0b0e03 	bleq	2c3ad0 <__standby_start+0x2c3ad0>
     2c0:	0b3b0b3a 	bleq	ec2fb0 <__standby_start+0xec2fb0>
     2c4:	00001301 	andeq	r1, r0, r1, lsl #6
     2c8:	0301130a 	movweq	r1, #4874	; 0x130a
     2cc:	3a050b0e 	bcc	142f0c <__standby_start+0x142f0c>
     2d0:	010b3b0b 	tsteq	fp, fp, lsl #22
     2d4:	0b000013 	bleq	328 <__standby_start+0x328>
     2d8:	0e03000d 	cdpeq	0, 0, cr0, cr3, cr13, {0}
     2dc:	0b3b0b3a 	bleq	ec2fcc <__standby_start+0xec2fcc>
     2e0:	0a381349 	beq	e0500c <__standby_start+0xe0500c>
     2e4:	0d0c0000 	stceq	0, cr0, [ip, #-0]
     2e8:	3a080300 	bcc	200ef0 <__standby_start+0x200ef0>
     2ec:	490b3b0b 	stmdbmi	fp, {r0, r1, r3, r8, r9, fp, ip, sp}
     2f0:	000a3813 	andeq	r3, sl, r3, lsl r8
     2f4:	000d0d00 	andeq	r0, sp, r0, lsl #26
     2f8:	0b3a0e03 	bleq	e83b0c <__standby_start+0xe83b0c>
     2fc:	1349053b 	movtne	r0, #38203	; 0x953b
     300:	00000a38 	andeq	r0, r0, r8, lsr sl
     304:	03000d0e 	movweq	r0, #3342	; 0xd0e
     308:	3b0b3a08 	blcc	2ceb30 <__standby_start+0x2ceb30>
     30c:	38134905 	ldmdacc	r3, {r0, r2, r8, fp, lr}
     310:	0f00000a 	svceq	0x0000000a
     314:	13490035 	movtne	r0, #36917	; 0x9035
     318:	01100000 	tsteq	r0, r0
     31c:	01134901 	tsteq	r3, r1, lsl #18
     320:	11000013 	tstne	r0, r3, lsl r0
     324:	13490021 	movtne	r0, #36897	; 0x9021
     328:	00000b2f 	andeq	r0, r0, pc, lsr #22
     32c:	03001612 	movweq	r1, #1554	; 0x612
     330:	3b0b3a0e 	blcc	2ceb70 <__standby_start+0x2ceb70>
     334:	00134905 	andseq	r4, r3, r5, lsl #18
     338:	000f1300 	andeq	r1, pc, r0, lsl #6
     33c:	13490b0b 	movtne	r0, #39691	; 0x9b0b
     340:	0f140000 	svceq	0x00140000
     344:	000b0b00 	andeq	r0, fp, r0, lsl #22
     348:	002e1500 	eoreq	r1, lr, r0, lsl #10
     34c:	0e030c3f 	mcreq	12, 0, r0, cr3, cr15, {1}
     350:	0b3b0b3a 	bleq	ec3040 <__standby_start+0xec3040>
     354:	13490c27 	movtne	r0, #39975	; 0x9c27
     358:	01120111 	tsteq	r2, r1, lsl r1
     35c:	00000a40 	andeq	r0, r0, r0, asr #20
     360:	3f002e16 	svccc	0x00002e16
     364:	3a0e030c 	bcc	380f9c <__standby_start+0x380f9c>
     368:	270b3b0b 	strcs	r3, [fp, -fp, lsl #22]
     36c:	1201110c 	andne	r1, r1, #3
     370:	000a4001 	andeq	r4, sl, r1
     374:	012e1700 	teqeq	lr, r0, lsl #14
     378:	0e030c3f 	mcreq	12, 0, r0, cr3, cr15, {1}
     37c:	0b3b0b3a 	bleq	ec306c <__standby_start+0xec306c>
     380:	01110c27 	tsteq	r1, r7, lsr #24
     384:	0a400112 	beq	10007d4 <__standby_start+0x10007d4>
     388:	00001301 	andeq	r1, r0, r1, lsl #6
     38c:	03003418 	movweq	r3, #1048	; 0x418
     390:	3b0b3a08 	blcc	2cebb8 <__standby_start+0x2cebb8>
     394:	0213490b 	andseq	r4, r3, #180224	; 0x2c000
     398:	19000006 	stmdbne	r0, {r1, r2}
     39c:	0e030034 	mcreq	0, 0, r0, cr3, cr4, {1}
     3a0:	0b3b0b3a 	bleq	ec3090 <__standby_start+0xec3090>
     3a4:	0a021349 	beq	850d0 <__standby_start+0x850d0>
     3a8:	341a0000 	ldrcc	r0, [sl], #-0
     3ac:	3a0e0300 	bcc	380fb4 <__standby_start+0x380fb4>
     3b0:	490b3b0b 	stmdbmi	fp, {r0, r1, r3, r8, r9, fp, ip, sp}
     3b4:	020c3f13 	andeq	r3, ip, #76	; 0x4c
     3b8:	0000000a 	andeq	r0, r0, sl
     3bc:	25011101 	strcs	r1, [r1, #-257]	; 0x101
     3c0:	030b130e 	movweq	r1, #45838	; 0xb30e
     3c4:	110e1b0e 	tstne	lr, lr, lsl #22
     3c8:	10011201 	andne	r1, r1, r1, lsl #4
     3cc:	02000006 	andeq	r0, r0, #6
     3d0:	0b0b0024 	bleq	2c0468 <__standby_start+0x2c0468>
     3d4:	0e030b3e 	vmoveq.16	d3[0], r0
     3d8:	16030000 	strne	r0, [r3], -r0
     3dc:	3a0e0300 	bcc	380fe4 <__standby_start+0x380fe4>
     3e0:	490b3b0b 	stmdbmi	fp, {r0, r1, r3, r8, r9, fp, ip, sp}
     3e4:	04000013 	streq	r0, [r0], #-19
     3e8:	0b0b0024 	bleq	2c0480 <__standby_start+0x2c0480>
     3ec:	08030b3e 	stmdaeq	r3, {r1, r2, r3, r4, r5, r8, r9, fp}
     3f0:	2e050000 	cdpcs	0, 0, cr0, cr5, cr0, {0}
     3f4:	030c3f00 	movweq	r3, #52992	; 0xcf00
     3f8:	3b0b3a0e 	blcc	2cec38 <__standby_start+0x2cec38>
     3fc:	490c270b 	stmdbmi	ip, {r0, r1, r3, r8, r9, sl, sp}
     400:	12011113 	andne	r1, r1, #-1073741820	; 0xc0000004
     404:	000a4001 	andeq	r4, sl, r1
     408:	11010000 	mrsne	r0, (UNDEF: 1)
     40c:	130e2501 	movwne	r2, #58625	; 0xe501
     410:	1b0e030b 	blne	381044 <__standby_start+0x381044>
     414:	1201110e 	andne	r1, r1, #-2147483645	; 0x80000003
     418:	00061001 	andeq	r1, r6, r1
     41c:	00240200 	eoreq	r0, r4, r0, lsl #4
     420:	0b3e0b0b 	bleq	f83054 <__standby_start+0xf83054>
     424:	00000e03 	andeq	r0, r0, r3, lsl #28
     428:	03001603 	movweq	r1, #1539	; 0x603
     42c:	3b0b3a0e 	blcc	2cec6c <__standby_start+0x2cec6c>
     430:	0013490b 	andseq	r4, r3, fp, lsl #18
     434:	00240400 	eoreq	r0, r4, r0, lsl #8
     438:	0b3e0b0b 	bleq	f8306c <__standby_start+0xf8306c>
     43c:	00000803 	andeq	r0, r0, r3, lsl #16
     440:	49003505 	stmdbmi	r0, {r0, r2, r8, sl, ip, sp}
     444:	06000013 			; <UNDEFINED> instruction: 0x06000013
     448:	0e030113 	mcreq	1, 0, r0, cr3, cr3, {0}
     44c:	0b3a0b0b 	bleq	e83080 <__standby_start+0xe83080>
     450:	13010b3b 	movwne	r0, #6971	; 0x1b3b
     454:	0d070000 	stceq	0, cr0, [r7, #-0]
     458:	3a0e0300 	bcc	381060 <__standby_start+0x381060>
     45c:	490b3b0b 	stmdbmi	fp, {r0, r1, r3, r8, r9, fp, ip, sp}
     460:	000a3813 	andeq	r3, sl, r3, lsl r8
     464:	002e0800 	eoreq	r0, lr, r0, lsl #16
     468:	0e030c3f 	mcreq	12, 0, r0, cr3, cr15, {1}
     46c:	0b3b0b3a 	bleq	ec315c <__standby_start+0xec315c>
     470:	13490c27 	movtne	r0, #39975	; 0x9c27
     474:	01120111 	tsteq	r2, r1, lsl r1
     478:	00000640 	andeq	r0, r0, r0, asr #12
     47c:	3f002e09 	svccc	0x00002e09
     480:	3a0e030c 	bcc	3810b8 <__standby_start+0x3810b8>
     484:	270b3b0b 	strcs	r3, [fp, -fp, lsl #22]
     488:	1113490c 	tstne	r3, ip, lsl #18
     48c:	40011201 	andmi	r1, r1, r1, lsl #4
     490:	0a00000a 	beq	4c0 <__standby_start+0x4c0>
     494:	0e030034 	mcreq	0, 0, r0, cr3, cr4, {1}
     498:	0b3b0b3a 	bleq	ec3188 <__standby_start+0xec3188>
     49c:	0a021349 	beq	851c8 <__standby_start+0x851c8>
     4a0:	0f0b0000 	svceq	0x000b0000
     4a4:	490b0b00 	stmdbmi	fp, {r8, r9, fp}
     4a8:	0c000013 	stceq	0, cr0, [r0], {19}
     4ac:	0e030034 	mcreq	0, 0, r0, cr3, cr4, {1}
     4b0:	0b3b0b3a 	bleq	ec31a0 <__standby_start+0xec31a0>
     4b4:	00001349 	andeq	r1, r0, r9, asr #6
     4b8:	01110100 	tsteq	r1, r0, lsl #2
     4bc:	0b130e25 	bleq	4c3d58 <__standby_start+0x4c3d58>
     4c0:	0e1b0e03 	cdpeq	14, 1, cr0, cr11, cr3, {0}
     4c4:	01120111 	tsteq	r2, r1, lsl r1
     4c8:	00000610 	andeq	r0, r0, r0, lsl r6
     4cc:	0b002402 	bleq	94dc <__standby_start+0x94dc>
     4d0:	030b3e0b 	movweq	r3, #48651	; 0xbe0b
     4d4:	0300000e 	movweq	r0, #14
     4d8:	0e030016 	mcreq	0, 0, r0, cr3, cr6, {0}
     4dc:	0b3b0b3a 	bleq	ec31cc <__standby_start+0xec31cc>
     4e0:	00001349 	andeq	r1, r0, r9, asr #6
     4e4:	0b002404 	bleq	94fc <__standby_start+0x94fc>
     4e8:	030b3e0b 	movweq	r3, #48651	; 0xbe0b
     4ec:	05000008 	streq	r0, [r0, #-8]
     4f0:	0e030104 	adfeqs	f0, f3, f4
     4f4:	0b3a0b0b 	bleq	e83128 <__standby_start+0xe83128>
     4f8:	13010b3b 	movwne	r0, #6971	; 0x1b3b
     4fc:	28060000 	stmdacs	r6, {}	; <UNPREDICTABLE>
     500:	1c0e0300 	stcne	3, cr0, [lr], {-0}
     504:	0700000d 	streq	r0, [r0, -sp]
     508:	0e030113 	mcreq	1, 0, r0, cr3, cr3, {0}
     50c:	0b3a0b0b 	bleq	e83140 <__standby_start+0xe83140>
     510:	13010b3b 	movwne	r0, #6971	; 0x1b3b
     514:	0d080000 	stceq	0, cr0, [r8, #-0]
     518:	3a080300 	bcc	201120 <__standby_start+0x201120>
     51c:	490b3b0b 	stmdbmi	fp, {r0, r1, r3, r8, r9, fp, ip, sp}
     520:	000a3813 	andeq	r3, sl, r3, lsl r8
     524:	000d0900 	andeq	r0, sp, r0, lsl #18
     528:	0b3a0e03 	bleq	e83d3c <__standby_start+0xe83d3c>
     52c:	13490b3b 	movtne	r0, #39739	; 0x9b3b
     530:	00000a38 	andeq	r0, r0, r8, lsr sl
     534:	03012e0a 	movweq	r2, #7690	; 0x1e0a
     538:	3b0b3a0e 	blcc	2ced78 <__standby_start+0x2ced78>
     53c:	490c270b 	stmdbmi	ip, {r0, r1, r3, r8, r9, sl, sp}
     540:	010b2013 	tsteq	fp, r3, lsl r0
     544:	0b000013 	bleq	598 <__standby_start+0x598>
     548:	08030005 	stmdaeq	r3, {r0, r2}
     54c:	0b3b0b3a 	bleq	ec323c <__standby_start+0xec323c>
     550:	00001349 	andeq	r1, r0, r9, asr #6
     554:	0300340c 	movweq	r3, #1036	; 0x40c
     558:	3b0b3a08 	blcc	2ced80 <__standby_start+0x2ced80>
     55c:	0013490b 	andseq	r4, r3, fp, lsl #18
     560:	000f0d00 	andeq	r0, pc, r0, lsl #26
     564:	13490b0b 	movtne	r0, #39691	; 0x9b0b
     568:	050e0000 	streq	r0, [lr, #-0]
     56c:	3a0e0300 	bcc	381174 <__standby_start+0x381174>
     570:	490b3b0b 	stmdbmi	fp, {r0, r1, r3, r8, r9, fp, ip, sp}
     574:	0f000013 	svceq	0x00000013
     578:	0c3f012e 	ldfeqs	f0, [pc], #-184	; 4c8 <__standby_start+0x4c8>
     57c:	0b3a0e03 	bleq	e83d90 <__standby_start+0xe83d90>
     580:	0c270b3b 	stceq	11, cr0, [r7], #-236	; 0xffffff14
     584:	01120111 	tsteq	r2, r1, lsl r1
     588:	13010640 	movwne	r0, #5696	; 0x1640
     58c:	05100000 	ldreq	r0, [r0, #-0]
     590:	3a0e0300 	bcc	381198 <__standby_start+0x381198>
     594:	490b3b0b 	stmdbmi	fp, {r0, r1, r3, r8, r9, fp, ip, sp}
     598:	00060213 	andeq	r0, r6, r3, lsl r2
     59c:	00341100 	eorseq	r1, r4, r0, lsl #2
     5a0:	0b3a0e03 	bleq	e83db4 <__standby_start+0xe83db4>
     5a4:	13490b3b 	movtne	r0, #39739	; 0x9b3b
     5a8:	00000602 	andeq	r0, r0, r2, lsl #12
     5ac:	03003412 	movweq	r3, #1042	; 0x412
     5b0:	3b0b3a08 	blcc	2cedd8 <__standby_start+0x2cedd8>
     5b4:	0213490b 	andseq	r4, r3, #180224	; 0x2c000
     5b8:	13000006 	movwne	r0, #6
     5bc:	1331011d 	teqne	r1, #1073741831	; 0x40000007
     5c0:	06550152 			; <UNDEFINED> instruction: 0x06550152
     5c4:	0b590b58 	bleq	164332c <__standby_start+0x164332c>
     5c8:	00001301 	andeq	r1, r0, r1, lsl #6
     5cc:	31000514 	tstcc	r0, r4, lsl r5
     5d0:	00060213 	andeq	r0, r6, r3, lsl r2
     5d4:	010b1500 	tsteq	fp, r0, lsl #10
     5d8:	00000655 	andeq	r0, r0, r5, asr r6
     5dc:	31003416 	tstcc	r0, r6, lsl r4
     5e0:	00060213 	andeq	r0, r6, r3, lsl r2
     5e4:	011d1700 	tsteq	sp, r0, lsl #14
     5e8:	01111331 	tsteq	r1, r1, lsr r3
     5ec:	0b580112 	bleq	1600a3c <__standby_start+0x1600a3c>
     5f0:	00000b59 	andeq	r0, r0, r9, asr fp
     5f4:	31000518 	tstcc	r0, r8, lsl r5
     5f8:	000a0213 	andeq	r0, sl, r3, lsl r2
     5fc:	012e1900 	teqeq	lr, r0, lsl #18
     600:	0e030c3f 	mcreq	12, 0, r0, cr3, cr15, {1}
     604:	0b3b0b3a 	bleq	ec32f4 <__standby_start+0xec32f4>
     608:	13490c27 	movtne	r0, #39975	; 0x9c27
     60c:	01120111 	tsteq	r2, r1, lsl r1
     610:	13010640 	movwne	r0, #5696	; 0x1640
     614:	341a0000 	ldrcc	r0, [sl], #-0
     618:	3a0e0300 	bcc	381220 <__standby_start+0x381220>
     61c:	490b3b0b 	stmdbmi	fp, {r0, r1, r3, r8, r9, fp, ip, sp}
     620:	000a0213 	andeq	r0, sl, r3, lsl r2
     624:	011d1b00 	tsteq	sp, r0, lsl #22
     628:	01521331 	cmpeq	r2, r1, lsr r3
     62c:	0b580655 	bleq	1601f88 <__standby_start+0x1601f88>
     630:	00000b59 	andeq	r0, r0, r9, asr fp
     634:	4901011c 	stmdbmi	r1, {r2, r3, r4, r8}
     638:	00130113 	andseq	r0, r3, r3, lsl r1
     63c:	00211d00 	eoreq	r1, r1, r0, lsl #26
     640:	0b2f1349 	bleq	bc536c <__standby_start+0xbc536c>
     644:	261e0000 	ldrcs	r0, [lr], -r0
     648:	00134900 	andseq	r4, r3, r0, lsl #18
     64c:	11010000 	mrsne	r0, (UNDEF: 1)
     650:	130e2501 	movwne	r2, #58625	; 0xe501
     654:	1b0e030b 	blne	381288 <__standby_start+0x381288>
     658:	1201110e 	andne	r1, r1, #-2147483645	; 0x80000003
     65c:	00061001 	andeq	r1, r6, r1
     660:	00240200 	eoreq	r0, r4, r0, lsl #4
     664:	0b3e0b0b 	bleq	f83298 <__standby_start+0xf83298>
     668:	00000e03 	andeq	r0, r0, r3, lsl #28
     66c:	03001603 	movweq	r1, #1539	; 0x603
     670:	3b0b3a0e 	blcc	2ceeb0 <__standby_start+0x2ceeb0>
     674:	0013490b 	andseq	r4, r3, fp, lsl #18
     678:	00240400 	eoreq	r0, r4, r0, lsl #8
     67c:	0b3e0b0b 	bleq	f832b0 <__standby_start+0xf832b0>
     680:	00000803 	andeq	r0, r0, r3, lsl #16
     684:	03011305 	movweq	r1, #4869	; 0x1305
     688:	3a0b0b0e 	bcc	2c32c8 <__standby_start+0x2c32c8>
     68c:	010b3b0b 	tsteq	fp, fp, lsl #22
     690:	06000013 			; <UNDEFINED> instruction: 0x06000013
     694:	0e03000d 	cdpeq	0, 0, cr0, cr3, cr13, {0}
     698:	0b3b0b3a 	bleq	ec3388 <__standby_start+0xec3388>
     69c:	0a381349 	beq	e053c8 <__standby_start+0xe053c8>
     6a0:	35070000 	strcc	r0, [r7, #-0]
     6a4:	00134900 	andseq	r4, r3, r0, lsl #18
     6a8:	01040800 	tsteq	r4, r0, lsl #16
     6ac:	0b0b0e03 	bleq	2c3ec0 <__standby_start+0x2c3ec0>
     6b0:	0b3b0b3a 	bleq	ec33a0 <__standby_start+0xec33a0>
     6b4:	00001301 	andeq	r1, r0, r1, lsl #6
     6b8:	03002809 	movweq	r2, #2057	; 0x809
     6bc:	000d1c0e 	andeq	r1, sp, lr, lsl #24
     6c0:	012e0a00 	teqeq	lr, r0, lsl #20
     6c4:	0b3a0e03 	bleq	e83ed8 <__standby_start+0xe83ed8>
     6c8:	0c270b3b 	stceq	11, cr0, [r7], #-236	; 0xffffff14
     6cc:	0b201349 	bleq	8053f8 <__standby_start+0x8053f8>
     6d0:	00001301 	andeq	r1, r0, r1, lsl #6
     6d4:	0300340b 	movweq	r3, #1035	; 0x40b
     6d8:	3b0b3a0e 	blcc	2cef18 <__standby_start+0x2cef18>
     6dc:	0013490b 	andseq	r4, r3, fp, lsl #18
     6e0:	012e0c00 	teqeq	lr, r0, lsl #24
     6e4:	0e030c3f 	mcreq	12, 0, r0, cr3, cr15, {1}
     6e8:	0b3b0b3a 	bleq	ec33d8 <__standby_start+0xec33d8>
     6ec:	13490c27 	movtne	r0, #39975	; 0x9c27
     6f0:	01120111 	tsteq	r2, r1, lsl r1
     6f4:	13010a40 	movwne	r0, #6720	; 0x1a40
     6f8:	050d0000 	streq	r0, [sp, #-0]
     6fc:	3a0e0300 	bcc	381304 <__standby_start+0x381304>
     700:	490b3b0b 	stmdbmi	fp, {r0, r1, r3, r8, r9, fp, ip, sp}
     704:	00060213 	andeq	r0, r6, r3, lsl r2
     708:	002e0e00 	eoreq	r0, lr, r0, lsl #28
     70c:	0e030c3f 	mcreq	12, 0, r0, cr3, cr15, {1}
     710:	0b3b0b3a 	bleq	ec3400 <__standby_start+0xec3400>
     714:	13490c27 	movtne	r0, #39975	; 0x9c27
     718:	01120111 	tsteq	r2, r1, lsl r1
     71c:	00000640 	andeq	r0, r0, r0, asr #12
     720:	3f012e0f 	svccc	0x00012e0f
     724:	3a0e030c 	bcc	38135c <__standby_start+0x38135c>
     728:	270b3b0b 	strcs	r3, [fp, -fp, lsl #22]
     72c:	1113490c 	tstne	r3, ip, lsl #18
     730:	40011201 	andmi	r1, r1, r1, lsl #4
     734:	00130106 	andseq	r0, r3, r6, lsl #2
     738:	00051000 	andeq	r1, r5, r0
     73c:	0b3a0803 	bleq	e82750 <__standby_start+0xe82750>
     740:	13490b3b 	movtne	r0, #39739	; 0x9b3b
     744:	00000602 	andeq	r0, r0, r2, lsl #12
     748:	03003411 	movweq	r3, #1041	; 0x411
     74c:	3b0b3a0e 	blcc	2cef8c <__standby_start+0x2cef8c>
     750:	0213490b 	andseq	r4, r3, #180224	; 0x2c000
     754:	12000006 	andne	r0, r0, #6
     758:	08030034 	stmdaeq	r3, {r2, r4, r5}
     75c:	0b3b0b3a 	bleq	ec344c <__standby_start+0xec344c>
     760:	06021349 	streq	r1, [r2], -r9, asr #6
     764:	0a130000 	beq	4c076c <__standby_start+0x4c076c>
     768:	3a0e0300 	bcc	381370 <__standby_start+0x381370>
     76c:	11053b0b 	tstne	r5, fp, lsl #22
     770:	14000001 	strne	r0, [r0], #-1
     774:	1331011d 	teqne	r1, #1073741831	; 0x40000007
     778:	06550152 			; <UNDEFINED> instruction: 0x06550152
     77c:	05590b58 	ldrbeq	r0, [r9, #-2904]	; 0xb58
     780:	0b150000 	bleq	540788 <__standby_start+0x540788>
     784:	00065501 	andeq	r5, r6, r1, lsl #10
     788:	00341600 	eorseq	r1, r4, r0, lsl #12
     78c:	0a021331 	beq	85458 <__standby_start+0x85458>
     790:	34170000 	ldrcc	r0, [r7], #-0
     794:	02133100 	andseq	r3, r3, #0
     798:	18000006 	stmdane	r0, {r1, r2}
     79c:	0b0b000f 	bleq	2c07e0 <__standby_start+0x2c07e0>
     7a0:	00001349 	andeq	r1, r0, r9, asr #6
     7a4:	49010119 	stmdbmi	r1, {r0, r3, r4, r8}
     7a8:	00130113 	andseq	r0, r3, r3, lsl r1
     7ac:	00211a00 	eoreq	r1, r1, r0, lsl #20
     7b0:	0b2f1349 	bleq	bc54dc <__standby_start+0xbc54dc>
     7b4:	341b0000 	ldrcc	r0, [fp], #-0
     7b8:	3a0e0300 	bcc	3813c0 <__standby_start+0x3813c0>
     7bc:	490b3b0b 	stmdbmi	fp, {r0, r1, r3, r8, r9, fp, ip, sp}
     7c0:	000a0213 	andeq	r0, sl, r3, lsl r2
     7c4:	00261c00 	eoreq	r1, r6, r0, lsl #24
     7c8:	00001349 	andeq	r1, r0, r9, asr #6
     7cc:	01110100 	tsteq	r1, r0, lsl #2
     7d0:	0b130e25 	bleq	4c406c <__standby_start+0x4c406c>
     7d4:	0e1b0e03 	cdpeq	14, 1, cr0, cr11, cr3, {0}
     7d8:	01120111 	tsteq	r2, r1, lsl r1
     7dc:	00000610 	andeq	r0, r0, r0, lsl r6
     7e0:	0b002402 	bleq	97f0 <__standby_start+0x97f0>
     7e4:	030b3e0b 	movweq	r3, #48651	; 0xbe0b
     7e8:	0300000e 	movweq	r0, #14
     7ec:	0e030016 	mcreq	0, 0, r0, cr3, cr6, {0}
     7f0:	0b3b0b3a 	bleq	ec34e0 <__standby_start+0xec34e0>
     7f4:	00001349 	andeq	r1, r0, r9, asr #6
     7f8:	0b002404 	bleq	9810 <__standby_start+0x9810>
     7fc:	030b3e0b 	movweq	r3, #48651	; 0xbe0b
     800:	05000008 	streq	r0, [r0, #-8]
     804:	0c3f002e 	ldceq	0, cr0, [pc], #-184	; 754 <__standby_start+0x754>
     808:	0b3a0e03 	bleq	e8401c <__standby_start+0xe8401c>
     80c:	0c270b3b 	stceq	11, cr0, [r7], #-236	; 0xffffff14
     810:	01111349 	tsteq	r1, r9, asr #6
     814:	0a400112 	beq	1000c64 <__standby_start+0x1000c64>
     818:	2e060000 	cdpcs	0, 0, cr0, cr6, cr0, {0}
     81c:	030c3f01 	movweq	r3, #52993	; 0xcf01
     820:	3b0b3a0e 	blcc	2cf060 <__standby_start+0x2cf060>
     824:	490c270b 	stmdbmi	ip, {r0, r1, r3, r8, r9, sl, sp}
     828:	12011113 	andne	r1, r1, #-1073741820	; 0xc0000004
     82c:	010a4001 	tsteq	sl, r1
     830:	07000013 	smladeq	r0, r3, r0, r0
     834:	0e030005 	cdpeq	0, 0, cr0, cr3, cr5, {0}
     838:	0b3b0b3a 	bleq	ec3528 <__standby_start+0xec3528>
     83c:	06021349 	streq	r1, [r2], -r9, asr #6
     840:	01000000 	mrseq	r0, (UNDEF: 0)
     844:	0e250111 	mcreq	1, 1, r0, cr5, cr1, {0}
     848:	0e030b13 	vmoveq.32	d3[0], r0
     84c:	01110e1b 	tsteq	r1, fp, lsl lr
     850:	06100112 			; <UNDEFINED> instruction: 0x06100112
     854:	24020000 	strcs	r0, [r2], #-0
     858:	3e0b0b00 	vmlacc.f64	d0, d11, d0
     85c:	000e030b 	andeq	r0, lr, fp, lsl #6
     860:	00240300 	eoreq	r0, r4, r0, lsl #6
     864:	0b3e0b0b 	bleq	f83498 <__standby_start+0xf83498>
     868:	00000803 	andeq	r0, r0, r3, lsl #16
     86c:	03011304 	movweq	r1, #4868	; 0x1304
     870:	3a0b0b0e 	bcc	2c34b0 <__standby_start+0x2c34b0>
     874:	010b3b0b 	tsteq	fp, fp, lsl #22
     878:	05000013 	streq	r0, [r0, #-19]
     87c:	0803000d 	stmdaeq	r3, {r0, r2, r3}
     880:	0b3b0b3a 	bleq	ec3570 <__standby_start+0xec3570>
     884:	0a381349 	beq	e055b0 <__standby_start+0xe055b0>
     888:	16060000 	strne	r0, [r6], -r0
     88c:	3a0e0300 	bcc	381494 <__standby_start+0x381494>
     890:	490b3b0b 	stmdbmi	fp, {r0, r1, r3, r8, r9, fp, ip, sp}
     894:	07000013 	smladeq	r0, r3, r0, r0
     898:	0e03000d 	cdpeq	0, 0, cr0, cr3, cr13, {0}
     89c:	0b3b0b3a 	bleq	ec358c <__standby_start+0xec358c>
     8a0:	0a381349 	beq	e055cc <__standby_start+0xe055cc>
     8a4:	13080000 	movwne	r0, #32768	; 0x8000
     8a8:	0b0e0301 	bleq	3814b4 <__standby_start+0x3814b4>
     8ac:	3b0b3a05 	blcc	2cf0c8 <__standby_start+0x2cf0c8>
     8b0:	0013010b 	andseq	r0, r3, fp, lsl #2
     8b4:	01010900 	tsteq	r1, r0, lsl #18
     8b8:	13011349 	movwne	r1, #4937	; 0x1349
     8bc:	210a0000 	mrscs	r0, (UNDEF: 10)
     8c0:	2f134900 	svccs	0x00134900
     8c4:	0b00000b 	bleq	8f8 <__standby_start+0x8f8>
     8c8:	0b0b000f 	bleq	2c090c <__standby_start+0x2c090c>
     8cc:	00001349 	andeq	r1, r0, r9, asr #6
     8d0:	0b000f0c 	bleq	4508 <__standby_start+0x4508>
     8d4:	0d00000b 	stceq	0, cr0, [r0, #-44]	; 0xffffffd4
     8d8:	0c270115 	stfeqs	f0, [r7], #-84	; 0xffffffac
     8dc:	13011349 	movwne	r1, #4937	; 0x1349
     8e0:	050e0000 	streq	r0, [lr, #-0]
     8e4:	00134900 	andseq	r4, r3, r0, lsl #18
     8e8:	00350f00 	eorseq	r0, r5, r0, lsl #30
     8ec:	00001349 	andeq	r1, r0, r9, asr #6
     8f0:	00003510 	andeq	r3, r0, r0, lsl r5
     8f4:	002e1100 	eoreq	r1, lr, r0, lsl #2
     8f8:	0e030c3f 	mcreq	12, 0, r0, cr3, cr15, {1}
     8fc:	0b3b0b3a 	bleq	ec35ec <__standby_start+0xec35ec>
     900:	13490c27 	movtne	r0, #39975	; 0x9c27
     904:	01120111 	tsteq	r2, r1, lsl r1
     908:	00000640 	andeq	r0, r0, r0, asr #12
     90c:	3f012e12 	svccc	0x00012e12
     910:	3a0e030c 	bcc	381548 <__standby_start+0x381548>
     914:	270b3b0b 	strcs	r3, [fp, -fp, lsl #22]
     918:	1113490c 	tstne	r3, ip, lsl #18
     91c:	40011201 	andmi	r1, r1, r1, lsl #4
     920:	00130106 	andseq	r0, r3, r6, lsl #2
     924:	00051300 	andeq	r1, r5, r0, lsl #6
     928:	0b3a0e03 	bleq	e8413c <__standby_start+0xe8413c>
     92c:	13490b3b 	movtne	r0, #39739	; 0x9b3b
     930:	00000602 	andeq	r0, r0, r2, lsl #12
     934:	03003414 	movweq	r3, #1044	; 0x414
     938:	3b0b3a0e 	blcc	2cf178 <__standby_start+0x2cf178>
     93c:	0213490b 	andseq	r4, r3, #180224	; 0x2c000
     940:	15000006 	strne	r0, [r0, #-6]
     944:	0e030034 	mcreq	0, 0, r0, cr3, cr4, {1}
     948:	0b3b0b3a 	bleq	ec3638 <__standby_start+0xec3638>
     94c:	0a021349 	beq	85678 <__standby_start+0x85678>
     950:	34160000 	ldrcc	r0, [r6], #-0
     954:	3a0e0300 	bcc	38155c <__standby_start+0x38155c>
     958:	490b3b0b 	stmdbmi	fp, {r0, r1, r3, r8, r9, fp, ip, sp}
     95c:	020c3f13 	andeq	r3, ip, #76	; 0x4c
     960:	0000000a 	andeq	r0, r0, sl
     964:	25011101 	strcs	r1, [r1, #-257]	; 0x101
     968:	030b130e 	movweq	r1, #45838	; 0xb30e
     96c:	110e1b0e 	tstne	lr, lr, lsl #22
     970:	10011201 	andne	r1, r1, r1, lsl #4
     974:	02000006 	andeq	r0, r0, #6
     978:	0b0b0024 	bleq	2c0a10 <__standby_start+0x2c0a10>
     97c:	0e030b3e 	vmoveq.16	d3[0], r0
     980:	24030000 	strcs	r0, [r3], #-0
     984:	3e0b0b00 	vmlacc.f64	d0, d11, d0
     988:	0008030b 	andeq	r0, r8, fp, lsl #6
     98c:	00160400 	andseq	r0, r6, r0, lsl #8
     990:	0b3a0e03 	bleq	e841a4 <__standby_start+0xe841a4>
     994:	13490b3b 	movtne	r0, #39739	; 0x9b3b
     998:	0f050000 	svceq	0x00050000
     99c:	000b0b00 	andeq	r0, fp, r0, lsl #22
     9a0:	00350600 	eorseq	r0, r5, r0, lsl #12
     9a4:	00001349 	andeq	r1, r0, r9, asr #6
     9a8:	03010407 	movweq	r0, #5127	; 0x1407
     9ac:	3a0b0b0e 	bcc	2c35ec <__standby_start+0x2c35ec>
     9b0:	010b3b0b 	tsteq	fp, fp, lsl #22
     9b4:	08000013 	stmdaeq	r0, {r0, r1, r4}
     9b8:	0e030028 	cdpeq	0, 0, cr0, cr3, cr8, {1}
     9bc:	00000d1c 	andeq	r0, r0, ip, lsl sp
     9c0:	0b000f09 	bleq	45ec <__standby_start+0x45ec>
     9c4:	0013490b 	andseq	r4, r3, fp, lsl #18
     9c8:	01150a00 	tsteq	r5, r0, lsl #20
     9cc:	13490c27 	movtne	r0, #39975	; 0x9c27
     9d0:	00001301 	andeq	r1, r0, r1, lsl #6
     9d4:	4900050b 	stmdbmi	r0, {r0, r1, r3, r8, sl}
     9d8:	0c000013 	stceq	0, cr0, [r0], {19}
     9dc:	0e030113 	mcreq	1, 0, r0, cr3, cr3, {0}
     9e0:	0b3a0b0b 	bleq	e83614 <__standby_start+0xe83614>
     9e4:	13010b3b 	movwne	r0, #6971	; 0x1b3b
     9e8:	0d0d0000 	stceq	0, cr0, [sp, #-0]
     9ec:	3a0e0300 	bcc	3815f4 <__standby_start+0x3815f4>
     9f0:	490b3b0b 	stmdbmi	fp, {r0, r1, r3, r8, r9, fp, ip, sp}
     9f4:	000a3813 	andeq	r3, sl, r3, lsl r8
     9f8:	000d0e00 	andeq	r0, sp, r0, lsl #28
     9fc:	0b3a0803 	bleq	e82a10 <__standby_start+0xe82a10>
     a00:	13490b3b 	movtne	r0, #39739	; 0x9b3b
     a04:	00000a38 	andeq	r0, r0, r8, lsr sl
     a08:	0000350f 	andeq	r3, r0, pc, lsl #10
     a0c:	01011000 	mrseq	r1, (UNDEF: 1)
     a10:	13011349 	movwne	r1, #4937	; 0x1349
     a14:	21110000 	tstcs	r1, r0
     a18:	2f134900 	svccs	0x00134900
     a1c:	1200000b 	andne	r0, r0, #11
     a20:	0c3f012e 	ldfeqs	f0, [pc], #-184	; 970 <__standby_start+0x970>
     a24:	0b3a0e03 	bleq	e84238 <__standby_start+0xe84238>
     a28:	0c27053b 	cfstr32eq	mvfx0, [r7], #-236	; 0xffffff14
     a2c:	0b201349 	bleq	805758 <__standby_start+0x805758>
     a30:	00001301 	andeq	r1, r0, r1, lsl #6
     a34:	03000513 	movweq	r0, #1299	; 0x513
     a38:	3b0b3a0e 	blcc	2cf278 <__standby_start+0x2cf278>
     a3c:	00134905 	andseq	r4, r3, r5, lsl #18
     a40:	012e1400 	teqeq	lr, r0, lsl #8
     a44:	0e030c3f 	mcreq	12, 0, r0, cr3, cr15, {1}
     a48:	0b3b0b3a 	bleq	ec3738 <__standby_start+0xec3738>
     a4c:	13490c27 	movtne	r0, #39975	; 0x9c27
     a50:	13010b20 	movwne	r0, #6944	; 0x1b20
     a54:	05150000 	ldreq	r0, [r5, #-0]
     a58:	3a0e0300 	bcc	381660 <__standby_start+0x381660>
     a5c:	490b3b0b 	stmdbmi	fp, {r0, r1, r3, r8, r9, fp, ip, sp}
     a60:	16000013 			; <UNDEFINED> instruction: 0x16000013
     a64:	0c3f002e 	ldceq	0, cr0, [pc], #-184	; 9b4 <__standby_start+0x9b4>
     a68:	0b3a0e03 	bleq	e8427c <__standby_start+0xe8427c>
     a6c:	0c270b3b 	stceq	11, cr0, [r7], #-236	; 0xffffff14
     a70:	01111349 	tsteq	r1, r9, asr #6
     a74:	0a400112 	beq	1000ec4 <__standby_start+0x1000ec4>
     a78:	2e170000 	cdpcs	0, 1, cr0, cr7, cr0, {0}
     a7c:	030c3f01 	movweq	r3, #52993	; 0xcf01
     a80:	3b0b3a0e 	blcc	2cf2c0 <__standby_start+0x2cf2c0>
     a84:	490c270b 	stmdbmi	ip, {r0, r1, r3, r8, r9, sl, sp}
     a88:	12011113 	andne	r1, r1, #-1073741820	; 0xc0000004
     a8c:	01064001 	tsteq	r6, r1
     a90:	18000013 	stmdane	r0, {r0, r1, r4}
     a94:	0e030005 	cdpeq	0, 0, cr0, cr3, cr5, {0}
     a98:	0b3b0b3a 	bleq	ec3788 <__standby_start+0xec3788>
     a9c:	06021349 	streq	r1, [r2], -r9, asr #6
     aa0:	34190000 	ldrcc	r0, [r9], #-0
     aa4:	3a0e0300 	bcc	3816ac <__standby_start+0x3816ac>
     aa8:	490b3b0b 	stmdbmi	fp, {r0, r1, r3, r8, r9, fp, ip, sp}
     aac:	00060213 	andeq	r0, r6, r3, lsl r2
     ab0:	00051a00 	andeq	r1, r5, r0, lsl #20
     ab4:	0b3a0e03 	bleq	e842c8 <__standby_start+0xe842c8>
     ab8:	13490b3b 	movtne	r0, #39739	; 0x9b3b
     abc:	00000a02 	andeq	r0, r0, r2, lsl #20
     ac0:	31012e1b 	tstcc	r1, fp, lsl lr
     ac4:	12011113 	andne	r1, r1, #-1073741820	; 0xc0000004
     ac8:	010a4001 	tsteq	sl, r1
     acc:	1c000013 	stcne	0, cr0, [r0], {19}
     ad0:	13310005 	teqne	r1, #5
     ad4:	00000602 	andeq	r0, r0, r2, lsl #12
     ad8:	3100051d 	tstcc	r0, sp, lsl r5
     adc:	000a0213 	andeq	r0, sl, r3, lsl r2
     ae0:	010b1e00 	tsteq	fp, r0, lsl #28
     ae4:	13010655 	movwne	r0, #5717	; 0x1655
     ae8:	1d1f0000 	ldcne	0, cr0, [pc, #-0]	; af0 <__standby_start+0xaf0>
     aec:	52133101 	andspl	r3, r3, #1073741824	; 0x40000000
     af0:	58065501 	stmdapl	r6, {r0, r8, sl, ip, lr}
     af4:	010b590b 	tsteq	fp, fp, lsl #18
     af8:	20000013 	andcs	r0, r0, r3, lsl r0
     afc:	1331011d 	teqne	r1, #1073741831	; 0x40000007
     b00:	01120111 	tsteq	r2, r1, lsl r1
     b04:	05590b58 	ldrbeq	r0, [r9, #-2904]	; 0xb58
     b08:	0b210000 	bleq	840b10 <__standby_start+0x840b10>
     b0c:	12011101 	andne	r1, r1, #1073741824	; 0x40000000
     b10:	22000001 	andcs	r0, r0, #1
     b14:	0e030034 	mcreq	0, 0, r0, cr3, cr4, {1}
     b18:	053b0b3a 	ldreq	r0, [fp, #-2874]!	; 0xb3a
     b1c:	06021349 	streq	r1, [r2], -r9, asr #6
     b20:	1d230000 	stcne	0, cr0, [r3, #-0]
     b24:	52133101 	andspl	r3, r3, #1073741824	; 0x40000000
     b28:	58065501 	stmdapl	r6, {r0, r8, sl, ip, lr}
     b2c:	0105590b 	tsteq	r5, fp, lsl #18
     b30:	24000013 	strcs	r0, [r0], #-19
     b34:	0e030034 	mcreq	0, 0, r0, cr3, cr4, {1}
     b38:	0b3b0b3a 	bleq	ec3828 <__standby_start+0xec3828>
     b3c:	0c3f1349 	ldceq	3, cr1, [pc], #-292	; a20 <__standby_start+0xa20>
     b40:	00000c3c 	andeq	r0, r0, ip, lsr ip
     b44:	01110100 	tsteq	r1, r0, lsl #2
     b48:	0b130e25 	bleq	4c43e4 <__standby_start+0x4c43e4>
     b4c:	0e1b0e03 	cdpeq	14, 1, cr0, cr11, cr3, {0}
     b50:	01120111 	tsteq	r2, r1, lsl r1
     b54:	00000610 	andeq	r0, r0, r0, lsl r6
     b58:	0b002402 	bleq	9b68 <__standby_start+0x9b68>
     b5c:	030b3e0b 	movweq	r3, #48651	; 0xbe0b
     b60:	0300000e 	movweq	r0, #14
     b64:	0b0b0024 	bleq	2c0bfc <__standby_start+0x2c0bfc>
     b68:	08030b3e 	stmdaeq	r3, {r1, r2, r3, r4, r5, r8, r9, fp}
     b6c:	2e040000 	cdpcs	0, 0, cr0, cr4, cr0, {0}
     b70:	030c3f00 	movweq	r3, #52992	; 0xcf00
     b74:	3b0b3a0e 	blcc	2cf3b4 <__standby_start+0x2cf3b4>
     b78:	490c270b 	stmdbmi	ip, {r0, r1, r3, r8, r9, sl, sp}
     b7c:	12011113 	andne	r1, r1, #-1073741820	; 0xc0000004
     b80:	000a4001 	andeq	r4, sl, r1
     b84:	012e0500 	teqeq	lr, r0, lsl #10
     b88:	0e030c3f 	mcreq	12, 0, r0, cr3, cr15, {1}
     b8c:	0b3b0b3a 	bleq	ec387c <__standby_start+0xec387c>
     b90:	13490c27 	movtne	r0, #39975	; 0x9c27
     b94:	01120111 	tsteq	r2, r1, lsl r1
     b98:	13010a40 	movwne	r0, #6720	; 0x1a40
     b9c:	05060000 	streq	r0, [r6, #-0]
     ba0:	3a0e0300 	bcc	3817a8 <__standby_start+0x3817a8>
     ba4:	490b3b0b 	stmdbmi	fp, {r0, r1, r3, r8, r9, fp, ip, sp}
     ba8:	00060213 	andeq	r0, r6, r3, lsl r2
     bac:	00050700 	andeq	r0, r5, r0, lsl #14
     bb0:	0b3a0e03 	bleq	e843c4 <__standby_start+0xe843c4>
     bb4:	13490b3b 	movtne	r0, #39739	; 0x9b3b
     bb8:	00000a02 	andeq	r0, r0, r2, lsl #20
     bbc:	3f012e08 	svccc	0x00012e08
     bc0:	3a0e030c 	bcc	3817f8 <__standby_start+0x3817f8>
     bc4:	270b3b0b 	strcs	r3, [fp, -fp, lsl #22]
     bc8:	1113490c 	tstne	r3, ip, lsl #18
     bcc:	40011201 	andmi	r1, r1, r1, lsl #4
     bd0:	0000000a 	andeq	r0, r0, sl
     bd4:	25011101 	strcs	r1, [r1, #-257]	; 0x101
     bd8:	030b130e 	movweq	r1, #45838	; 0xb30e
     bdc:	110e1b0e 	tstne	lr, lr, lsl #22
     be0:	10011201 	andne	r1, r1, r1, lsl #4
     be4:	02000006 	andeq	r0, r0, #6
     be8:	0b0b0024 	bleq	2c0c80 <__standby_start+0x2c0c80>
     bec:	0e030b3e 	vmoveq.16	d3[0], r0
     bf0:	24030000 	strcs	r0, [r3], #-0
     bf4:	3e0b0b00 	vmlacc.f64	d0, d11, d0
     bf8:	0008030b 	andeq	r0, r8, fp, lsl #6
     bfc:	000f0400 	andeq	r0, pc, r0, lsl #8
     c00:	00000b0b 	andeq	r0, r0, fp, lsl #22
     c04:	03001605 	movweq	r1, #1541	; 0x605
     c08:	3b0b3a0e 	blcc	2cf448 <__standby_start+0x2cf448>
     c0c:	0013490b 	andseq	r4, r3, fp, lsl #18
     c10:	000f0600 	andeq	r0, pc, r0, lsl #12
     c14:	13490b0b 	movtne	r0, #39691	; 0x9b0b
     c18:	15070000 	strne	r0, [r7, #-0]
     c1c:	490c2701 	stmdbmi	ip, {r0, r8, r9, sl, sp}
     c20:	00130113 	andseq	r0, r3, r3, lsl r1
     c24:	00050800 	andeq	r0, r5, r0, lsl #16
     c28:	00001349 	andeq	r1, r0, r9, asr #6
     c2c:	03011309 	movweq	r1, #4873	; 0x1309
     c30:	3a0b0b0e 	bcc	2c3870 <__standby_start+0x2c3870>
     c34:	010b3b0b 	tsteq	fp, fp, lsl #22
     c38:	0a000013 	beq	c8c <__standby_start+0xc8c>
     c3c:	0e03000d 	cdpeq	0, 0, cr0, cr3, cr13, {0}
     c40:	0b3b0b3a 	bleq	ec3930 <__standby_start+0xec3930>
     c44:	0a381349 	beq	e05970 <__standby_start+0xe05970>
     c48:	0d0b0000 	stceq	0, cr0, [fp, #-0]
     c4c:	3a080300 	bcc	201854 <__standby_start+0x201854>
     c50:	490b3b0b 	stmdbmi	fp, {r0, r1, r3, r8, r9, fp, ip, sp}
     c54:	000a3813 	andeq	r3, sl, r3, lsl r8
     c58:	00350c00 	eorseq	r0, r5, r0, lsl #24
     c5c:	00001349 	andeq	r1, r0, r9, asr #6
     c60:	0000350d 	andeq	r3, r0, sp, lsl #10
     c64:	01010e00 	tsteq	r1, r0, lsl #28
     c68:	13011349 	movwne	r1, #4937	; 0x1349
     c6c:	210f0000 	mrscs	r0, CPSR
     c70:	2f134900 	svccs	0x00134900
     c74:	1000000b 	andne	r0, r0, fp
     c78:	0c3f002e 	ldceq	0, cr0, [pc], #-184	; bc8 <__standby_start+0xbc8>
     c7c:	0b3a0e03 	bleq	e84490 <__standby_start+0xe84490>
     c80:	0c270b3b 	stceq	11, cr0, [r7], #-236	; 0xffffff14
     c84:	01111349 	tsteq	r1, r9, asr #6
     c88:	0a400112 	beq	10010d8 <__standby_start+0x10010d8>
     c8c:	2e110000 	cdpcs	0, 1, cr0, cr1, cr0, {0}
     c90:	030c3f01 	movweq	r3, #52993	; 0xcf01
     c94:	3b0b3a0e 	blcc	2cf4d4 <__standby_start+0x2cf4d4>
     c98:	490c270b 	stmdbmi	ip, {r0, r1, r3, r8, r9, sl, sp}
     c9c:	12011113 	andne	r1, r1, #-1073741820	; 0xc0000004
     ca0:	01064001 	tsteq	r6, r1
     ca4:	12000013 	andne	r0, r0, #19
     ca8:	0e030005 	cdpeq	0, 0, cr0, cr3, cr5, {0}
     cac:	0b3b0b3a 	bleq	ec399c <__standby_start+0xec399c>
     cb0:	06021349 	streq	r1, [r2], -r9, asr #6
     cb4:	34130000 	ldrcc	r0, [r3], #-0
     cb8:	3a0e0300 	bcc	3818c0 <__standby_start+0x3818c0>
     cbc:	490b3b0b 	stmdbmi	fp, {r0, r1, r3, r8, r9, fp, ip, sp}
     cc0:	00060213 	andeq	r0, r6, r3, lsl r2
     cc4:	012e1400 	teqeq	lr, r0, lsl #8
     cc8:	0e030c3f 	mcreq	12, 0, r0, cr3, cr15, {1}
     ccc:	0b3b0b3a 	bleq	ec39bc <__standby_start+0xec39bc>
     cd0:	01110c27 	tsteq	r1, r7, lsr #24
     cd4:	06400112 			; <UNDEFINED> instruction: 0x06400112
     cd8:	00001301 	andeq	r1, r0, r1, lsl #6
     cdc:	03003415 	movweq	r3, #1045	; 0x415
     ce0:	3b0b3a0e 	blcc	2cf520 <__standby_start+0x2cf520>
     ce4:	0213490b 	andseq	r4, r3, #180224	; 0x2c000
     ce8:	1600000a 	strne	r0, [r0], -sl
     cec:	0e030034 	mcreq	0, 0, r0, cr3, cr4, {1}
     cf0:	0b3b0b3a 	bleq	ec39e0 <__standby_start+0xec39e0>
     cf4:	0c3f1349 	ldceq	3, cr1, [pc], #-292	; bd8 <__standby_start+0xbd8>
     cf8:	00000c3c 	andeq	r0, r0, ip, lsr ip
     cfc:	01110100 	tsteq	r1, r0, lsl #2
     d00:	0b130e25 	bleq	4c459c <__standby_start+0x4c459c>
     d04:	0e1b0e03 	cdpeq	14, 1, cr0, cr11, cr3, {0}
     d08:	01120111 	tsteq	r2, r1, lsl r1
     d0c:	00000610 	andeq	r0, r0, r0, lsl r6
     d10:	0b002402 	bleq	9d20 <__standby_start+0x9d20>
     d14:	030b3e0b 	movweq	r3, #48651	; 0xbe0b
     d18:	0300000e 	movweq	r0, #14
     d1c:	0b0b0024 	bleq	2c0db4 <__standby_start+0x2c0db4>
     d20:	08030b3e 	stmdaeq	r3, {r1, r2, r3, r4, r5, r8, r9, fp}
     d24:	16040000 	strne	r0, [r4], -r0
     d28:	3a0e0300 	bcc	381930 <__standby_start+0x381930>
     d2c:	490b3b0b 	stmdbmi	fp, {r0, r1, r3, r8, r9, fp, ip, sp}
     d30:	05000013 	streq	r0, [r0, #-19]
     d34:	13490035 	movtne	r0, #36917	; 0x9035
     d38:	2e060000 	cdpcs	0, 0, cr0, cr6, cr0, {0}
     d3c:	030c3f01 	movweq	r3, #52993	; 0xcf01
     d40:	3b0b3a0e 	blcc	2cf580 <__standby_start+0x2cf580>
     d44:	110c270b 	tstne	ip, fp, lsl #14
     d48:	40011201 	andmi	r1, r1, r1, lsl #4
     d4c:	00130106 	andseq	r0, r3, r6, lsl #2
     d50:	00340700 	eorseq	r0, r4, r0, lsl #14
     d54:	0b3a0e03 	bleq	e84568 <__standby_start+0xe84568>
     d58:	13490b3b 	movtne	r0, #39739	; 0x9b3b
     d5c:	00000a02 	andeq	r0, r0, r2, lsl #20
     d60:	3f002e08 	svccc	0x00002e08
     d64:	3a0e030c 	bcc	38199c <__standby_start+0x38199c>
     d68:	270b3b0b 	strcs	r3, [fp, -fp, lsl #22]
     d6c:	1201110c 	andne	r1, r1, #3
     d70:	000a4001 	andeq	r4, sl, r1
     d74:	012e0900 	teqeq	lr, r0, lsl #18
     d78:	0e030c3f 	mcreq	12, 0, r0, cr3, cr15, {1}
     d7c:	0b3b0b3a 	bleq	ec3a6c <__standby_start+0xec3a6c>
     d80:	01110c27 	tsteq	r1, r7, lsr #24
     d84:	0a400112 	beq	10011d4 <__standby_start+0x10011d4>
     d88:	00001301 	andeq	r1, r0, r1, lsl #6
     d8c:	0300340a 	movweq	r3, #1034	; 0x40a
     d90:	3b0b3a08 	blcc	2cf5b8 <__standby_start+0x2cf5b8>
     d94:	0213490b 	andseq	r4, r3, #180224	; 0x2c000
     d98:	0b000006 	bleq	db8 <__standby_start+0xdb8>
     d9c:	08030005 	stmdaeq	r3, {r0, r2}
     da0:	0b3b0b3a 	bleq	ec3a90 <__standby_start+0xec3a90>
     da4:	0a021349 	beq	85ad0 <__standby_start+0x85ad0>
     da8:	2e0c0000 	cdpcs	0, 0, cr0, cr12, cr0, {0}
     dac:	030c3f00 	movweq	r3, #52992	; 0xcf00
     db0:	3b0b3a0e 	blcc	2cf5f0 <__standby_start+0x2cf5f0>
     db4:	490c270b 	stmdbmi	ip, {r0, r1, r3, r8, r9, sl, sp}
     db8:	12011113 	andne	r1, r1, #-1073741820	; 0xc0000004
     dbc:	000a4001 	andeq	r4, sl, r1
     dc0:	012e0d00 	teqeq	lr, r0, lsl #26
     dc4:	0e030c3f 	mcreq	12, 0, r0, cr3, cr15, {1}
     dc8:	053b0b3a 	ldreq	r0, [fp, #-2874]!	; 0xb3a
     dcc:	01110c27 	tsteq	r1, r7, lsr #24
     dd0:	0a400112 	beq	1001220 <__standby_start+0x1001220>
     dd4:	00001301 	andeq	r1, r0, r1, lsl #6
     dd8:	0300340e 	movweq	r3, #1038	; 0x40e
     ddc:	3b0b3a0e 	blcc	2cf61c <__standby_start+0x2cf61c>
     de0:	02134905 	andseq	r4, r3, #81920	; 0x14000
     de4:	0f00000a 	svceq	0x0000000a
     de8:	0c3f012e 	ldfeqs	f0, [pc], #-184	; d38 <__standby_start+0xd38>
     dec:	0b3a0e03 	bleq	e84600 <__standby_start+0xe84600>
     df0:	0c27053b 	cfstr32eq	mvfx0, [r7], #-236	; 0xffffff14
     df4:	01120111 	tsteq	r2, r1, lsl r1
     df8:	13010640 	movwne	r0, #5696	; 0x1640
     dfc:	05100000 	ldreq	r0, [r0, #-0]
     e00:	3a080300 	bcc	201a08 <__standby_start+0x201a08>
     e04:	49053b0b 	stmdbmi	r5, {r0, r1, r3, r8, r9, fp, ip, sp}
     e08:	00060213 	andeq	r0, r6, r3, lsl r2
     e0c:	00341100 	eorseq	r1, r4, r0, lsl #2
     e10:	0b3a0e03 	bleq	e84624 <__standby_start+0xe84624>
     e14:	1349053b 	movtne	r0, #38203	; 0x953b
     e18:	00000602 	andeq	r0, r0, r2, lsl #12
     e1c:	03003412 	movweq	r3, #1042	; 0x412
     e20:	3b0b3a0e 	blcc	2cf660 <__standby_start+0x2cf660>
     e24:	3f13490b 	svccc	0x0013490b
     e28:	000a020c 	andeq	r0, sl, ip, lsl #4
     e2c:	11010000 	mrsne	r0, (UNDEF: 1)
     e30:	130e2501 	movwne	r2, #58625	; 0xe501
     e34:	1b0e030b 	blne	381a68 <__standby_start+0x381a68>
     e38:	1201110e 	andne	r1, r1, #-2147483645	; 0x80000003
     e3c:	00061001 	andeq	r1, r6, r1
     e40:	00240200 	eoreq	r0, r4, r0, lsl #4
     e44:	0b3e0b0b 	bleq	f83a78 <__standby_start+0xf83a78>
     e48:	00000e03 	andeq	r0, r0, r3, lsl #28
     e4c:	03001603 	movweq	r1, #1539	; 0x603
     e50:	3b0b3a0e 	blcc	2cf690 <__standby_start+0x2cf690>
     e54:	0013490b 	andseq	r4, r3, fp, lsl #18
     e58:	00240400 	eoreq	r0, r4, r0, lsl #8
     e5c:	0b3e0b0b 	bleq	f83a90 <__standby_start+0xf83a90>
     e60:	00000803 	andeq	r0, r0, r3, lsl #16
     e64:	03010405 	movweq	r0, #5125	; 0x1405
     e68:	3a0b0b0e 	bcc	2c3aa8 <__standby_start+0x2c3aa8>
     e6c:	010b3b0b 	tsteq	fp, fp, lsl #22
     e70:	06000013 			; <UNDEFINED> instruction: 0x06000013
     e74:	0e030028 	cdpeq	0, 0, cr0, cr3, cr8, {1}
     e78:	00000d1c 	andeq	r0, r0, ip, lsl sp
     e7c:	3f012e07 	svccc	0x00012e07
     e80:	3a0e030c 	bcc	381ab8 <__standby_start+0x381ab8>
     e84:	270b3b0b 	strcs	r3, [fp, -fp, lsl #22]
     e88:	2013490c 	andscs	r4, r3, ip, lsl #18
     e8c:	0013010b 	andseq	r0, r3, fp, lsl #2
     e90:	00340800 	eorseq	r0, r4, r0, lsl #16
     e94:	0b3a0e03 	bleq	e846a8 <__standby_start+0xe846a8>
     e98:	13490b3b 	movtne	r0, #39739	; 0x9b3b
     e9c:	2e090000 	cdpcs	0, 0, cr0, cr9, cr0, {0}
     ea0:	030c3f01 	movweq	r3, #52993	; 0xcf01
     ea4:	3b0b3a0e 	blcc	2cf6e4 <__standby_start+0x2cf6e4>
     ea8:	200c270b 	andcs	r2, ip, fp, lsl #14
     eac:	0013010b 	andseq	r0, r3, fp, lsl #2
     eb0:	00050a00 	andeq	r0, r5, r0, lsl #20
     eb4:	0b3a0e03 	bleq	e846c8 <__standby_start+0xe846c8>
     eb8:	13490b3b 	movtne	r0, #39739	; 0x9b3b
     ebc:	2e0b0000 	cdpcs	0, 0, cr0, cr11, cr0, {0}
     ec0:	3a0e0301 	bcc	381acc <__standby_start+0x381acc>
     ec4:	270b3b0b 	strcs	r3, [fp, -fp, lsl #22]
     ec8:	2013490c 	andscs	r4, r3, ip, lsl #18
     ecc:	0013010b 	andseq	r0, r3, fp, lsl #2
     ed0:	012e0c00 	teqeq	lr, r0, lsl #24
     ed4:	01111331 	tsteq	r1, r1, lsr r3
     ed8:	0a400112 	beq	1001328 <__standby_start+0x1001328>
     edc:	00001301 	andeq	r1, r0, r1, lsl #6
     ee0:	3100050d 	tstcc	r0, sp, lsl #10
     ee4:	00060213 	andeq	r0, r6, r3, lsl r2
     ee8:	00050e00 	andeq	r0, r5, r0, lsl #28
     eec:	0a021331 	beq	85bb8 <__standby_start+0x85bb8>
     ef0:	340f0000 	strcc	r0, [pc], #-0	; ef8 <__standby_start+0xef8>
     ef4:	02133100 	andseq	r3, r3, #0
     ef8:	10000006 	andne	r0, r0, r6
     efc:	0c3f002e 	ldceq	0, cr0, [pc], #-184	; e4c <__standby_start+0xe4c>
     f00:	0b3a0e03 	bleq	e84714 <__standby_start+0xe84714>
     f04:	0c270b3b 	stceq	11, cr0, [r7], #-236	; 0xffffff14
     f08:	01120111 	tsteq	r2, r1, lsl r1
     f0c:	00000a40 	andeq	r0, r0, r0, asr #20
     f10:	31003411 	tstcc	r0, r1, lsl r4
     f14:	000a0213 	andeq	r0, sl, r3, lsl r2
     f18:	012e1200 	teqeq	lr, r0, lsl #4
     f1c:	0e030c3f 	mcreq	12, 0, r0, cr3, cr15, {1}
     f20:	0b3b0b3a 	bleq	ec3c10 <__standby_start+0xec3c10>
     f24:	01110c27 	tsteq	r1, r7, lsr #24
     f28:	0a400112 	beq	1001378 <__standby_start+0x1001378>
     f2c:	00001301 	andeq	r1, r0, r1, lsl #6
     f30:	03003413 	movweq	r3, #1043	; 0x413
     f34:	3b0b3a0e 	blcc	2cf774 <__standby_start+0x2cf774>
     f38:	0213490b 	andseq	r4, r3, #180224	; 0x2c000
     f3c:	14000006 	strne	r0, [r0], #-6
     f40:	0c3f012e 	ldfeqs	f0, [pc], #-184	; e90 <__standby_start+0xe90>
     f44:	0b3a0e03 	bleq	e84758 <__standby_start+0xe84758>
     f48:	0c270b3b 	stceq	11, cr0, [r7], #-236	; 0xffffff14
     f4c:	01120111 	tsteq	r2, r1, lsl r1
     f50:	13010640 	movwne	r0, #5696	; 0x1640
     f54:	1d150000 	ldcne	0, cr0, [r5, #-0]
     f58:	11133101 	tstne	r3, r1, lsl #2
     f5c:	58011201 	stmdapl	r1, {r0, r9, ip}
     f60:	010b590b 	tsteq	fp, fp, lsl #18
     f64:	16000013 			; <UNDEFINED> instruction: 0x16000013
     f68:	0111010b 	tsteq	r1, fp, lsl #2
     f6c:	00000112 	andeq	r0, r0, r2, lsl r1
     f70:	31011d17 	tstcc	r1, r7, lsl sp
     f74:	12011113 	andne	r1, r1, #-1073741820	; 0xc0000004
     f78:	590b5801 	stmdbpl	fp, {r0, fp, ip, lr}
     f7c:	1800000b 	stmdane	r0, {r0, r1, r3}
     f80:	08030005 	stmdaeq	r3, {r0, r2}
     f84:	0b3b0b3a 	bleq	ec3c74 <__standby_start+0xec3c74>
     f88:	06021349 	streq	r1, [r2], -r9, asr #6
     f8c:	34190000 	ldrcc	r0, [r9], #-0
     f90:	3a080300 	bcc	201b98 <__standby_start+0x201b98>
     f94:	490b3b0b 	stmdbmi	fp, {r0, r1, r3, r8, r9, fp, ip, sp}
     f98:	00060213 	andeq	r0, r6, r3, lsl r2
     f9c:	000a1a00 	andeq	r1, sl, r0, lsl #20
     fa0:	0b3a0803 	bleq	e82fb4 <__standby_start+0xe82fb4>
     fa4:	01110b3b 	tsteq	r1, fp, lsr fp
     fa8:	051b0000 	ldreq	r0, [fp, #-0]
     fac:	3a0e0300 	bcc	381bb4 <__standby_start+0x381bb4>
     fb0:	490b3b0b 	stmdbmi	fp, {r0, r1, r3, r8, r9, fp, ip, sp}
     fb4:	00060213 	andeq	r0, r6, r3, lsl r2
     fb8:	00051c00 	andeq	r1, r5, r0, lsl #24
     fbc:	0b3a0e03 	bleq	e847d0 <__standby_start+0xe847d0>
     fc0:	13490b3b 	movtne	r0, #39739	; 0x9b3b
     fc4:	00000a02 	andeq	r0, r0, r2, lsl #20
     fc8:	3f012e1d 	svccc	0x00012e1d
     fcc:	3a0e030c 	bcc	381c04 <__standby_start+0x381c04>
     fd0:	270b3b0b 	strcs	r3, [fp, -fp, lsl #22]
     fd4:	1113490c 	tstne	r3, ip, lsl #18
     fd8:	40011201 	andmi	r1, r1, r1, lsl #4
     fdc:	0013010a 	andseq	r0, r3, sl, lsl #2
     fe0:	00341e00 	eorseq	r1, r4, r0, lsl #28
     fe4:	0b3a0e03 	bleq	e847f8 <__standby_start+0xe847f8>
     fe8:	13490b3b 	movtne	r0, #39739	; 0x9b3b
     fec:	00000a02 	andeq	r0, r0, r2, lsl #20
     ff0:	01110100 	tsteq	r1, r0, lsl #2
     ff4:	0b130e25 	bleq	4c4890 <__standby_start+0x4c4890>
     ff8:	0e1b0e03 	cdpeq	14, 1, cr0, cr11, cr3, {0}
     ffc:	01120111 	tsteq	r2, r1, lsl r1
    1000:	00000610 	andeq	r0, r0, r0, lsl r6
    1004:	0b002402 	bleq	a014 <__standby_start+0xa014>
    1008:	030b3e0b 	movweq	r3, #48651	; 0xbe0b
    100c:	03000008 	movweq	r0, #8
    1010:	0b0b0024 	bleq	2c10a8 <__standby_start+0x2c10a8>
    1014:	0e030b3e 	vmoveq.16	d3[0], r0
    1018:	16040000 	strne	r0, [r4], -r0
    101c:	3a0e0300 	bcc	381c24 <__standby_start+0x381c24>
    1020:	490b3b0b 	stmdbmi	fp, {r0, r1, r3, r8, r9, fp, ip, sp}
    1024:	05000013 	streq	r0, [r0, #-19]
    1028:	0e030113 	mcreq	1, 0, r0, cr3, cr3, {0}
    102c:	0b3a0b0b 	bleq	e83c60 <__standby_start+0xe83c60>
    1030:	13010b3b 	movwne	r0, #6971	; 0x1b3b
    1034:	0d060000 	stceq	0, cr0, [r6, #-0]
    1038:	3a0e0300 	bcc	381c40 <__standby_start+0x381c40>
    103c:	490b3b0b 	stmdbmi	fp, {r0, r1, r3, r8, r9, fp, ip, sp}
    1040:	000a3813 	andeq	r3, sl, r3, lsl r8
    1044:	000d0700 	andeq	r0, sp, r0, lsl #14
    1048:	0b3a0803 	bleq	e8305c <__standby_start+0xe8305c>
    104c:	13490b3b 	movtne	r0, #39739	; 0x9b3b
    1050:	00000a38 	andeq	r0, r0, r8, lsr sl
    1054:	3f012e08 	svccc	0x00012e08
    1058:	3a0e030c 	bcc	381c90 <__standby_start+0x381c90>
    105c:	270b3b0b 	strcs	r3, [fp, -fp, lsl #22]
    1060:	1201110c 	andne	r1, r1, #3
    1064:	010a4001 	tsteq	sl, r1
    1068:	09000013 	stmdbeq	r0, {r0, r1, r4}
    106c:	0e030005 	cdpeq	0, 0, cr0, cr3, cr5, {0}
    1070:	0b3b0b3a 	bleq	ec3d60 <__standby_start+0xec3d60>
    1074:	0a021349 	beq	85da0 <__standby_start+0x85da0>
    1078:	0f0a0000 	svceq	0x000a0000
    107c:	490b0b00 	stmdbmi	fp, {r8, r9, fp}
    1080:	0b000013 	bleq	10d4 <__standby_start+0x10d4>
    1084:	0c3f012e 	ldfeqs	f0, [pc], #-184	; fd4 <__standby_start+0xfd4>
    1088:	0b3a0e03 	bleq	e8489c <__standby_start+0xe8489c>
    108c:	0c270b3b 	stceq	11, cr0, [r7], #-236	; 0xffffff14
    1090:	01120111 	tsteq	r2, r1, lsl r1
    1094:	00000a40 	andeq	r0, r0, r0, asr #20
    1098:	00110100 	andseq	r0, r1, r0, lsl #2
    109c:	01110610 	tsteq	r1, r0, lsl r6
    10a0:	08030112 	stmdaeq	r3, {r1, r4, r8}
    10a4:	0825081b 	stmdaeq	r5!, {r0, r1, r3, r4, fp}
    10a8:	00000513 	andeq	r0, r0, r3, lsl r5
    10ac:	01110100 	tsteq	r1, r0, lsl #2
    10b0:	0b130e25 	bleq	4c494c <__standby_start+0x4c494c>
    10b4:	0e1b0e03 	cdpeq	14, 1, cr0, cr11, cr3, {0}
    10b8:	01120111 	tsteq	r2, r1, lsl r1
    10bc:	00000610 	andeq	r0, r0, r0, lsl r6
    10c0:	0b002402 	bleq	a0d0 <__standby_start+0xa0d0>
    10c4:	030b3e0b 	movweq	r3, #48651	; 0xbe0b
    10c8:	0300000e 	movweq	r0, #14
    10cc:	0e030016 	mcreq	0, 0, r0, cr3, cr6, {0}
    10d0:	0b3b0b3a 	bleq	ec3dc0 <__standby_start+0xec3dc0>
    10d4:	00001349 	andeq	r1, r0, r9, asr #6
    10d8:	0b002404 	bleq	a0f0 <__standby_start+0xa0f0>
    10dc:	030b3e0b 	movweq	r3, #48651	; 0xbe0b
    10e0:	05000008 	streq	r0, [r0, #-8]
    10e4:	0b0b0113 	bleq	2c1538 <__standby_start+0x2c1538>
    10e8:	0b3b0b3a 	bleq	ec3dd8 <__standby_start+0xec3dd8>
    10ec:	00001301 	andeq	r1, r0, r1, lsl #6
    10f0:	03000d06 	movweq	r0, #3334	; 0xd06
    10f4:	3b0b3a0e 	blcc	2cf934 <__standby_start+0x2cf934>
    10f8:	0b13490b 	bleq	4d352c <__standby_start+0x4d352c>
    10fc:	0c0b0d0b 	stceq	13, cr0, [fp], {11}
    1100:	000a380b 	andeq	r3, sl, fp, lsl #16
    1104:	01170700 	tsteq	r7, r0, lsl #14
    1108:	0b3a0b0b 	bleq	e83d3c <__standby_start+0xe83d3c>
    110c:	13010b3b 	movwne	r0, #6971	; 0x1b3b
    1110:	0d080000 	stceq	0, cr0, [r8, #-0]
    1114:	3a0e0300 	bcc	381d1c <__standby_start+0x381d1c>
    1118:	490b3b0b 	stmdbmi	fp, {r0, r1, r3, r8, r9, fp, ip, sp}
    111c:	09000013 	stmdbeq	r0, {r0, r1, r4}
    1120:	0e030113 	mcreq	1, 0, r0, cr3, cr3, {0}
    1124:	0b3a0b0b 	bleq	e83d58 <__standby_start+0xe83d58>
    1128:	13010b3b 	movwne	r0, #6971	; 0x1b3b
    112c:	130a0000 	movwne	r0, #40960	; 0xa000
    1130:	0b0e0301 	bleq	381d3c <__standby_start+0x381d3c>
    1134:	3b0b3a05 	blcc	2cf950 <__standby_start+0x2cf950>
    1138:	0013010b 	andseq	r0, r3, fp, lsl #2
    113c:	000d0b00 	andeq	r0, sp, r0, lsl #22
    1140:	0b3a0e03 	bleq	e84954 <__standby_start+0xe84954>
    1144:	13490b3b 	movtne	r0, #39739	; 0x9b3b
    1148:	00000a38 	andeq	r0, r0, r8, lsr sl
    114c:	03000d0c 	movweq	r0, #3340	; 0xd0c
    1150:	3b0b3a08 	blcc	2cf978 <__standby_start+0x2cf978>
    1154:	3813490b 	ldmdacc	r3, {r0, r1, r3, r8, fp, lr}
    1158:	0d00000a 	stceq	0, cr0, [r0, #-40]	; 0xffffffd8
    115c:	0e03000d 	cdpeq	0, 0, cr0, cr3, cr13, {0}
    1160:	053b0b3a 	ldreq	r0, [fp, #-2874]!	; 0xb3a
    1164:	0a381349 	beq	e05e90 <__standby_start+0xe05e90>
    1168:	0d0e0000 	stceq	0, cr0, [lr, #-0]
    116c:	3a080300 	bcc	201d74 <__standby_start+0x201d74>
    1170:	49053b0b 	stmdbmi	r5, {r0, r1, r3, r8, r9, fp, ip, sp}
    1174:	000a3813 	andeq	r3, sl, r3, lsl r8
    1178:	00350f00 	eorseq	r0, r5, r0, lsl #30
    117c:	00001349 	andeq	r1, r0, r9, asr #6
    1180:	49010110 	stmdbmi	r1, {r4, r8}
    1184:	00130113 	andseq	r0, r3, r3, lsl r1
    1188:	00211100 	eoreq	r1, r1, r0, lsl #2
    118c:	0b2f1349 	bleq	bc5eb8 <__standby_start+0xbc5eb8>
    1190:	16120000 	ldrne	r0, [r2], -r0
    1194:	3a0e0300 	bcc	381d9c <__standby_start+0x381d9c>
    1198:	49053b0b 	stmdbmi	r5, {r0, r1, r3, r8, r9, fp, ip, sp}
    119c:	13000013 	movwne	r0, #19
    11a0:	0b0b000f 	bleq	2c11e4 <__standby_start+0x2c11e4>
    11a4:	00001349 	andeq	r1, r0, r9, asr #6
    11a8:	03012e14 	movweq	r2, #7700	; 0x1e14
    11ac:	3b0b3a0e 	blcc	2cf9ec <__standby_start+0x2cf9ec>
    11b0:	490c270b 	stmdbmi	ip, {r0, r1, r3, r8, r9, sl, sp}
    11b4:	010b2013 	tsteq	fp, r3, lsl r0
    11b8:	15000013 	strne	r0, [r0, #-19]
    11bc:	0e030005 	cdpeq	0, 0, cr0, cr3, cr5, {0}
    11c0:	0b3b0b3a 	bleq	ec3eb0 <__standby_start+0xec3eb0>
    11c4:	00001349 	andeq	r1, r0, r9, asr #6
    11c8:	03003416 	movweq	r3, #1046	; 0x416
    11cc:	3b0b3a0e 	blcc	2cfa0c <__standby_start+0x2cfa0c>
    11d0:	0013490b 	andseq	r4, r3, fp, lsl #18
    11d4:	00341700 	eorseq	r1, r4, r0, lsl #14
    11d8:	0b3a0803 	bleq	e831ec <__standby_start+0xe831ec>
    11dc:	13490b3b 	movtne	r0, #39739	; 0x9b3b
    11e0:	2e180000 	cdpcs	0, 1, cr0, cr8, cr0, {0}
    11e4:	3a0e0301 	bcc	381df0 <__standby_start+0x381df0>
    11e8:	270b3b0b 	strcs	r3, [fp, -fp, lsl #22]
    11ec:	010b200c 	tsteq	fp, ip
    11f0:	19000013 	stmdbne	r0, {r0, r1, r4}
    11f4:	0e03012e 	adfeqsp	f0, f3, #0.5
    11f8:	053b0b3a 	ldreq	r0, [fp, #-2874]!	; 0xb3a
    11fc:	0b200c27 	bleq	8042a0 <__standby_start+0x8042a0>
    1200:	00001301 	andeq	r1, r0, r1, lsl #6
    1204:	0300051a 	movweq	r0, #1306	; 0x51a
    1208:	3b0b3a08 	blcc	2cfa30 <__standby_start+0x2cfa30>
    120c:	00134905 	andseq	r4, r3, r5, lsl #18
    1210:	012e1b00 	teqeq	lr, r0, lsl #22
    1214:	0b3a0e03 	bleq	e84a28 <__standby_start+0xe84a28>
    1218:	0c27053b 	cfstr32eq	mvfx0, [r7], #-236	; 0xffffff14
    121c:	0b201349 	bleq	805f48 <__standby_start+0x805f48>
    1220:	00001301 	andeq	r1, r0, r1, lsl #6
    1224:	0300341c 	movweq	r3, #1052	; 0x41c
    1228:	3b0b3a0e 	blcc	2cfa68 <__standby_start+0x2cfa68>
    122c:	00134905 	andseq	r4, r3, r5, lsl #18
    1230:	012e1d00 	teqeq	lr, r0, lsl #26
    1234:	01111331 	tsteq	r1, r1, lsr r3
    1238:	06400112 			; <UNDEFINED> instruction: 0x06400112
    123c:	00001301 	andeq	r1, r0, r1, lsl #6
    1240:	3100051e 	tstcc	r0, lr, lsl r5
    1244:	00060213 	andeq	r0, r6, r3, lsl r2
    1248:	00341f00 	eorseq	r1, r4, r0, lsl #30
    124c:	06021331 			; <UNDEFINED> instruction: 0x06021331
    1250:	34200000 	strtcc	r0, [r0], #-0
    1254:	1c133100 	ldfnes	f3, [r3], {-0}
    1258:	2100000b 	tstcs	r0, fp
    125c:	1331011d 	teqne	r1, #1073741831	; 0x40000007
    1260:	06550152 			; <UNDEFINED> instruction: 0x06550152
    1264:	0b590b58 	bleq	1643fcc <__standby_start+0x1643fcc>
    1268:	0b220000 	bleq	881270 <__standby_start+0x881270>
    126c:	00065501 	andeq	r5, r6, r1, lsl #10
    1270:	00342300 	eorseq	r2, r4, r0, lsl #6
    1274:	00001331 	andeq	r1, r0, r1, lsr r3
    1278:	31003424 	tstcc	r0, r4, lsr #8
    127c:	000d1c13 	andeq	r1, sp, r3, lsl ip
    1280:	00052500 	andeq	r2, r5, r0, lsl #10
    1284:	00001331 	andeq	r1, r0, r1, lsr r3
    1288:	3f012e26 	svccc	0x00012e26
    128c:	3a0e030c 	bcc	381ec4 <__standby_start+0x381ec4>
    1290:	270b3b0b 	strcs	r3, [fp, -fp, lsl #22]
    1294:	1201110c 	andne	r1, r1, #3
    1298:	01064001 	tsteq	r6, r1
    129c:	27000013 	smladcs	r0, r3, r0, r0
    12a0:	08030034 	stmdaeq	r3, {r2, r4, r5}
    12a4:	053b0b3a 	ldreq	r0, [fp, #-2874]!	; 0xb3a
    12a8:	06021349 	streq	r1, [r2], -r9, asr #6
    12ac:	34280000 	strtcc	r0, [r8], #-0
    12b0:	3a0e0300 	bcc	381eb8 <__standby_start+0x381eb8>
    12b4:	49053b0b 	stmdbmi	r5, {r0, r1, r3, r8, r9, fp, ip, sp}
    12b8:	00060213 	andeq	r0, r6, r3, lsl r2
    12bc:	011d2900 	tsteq	sp, r0, lsl #18
    12c0:	01521331 	cmpeq	r2, r1, lsr r3
    12c4:	0b580655 	bleq	1602c20 <__standby_start+0x1602c20>
    12c8:	00000559 	andeq	r0, r0, r9, asr r5
    12cc:	3100052a 	tstcc	r0, sl, lsr #10
    12d0:	000b1c13 	andeq	r1, fp, r3, lsl ip
    12d4:	00342b00 	eorseq	r2, r4, r0, lsl #22
    12d8:	061c1331 			; <UNDEFINED> instruction: 0x061c1331
    12dc:	2e2c0000 	cdpcs	0, 2, cr0, cr12, cr0, {0}
    12e0:	030c3f01 	movweq	r3, #52993	; 0xcf01
    12e4:	3b0b3a0e 	blcc	2cfb24 <__standby_start+0x2cfb24>
    12e8:	490c2705 	stmdbmi	ip, {r0, r2, r8, r9, sl, sp}
    12ec:	12011113 	andne	r1, r1, #-1073741820	; 0xc0000004
    12f0:	01064001 	tsteq	r6, r1
    12f4:	2d000013 	stccs	0, cr0, [r0, #-76]	; 0xffffffb4
    12f8:	0e030005 	cdpeq	0, 0, cr0, cr3, cr5, {0}
    12fc:	053b0b3a 	ldreq	r0, [fp, #-2874]!	; 0xb3a
    1300:	06021349 	streq	r1, [r2], -r9, asr #6
    1304:	1d2e0000 	stcne	0, cr0, [lr, #-0]
    1308:	52133101 	andspl	r3, r3, #1073741824	; 0x40000000
    130c:	58065501 	stmdapl	r6, {r0, r8, sl, ip, lr}
    1310:	0105590b 	tsteq	r5, fp, lsl #18
    1314:	2f000013 	svccs	0x00000013
    1318:	1331011d 	teqne	r1, #1073741831	; 0x40000007
    131c:	01120111 	tsteq	r2, r1, lsl r1
    1320:	05590b58 	ldrbeq	r0, [r9, #-2904]	; 0xb58
    1324:	26300000 	ldrtcs	r0, [r0], -r0
    1328:	00134900 	andseq	r4, r3, r0, lsl #18
    132c:	00053100 	andeq	r3, r5, r0, lsl #2
    1330:	0b3a0803 	bleq	e83344 <__standby_start+0xe83344>
    1334:	1349053b 	movtne	r0, #38203	; 0x953b
    1338:	00000602 	andeq	r0, r0, r2, lsl #12
    133c:	03000532 	movweq	r0, #1330	; 0x532
    1340:	3b0b3a08 	blcc	2cfb68 <__standby_start+0x2cfb68>
    1344:	02134905 	andseq	r4, r3, #81920	; 0x14000
    1348:	3300000a 	movwcc	r0, #10
    134c:	08030034 	stmdaeq	r3, {r2, r4, r5}
    1350:	053b0b3a 	ldreq	r0, [fp, #-2874]!	; 0xb3a
    1354:	0a021349 	beq	86080 <__standby_start+0x86080>
    1358:	2e340000 	cdpcs	0, 3, cr0, cr4, cr0, {0}
    135c:	030c3f01 	movweq	r3, #52993	; 0xcf01
    1360:	3b0b3a0e 	blcc	2cfba0 <__standby_start+0x2cfba0>
    1364:	110c2705 	tstne	ip, r5, lsl #14
    1368:	40011201 	andmi	r1, r1, r1, lsl #4
    136c:	00130106 	andseq	r0, r3, r6, lsl #2
    1370:	002e3500 	eoreq	r3, lr, r0, lsl #10
    1374:	0e030c3f 	mcreq	12, 0, r0, cr3, cr15, {1}
    1378:	053b0b3a 	ldreq	r0, [fp, #-2874]!	; 0xb3a
    137c:	01110c27 	tsteq	r1, r7, lsr #24
    1380:	0a400112 	beq	10017d0 <__standby_start+0x10017d0>
    1384:	34360000 	ldrtcc	r0, [r6], #-0
    1388:	3a0e0300 	bcc	381f90 <__standby_start+0x381f90>
    138c:	490b3b0b 	stmdbmi	fp, {r0, r1, r3, r8, r9, fp, ip, sp}
    1390:	000a0213 	andeq	r0, sl, r3, lsl r2
    1394:	11010000 	mrsne	r0, (UNDEF: 1)
    1398:	130e2501 	movwne	r2, #58625	; 0xe501
    139c:	1b0e030b 	blne	381fd0 <__standby_start+0x381fd0>
    13a0:	1201110e 	andne	r1, r1, #-2147483645	; 0x80000003
    13a4:	00061001 	andeq	r1, r6, r1
    13a8:	00240200 	eoreq	r0, r4, r0, lsl #4
    13ac:	0b3e0b0b 	bleq	f83fe0 <__standby_start+0xf83fe0>
    13b0:	00000e03 	andeq	r0, r0, r3, lsl #28
    13b4:	03001603 	movweq	r1, #1539	; 0x603
    13b8:	3b0b3a0e 	blcc	2cfbf8 <__standby_start+0x2cfbf8>
    13bc:	0013490b 	andseq	r4, r3, fp, lsl #18
    13c0:	00240400 	eoreq	r0, r4, r0, lsl #8
    13c4:	0b3e0b0b 	bleq	f83ff8 <__standby_start+0xf83ff8>
    13c8:	00000803 	andeq	r0, r0, r3, lsl #16
    13cc:	0b000f05 	bleq	4fe8 <__standby_start+0x4fe8>
    13d0:	0600000b 	streq	r0, [r0], -fp
    13d4:	0e030113 	mcreq	1, 0, r0, cr3, cr3, {0}
    13d8:	0b3a0b0b 	bleq	e8400c <__standby_start+0xe8400c>
    13dc:	13010b3b 	movwne	r0, #6971	; 0x1b3b
    13e0:	0d070000 	stceq	0, cr0, [r7, #-0]
    13e4:	490e0300 	stmdbmi	lr, {r8, r9}
    13e8:	340a3813 	strcc	r3, [sl], #-2067	; 0x813
    13ec:	0800000c 	stmdaeq	r0, {r2, r3}
    13f0:	0e03012e 	adfeqsp	f0, f3, #0.5
    13f4:	0b3b0b3a 	bleq	ec40e4 <__standby_start+0xec40e4>
    13f8:	13490c27 	movtne	r0, #39975	; 0x9c27
    13fc:	13010b20 	movwne	r0, #6944	; 0x1b20
    1400:	05090000 	streq	r0, [r9, #-0]
    1404:	3a0e0300 	bcc	38200c <__standby_start+0x38200c>
    1408:	490b3b0b 	stmdbmi	fp, {r0, r1, r3, r8, r9, fp, ip, sp}
    140c:	0a000013 	beq	1460 <__standby_start+0x1460>
    1410:	08030005 	stmdaeq	r3, {r0, r2}
    1414:	0b3b0b3a 	bleq	ec4104 <__standby_start+0xec4104>
    1418:	00001349 	andeq	r1, r0, r9, asr #6
    141c:	0300340b 	movweq	r3, #1035	; 0x40b
    1420:	3b0b3a08 	blcc	2cfc48 <__standby_start+0x2cfc48>
    1424:	0013490b 	andseq	r4, r3, fp, lsl #18
    1428:	000f0c00 	andeq	r0, pc, r0, lsl #24
    142c:	13490b0b 	movtne	r0, #39691	; 0x9b0b
    1430:	260d0000 	strcs	r0, [sp], -r0
    1434:	00134900 	andseq	r4, r3, r0, lsl #18
    1438:	00340e00 	eorseq	r0, r4, r0, lsl #28
    143c:	0b3a0e03 	bleq	e84c50 <__standby_start+0xe84c50>
    1440:	13490b3b 	movtne	r0, #39739	; 0x9b3b
    1444:	010f0000 	mrseq	r0, CPSR
    1448:	01134901 	tsteq	r3, r1, lsl #18
    144c:	10000013 	andne	r0, r0, r3, lsl r0
    1450:	13490021 	movtne	r0, #36897	; 0x9021
    1454:	00000b2f 	andeq	r0, r0, pc, lsr #22
    1458:	03012e11 	movweq	r2, #7697	; 0x1e11
    145c:	3b0b3a0e 	blcc	2cfc9c <__standby_start+0x2cfc9c>
    1460:	490c270b 	stmdbmi	ip, {r0, r1, r3, r8, r9, sl, sp}
    1464:	12011113 	andne	r1, r1, #-1073741820	; 0xc0000004
    1468:	01064001 	tsteq	r6, r1
    146c:	12000013 	andne	r0, r0, #19
    1470:	0e030005 	cdpeq	0, 0, cr0, cr3, cr5, {0}
    1474:	0b3b0b3a 	bleq	ec4164 <__standby_start+0xec4164>
    1478:	06021349 	streq	r1, [r2], -r9, asr #6
    147c:	34130000 	ldrcc	r0, [r3], #-0
    1480:	3a0e0300 	bcc	382088 <__standby_start+0x382088>
    1484:	490b3b0b 	stmdbmi	fp, {r0, r1, r3, r8, r9, fp, ip, sp}
    1488:	000a0213 	andeq	r0, sl, r3, lsl r2
    148c:	00341400 	eorseq	r1, r4, r0, lsl #8
    1490:	0b3a0803 	bleq	e834a4 <__standby_start+0xe834a4>
    1494:	13490b3b 	movtne	r0, #39739	; 0x9b3b
    1498:	00000602 	andeq	r0, r0, r2, lsl #12
    149c:	03012e15 	movweq	r2, #7701	; 0x1e15
    14a0:	3b0b3a0e 	blcc	2cfce0 <__standby_start+0x2cfce0>
    14a4:	490c2705 	stmdbmi	ip, {r0, r2, r8, r9, sl, sp}
    14a8:	12011113 	andne	r1, r1, #-1073741820	; 0xc0000004
    14ac:	01064001 	tsteq	r6, r1
    14b0:	16000013 			; <UNDEFINED> instruction: 0x16000013
    14b4:	0e030005 	cdpeq	0, 0, cr0, cr3, cr5, {0}
    14b8:	053b0b3a 	ldreq	r0, [fp, #-2874]!	; 0xb3a
    14bc:	06021349 	streq	r1, [r2], -r9, asr #6
    14c0:	05170000 	ldreq	r0, [r7, #-0]
    14c4:	3a080300 	bcc	2020cc <__standby_start+0x2020cc>
    14c8:	49053b0b 	stmdbmi	r5, {r0, r1, r3, r8, r9, fp, ip, sp}
    14cc:	00060213 	andeq	r0, r6, r3, lsl r2
    14d0:	00341800 	eorseq	r1, r4, r0, lsl #16
    14d4:	0b3a0e03 	bleq	e84ce8 <__standby_start+0xe84ce8>
    14d8:	1349053b 	movtne	r0, #38203	; 0x953b
    14dc:	00000a02 	andeq	r0, r0, r2, lsl #20
    14e0:	31011d19 	tstcc	r1, r9, lsl sp
    14e4:	55015213 	strpl	r5, [r1, #-531]	; 0x213
    14e8:	590b5806 	stmdbpl	fp, {r1, r2, fp, ip, lr}
    14ec:	1a000005 	bne	1508 <__standby_start+0x1508>
    14f0:	13310005 	teqne	r1, #5
    14f4:	00000602 	andeq	r0, r0, r2, lsl #12
    14f8:	55010b1b 	strpl	r0, [r1, #-2843]	; 0xb1b
    14fc:	1c000006 	stcne	0, cr0, [r0], {6}
    1500:	13310034 	teqne	r1, #52	; 0x34
    1504:	00000602 	andeq	r0, r0, r2, lsl #12
    1508:	31012e1d 	tstcc	r1, sp, lsl lr
    150c:	12011113 	andne	r1, r1, #-1073741820	; 0xc0000004
    1510:	01064001 	tsteq	r6, r1
    1514:	1e000013 	mcrne	0, 0, r0, cr0, cr3, {0}
    1518:	13310034 	teqne	r1, #52	; 0x34
    151c:	00000a02 	andeq	r0, r0, r2, lsl #20
    1520:	3100051f 	tstcc	r0, pc, lsl r5
    1524:	000b1c13 	andeq	r1, fp, r3, lsl ip
    1528:	012e2000 	teqeq	lr, r0
    152c:	0e030c3f 	mcreq	12, 0, r0, cr3, cr15, {1}
    1530:	053b0b3a 	ldreq	r0, [fp, #-2874]!	; 0xb3a
    1534:	13490c27 	movtne	r0, #39975	; 0x9c27
    1538:	01120111 	tsteq	r2, r1, lsl r1
    153c:	13010640 	movwne	r0, #5696	; 0x1640
    1540:	18210000 	stmdane	r1!, {}	; <UNPREDICTABLE>
    1544:	22000000 	andcs	r0, r0, #0
    1548:	0e030034 	mcreq	0, 0, r0, cr3, cr4, {1}
    154c:	053b0b3a 	ldreq	r0, [fp, #-2874]!	; 0xb3a
    1550:	06021349 	streq	r1, [r2], -r9, asr #6
    1554:	34230000 	strtcc	r0, [r3], #-0
    1558:	3a080300 	bcc	202160 <__standby_start+0x202160>
    155c:	49053b0b 	stmdbmi	r5, {r0, r1, r3, r8, r9, fp, ip, sp}
    1560:	00060213 	andeq	r0, r6, r3, lsl r2
    1564:	011d2400 	tsteq	sp, r0, lsl #8
    1568:	01111331 	tsteq	r1, r1, lsr r3
    156c:	0b580112 	bleq	16019bc <__standby_start+0x16019bc>
    1570:	13010559 	movwne	r0, #5465	; 0x1559
    1574:	0b250000 	bleq	94157c <__standby_start+0x94157c>
    1578:	12011101 	andne	r1, r1, #1073741824	; 0x40000000
    157c:	26000001 	strcs	r0, [r0], -r1
    1580:	13310005 	teqne	r1, #5
    1584:	05270000 	streq	r0, [r7, #-0]!
    1588:	02133100 	andseq	r3, r3, #0
    158c:	2800000a 	stmdacs	r0, {r1, r3}
    1590:	1331011d 	teqne	r1, #1073741831	; 0x40000007
    1594:	01120111 	tsteq	r2, r1, lsl r1
    1598:	05590b58 	ldrbeq	r0, [r9, #-2904]	; 0xb58
    159c:	01000000 	mrseq	r0, (UNDEF: 0)
    15a0:	06100011 			; <UNDEFINED> instruction: 0x06100011
    15a4:	01120111 	tsteq	r2, r1, lsl r1
    15a8:	081b0803 	ldmdaeq	fp, {r0, r1, fp}
    15ac:	05130825 	ldreq	r0, [r3, #-2085]	; 0x825
    15b0:	01000000 	mrseq	r0, (UNDEF: 0)
    15b4:	0e250111 	mcreq	1, 1, r0, cr5, cr1, {0}
    15b8:	0e030b13 	vmoveq.32	d3[0], r0
    15bc:	01110e1b 	tsteq	r1, fp, lsl lr
    15c0:	06100112 			; <UNDEFINED> instruction: 0x06100112
    15c4:	24020000 	strcs	r0, [r2], #-0
    15c8:	3e0b0b00 	vmlacc.f64	d0, d11, d0
    15cc:	000e030b 	andeq	r0, lr, fp, lsl #6
    15d0:	00160300 	andseq	r0, r6, r0, lsl #6
    15d4:	0b3a0e03 	bleq	e84de8 <__standby_start+0xe84de8>
    15d8:	13490b3b 	movtne	r0, #39739	; 0x9b3b
    15dc:	24040000 	strcs	r0, [r4], #-0
    15e0:	3e0b0b00 	vmlacc.f64	d0, d11, d0
    15e4:	0008030b 	andeq	r0, r8, fp, lsl #6
    15e8:	002e0500 	eoreq	r0, lr, r0, lsl #10
    15ec:	0e030c3f 	mcreq	12, 0, r0, cr3, cr15, {1}
    15f0:	0b3b0b3a 	bleq	ec42e0 <__standby_start+0xec42e0>
    15f4:	01110c27 	tsteq	r1, r7, lsr #24
    15f8:	0a400112 	beq	1001a48 <__standby_start+0x1001a48>
    15fc:	2e060000 	cdpcs	0, 0, cr0, cr6, cr0, {0}
    1600:	030c3f01 	movweq	r3, #52993	; 0xcf01
    1604:	3b0b3a0e 	blcc	2cfe44 <__standby_start+0x2cfe44>
    1608:	490c270b 	stmdbmi	ip, {r0, r1, r3, r8, r9, sl, sp}
    160c:	12011113 	andne	r1, r1, #-1073741820	; 0xc0000004
    1610:	000a4001 	andeq	r4, sl, r1
    1614:	00050700 	andeq	r0, r5, r0, lsl #14
    1618:	0b3a0e03 	bleq	e84e2c <__standby_start+0xe84e2c>
    161c:	13490b3b 	movtne	r0, #39739	; 0x9b3b
    1620:	00000602 	andeq	r0, r0, r2, lsl #12
    1624:	03003408 	movweq	r3, #1032	; 0x408
    1628:	3b0b3a0e 	blcc	2cfe68 <__standby_start+0x2cfe68>
    162c:	0213490b 	andseq	r4, r3, #180224	; 0x2c000
    1630:	00000006 	andeq	r0, r0, r6
    1634:	25011101 	strcs	r1, [r1, #-257]	; 0x101
    1638:	030b130e 	movweq	r1, #45838	; 0xb30e
    163c:	110e1b0e 	tstne	lr, lr, lsl #22
    1640:	10011201 	andne	r1, r1, r1, lsl #4
    1644:	02000006 	andeq	r0, r0, #6
    1648:	0b0b0024 	bleq	2c16e0 <__standby_start+0x2c16e0>
    164c:	0e030b3e 	vmoveq.16	d3[0], r0
    1650:	16030000 	strne	r0, [r3], -r0
    1654:	3a0e0300 	bcc	38225c <__standby_start+0x38225c>
    1658:	490b3b0b 	stmdbmi	fp, {r0, r1, r3, r8, r9, fp, ip, sp}
    165c:	04000013 	streq	r0, [r0], #-19
    1660:	0b0b0024 	bleq	2c16f8 <__standby_start+0x2c16f8>
    1664:	08030b3e 	stmdaeq	r3, {r1, r2, r3, r4, r5, r8, r9, fp}
    1668:	35050000 	strcc	r0, [r5, #-0]
    166c:	00134900 	andseq	r4, r3, r0, lsl #18
    1670:	01040600 	tsteq	r4, r0, lsl #12
    1674:	0b0b0e03 	bleq	2c4e88 <__standby_start+0x2c4e88>
    1678:	0b3b0b3a 	bleq	ec4368 <__standby_start+0xec4368>
    167c:	00001301 	andeq	r1, r0, r1, lsl #6
    1680:	03002807 	movweq	r2, #2055	; 0x807
    1684:	000d1c0e 	andeq	r1, sp, lr, lsl #24
    1688:	000f0800 	andeq	r0, pc, r0, lsl #16
    168c:	00000b0b 	andeq	r0, r0, fp, lsl #22
    1690:	3f012e09 	svccc	0x00012e09
    1694:	3a0e030c 	bcc	3822cc <__standby_start+0x3822cc>
    1698:	270b3b0b 	strcs	r3, [fp, -fp, lsl #22]
    169c:	1113490c 	tstne	r3, ip, lsl #18
    16a0:	40011201 	andmi	r1, r1, r1, lsl #4
    16a4:	00130106 	andseq	r0, r3, r6, lsl #2
    16a8:	00340a00 	eorseq	r0, r4, r0, lsl #20
    16ac:	0b3a0803 	bleq	e836c0 <__standby_start+0xe836c0>
    16b0:	13490b3b 	movtne	r0, #39739	; 0x9b3b
    16b4:	00000602 	andeq	r0, r0, r2, lsl #12
    16b8:	0300340b 	movweq	r3, #1035	; 0x40b
    16bc:	3b0b3a0e 	blcc	2cfefc <__standby_start+0x2cfefc>
    16c0:	0213490b 	andseq	r4, r3, #180224	; 0x2c000
    16c4:	0c000006 	stceq	0, cr0, [r0], {6}
    16c8:	08030005 	stmdaeq	r3, {r0, r2}
    16cc:	0b3b0b3a 	bleq	ec43bc <__standby_start+0xec43bc>
    16d0:	06021349 	streq	r1, [r2], -r9, asr #6
    16d4:	2e0d0000 	cdpcs	0, 0, cr0, cr13, cr0, {0}
    16d8:	030c3f01 	movweq	r3, #52993	; 0xcf01
    16dc:	3b0b3a0e 	blcc	2cff1c <__standby_start+0x2cff1c>
    16e0:	490c270b 	stmdbmi	ip, {r0, r1, r3, r8, r9, sl, sp}
    16e4:	12011113 	andne	r1, r1, #-1073741820	; 0xc0000004
    16e8:	010a4001 	tsteq	sl, r1
    16ec:	0e000013 	mcreq	0, 0, r0, cr0, cr3, {0}
    16f0:	0e030034 	mcreq	0, 0, r0, cr3, cr4, {1}
    16f4:	0b3b0b3a 	bleq	ec43e4 <__standby_start+0xec43e4>
    16f8:	0a021349 	beq	86424 <__standby_start+0x86424>
    16fc:	01000000 	mrseq	r0, (UNDEF: 0)
    1700:	0e250111 	mcreq	1, 1, r0, cr5, cr1, {0}
    1704:	0e030b13 	vmoveq.32	d3[0], r0
    1708:	01110e1b 	tsteq	r1, fp, lsl lr
    170c:	06100112 			; <UNDEFINED> instruction: 0x06100112
    1710:	24020000 	strcs	r0, [r2], #-0
    1714:	3e0b0b00 	vmlacc.f64	d0, d11, d0
    1718:	000e030b 	andeq	r0, lr, fp, lsl #6
    171c:	00160300 	andseq	r0, r6, r0, lsl #6
    1720:	0b3a0e03 	bleq	e84f34 <__standby_start+0xe84f34>
    1724:	13490b3b 	movtne	r0, #39739	; 0x9b3b
    1728:	24040000 	strcs	r0, [r4], #-0
    172c:	3e0b0b00 	vmlacc.f64	d0, d11, d0
    1730:	0008030b 	andeq	r0, r8, fp, lsl #6
    1734:	00350500 	eorseq	r0, r5, r0, lsl #10
    1738:	00001349 	andeq	r1, r0, r9, asr #6
    173c:	49010106 	stmdbmi	r1, {r1, r2, r8}
    1740:	00130113 	andseq	r0, r3, r3, lsl r1
    1744:	00210700 	eoreq	r0, r1, r0, lsl #14
    1748:	0b2f1349 	bleq	bc6474 <__standby_start+0xbc6474>
    174c:	13080000 	movwne	r0, #32768	; 0x8000
    1750:	0b0e0301 	bleq	38235c <__standby_start+0x38235c>
    1754:	3b0b3a0b 	blcc	2cff88 <__standby_start+0x2cff88>
    1758:	0013010b 	andseq	r0, r3, fp, lsl #2
    175c:	000d0900 	andeq	r0, sp, r0, lsl #18
    1760:	0b3a0e03 	bleq	e84f74 <__standby_start+0xe84f74>
    1764:	13490b3b 	movtne	r0, #39739	; 0x9b3b
    1768:	00000a38 	andeq	r0, r0, r8, lsr sl
    176c:	3f012e0a 	svccc	0x00012e0a
    1770:	3a0e030c 	bcc	3823a8 <__standby_start+0x3823a8>
    1774:	270b3b0b 	strcs	r3, [fp, -fp, lsl #22]
    1778:	1113490c 	tstne	r3, ip, lsl #18
    177c:	40011201 	andmi	r1, r1, r1, lsl #4
    1780:	0013010a 	andseq	r0, r3, sl, lsl #2
    1784:	00050b00 	andeq	r0, r5, r0, lsl #22
    1788:	0b3a0e03 	bleq	e84f9c <__standby_start+0xe84f9c>
    178c:	13490b3b 	movtne	r0, #39739	; 0x9b3b
    1790:	00000602 	andeq	r0, r0, r2, lsl #12
    1794:	0b000f0c 	bleq	53cc <__standby_start+0x53cc>
    1798:	0013490b 	andseq	r4, r3, fp, lsl #18
    179c:	002e0d00 	eoreq	r0, lr, r0, lsl #26
    17a0:	0e030c3f 	mcreq	12, 0, r0, cr3, cr15, {1}
    17a4:	0b3b0b3a 	bleq	ec4494 <__standby_start+0xec4494>
    17a8:	13490c27 	movtne	r0, #39975	; 0x9c27
    17ac:	01120111 	tsteq	r2, r1, lsl r1
    17b0:	00000a40 	andeq	r0, r0, r0, asr #20
    17b4:	3f002e0e 	svccc	0x00002e0e
    17b8:	3a0e030c 	bcc	3823f0 <__standby_start+0x3823f0>
    17bc:	270b3b0b 	strcs	r3, [fp, -fp, lsl #22]
    17c0:	1201110c 	andne	r1, r1, #3
    17c4:	000a4001 	andeq	r4, sl, r1
    17c8:	00340f00 	eorseq	r0, r4, r0, lsl #30
    17cc:	0b3a0e03 	bleq	e84fe0 <__standby_start+0xe84fe0>
    17d0:	13490b3b 	movtne	r0, #39739	; 0x9b3b
    17d4:	00000a02 	andeq	r0, r0, r2, lsl #20
    17d8:	01110100 	tsteq	r1, r0, lsl #2
    17dc:	0b130e25 	bleq	4c5078 <__standby_start+0x4c5078>
    17e0:	0e1b0e03 	cdpeq	14, 1, cr0, cr11, cr3, {0}
    17e4:	01120111 	tsteq	r2, r1, lsl r1
    17e8:	00000610 	andeq	r0, r0, r0, lsl r6
    17ec:	0b002402 	bleq	a7fc <__standby_start+0xa7fc>
    17f0:	030b3e0b 	movweq	r3, #48651	; 0xbe0b
    17f4:	0300000e 	movweq	r0, #14
    17f8:	0b0b0024 	bleq	2c1890 <__standby_start+0x2c1890>
    17fc:	08030b3e 	stmdaeq	r3, {r1, r2, r3, r4, r5, r8, r9, fp}
    1800:	01000000 	mrseq	r0, (UNDEF: 0)
    1804:	0e250111 	mcreq	1, 1, r0, cr5, cr1, {0}
    1808:	0e030b13 	vmoveq.32	d3[0], r0
    180c:	01110e1b 	tsteq	r1, fp, lsl lr
    1810:	06100112 			; <UNDEFINED> instruction: 0x06100112
    1814:	24020000 	strcs	r0, [r2], #-0
    1818:	3e0b0b00 	vmlacc.f64	d0, d11, d0
    181c:	000e030b 	andeq	r0, lr, fp, lsl #6
    1820:	00160300 	andseq	r0, r6, r0, lsl #6
    1824:	0b3a0e03 	bleq	e85038 <__standby_start+0xe85038>
    1828:	13490b3b 	movtne	r0, #39739	; 0x9b3b
    182c:	24040000 	strcs	r0, [r4], #-0
    1830:	3e0b0b00 	vmlacc.f64	d0, d11, d0
    1834:	0008030b 	andeq	r0, r8, fp, lsl #6
    1838:	01130500 	tsteq	r3, r0, lsl #10
    183c:	0b3a0b0b 	bleq	e84470 <__standby_start+0xe84470>
    1840:	13010b3b 	movwne	r0, #6971	; 0x1b3b
    1844:	0d060000 	stceq	0, cr0, [r6, #-0]
    1848:	3a0e0300 	bcc	382450 <__standby_start+0x382450>
    184c:	490b3b0b 	stmdbmi	fp, {r0, r1, r3, r8, r9, fp, ip, sp}
    1850:	0d0b0b13 	vstreq	d0, [fp, #-76]	; 0xffffffb4
    1854:	380b0c0b 	stmdacc	fp, {r0, r1, r3, sl, fp}
    1858:	0700000a 	streq	r0, [r0, -sl]
    185c:	0b0b0117 	bleq	2c1cc0 <__standby_start+0x2c1cc0>
    1860:	0b3b0b3a 	bleq	ec4550 <__standby_start+0xec4550>
    1864:	00001301 	andeq	r1, r0, r1, lsl #6
    1868:	03000d08 	movweq	r0, #3336	; 0xd08
    186c:	3b0b3a0e 	blcc	2d00ac <__standby_start+0x2d00ac>
    1870:	0013490b 	andseq	r4, r3, fp, lsl #18
    1874:	01130900 	tsteq	r3, r0, lsl #18
    1878:	0b0b0e03 	bleq	2c508c <__standby_start+0x2c508c>
    187c:	0b3b0b3a 	bleq	ec456c <__standby_start+0xec456c>
    1880:	00001301 	andeq	r1, r0, r1, lsl #6
    1884:	0301130a 	movweq	r1, #4874	; 0x130a
    1888:	3a050b0e 	bcc	1444c8 <__standby_start+0x1444c8>
    188c:	010b3b0b 	tsteq	fp, fp, lsl #22
    1890:	0b000013 	bleq	18e4 <__standby_start+0x18e4>
    1894:	0e03000d 	cdpeq	0, 0, cr0, cr3, cr13, {0}
    1898:	0b3b0b3a 	bleq	ec4588 <__standby_start+0xec4588>
    189c:	0a381349 	beq	e065c8 <__standby_start+0xe065c8>
    18a0:	0d0c0000 	stceq	0, cr0, [ip, #-0]
    18a4:	3a080300 	bcc	2024ac <__standby_start+0x2024ac>
    18a8:	490b3b0b 	stmdbmi	fp, {r0, r1, r3, r8, r9, fp, ip, sp}
    18ac:	000a3813 	andeq	r3, sl, r3, lsl r8
    18b0:	000d0d00 	andeq	r0, sp, r0, lsl #26
    18b4:	0b3a0e03 	bleq	e850c8 <__standby_start+0xe850c8>
    18b8:	1349053b 	movtne	r0, #38203	; 0x953b
    18bc:	00000a38 	andeq	r0, r0, r8, lsr sl
    18c0:	03000d0e 	movweq	r0, #3342	; 0xd0e
    18c4:	3b0b3a08 	blcc	2d00ec <__standby_start+0x2d00ec>
    18c8:	38134905 	ldmdacc	r3, {r0, r2, r8, fp, lr}
    18cc:	0f00000a 	svceq	0x0000000a
    18d0:	13490035 	movtne	r0, #36917	; 0x9035
    18d4:	01100000 	tsteq	r0, r0
    18d8:	01134901 	tsteq	r3, r1, lsl #18
    18dc:	11000013 	tstne	r0, r3, lsl r0
    18e0:	13490021 	movtne	r0, #36897	; 0x9021
    18e4:	00000b2f 	andeq	r0, r0, pc, lsr #22
    18e8:	03001612 	movweq	r1, #1554	; 0x612
    18ec:	3b0b3a0e 	blcc	2d012c <__standby_start+0x2d012c>
    18f0:	00134905 	andseq	r4, r3, r5, lsl #18
    18f4:	000f1300 	andeq	r1, pc, r0, lsl #6
    18f8:	13490b0b 	movtne	r0, #39691	; 0x9b0b
    18fc:	2e140000 	cdpcs	0, 1, cr0, cr4, cr0, {0}
    1900:	030c3f01 	movweq	r3, #52993	; 0xcf01
    1904:	3b0b3a0e 	blcc	2d0144 <__standby_start+0x2d0144>
    1908:	490c270b 	stmdbmi	ip, {r0, r1, r3, r8, r9, sl, sp}
    190c:	12011113 	andne	r1, r1, #-1073741820	; 0xc0000004
    1910:	010a4001 	tsteq	sl, r1
    1914:	15000013 	strne	r0, [r0, #-19]
    1918:	0e030005 	cdpeq	0, 0, cr0, cr3, cr5, {0}
    191c:	0b3b0b3a 	bleq	ec460c <__standby_start+0xec460c>
    1920:	06021349 	streq	r1, [r2], -r9, asr #6
    1924:	2e160000 	cdpcs	0, 1, cr0, cr6, cr0, {0}
    1928:	030c3f00 	movweq	r3, #52992	; 0xcf00
    192c:	3b0b3a0e 	blcc	2d016c <__standby_start+0x2d016c>
    1930:	490c270b 	stmdbmi	ip, {r0, r1, r3, r8, r9, sl, sp}
    1934:	12011113 	andne	r1, r1, #-1073741820	; 0xc0000004
    1938:	000a4001 	andeq	r4, sl, r1
    193c:	012e1700 	teqeq	lr, r0, lsl #14
    1940:	0e030c3f 	mcreq	12, 0, r0, cr3, cr15, {1}
    1944:	0b3b0b3a 	bleq	ec4634 <__standby_start+0xec4634>
    1948:	13490c27 	movtne	r0, #39975	; 0x9c27
    194c:	01120111 	tsteq	r2, r1, lsl r1
    1950:	13010640 	movwne	r0, #5696	; 0x1640
    1954:	2e180000 	cdpcs	0, 1, cr0, cr8, cr0, {0}
    1958:	030c3f01 	movweq	r3, #52993	; 0xcf01
    195c:	3b0b3a0e 	blcc	2d019c <__standby_start+0x2d019c>
    1960:	490c2705 	stmdbmi	ip, {r0, r2, r8, r9, sl, sp}
    1964:	12011113 	andne	r1, r1, #-1073741820	; 0xc0000004
    1968:	010a4001 	tsteq	sl, r1
    196c:	19000013 	stmdbne	r0, {r0, r1, r4}
    1970:	0e030005 	cdpeq	0, 0, cr0, cr3, cr5, {0}
    1974:	053b0b3a 	ldreq	r0, [fp, #-2874]!	; 0xb3a
    1978:	06021349 	streq	r1, [r2], -r9, asr #6
    197c:	341a0000 	ldrcc	r0, [sl], #-0
    1980:	3a0e0300 	bcc	382588 <__standby_start+0x382588>
    1984:	49053b0b 	stmdbmi	r5, {r0, r1, r3, r8, r9, fp, ip, sp}
    1988:	00060213 	andeq	r0, r6, r3, lsl r2
    198c:	00341b00 	eorseq	r1, r4, r0, lsl #22
    1990:	0b3a0e03 	bleq	e851a4 <__standby_start+0xe851a4>
    1994:	13490b3b 	movtne	r0, #39739	; 0x9b3b
    1998:	00000a02 	andeq	r0, r0, r2, lsl #20
    199c:	01110100 	tsteq	r1, r0, lsl #2
    19a0:	0b130e25 	bleq	4c523c <__standby_start+0x4c523c>
    19a4:	0e1b0e03 	cdpeq	14, 1, cr0, cr11, cr3, {0}
    19a8:	01120111 	tsteq	r2, r1, lsl r1
    19ac:	00000610 	andeq	r0, r0, r0, lsl r6
    19b0:	0b002402 	bleq	a9c0 <__standby_start+0xa9c0>
    19b4:	030b3e0b 	movweq	r3, #48651	; 0xbe0b
    19b8:	0300000e 	movweq	r0, #14
    19bc:	0b0b0024 	bleq	2c1a54 <__standby_start+0x2c1a54>
    19c0:	08030b3e 	stmdaeq	r3, {r1, r2, r3, r4, r5, r8, r9, fp}
    19c4:	Address 0x000019c4 is out of bounds.


Disassembly of section .debug_loc:

00000000 <.debug_loc>:
       0:	00000000 	andeq	r0, r0, r0
       4:	00000004 	andeq	r0, r0, r4
       8:	007d0002 	rsbseq	r0, sp, r2
       c:	00000004 	andeq	r0, r0, r4
      10:	00000454 	andeq	r0, r0, r4, asr r4
      14:	187d0002 	ldmdane	sp!, {r1}^
	...
      24:	0000000c 	andeq	r0, r0, ip
      28:	0c500001 	mrrceq	0, 0, r0, r0, cr1	; <UNPREDICTABLE>
      2c:	54000000 	strpl	r0, [r0], #-0
      30:	01000004 	tsteq	r0, r4
      34:	00005500 	andeq	r5, r0, r0, lsl #10
      38:	00000000 	andeq	r0, r0, r0
      3c:	00200000 	eoreq	r0, r0, r0
      40:	00370000 	eorseq	r0, r7, r0
      44:	00010000 	andeq	r0, r1, r0
      48:	00000053 	andeq	r0, r0, r3, asr r0
	...
      54:	00000c00 	andeq	r0, r0, r0, lsl #24
      58:	50000100 	andpl	r0, r0, r0, lsl #2
	...
      68:	00000018 	andeq	r0, r0, r8, lsl r0
      6c:	18510001 	ldmdane	r1, {r0}^
      70:	1c000000 	stcne	0, cr0, [r0], {-0}
      74:	03000000 	movweq	r0, #0
      78:	9f017100 	svcls	0x00017100
	...
      88:	0000001c 	andeq	r0, r0, ip, lsl r0
      8c:	00520001 	subseq	r0, r2, r1
      90:	00000000 	andeq	r0, r0, r0
      94:	30000000 	andcc	r0, r0, r0
      98:	40000000 	andmi	r0, r0, r0
      9c:	01000000 	mrseq	r0, (UNDEF: 0)
      a0:	00005000 	andeq	r5, r0, r0
      a4:	00000000 	andeq	r0, r0, r0
      a8:	00640000 	rsbeq	r0, r4, r0
      ac:	00740000 	rsbseq	r0, r4, r0
      b0:	00010000 	andeq	r0, r1, r0
      b4:	00007452 	andeq	r7, r0, r2, asr r4
      b8:	00007800 	andeq	r7, r0, r0, lsl #16
      bc:	72000600 	andvc	r0, r0, #0
      c0:	1af80900 	bne	ffe024c8 <__bss_end+0xfdfeeac>
      c4:	0000789f 	muleq	r0, pc, r8	; <UNPREDICTABLE>
      c8:	00008c00 	andeq	r8, r0, r0, lsl #24
      cc:	52000100 	andpl	r0, r0, #0
	...
      dc:	00000004 	andeq	r0, r0, r4
      e0:	007d0002 	rsbseq	r0, sp, r2
      e4:	00000004 	andeq	r0, r0, r4
      e8:	00000060 	andeq	r0, r0, r0, rrx
      ec:	107d0002 	rsbsne	r0, sp, r2
	...
      fc:	00000008 	andeq	r0, r0, r8
     100:	007d0002 	rsbseq	r0, sp, r2
     104:	00000008 	andeq	r0, r0, r8
     108:	0000000c 	andeq	r0, r0, ip
     10c:	147d0002 	ldrbtne	r0, [sp], #-2
     110:	0000000c 	andeq	r0, r0, ip
     114:	000001a0 	andeq	r0, r0, r0, lsr #3
     118:	207d0002 	rsbscs	r0, sp, r2
	...
     128:	00000044 	andeq	r0, r0, r4, asr #32
     12c:	4c500001 	mrrcmi	0, 0, r0, r0, cr1	; <UNPREDICTABLE>
     130:	7c000000 	stcvc	0, cr0, [r0], {-0}
     134:	01000000 	mrseq	r0, (UNDEF: 0)
     138:	00f85000 	rscseq	r5, r8, r0
     13c:	01100000 	tsteq	r0, r0
     140:	00010000 	andeq	r0, r1, r0
     144:	00014850 	andeq	r4, r1, r0, asr r8
     148:	00015400 	andeq	r5, r1, r0, lsl #8
     14c:	50000100 	andpl	r0, r0, r0, lsl #2
	...
     15c:	00000044 	andeq	r0, r0, r4, asr #32
     160:	4c510001 	mrrcmi	0, 0, r0, r1, cr1
     164:	80000000 	andhi	r0, r0, r0
     168:	01000000 	mrseq	r0, (UNDEF: 0)
     16c:	00f85100 	rscseq	r5, r8, r0, lsl #2
     170:	011c0000 	tsteq	ip, r0
     174:	00010000 	andeq	r0, r1, r0
     178:	00014851 	andeq	r4, r1, r1, asr r8
     17c:	00015400 	andeq	r5, r1, r0, lsl #8
     180:	51000100 	mrspl	r0, (UNDEF: 16)
	...
     190:	00000044 	andeq	r0, r0, r4, asr #32
     194:	9f300002 	svcls	0x00300002
     198:	0000004c 	andeq	r0, r0, ip, asr #32
     19c:	00000050 	andeq	r0, r0, r0, asr r0
     1a0:	9f300002 	svcls	0x00300002
	...
     1ac:	00000088 	andeq	r0, r0, r8, lsl #1
     1b0:	00000098 	muleq	r0, r8, r0
     1b4:	98500001 	ldmdals	r0, {r0}^
     1b8:	e0000000 	and	r0, r0, r0
     1bc:	01000000 	mrseq	r0, (UNDEF: 0)
     1c0:	01285700 	teqeq	r8, r0, lsl #14
     1c4:	01340000 	teqeq	r4, r0
     1c8:	00010000 	andeq	r0, r1, r0
     1cc:	00013450 	andeq	r3, r1, r0, asr r4
     1d0:	00013800 	andeq	r3, r1, r0, lsl #16
     1d4:	70000300 	andvc	r0, r0, r0, lsl #6
     1d8:	01389f7a 	teqeq	r8, sl, ror pc
     1dc:	01480000 	mrseq	r0, (UNDEF: 72)
     1e0:	00030000 	andeq	r0, r3, r0
     1e4:	549f0070 	ldrpl	r0, [pc], #112	; 1ec <__standby_start+0x1ec>
     1e8:	78000001 	stmdavc	r0, {r0}
     1ec:	01000001 	tsteq	r0, r1
     1f0:	01885000 	orreq	r5, r8, r0
     1f4:	018c0000 	orreq	r0, ip, r0
     1f8:	00030000 	andeq	r0, r3, r0
     1fc:	8c9f7b70 	vldmiahi	pc, {d7-<overflow reg d62>}
     200:	a0000001 	andge	r0, r0, r1
     204:	03000001 	movweq	r0, #1
     208:	9f007000 	svcls	0x00007000
	...
     214:	000000c8 	andeq	r0, r0, r8, asr #1
     218:	000000f8 	strdeq	r0, [r0], -r8
     21c:	00560001 	subseq	r0, r6, r1
     220:	00000000 	andeq	r0, r0, r0
     224:	44000000 	strmi	r0, [r0], #-0
     228:	4c000000 	stcmi	0, cr0, [r0], {-0}
     22c:	02000000 	andeq	r0, r0, #0
     230:	c05f9100 	subsgt	r9, pc, r0, lsl #2
     234:	f8000000 			; <UNDEFINED> instruction: 0xf8000000
     238:	02000000 	andeq	r0, r0, #0
     23c:	005f9100 	subseq	r9, pc, r0, lsl #2
     240:	00000000 	andeq	r0, r0, r0
     244:	04000000 	streq	r0, [r0], #-0
     248:	44000000 	strmi	r0, [r0], #-0
     24c:	01000000 	mrseq	r0, (UNDEF: 0)
     250:	004c5000 	subeq	r5, ip, r0
     254:	007c0000 	rsbseq	r0, ip, r0
     258:	00010000 	andeq	r0, r1, r0
     25c:	0000f850 	andeq	pc, r0, r0, asr r8	; <UNPREDICTABLE>
     260:	00011000 	andeq	r1, r1, r0
     264:	50000100 	andpl	r0, r0, r0, lsl #2
     268:	00000148 	andeq	r0, r0, r8, asr #2
     26c:	00000154 	andeq	r0, r0, r4, asr r1
     270:	00500001 	subseq	r0, r0, r1
     274:	00000000 	andeq	r0, r0, r0
     278:	04000000 	streq	r0, [r0], #-0
     27c:	20000000 	andcs	r0, r0, r0
     280:	06000000 	streq	r0, [r0], -r0
     284:	33980300 	orrscc	r0, r8, #0
     288:	349ff000 	ldrcc	pc, [pc], #0	; 290 <__standby_start+0x290>
     28c:	44000000 	strmi	r0, [r0], #-0
     290:	01000000 	mrseq	r0, (UNDEF: 0)
     294:	004c5400 	subeq	r5, ip, r0, lsl #8
     298:	00500000 	subseq	r0, r0, r0
     29c:	00060000 	andeq	r0, r6, r0
     2a0:	00339803 	eorseq	r9, r3, r3, lsl #16
     2a4:	00009ff0 	strdeq	r9, [r0], -r0
     2a8:	00000000 	andeq	r0, r0, r0
     2ac:	00040000 	andeq	r0, r4, r0
     2b0:	00200000 	eoreq	r0, r0, r0
     2b4:	00020000 	andeq	r0, r2, r0
     2b8:	003c9f30 	eorseq	r9, ip, r0, lsr pc
     2bc:	00440000 	subeq	r0, r4, r0
     2c0:	00010000 	andeq	r0, r1, r0
     2c4:	00004c52 	andeq	r4, r0, r2, asr ip
     2c8:	00005000 	andeq	r5, r0, r0
     2cc:	30000200 	andcc	r0, r0, r0, lsl #4
     2d0:	0000009f 	muleq	r0, pc, r0	; <UNPREDICTABLE>
     2d4:	00000000 	andeq	r0, r0, r0
     2d8:	00005000 	andeq	r5, r0, r0
     2dc:	00008000 	andeq	r8, r0, r0
     2e0:	51000100 	mrspl	r0, (UNDEF: 16)
     2e4:	000000f8 	strdeq	r0, [r0], -r8
     2e8:	0000011c 	andeq	r0, r0, ip, lsl r1
     2ec:	48510001 	ldmdami	r1, {r0}^
     2f0:	54000001 	strpl	r0, [r0], #-1
     2f4:	01000001 	tsteq	r0, r1
     2f8:	00005100 	andeq	r5, r0, r0, lsl #2
     2fc:	00000000 	andeq	r0, r0, r0
     300:	01a00000 	moveq	r0, r0
     304:	01a80000 			; <UNDEFINED> instruction: 0x01a80000
     308:	00020000 	andeq	r0, r2, r0
     30c:	01a8007d 			; <UNDEFINED> instruction: 0x01a8007d
     310:	01b00000 	movseq	r0, r0
     314:	00020000 	andeq	r0, r2, r0
     318:	01b00c7d 	rorseq	r0, sp, ip
     31c:	02580000 	subseq	r0, r8, #0
     320:	00020000 	andeq	r0, r2, r0
     324:	0000187d 	andeq	r1, r0, sp, ror r8
     328:	00000000 	andeq	r0, r0, r0
     32c:	01a00000 	moveq	r0, r0
     330:	01bc0000 			; <UNDEFINED> instruction: 0x01bc0000
     334:	00010000 	andeq	r0, r1, r0
     338:	0001c450 	andeq	ip, r1, r0, asr r4
     33c:	00025800 	andeq	r5, r2, r0, lsl #16
     340:	54000100 	strpl	r0, [r0], #-256	; 0x100
	...
     34c:	000001a0 	andeq	r0, r0, r0, lsr #3
     350:	000001ec 	andeq	r0, r0, ip, ror #3
     354:	9f300002 	svcls	0x00300002
     358:	000001f4 	strdeq	r0, [r0], -r4
     35c:	000001f8 	strdeq	r0, [r0], -r8
     360:	9f300002 	svcls	0x00300002
	...
     36c:	0000021c 	andeq	r0, r0, ip, lsl r2
     370:	00000220 	andeq	r0, r0, r0, lsr #4
     374:	67910002 	ldrvs	r0, [r1, r2]
     378:	00000230 	andeq	r0, r0, r0, lsr r2
     37c:	00000240 	andeq	r0, r0, r0, asr #4
     380:	44510001 	ldrbmi	r0, [r1], #-1
     384:	4c000002 	stcmi	0, cr0, [r0], {2}
     388:	01000002 	tsteq	r0, r2
     38c:	00005300 	andeq	r5, r0, r0, lsl #6
     390:	00000000 	andeq	r0, r0, r0
     394:	01ac0000 			; <UNDEFINED> instruction: 0x01ac0000
     398:	01c40000 	biceq	r0, r4, r0
     39c:	00010000 	andeq	r0, r1, r0
     3a0:	0001c450 	andeq	ip, r1, r0, asr r4
     3a4:	00025800 	andeq	r5, r2, r0, lsl #16
     3a8:	54000100 	strpl	r0, [r0], #-256	; 0x100
	...
     3b4:	000001ac 	andeq	r0, r0, ip, lsr #3
     3b8:	000001c4 	andeq	r0, r0, r4, asr #3
     3bc:	98030006 	stmdals	r3, {r1, r2}
     3c0:	9ff00033 	svcls	0x00f00033
     3c4:	000001d8 	ldrdeq	r0, [r0], -r8
     3c8:	000001ec 	andeq	r0, r0, ip, ror #3
     3cc:	f4550001 			; <UNDEFINED> instruction: 0xf4550001
     3d0:	f8000001 			; <UNDEFINED> instruction: 0xf8000001
     3d4:	06000001 	streq	r0, [r0], -r1
     3d8:	33980300 	orrscc	r0, r8, #0
     3dc:	009ff000 	addseq	pc, pc, r0
     3e0:	00000000 	andeq	r0, r0, r0
     3e4:	ac000000 	stcge	0, cr0, [r0], {-0}
     3e8:	c4000001 	strgt	r0, [r0], #-1
     3ec:	02000001 	andeq	r0, r0, #1
     3f0:	e09f3000 	adds	r3, pc, r0
     3f4:	ec000001 	stc	0, cr0, [r0], {1}
     3f8:	01000001 	tsteq	r0, r1
     3fc:	01f45200 	mvnseq	r5, r0, lsl #4
     400:	01f80000 	mvnseq	r0, r0
     404:	00020000 	andeq	r0, r2, r0
     408:	00009f30 	andeq	r9, r0, r0, lsr pc
	...
     414:	00180000 	andseq	r0, r8, r0
     418:	00010000 	andeq	r0, r1, r0
     41c:	00000050 	andeq	r0, r0, r0, asr r0
     420:	00000000 	andeq	r0, r0, r0
     424:	00004c00 	andeq	r4, r0, r0, lsl #24
     428:	00005000 	andeq	r5, r0, r0
     42c:	7d000200 	sfmvc	f0, 4, [r0, #-0]
     430:	00005000 	andeq	r5, r0, r0
     434:	00009000 	andeq	r9, r0, r0
     438:	7d000200 	sfmvc	f0, 4, [r0, #-0]
     43c:	00000008 	andeq	r0, r0, r8
     440:	00000000 	andeq	r0, r0, r0
     444:	00009000 	andeq	r9, r0, r0
     448:	00009800 	andeq	r9, r0, r0, lsl #16
     44c:	7d000200 	sfmvc	f0, 4, [r0, #-0]
     450:	00009800 	andeq	r9, r0, r0, lsl #16
     454:	00034400 	andeq	r4, r3, r0, lsl #8
     458:	7d000200 	sfmvc	f0, 4, [r0, #-0]
     45c:	00000008 	andeq	r0, r0, r8
     460:	00000000 	andeq	r0, r0, r0
     464:	00009000 	andeq	r9, r0, r0
     468:	00018c00 	andeq	r8, r1, r0, lsl #24
     46c:	50000100 	andpl	r0, r0, r0, lsl #2
     470:	000002e8 	andeq	r0, r0, r8, ror #5
     474:	00000334 	andeq	r0, r0, r4, lsr r3
     478:	00500001 	subseq	r0, r0, r1
     47c:	00000000 	andeq	r0, r0, r0
     480:	90000000 	andls	r0, r0, r0
     484:	f8000000 			; <UNDEFINED> instruction: 0xf8000000
     488:	01000000 	mrseq	r0, (UNDEF: 0)
     48c:	00005100 	andeq	r5, r0, r0, lsl #2
     490:	00000000 	andeq	r0, r0, r0
     494:	00900000 	addseq	r0, r0, r0
     498:	01440000 	mrseq	r0, (UNDEF: 68)
     49c:	00010000 	andeq	r0, r1, r0
     4a0:	00000052 	andeq	r0, r0, r2, asr r0
     4a4:	00000000 	andeq	r0, r0, r0
     4a8:	00009000 	andeq	r9, r0, r0
     4ac:	00025000 	andeq	r5, r2, r0
     4b0:	53000100 	movwpl	r0, #256	; 0x100
     4b4:	000002e8 	andeq	r0, r0, r8, ror #5
     4b8:	000002f0 	strdeq	r0, [r0], -r0	; <UNPREDICTABLE>
     4bc:	00530001 	subseq	r0, r3, r1
     4c0:	00000000 	andeq	r0, r0, r0
     4c4:	a8000000 	stmdage	r0, {}	; <UNPREDICTABLE>
     4c8:	ac000000 	stcge	0, cr0, [r0], {-0}
     4cc:	01000000 	mrseq	r0, (UNDEF: 0)
     4d0:	00e85400 	rsceq	r5, r8, r0, lsl #8
     4d4:	00ec0000 	rsceq	r0, ip, r0
     4d8:	00010000 	andeq	r0, r1, r0
     4dc:	00013054 	andeq	r3, r1, r4, asr r0
     4e0:	00013400 	andeq	r3, r1, r0, lsl #8
     4e4:	54000100 	strpl	r0, [r0], #-256	; 0x100
     4e8:	00000174 	andeq	r0, r0, r4, ror r1
     4ec:	00000178 	andeq	r0, r0, r8, ror r1
     4f0:	c0520001 	subsgt	r0, r2, r1
     4f4:	c4000001 	strgt	r0, [r0], #-1
     4f8:	01000001 	tsteq	r0, r1
     4fc:	02085200 	andeq	r5, r8, #0
     500:	020c0000 	andeq	r0, ip, #0
     504:	00010000 	andeq	r0, r1, r0
     508:	00025052 	andeq	r5, r2, r2, asr r0
     50c:	00025400 	andeq	r5, r2, r0, lsl #8
     510:	53000100 	movwpl	r0, #256	; 0x100
     514:	00000324 	andeq	r0, r0, r4, lsr #6
     518:	00000328 	andeq	r0, r0, r8, lsr #6
     51c:	00530001 	subseq	r0, r3, r1
     520:	00000000 	andeq	r0, r0, r0
     524:	c4000000 	strgt	r0, [r0], #-0
     528:	c8000000 	stmdagt	r0, {}	; <UNPREDICTABLE>
     52c:	04000000 	streq	r0, [r0], #-0
     530:	02ff0a00 	rscseq	r0, pc, #0
     534:	0000c89f 	muleq	r0, pc, r8	; <UNPREDICTABLE>
     538:	0000cc00 	andeq	ip, r0, r0, lsl #24
     53c:	54000100 	strpl	r0, [r0], #-256	; 0x100
     540:	000000cc 	andeq	r0, r0, ip, asr #1
     544:	000000d0 	ldrdeq	r0, [r0], -r0	; <UNPREDICTABLE>
     548:	01740003 	cmneq	r4, r3
     54c:	0000d09f 	muleq	r0, pc, r0	; <UNPREDICTABLE>
     550:	0000e400 	andeq	lr, r0, r0, lsl #8
     554:	54000100 	strpl	r0, [r0], #-256	; 0x100
     558:	0000010c 	andeq	r0, r0, ip, lsl #2
     55c:	00000110 	andeq	r0, r0, r0, lsl r1
     560:	ff0a0004 			; <UNDEFINED> instruction: 0xff0a0004
     564:	01109f02 	tsteq	r0, r2, lsl #30
     568:	01140000 	tsteq	r4, r0
     56c:	00010000 	andeq	r0, r1, r0
     570:	00011454 	andeq	r1, r1, r4, asr r4
     574:	00011800 	andeq	r1, r1, r0, lsl #16
     578:	74000300 	strvc	r0, [r0], #-768	; 0x300
     57c:	01189f01 	tsteq	r8, r1, lsl #30
     580:	012c0000 	teqeq	ip, r0
     584:	00010000 	andeq	r0, r1, r0
     588:	00015054 	andeq	r5, r1, r4, asr r0
     58c:	00015400 	andeq	r5, r1, r0, lsl #8
     590:	0a000400 	beq	1598 <__standby_start+0x1598>
     594:	549f02ff 	ldrpl	r0, [pc], #767	; 59c <__standby_start+0x59c>
     598:	58000001 	stmdapl	r0, {r0}
     59c:	01000001 	tsteq	r0, r1
     5a0:	01585200 	cmpeq	r8, r0, lsl #4
     5a4:	015c0000 	cmpeq	ip, r0
     5a8:	00030000 	andeq	r0, r3, r0
     5ac:	5c9f0172 	ldfpls	f0, [pc], {114}	; 0x72
     5b0:	70000001 	andvc	r0, r0, r1
     5b4:	01000001 	tsteq	r0, r1
     5b8:	019c5200 	orrseq	r5, ip, r0, lsl #4
     5bc:	01a00000 	moveq	r0, r0
     5c0:	00040000 	andeq	r0, r4, r0
     5c4:	9f02ff0a 	svcls	0x0002ff0a
     5c8:	000001a0 	andeq	r0, r0, r0, lsr #3
     5cc:	000001a4 	andeq	r0, r0, r4, lsr #3
     5d0:	a4520001 	ldrbge	r0, [r2], #-1
     5d4:	a8000001 	stmdage	r0, {r0}
     5d8:	03000001 	movweq	r0, #1
     5dc:	9f017200 	svcls	0x00017200
     5e0:	000001a8 	andeq	r0, r0, r8, lsr #3
     5e4:	000001bc 			; <UNDEFINED> instruction: 0x000001bc
     5e8:	e4520001 	ldrb	r0, [r2], #-1
     5ec:	e8000001 	stmda	r0, {r0}
     5f0:	04000001 	streq	r0, [r0], #-1
     5f4:	02ff0a00 	rscseq	r0, pc, #0
     5f8:	0001e89f 	muleq	r1, pc, r8	; <UNPREDICTABLE>
     5fc:	0001ec00 	andeq	lr, r1, r0, lsl #24
     600:	52000100 	andpl	r0, r0, #0
     604:	000001ec 	andeq	r0, r0, ip, ror #3
     608:	000001f0 	strdeq	r0, [r0], -r0	; <UNPREDICTABLE>
     60c:	01720003 	cmneq	r2, r3
     610:	0001f09f 	muleq	r1, pc, r0	; <UNPREDICTABLE>
     614:	00020400 	andeq	r0, r2, r0, lsl #8
     618:	52000100 	andpl	r0, r0, #0
     61c:	00000224 	andeq	r0, r0, r4, lsr #4
     620:	00000228 	andeq	r0, r0, r8, lsr #4
     624:	ff0a0004 			; <UNDEFINED> instruction: 0xff0a0004
     628:	02289f02 	eoreq	r9, r8, #8
     62c:	022c0000 	eoreq	r0, ip, #0
     630:	00010000 	andeq	r0, r1, r0
     634:	00022c52 	andeq	r2, r2, r2, asr ip
     638:	00023000 	andeq	r3, r2, r0
     63c:	72000300 	andvc	r0, r0, #0
     640:	02309f01 	eorseq	r9, r0, #4
     644:	02440000 	subeq	r0, r4, #0
     648:	00010000 	andeq	r0, r1, r0
     64c:	00030052 	andeq	r0, r3, r2, asr r0
     650:	00030400 	andeq	r0, r3, r0, lsl #8
     654:	0a000400 	beq	165c <__standby_start+0x165c>
     658:	049f02ff 	ldreq	r0, [pc], #767	; 660 <__standby_start+0x660>
     65c:	08000003 	stmdaeq	r0, {r0, r1}
     660:	01000003 	tsteq	r0, r3
     664:	03085300 	movweq	r5, #33536	; 0x8300
     668:	030c0000 	movweq	r0, #49152	; 0xc000
     66c:	00030000 	andeq	r0, r3, r0
     670:	0c9f0173 	ldfeqs	f0, [pc], {115}	; 0x73
     674:	20000003 	andcs	r0, r0, r3
     678:	01000003 	tsteq	r0, r3
     67c:	00005300 	andeq	r5, r0, r0, lsl #6
     680:	00000000 	andeq	r0, r0, r0
     684:	00900000 	addseq	r0, r0, r0
     688:	02680000 	rsbeq	r0, r8, #0
     68c:	00030000 	andeq	r0, r3, r0
     690:	689fff09 	ldmvs	pc, {r0, r3, r8, r9, sl, fp, ip, sp, lr, pc}	; <UNPREDICTABLE>
     694:	e8000002 	stmda	r0, {r1}
     698:	01000002 	tsteq	r0, r2
     69c:	02e85000 	rsceq	r5, r8, #0
     6a0:	03380000 	teqeq	r8, #0
     6a4:	00030000 	andeq	r0, r3, r0
     6a8:	389fff09 	ldmcc	pc, {r0, r3, r8, r9, sl, fp, ip, sp, lr, pc}	; <UNPREDICTABLE>
     6ac:	44000003 	strmi	r0, [r0], #-3
     6b0:	01000003 	tsteq	r0, r3
     6b4:	00005000 	andeq	r5, r0, r0
     6b8:	00000000 	andeq	r0, r0, r0
     6bc:	02680000 	rsbeq	r0, r8, #0
     6c0:	02840000 	addeq	r0, r4, #0
     6c4:	00040000 	andeq	r0, r4, r0
     6c8:	9f02ff0a 	svcls	0x0002ff0a
     6cc:	00000284 	andeq	r0, r0, r4, lsl #5
     6d0:	00000288 	andeq	r0, r0, r8, lsl #5
     6d4:	88530001 	ldmdahi	r3, {r0}^
     6d8:	8c000002 	stchi	0, cr0, [r0], {2}
     6dc:	03000002 	movweq	r0, #2
     6e0:	9f017300 	svcls	0x00017300
     6e4:	0000028c 	andeq	r0, r0, ip, lsl #5
     6e8:	000002a0 	andeq	r0, r0, r0, lsr #5
     6ec:	ac530001 	mrrcge	0, 0, r0, r3, cr1
     6f0:	b0000002 	andlt	r0, r0, r2
     6f4:	01000002 	tsteq	r0, r2
     6f8:	02b05300 	adcseq	r5, r0, #0
     6fc:	02b40000 	adcseq	r0, r4, #0
     700:	00030000 	andeq	r0, r3, r0
     704:	b49f0173 	ldrlt	r0, [pc], #371	; 70c <__standby_start+0x70c>
     708:	c8000002 	stmdagt	r0, {r1}
     70c:	01000002 	tsteq	r0, r2
     710:	03385300 	teqeq	r8, #0
     714:	033c0000 	teqeq	ip, #0
     718:	00030000 	andeq	r0, r3, r0
     71c:	3c9f0173 	ldfccs	f0, [pc], {115}	; 0x73
     720:	44000003 	strmi	r0, [r0], #-3
     724:	04000003 	streq	r0, [r0], #-3
     728:	7a817300 	bvc	fe05d330 <__bss_end+0xe059d14>
     72c:	0000009f 	muleq	r0, pc, r0	; <UNPREDICTABLE>
     730:	00000000 	andeq	r0, r0, r0
     734:	00001000 	andeq	r1, r0, r0
     738:	00001400 	andeq	r1, r0, r0, lsl #8
     73c:	50000100 	andpl	r0, r0, r0, lsl #2
	...
     74c:	00000008 	andeq	r0, r0, r8
     750:	007d0002 	rsbseq	r0, sp, r2
     754:	00000008 	andeq	r0, r0, r8
     758:	0000002c 	andeq	r0, r0, ip, lsr #32
     75c:	087d0002 	ldmdaeq	sp!, {r1}^
	...
     768:	0000002c 	andeq	r0, r0, ip, lsr #32
     76c:	00000030 	andeq	r0, r0, r0, lsr r0
     770:	007d0002 	rsbseq	r0, sp, r2
     774:	00000030 	andeq	r0, r0, r0, lsr r0
     778:	00000058 	andeq	r0, r0, r8, asr r0
     77c:	087d0002 	ldmdaeq	sp!, {r1}^
	...
     788:	00000058 	andeq	r0, r0, r8, asr r0
     78c:	0000005c 	andeq	r0, r0, ip, asr r0
     790:	007d0002 	rsbseq	r0, sp, r2
     794:	0000005c 	andeq	r0, r0, ip, asr r0
     798:	000000d0 	ldrdeq	r0, [r0], -r0	; <UNPREDICTABLE>
     79c:	107d0002 	rsbsne	r0, sp, r2
	...
     7a8:	00000058 	andeq	r0, r0, r8, asr r0
     7ac:	00000064 	andeq	r0, r0, r4, rrx
     7b0:	64500001 	ldrbvs	r0, [r0], #-1
     7b4:	74000000 	strvc	r0, [r0], #-0
     7b8:	01000000 	mrseq	r0, (UNDEF: 0)
     7bc:	00c85500 	sbceq	r5, r8, r0, lsl #10
     7c0:	00d00000 	sbcseq	r0, r0, r0
     7c4:	00010000 	andeq	r0, r1, r0
     7c8:	00000055 	andeq	r0, r0, r5, asr r0
     7cc:	00000000 	andeq	r0, r0, r0
     7d0:	00006800 	andeq	r6, r0, r0, lsl #16
     7d4:	00009300 	andeq	r9, r0, r0, lsl #6
     7d8:	50000100 	andpl	r0, r0, r0, lsl #2
     7dc:	00000093 	muleq	r0, r3, r0
     7e0:	000000d0 	ldrdeq	r0, [r0], -r0	; <UNPREDICTABLE>
     7e4:	00540001 	subseq	r0, r4, r1
     7e8:	00000000 	andeq	r0, r0, r0
     7ec:	70000000 	andvc	r0, r0, r0
     7f0:	78000000 	stmdavc	r0, {}	; <UNPREDICTABLE>
     7f4:	02000000 	andeq	r0, r0, #0
     7f8:	789f3000 	ldmvc	pc, {ip, sp}	; <UNPREDICTABLE>
     7fc:	a4000000 	strge	r0, [r0], #-0
     800:	02000000 	andeq	r0, r0, #0
     804:	a49f3200 	ldrge	r3, [pc], #512	; 80c <__standby_start+0x80c>
     808:	c8000000 	stmdagt	r0, {}	; <UNPREDICTABLE>
     80c:	02000000 	andeq	r0, r0, #0
     810:	009f3000 	addseq	r3, pc, r0
     814:	00000000 	andeq	r0, r0, r0
     818:	d0000000 	andle	r0, r0, r0
     81c:	d4000000 	strle	r0, [r0], #-0
     820:	02000000 	andeq	r0, r0, #0
     824:	d4007d00 	strle	r7, [r0], #-3328	; 0xd00
     828:	54000000 	strpl	r0, [r0], #-0
     82c:	02000001 	andeq	r0, r0, #1
     830:	00087d00 	andeq	r7, r8, r0, lsl #26
     834:	00000000 	andeq	r0, r0, r0
     838:	ec000000 	stc	0, cr0, [r0], {-0}
     83c:	f4000000 	vst4.8	{d0-d3}, [r0], r0
     840:	01000000 	mrseq	r0, (UNDEF: 0)
     844:	00f45000 	rscseq	r5, r4, r0
     848:	012f0000 	teqeq	pc, r0
     84c:	00010000 	andeq	r0, r1, r0
     850:	00014053 	andeq	r4, r1, r3, asr r0
     854:	00014300 	andeq	r4, r1, r0, lsl #6
     858:	53000100 	movwpl	r0, #256	; 0x100
     85c:	00000148 	andeq	r0, r0, r8, asr #2
     860:	00000154 	andeq	r0, r0, r4, asr r1
     864:	00530001 	subseq	r0, r3, r1
     868:	00000000 	andeq	r0, r0, r0
     86c:	54000000 	strpl	r0, [r0], #-0
     870:	58000001 	stmdapl	r0, {r0}
     874:	02000001 	andeq	r0, r0, #1
     878:	58007d00 	stmdapl	r0, {r8, sl, fp, ip, sp, lr}
     87c:	f0000001 			; <UNDEFINED> instruction: 0xf0000001
     880:	02000001 	andeq	r0, r0, #1
     884:	00107d00 	andseq	r7, r0, r0, lsl #26
     888:	00000000 	andeq	r0, r0, r0
     88c:	54000000 	strpl	r0, [r0], #-0
     890:	74000001 	strvc	r0, [r0], #-1
     894:	01000001 	tsteq	r0, r1
     898:	01745000 	cmneq	r4, r0
     89c:	01f00000 	mvnseq	r0, r0
     8a0:	00010000 	andeq	r0, r1, r0
     8a4:	00000055 	andeq	r0, r0, r5, asr r0
     8a8:	00000000 	andeq	r0, r0, r0
     8ac:	00017c00 	andeq	r7, r1, r0, lsl #24
     8b0:	0001bc00 	andeq	fp, r1, r0, lsl #24
     8b4:	50000100 	andpl	r0, r0, r0, lsl #2
     8b8:	000001bc 			; <UNDEFINED> instruction: 0x000001bc
     8bc:	000001c3 	andeq	r0, r0, r3, asr #3
     8c0:	d4530001 	ldrble	r0, [r3], #-1
     8c4:	d7000001 	strle	r0, [r0, -r1]
     8c8:	01000001 	tsteq	r0, r1
     8cc:	01dc5000 	bicseq	r5, ip, r0
     8d0:	01e00000 	mvneq	r0, r0
     8d4:	00010000 	andeq	r0, r1, r0
     8d8:	0001e050 	andeq	lr, r1, r0, asr r0
     8dc:	0001e400 	andeq	lr, r1, r0, lsl #8
     8e0:	53000100 	movwpl	r0, #256	; 0x100
	...
     8ec:	000001f0 	strdeq	r0, [r0], -r0	; <UNPREDICTABLE>
     8f0:	000001f4 	strdeq	r0, [r0], -r4
     8f4:	007d0002 	rsbseq	r0, sp, r2
     8f8:	000001f4 	strdeq	r0, [r0], -r4
     8fc:	00000268 	andeq	r0, r0, r8, ror #4
     900:	107d0002 	rsbsne	r0, sp, r2
	...
     90c:	000001f0 	strdeq	r0, [r0], -r0	; <UNPREDICTABLE>
     910:	000001fc 	strdeq	r0, [r0], -ip
     914:	fc500001 	mrrc2	0, 0, r0, r0, cr1	; <UNPREDICTABLE>
     918:	68000001 	stmdavs	r0, {r0}
     91c:	01000002 	tsteq	r0, r2
     920:	00005500 	andeq	r5, r0, r0, lsl #10
     924:	00000000 	andeq	r0, r0, r0
     928:	02000000 	andeq	r0, r0, #0
     92c:	02140000 	andseq	r0, r4, #0
     930:	00010000 	andeq	r0, r1, r0
     934:	00000050 	andeq	r0, r0, r0, asr r0
     938:	00000000 	andeq	r0, r0, r0
     93c:	0001f000 	andeq	pc, r1, r0
     940:	00025c00 	andeq	r5, r2, r0, lsl #24
     944:	30000200 	andcc	r0, r0, r0, lsl #4
     948:	00025c9f 	muleq	r2, pc, ip	; <UNPREDICTABLE>
     94c:	00025f00 	andeq	r5, r2, r0, lsl #30
     950:	53000100 	movwpl	r0, #256	; 0x100
     954:	0000025f 	andeq	r0, r0, pc, asr r2
     958:	00000268 	andeq	r0, r0, r8, ror #4
     95c:	00540001 	subseq	r0, r4, r1
     960:	00000000 	andeq	r0, r0, r0
     964:	10000000 	andne	r0, r0, r0
     968:	18000000 	stmdane	r0, {}	; <UNPREDICTABLE>
     96c:	02000000 	andeq	r0, r0, #0
     970:	18007d00 	stmdane	r0, {r8, sl, fp, ip, sp, lr}
     974:	d4000000 	strle	r0, [r0], #-0
     978:	02000000 	andeq	r0, r0, #0
     97c:	00087d00 	andeq	r7, r8, r0, lsl #26
     980:	00000000 	andeq	r0, r0, r0
     984:	10000000 	andne	r0, r0, r0
     988:	1c000000 	stcne	0, cr0, [r0], {-0}
     98c:	01000000 	mrseq	r0, (UNDEF: 0)
     990:	00005000 	andeq	r5, r0, r0
     994:	00000000 	andeq	r0, r0, r0
     998:	00100000 	andseq	r0, r0, r0
     99c:	00280000 	eoreq	r0, r8, r0
     9a0:	00010000 	andeq	r0, r1, r0
     9a4:	00000051 	andeq	r0, r0, r1, asr r0
     9a8:	00000000 	andeq	r0, r0, r0
     9ac:	00005c00 	andeq	r5, r0, r0, lsl #24
     9b0:	00009400 	andeq	r9, r0, r0, lsl #8
     9b4:	91000200 	mrsls	r0, R8_usr
     9b8:	0000b874 	andeq	fp, r0, r4, ror r8
     9bc:	0000d400 	andeq	sp, r0, r0, lsl #8
     9c0:	91000200 	mrsls	r0, R8_usr
     9c4:	00000074 	andeq	r0, r0, r4, ror r0
     9c8:	00000000 	andeq	r0, r0, r0
     9cc:	0000d400 	andeq	sp, r0, r0, lsl #8
     9d0:	0000dc00 	andeq	sp, r0, r0, lsl #24
     9d4:	7d000200 	sfmvc	f0, 4, [r0, #-0]
     9d8:	0000dc00 	andeq	sp, r0, r0, lsl #24
     9dc:	00017800 	andeq	r7, r1, r0, lsl #16
     9e0:	7d000200 	sfmvc	f0, 4, [r0, #-0]
     9e4:	00000008 	andeq	r0, r0, r8
     9e8:	00000000 	andeq	r0, r0, r0
     9ec:	0000d400 	andeq	sp, r0, r0, lsl #8
     9f0:	00011000 	andeq	r1, r1, r0
     9f4:	50000100 	andpl	r0, r0, r0, lsl #2
     9f8:	00000128 	andeq	r0, r0, r8, lsr #2
     9fc:	00000164 	andeq	r0, r0, r4, ror #2
     a00:	00500001 	subseq	r0, r0, r1
     a04:	00000000 	andeq	r0, r0, r0
     a08:	d4000000 	strle	r0, [r0], #-0
     a0c:	e8000000 	stmda	r0, {}	; <UNPREDICTABLE>
     a10:	01000000 	mrseq	r0, (UNDEF: 0)
     a14:	01285100 	teqeq	r8, r0, lsl #2
     a18:	013c0000 	teqeq	ip, r0
     a1c:	00010000 	andeq	r0, r1, r0
     a20:	00000051 	andeq	r0, r0, r1, asr r0
     a24:	00000000 	andeq	r0, r0, r0
     a28:	00011400 	andeq	r1, r1, r0, lsl #8
     a2c:	00012800 	andeq	r2, r1, r0, lsl #16
     a30:	91000200 	mrsls	r0, R8_usr
     a34:	00016874 	andeq	r6, r1, r4, ror r8
     a38:	00017800 	andeq	r7, r1, r0, lsl #16
     a3c:	91000200 	mrsls	r0, R8_usr
     a40:	00000074 	andeq	r0, r0, r4, ror r0
     a44:	00000000 	andeq	r0, r0, r0
     a48:	00017800 	andeq	r7, r1, r0, lsl #16
     a4c:	00018000 	andeq	r8, r1, r0
     a50:	7d000200 	sfmvc	f0, 4, [r0, #-0]
     a54:	00018000 	andeq	r8, r1, r0
     a58:	0001cc00 	andeq	ip, r1, r0, lsl #24
     a5c:	7d000200 	sfmvc	f0, 4, [r0, #-0]
     a60:	00000008 	andeq	r0, r0, r8
     a64:	00000000 	andeq	r0, r0, r0
     a68:	00017800 	andeq	r7, r1, r0, lsl #16
     a6c:	00018800 	andeq	r8, r1, r0, lsl #16
     a70:	50000100 	andpl	r0, r0, r0, lsl #2
	...
     a7c:	00000178 	andeq	r0, r0, r8, ror r1
     a80:	000001a0 	andeq	r0, r0, r0, lsr #3
     a84:	00510001 	subseq	r0, r1, r1
     a88:	00000000 	andeq	r0, r0, r0
     a8c:	a0000000 	andge	r0, r0, r0
     a90:	a8000001 	stmdage	r0, {r0}
     a94:	01000001 	tsteq	r0, r1
     a98:	01a85100 			; <UNDEFINED> instruction: 0x01a85100
     a9c:	01ac0000 			; <UNDEFINED> instruction: 0x01ac0000
     aa0:	00020000 	andeq	r0, r2, r0
     aa4:	01b07491 	lslseq	r7, r1	; <illegal shifter operand>
     aa8:	01b40000 			; <UNDEFINED> instruction: 0x01b40000
     aac:	00010000 	andeq	r0, r1, r0
     ab0:	0001b451 	andeq	fp, r1, r1, asr r4
     ab4:	0001b800 	andeq	fp, r1, r0, lsl #16
     ab8:	91000200 	mrsls	r0, R8_usr
     abc:	0001bc74 	andeq	fp, r1, r4, ror ip
     ac0:	0001c000 	andeq	ip, r1, r0
     ac4:	52000100 	andpl	r0, r0, #0
     ac8:	000001c0 	andeq	r0, r0, r0, asr #3
     acc:	000001cc 	andeq	r0, r0, ip, asr #3
     ad0:	74910002 	ldrvc	r0, [r1], #2
	...
     adc:	000001cc 	andeq	r0, r0, ip, asr #3
     ae0:	000001d4 	ldrdeq	r0, [r0], -r4
     ae4:	007d0002 	rsbseq	r0, sp, r2
     ae8:	000001d4 	ldrdeq	r0, [r0], -r4
     aec:	000001f8 	strdeq	r0, [r0], -r8
     af0:	087d0002 	ldmdaeq	sp!, {r1}^
	...
     afc:	000001cc 	andeq	r0, r0, ip, asr #3
     b00:	000001dc 	ldrdeq	r0, [r0], -ip
     b04:	00500001 	subseq	r0, r0, r1
     b08:	00000000 	andeq	r0, r0, r0
     b0c:	e0000000 	and	r0, r0, r0
     b10:	ec000001 	stc	0, cr0, [r0], {1}
     b14:	01000001 	tsteq	r0, r1
     b18:	01ec5300 	mvneq	r5, r0, lsl #6
     b1c:	01f80000 	mvnseq	r0, r0
     b20:	00020000 	andeq	r0, r2, r0
     b24:	00007491 	muleq	r0, r1, r4
     b28:	00000000 	andeq	r0, r0, r0
     b2c:	01f80000 	mvnseq	r0, r0
     b30:	01fc0000 	mvnseq	r0, r0
     b34:	00010000 	andeq	r0, r1, r0
     b38:	00000050 	andeq	r0, r0, r0, asr r0
     b3c:	00000000 	andeq	r0, r0, r0
     b40:	00021800 	andeq	r1, r2, r0, lsl #16
     b44:	00022000 	andeq	r2, r2, r0
     b48:	7d000200 	sfmvc	f0, 4, [r0, #-0]
     b4c:	00022000 	andeq	r2, r2, r0
     b50:	00030400 	andeq	r0, r3, r0, lsl #8
     b54:	7d000200 	sfmvc	f0, 4, [r0, #-0]
     b58:	00000008 	andeq	r0, r0, r8
     b5c:	00000000 	andeq	r0, r0, r0
     b60:	00021800 	andeq	r1, r2, r0, lsl #16
     b64:	00024c00 	andeq	r4, r2, r0, lsl #24
     b68:	30000200 	andcc	r0, r0, r0, lsl #4
     b6c:	00024c9f 	muleq	r2, pc, ip	; <UNPREDICTABLE>
     b70:	00028400 	andeq	r8, r2, r0, lsl #8
     b74:	50000100 	andpl	r0, r0, r0, lsl #2
     b78:	0000028c 	andeq	r0, r0, ip, lsl #5
     b7c:	000002b8 			; <UNDEFINED> instruction: 0x000002b8
     b80:	9f300002 	svcls	0x00300002
     b84:	000002b8 			; <UNDEFINED> instruction: 0x000002b8
     b88:	000002dc 	ldrdeq	r0, [r0], -ip
     b8c:	dc510001 	mrrcle	0, 0, r0, r1, cr1
     b90:	fc000002 	stc2	0, cr0, [r0], {2}
     b94:	01000002 	tsteq	r0, r2
     b98:	00005000 	andeq	r5, r0, r0
     b9c:	00000000 	andeq	r0, r0, r0
     ba0:	02340000 	eorseq	r0, r4, #0
     ba4:	023c0000 	eorseq	r0, ip, #0
     ba8:	00010000 	andeq	r0, r1, r0
     bac:	00023c53 	andeq	r3, r2, r3, asr ip
     bb0:	00028c00 	andeq	r8, r2, r0, lsl #24
     bb4:	91000200 	mrsls	r0, R8_usr
     bb8:	0002f874 	andeq	pc, r2, r4, ror r8	; <UNPREDICTABLE>
     bbc:	00030400 	andeq	r0, r3, r0, lsl #8
     bc0:	91000200 	mrsls	r0, R8_usr
     bc4:	00000074 	andeq	r0, r0, r4, ror r0
     bc8:	00000000 	andeq	r0, r0, r0
     bcc:	00024c00 	andeq	r4, r2, r0, lsl #24
     bd0:	00028400 	andeq	r8, r2, r0, lsl #8
     bd4:	50000100 	andpl	r0, r0, r0, lsl #2
     bd8:	000002f8 	strdeq	r0, [r0], -r8
     bdc:	000002fc 	strdeq	r0, [r0], -ip
     be0:	00500001 	subseq	r0, r0, r1
     be4:	00000000 	andeq	r0, r0, r0
     be8:	74000000 	strvc	r0, [r0], #-0
     bec:	84000002 	strhi	r0, [r0], #-2
     bf0:	02000002 	andeq	r0, r0, #2
     bf4:	009f3100 	addseq	r3, pc, r0, lsl #2
     bf8:	00000000 	andeq	r0, r0, r0
     bfc:	74000000 	strvc	r0, [r0], #-0
     c00:	84000002 	strhi	r0, [r0], #-2
     c04:	02000002 	andeq	r0, r0, #2
     c08:	009f3000 	addseq	r3, pc, r0
     c0c:	00000000 	andeq	r0, r0, r0
     c10:	84000000 	strhi	r0, [r0], #-0
     c14:	8c000002 	stchi	0, cr0, [r0], {2}
     c18:	02000002 	andeq	r0, r0, #2
     c1c:	a0749100 	rsbsge	r9, r4, r0, lsl #2
     c20:	a8000002 	stmdage	r0, {r1}
     c24:	01000002 	tsteq	r0, r2
     c28:	02a85300 	adceq	r5, r8, #0
     c2c:	02f80000 	rscseq	r0, r8, #0
     c30:	00020000 	andeq	r0, r2, r0
     c34:	00007491 	muleq	r0, r1, r4
     c38:	00000000 	andeq	r0, r0, r0
     c3c:	02b80000 	adcseq	r0, r8, #0
     c40:	02dc0000 	sbcseq	r0, ip, #0
     c44:	00010000 	andeq	r0, r1, r0
     c48:	0002dc51 	andeq	sp, r2, r1, asr ip
     c4c:	0002f800 	andeq	pc, r2, r0, lsl #16
     c50:	50000100 	andpl	r0, r0, r0, lsl #2
	...
     c5c:	000002e4 	andeq	r0, r0, r4, ror #5
     c60:	000002f8 	strdeq	r0, [r0], -r8
     c64:	9f310002 	svcls	0x00310002
	...
     c70:	000002e4 	andeq	r0, r0, r4, ror #5
     c74:	000002f8 	strdeq	r0, [r0], -r8
     c78:	9f320002 	svcls	0x00320002
	...
     c84:	00000304 	andeq	r0, r0, r4, lsl #6
     c88:	00000324 	andeq	r0, r0, r4, lsr #6
     c8c:	2c500001 	mrrccs	0, 0, r0, r0, cr1	; <UNPREDICTABLE>
     c90:	30000003 	andcc	r0, r0, r3
     c94:	01000003 	tsteq	r0, r3
     c98:	00005000 	andeq	r5, r0, r0
     c9c:	00000000 	andeq	r0, r0, r0
     ca0:	00100000 	andseq	r0, r0, r0
     ca4:	00300000 	eorseq	r0, r0, r0
     ca8:	00010000 	andeq	r0, r1, r0
     cac:	00000050 	andeq	r0, r0, r0, asr r0
     cb0:	00000000 	andeq	r0, r0, r0
     cb4:	00003400 	andeq	r3, r0, r0, lsl #8
     cb8:	00004800 	andeq	r4, r0, r0, lsl #16
     cbc:	50000100 	andpl	r0, r0, r0, lsl #2
	...
     cc8:	00000030 	andeq	r0, r0, r0, lsr r0
     ccc:	00000034 	andeq	r0, r0, r4, lsr r0
     cd0:	007d0002 	rsbseq	r0, sp, r2
     cd4:	00000034 	andeq	r0, r0, r4, lsr r0
     cd8:	000000c4 	andeq	r0, r0, r4, asr #1
     cdc:	107d0002 	rsbsne	r0, sp, r2
	...
     ce8:	00000030 	andeq	r0, r0, r0, lsr r0
     cec:	00000040 	andeq	r0, r0, r0, asr #32
     cf0:	40500001 	subsmi	r0, r0, r1
     cf4:	a8000000 	stmdage	r0, {}	; <UNPREDICTABLE>
     cf8:	01000000 	mrseq	r0, (UNDEF: 0)
     cfc:	00005400 	andeq	r5, r0, r0, lsl #8
     d00:	00000000 	andeq	r0, r0, r0
     d04:	00300000 	eorseq	r0, r0, r0
     d08:	004c0000 	subeq	r0, ip, r0
     d0c:	00020000 	andeq	r0, r2, r0
     d10:	004c9f30 	subeq	r9, ip, r0, lsr pc
     d14:	00680000 	rsbeq	r0, r8, r0
     d18:	00050000 	andeq	r0, r5, r0
     d1c:	00349803 	eorseq	r9, r4, r3, lsl #16
     d20:	000068f0 	strdeq	r6, [r0], -r0
     d24:	00007800 	andeq	r7, r0, r0, lsl #16
     d28:	55000100 	strpl	r0, [r0, #-256]	; 0x100
     d2c:	00000078 	andeq	r0, r0, r8, ror r0
     d30:	0000007c 	andeq	r0, r0, ip, ror r0
     d34:	7c530001 	mrrcvc	0, 0, r0, r3, cr1
     d38:	84000000 	strhi	r0, [r0], #-0
     d3c:	01000000 	mrseq	r0, (UNDEF: 0)
     d40:	00945500 	addseq	r5, r4, r0, lsl #10
     d44:	009c0000 	addseq	r0, ip, r0
     d48:	00010000 	andeq	r0, r1, r0
     d4c:	00009c53 	andeq	r9, r0, r3, asr ip
     d50:	0000c400 	andeq	ip, r0, r0, lsl #8
     d54:	55000100 	strpl	r0, [r0, #-256]	; 0x100
	...
     d60:	00000030 	andeq	r0, r0, r0, lsr r0
     d64:	00000098 	muleq	r0, r8, r0
     d68:	9f300002 	svcls	0x00300002
     d6c:	00000098 	muleq	r0, r8, r0
     d70:	0000009c 	muleq	r0, ip, r0
     d74:	9c530001 	mrrcls	0, 0, r0, r3, cr1
     d78:	c4000000 	strgt	r0, [r0], #-0
     d7c:	01000000 	mrseq	r0, (UNDEF: 0)
     d80:	00005500 	andeq	r5, r0, r0, lsl #10
     d84:	00000000 	andeq	r0, r0, r0
     d88:	00c40000 	sbceq	r0, r4, r0
     d8c:	00c80000 	sbceq	r0, r8, r0
     d90:	00020000 	andeq	r0, r2, r0
     d94:	00c8007d 	sbceq	r0, r8, sp, ror r0
     d98:	00f00000 	rscseq	r0, r0, r0
     d9c:	00020000 	andeq	r0, r2, r0
     da0:	0000087d 	andeq	r0, r0, sp, ror r8
     da4:	00000000 	andeq	r0, r0, r0
     da8:	00c40000 	sbceq	r0, r4, r0
     dac:	00d40000 	sbcseq	r0, r4, r0
     db0:	00010000 	andeq	r0, r1, r0
     db4:	0000d450 	andeq	sp, r0, r0, asr r4
     db8:	0000f000 	andeq	pc, r0, r0
     dbc:	54000100 	strpl	r0, [r0], #-256	; 0x100
	...
     dcc:	00000004 	andeq	r0, r0, r4
     dd0:	007d0002 	rsbseq	r0, sp, r2
     dd4:	00000004 	andeq	r0, r0, r4
     dd8:	00000020 	andeq	r0, r0, r0, lsr #32
     ddc:	087d0002 	ldmdaeq	sp!, {r1}^
	...
     de8:	00000030 	andeq	r0, r0, r0, lsr r0
     dec:	00000040 	andeq	r0, r0, r0, asr #32
     df0:	9f300002 	svcls	0x00300002
     df4:	00000040 	andeq	r0, r0, r0, asr #32
     df8:	00000044 	andeq	r0, r0, r4, asr #32
     dfc:	9f310002 	svcls	0x00310002
     e00:	00000044 	andeq	r0, r0, r4, asr #32
     e04:	00000048 	andeq	r0, r0, r8, asr #32
     e08:	9f320002 	svcls	0x00320002
     e0c:	00000048 	andeq	r0, r0, r8, asr #32
     e10:	0000004c 	andeq	r0, r0, ip, asr #32
     e14:	9f330002 	svcls	0x00330002
     e18:	0000004c 	andeq	r0, r0, ip, asr #32
     e1c:	00000050 	andeq	r0, r0, r0, asr r0
     e20:	9f340002 	svcls	0x00340002
	...
     e2c:	00000054 	andeq	r0, r0, r4, asr r0
     e30:	00000058 	andeq	r0, r0, r8, asr r0
     e34:	007d0002 	rsbseq	r0, sp, r2
     e38:	00000058 	andeq	r0, r0, r8, asr r0
     e3c:	0000007c 	andeq	r0, r0, ip, ror r0
     e40:	087d0002 	ldmdaeq	sp!, {r1}^
	...
     e4c:	0000008c 	andeq	r0, r0, ip, lsl #1
     e50:	00000090 	muleq	r0, r0, r0
     e54:	007d0002 	rsbseq	r0, sp, r2
     e58:	00000090 	muleq	r0, r0, r0
     e5c:	000000c4 	andeq	r0, r0, r4, asr #1
     e60:	107d0002 	rsbsne	r0, sp, r2
	...
     e6c:	0000008c 	andeq	r0, r0, ip, lsl #1
     e70:	000000a0 	andeq	r0, r0, r0, lsr #1
     e74:	9f300002 	svcls	0x00300002
	...
     e80:	000000c4 	andeq	r0, r0, r4, asr #1
     e84:	000000c8 	andeq	r0, r0, r8, asr #1
     e88:	007d0002 	rsbseq	r0, sp, r2
     e8c:	000000c8 	andeq	r0, r0, r8, asr #1
     e90:	000000e0 	andeq	r0, r0, r0, ror #1
     e94:	087d0002 	ldmdaeq	sp!, {r1}^
	...
     ea0:	000000e0 	andeq	r0, r0, r0, ror #1
     ea4:	000000e4 	andeq	r0, r0, r4, ror #1
     ea8:	007d0002 	rsbseq	r0, sp, r2
     eac:	000000e4 	andeq	r0, r0, r4, ror #1
     eb0:	000000fc 	strdeq	r0, [r0], -ip
     eb4:	087d0002 	ldmdaeq	sp!, {r1}^
	...
     ec0:	00000144 	andeq	r0, r0, r4, asr #2
     ec4:	00000148 	andeq	r0, r0, r8, asr #2
     ec8:	007d0002 	rsbseq	r0, sp, r2
     ecc:	00000148 	andeq	r0, r0, r8, asr #2
     ed0:	00000178 	andeq	r0, r0, r8, ror r1
     ed4:	107d0002 	rsbsne	r0, sp, r2
	...
     ee0:	00000144 	andeq	r0, r0, r4, asr #2
     ee4:	0000015c 	andeq	r0, r0, ip, asr r1
     ee8:	00500001 	subseq	r0, r0, r1
     eec:	00000000 	andeq	r0, r0, r0
     ef0:	60000000 	andvs	r0, r0, r0
     ef4:	70000001 	andvc	r0, r0, r1
     ef8:	01000001 	tsteq	r0, r1
     efc:	01705600 	cmneq	r0, r0, lsl #12
     f00:	01780000 	cmneq	r8, r0
     f04:	00010000 	andeq	r0, r1, r0
     f08:	00000055 	andeq	r0, r0, r5, asr r0
	...
     f14:	00000800 	andeq	r0, r0, r0, lsl #16
     f18:	50000100 	andpl	r0, r0, r0, lsl #2
	...
     f28:	0000000c 	andeq	r0, r0, ip
     f2c:	9f310002 	svcls	0x00310002
     f30:	0000000c 	andeq	r0, r0, ip
     f34:	00000014 	andeq	r0, r0, r4, lsl r0
     f38:	14500001 	ldrbne	r0, [r0], #-1
     f3c:	18000000 	stmdane	r0, {}	; <UNPREDICTABLE>
     f40:	05000000 	streq	r0, [r0, #-0]
     f44:	40007000 	andmi	r7, r0, r0
     f48:	00189f21 	andseq	r9, r8, r1, lsr #30
     f4c:	001c0000 	andseq	r0, ip, r0
     f50:	00010000 	andeq	r0, r1, r0
     f54:	00001c50 	andeq	r1, r0, r0, asr ip
     f58:	00002c00 	andeq	r2, r0, r0, lsl #24
     f5c:	9e000600 	cfmadd32ls	mvax0, mvfx0, mvfx0, mvfx0
     f60:	00000f04 	andeq	r0, r0, r4, lsl #30
     f64:	00000080 	andeq	r0, r0, r0, lsl #1
     f68:	00000000 	andeq	r0, r0, r0
     f6c:	00007400 	andeq	r7, r0, r0, lsl #8
     f70:	00007800 	andeq	r7, r0, r0, lsl #16
     f74:	30000200 	andcc	r0, r0, r0, lsl #4
     f78:	0000789f 	muleq	r0, pc, r8	; <UNPREDICTABLE>
     f7c:	00007c00 	andeq	r7, r0, r0, lsl #24
     f80:	73000500 	movwvc	r0, #1280	; 0x500
     f84:	9f213400 	svcls	0x00213400
     f88:	0000007c 	andeq	r0, r0, ip, ror r0
     f8c:	00000084 	andeq	r0, r0, r4, lsl #1
     f90:	00530001 	subseq	r0, r3, r1
     f94:	00000000 	andeq	r0, r0, r0
     f98:	84000000 	strhi	r0, [r0], #-0
     f9c:	88000000 	stmdahi	r0, {}	; <UNPREDICTABLE>
     fa0:	02000000 	andeq	r0, r0, #0
     fa4:	88007d00 	stmdahi	r0, {r8, sl, fp, ip, sp, lr}
     fa8:	ac000000 	stcge	0, cr0, [r0], {-0}
     fac:	02000000 	andeq	r0, r0, #0
     fb0:	00087d00 	andeq	r7, r8, r0, lsl #26
     fb4:	00000000 	andeq	r0, r0, r0
     fb8:	84000000 	strhi	r0, [r0], #-0
     fbc:	8c000000 	stchi	0, cr0, [r0], {-0}
     fc0:	02000000 	andeq	r0, r0, #0
     fc4:	009f3000 	addseq	r3, pc, r0
     fc8:	00000000 	andeq	r0, r0, r0
     fcc:	8c000000 	stchi	0, cr0, [r0], {-0}
     fd0:	98000000 	stmdals	r0, {}	; <UNPREDICTABLE>
     fd4:	01000000 	mrseq	r0, (UNDEF: 0)
     fd8:	00005300 	andeq	r5, r0, r0, lsl #6
     fdc:	00000000 	andeq	r0, r0, r0
     fe0:	00900000 	addseq	r0, r0, r0
     fe4:	00a30000 	adceq	r0, r3, r0
     fe8:	00010000 	andeq	r0, r1, r0
     fec:	00000052 	andeq	r0, r0, r2, asr r0
     ff0:	00000000 	andeq	r0, r0, r0
     ff4:	0000ac00 	andeq	sl, r0, r0, lsl #24
     ff8:	0000b000 	andeq	fp, r0, r0
     ffc:	7d000200 	sfmvc	f0, 4, [r0, #-0]
    1000:	0000b000 	andeq	fp, r0, r0
    1004:	00012c00 	andeq	r2, r1, r0, lsl #24
    1008:	7d000200 	sfmvc	f0, 4, [r0, #-0]
    100c:	00000010 	andeq	r0, r0, r0, lsl r0
    1010:	00000000 	andeq	r0, r0, r0
    1014:	0000ac00 	andeq	sl, r0, r0, lsl #24
    1018:	0000bc00 	andeq	fp, r0, r0, lsl #24
    101c:	50000100 	andpl	r0, r0, r0, lsl #2
    1020:	000000bc 	strheq	r0, [r0], -ip
    1024:	000000c4 	andeq	r0, r0, r4, asr #1
    1028:	d0550001 	subsle	r0, r5, r1
    102c:	e4000000 	str	r0, [r0], #-0
    1030:	01000000 	mrseq	r0, (UNDEF: 0)
    1034:	00005500 	andeq	r5, r0, r0, lsl #10
    1038:	00000000 	andeq	r0, r0, r0
    103c:	00ac0000 	adceq	r0, ip, r0
    1040:	00c40000 	sbceq	r0, r4, r0
    1044:	00020000 	andeq	r0, r2, r0
    1048:	00d09f30 	sbcseq	r9, r0, r0, lsr pc
    104c:	00d80000 	sbcseq	r0, r8, r0
    1050:	00020000 	andeq	r0, r2, r0
    1054:	00d89f30 	sbcseq	r9, r8, r0, lsr pc
    1058:	00e40000 	rsceq	r0, r4, r0
    105c:	00060000 	andeq	r0, r6, r0
    1060:	00750170 	rsbseq	r0, r5, r0, ror r1
    1064:	00009f1e 	andeq	r9, r0, lr, lsl pc
    1068:	00000000 	andeq	r0, r0, r0
    106c:	00ac0000 	adceq	r0, ip, r0
    1070:	00c40000 	sbceq	r0, r4, r0
    1074:	00020000 	andeq	r0, r2, r0
    1078:	00d09f30 	sbcseq	r9, r0, r0, lsr pc
    107c:	00dc0000 	sbcseq	r0, ip, r0
    1080:	00020000 	andeq	r0, r2, r0
    1084:	01109f30 	tsteq	r0, r0, lsr pc
    1088:	01140000 	tsteq	r4, r0
    108c:	00010000 	andeq	r0, r1, r0
    1090:	00011853 	andeq	r1, r1, r3, asr r8
    1094:	00011c00 	andeq	r1, r1, r0, lsl #24
    1098:	53000100 	movwpl	r0, #256	; 0x100
	...
    10a4:	000000ac 	andeq	r0, r0, ip, lsr #1
    10a8:	000000c4 	andeq	r0, r0, r4, asr #1
    10ac:	9f300002 	svcls	0x00300002
    10b0:	000000d0 	ldrdeq	r0, [r0], -r0	; <UNPREDICTABLE>
    10b4:	000000ec 	andeq	r0, r0, ip, ror #1
    10b8:	9f300002 	svcls	0x00300002
    10bc:	000000ec 	andeq	r0, r0, ip, ror #1
    10c0:	0000012c 	andeq	r0, r0, ip, lsr #2
    10c4:	00550001 	subseq	r0, r5, r1
    10c8:	00000000 	andeq	r0, r0, r0
    10cc:	ac000000 	stcge	0, cr0, [r0], {-0}
    10d0:	c4000000 	strgt	r0, [r0], #-0
    10d4:	02000000 	andeq	r0, r0, #0
    10d8:	d09f3000 	addsle	r3, pc, r0
    10dc:	f0000000 			; <UNDEFINED> instruction: 0xf0000000
    10e0:	02000000 	andeq	r0, r0, #0
    10e4:	f09f3000 			; <UNDEFINED> instruction: 0xf09f3000
    10e8:	f4000000 	vst4.8	{d0-d3}, [r0], r0
    10ec:	01000000 	mrseq	r0, (UNDEF: 0)
    10f0:	00005200 	andeq	r5, r0, r0, lsl #4
    10f4:	00000000 	andeq	r0, r0, r0
    10f8:	00fc0000 	rscseq	r0, ip, r0
    10fc:	01140000 	tsteq	r4, r0
    1100:	00020000 	andeq	r0, r2, r0
    1104:	00009f30 	andeq	r9, r0, r0, lsr pc
    1108:	00000000 	andeq	r0, r0, r0
    110c:	00fc0000 	rscseq	r0, ip, r0
    1110:	01140000 	tsteq	r4, r0
    1114:	00020000 	andeq	r0, r2, r0
    1118:	00009f31 	andeq	r9, r0, r1, lsr pc
    111c:	00000000 	andeq	r0, r0, r0
    1120:	00fc0000 	rscseq	r0, ip, r0
    1124:	01040000 	mrseq	r0, (UNDEF: 4)
    1128:	00020000 	andeq	r0, r2, r0
    112c:	01049f47 	tsteq	r4, r7, asr #30
    1130:	01140000 	tsteq	r4, r0
    1134:	00060000 	andeq	r0, r6, r0
    1138:	000f049e 	muleq	pc, lr, r4	; <UNPREDICTABLE>
    113c:	00008000 	andeq	r8, r0, r0
    1140:	00000000 	andeq	r0, r0, r0
    1144:	01180000 	tsteq	r8, r0
    1148:	011c0000 	tsteq	ip, r0
    114c:	00010000 	andeq	r0, r1, r0
    1150:	00000053 	andeq	r0, r0, r3, asr r0
    1154:	00000000 	andeq	r0, r0, r0
    1158:	00012c00 	andeq	r2, r1, r0, lsl #24
    115c:	00013400 	andeq	r3, r1, r0, lsl #8
    1160:	50000100 	andpl	r0, r0, r0, lsl #2
	...
    116c:	00000138 	andeq	r0, r0, r8, lsr r1
    1170:	00000140 	andeq	r0, r0, r0, asr #2
    1174:	00500001 	subseq	r0, r0, r1
    1178:	00000000 	andeq	r0, r0, r0
    117c:	38000000 	stmdacc	r0, {}	; <UNPREDICTABLE>
    1180:	44000001 	strmi	r0, [r0], #-1
    1184:	02000001 	andeq	r0, r0, #1
    1188:	449f3100 	ldrmi	r3, [pc], #256	; 1190 <__standby_start+0x1190>
    118c:	4c000001 	stcmi	0, cr0, [r0], {1}
    1190:	01000001 	tsteq	r0, r1
    1194:	014c5000 	mrseq	r5, (UNDEF: 76)
    1198:	01500000 	cmpeq	r0, r0
    119c:	00050000 	andeq	r0, r5, r0
    11a0:	21400070 	hvccs	0
    11a4:	0001509f 	muleq	r1, pc, r0	; <UNPREDICTABLE>
    11a8:	00015400 	andeq	r5, r1, r0, lsl #8
    11ac:	50000100 	andpl	r0, r0, r0, lsl #2
    11b0:	00000154 	andeq	r0, r0, r4, asr r1
    11b4:	00000164 	andeq	r0, r0, r4, ror #2
    11b8:	049e0006 	ldreq	r0, [lr], #6
    11bc:	8000000f 	andhi	r0, r0, pc
	...
    11c8:	00000164 	andeq	r0, r0, r4, ror #2
    11cc:	00000174 	andeq	r0, r0, r4, ror r1
    11d0:	9f300002 	svcls	0x00300002
	...
    11dc:	00000190 	muleq	r0, r0, r1
    11e0:	00000194 	muleq	r0, r4, r1
    11e4:	94500001 	ldrbls	r0, [r0], #-1
    11e8:	bc000001 	stclt	0, cr0, [r0], {1}
    11ec:	03000001 	movweq	r0, #1
    11f0:	9f027000 	svcls	0x00027000
	...
    11fc:	00000190 	muleq	r0, r0, r1
    1200:	000001a4 	andeq	r0, r0, r4, lsr #3
    1204:	9f300002 	svcls	0x00300002
    1208:	000001a4 	andeq	r0, r0, r4, lsr #3
    120c:	000001bc 			; <UNDEFINED> instruction: 0x000001bc
    1210:	00530001 	subseq	r0, r3, r1
    1214:	00000000 	andeq	r0, r0, r0
    1218:	90000000 	andls	r0, r0, r0
    121c:	ac000001 	stcge	0, cr0, [r0], {1}
    1220:	02000001 	andeq	r0, r0, #1
    1224:	ac9f3000 	ldcge	0, cr3, [pc], {0}
    1228:	bc000001 	stclt	0, cr0, [r0], {1}
    122c:	01000001 	tsteq	r0, r1
    1230:	00005000 	andeq	r5, r0, r0
	...
    123c:	00040000 	andeq	r0, r4, r0
    1240:	00020000 	andeq	r0, r2, r0
    1244:	0004007d 	andeq	r0, r4, sp, ror r0
    1248:	00c00000 	sbceq	r0, r0, r0
    124c:	00020000 	andeq	r0, r2, r0
    1250:	0000107d 	andeq	r1, r0, sp, ror r0
	...
    125c:	000b0000 	andeq	r0, fp, r0
    1260:	00010000 	andeq	r0, r1, r0
    1264:	00000b50 	andeq	r0, r0, r0, asr fp
    1268:	00004c00 	andeq	r4, r0, r0, lsl #24
    126c:	54000100 	strpl	r0, [r0], #-256	; 0x100
	...
    127c:	00000028 	andeq	r0, r0, r8, lsr #32
    1280:	9f300002 	svcls	0x00300002
    1284:	00000028 	andeq	r0, r0, r8, lsr #32
    1288:	00000043 	andeq	r0, r0, r3, asr #32
    128c:	00500001 	subseq	r0, r0, r1
    1290:	00000000 	andeq	r0, r0, r0
    1294:	60000000 	andvs	r0, r0, r0
    1298:	8f000000 	svchi	0x00000000
    129c:	01000000 	mrseq	r0, (UNDEF: 0)
    12a0:	008f5000 	addeq	r5, pc, r0
    12a4:	00c00000 	sbceq	r0, r0, r0
    12a8:	00010000 	andeq	r0, r1, r0
    12ac:	00000055 	andeq	r0, r0, r5, asr r0
    12b0:	00000000 	andeq	r0, r0, r0
    12b4:	00007400 	andeq	r7, r0, r0, lsl #8
    12b8:	00009800 	andeq	r9, r0, r0, lsl #16
    12bc:	0c000600 	stceq	6, cr0, [r0], {-0}
    12c0:	01c202d8 	ldrdeq	r0, [r2, #40]	; 0x28
    12c4:	0000989f 	muleq	r0, pc, r8	; <UNPREDICTABLE>
    12c8:	0000c000 	andeq	ip, r0, r0
    12cc:	0c000600 	stceq	6, cr0, [r0], {-0}
    12d0:	01c2006c 	biceq	r0, r2, ip, rrx
    12d4:	0000009f 	muleq	r0, pc, r0	; <UNPREDICTABLE>
    12d8:	00000000 	andeq	r0, r0, r0
    12dc:	00001000 	andeq	r1, r0, r0
    12e0:	00002400 	andeq	r2, r0, r0, lsl #8
    12e4:	50000100 	andpl	r0, r0, r0, lsl #2
    12e8:	00000024 	andeq	r0, r0, r4, lsr #32
    12ec:	00000030 	andeq	r0, r0, r0, lsr r0
    12f0:	00530001 	subseq	r0, r3, r1
    12f4:	00000000 	andeq	r0, r0, r0
    12f8:	c0000000 	andgt	r0, r0, r0
    12fc:	c4000000 	strgt	r0, [r0], #-0
    1300:	02000000 	andeq	r0, r0, #0
    1304:	c4007d00 	strgt	r7, [r0], #-3328	; 0xd00
    1308:	60000000 	andvs	r0, r0, r0
    130c:	02000001 	andeq	r0, r0, #1
    1310:	00107d00 	andseq	r7, r0, r0, lsl #26
    1314:	00000000 	andeq	r0, r0, r0
    1318:	08000000 	stmdaeq	r0, {}	; <UNPREDICTABLE>
    131c:	30000001 	andcc	r0, r0, r1
    1320:	05000001 	streq	r0, [r0, #-1]
    1324:	44007300 	strmi	r7, [r0], #-768	; 0x300
    1328:	00009f25 	andeq	r9, r0, r5, lsr #30
    132c:	00000000 	andeq	r0, r0, r0
    1330:	01100000 	tsteq	r0, r0
    1334:	01280000 	teqeq	r8, r0
    1338:	00010000 	andeq	r0, r1, r0
    133c:	00000050 	andeq	r0, r0, r0, asr r0
    1340:	00000000 	andeq	r0, r0, r0
    1344:	0000f400 	andeq	pc, r0, r0, lsl #8
    1348:	0000fc00 	andeq	pc, r0, r0, lsl #24
    134c:	50000100 	andpl	r0, r0, r0, lsl #2
    1350:	000000fc 	strdeq	r0, [r0], -ip
    1354:	00000110 	andeq	r0, r0, r0, lsl r1
    1358:	80700005 	rsbshi	r0, r0, r5
    135c:	009f47e0 	addseq	r4, pc, r0, ror #15
    1360:	00000000 	andeq	r0, r0, r0
    1364:	60000000 	andvs	r0, r0, r0
    1368:	68000001 	stmdavs	r0, {r0}
    136c:	02000001 	andeq	r0, r0, #1
    1370:	68007d00 	stmdavs	r0, {r8, sl, fp, ip, sp, lr}
    1374:	f0000001 			; <UNDEFINED> instruction: 0xf0000001
    1378:	02000001 	andeq	r0, r0, #1
    137c:	00047d00 	andeq	r7, r4, r0, lsl #26
    1380:	00000000 	andeq	r0, r0, r0
    1384:	60000000 	andvs	r0, r0, r0
    1388:	74000001 	strvc	r0, [r0], #-1
    138c:	01000001 	tsteq	r0, r1
    1390:	01785000 	cmneq	r8, r0
    1394:	018c0000 	orreq	r0, ip, r0
    1398:	00010000 	andeq	r0, r1, r0
    139c:	00018c50 	andeq	r8, r1, r0, asr ip
    13a0:	00019400 	andeq	r9, r1, r0, lsl #8
    13a4:	70000300 	andvc	r0, r0, r0, lsl #6
    13a8:	00009f01 	andeq	r9, r0, r1, lsl #30
    13ac:	00000000 	andeq	r0, r0, r0
    13b0:	01a00000 	moveq	r0, r0
    13b4:	01c40000 	biceq	r0, r4, r0
    13b8:	00010000 	andeq	r0, r1, r0
    13bc:	0000005c 	andeq	r0, r0, ip, asr r0
    13c0:	00000000 	andeq	r0, r0, r0
    13c4:	0001f000 	andeq	pc, r1, r0
    13c8:	0001f800 	andeq	pc, r1, r0, lsl #16
    13cc:	7d000200 	sfmvc	f0, 4, [r0, #-0]
    13d0:	0001f800 	andeq	pc, r1, r0, lsl #16
    13d4:	00027c00 	andeq	r7, r2, r0, lsl #24
    13d8:	7d000200 	sfmvc	f0, 4, [r0, #-0]
    13dc:	00000004 	andeq	r0, r0, r4
    13e0:	00000000 	andeq	r0, r0, r0
    13e4:	0001f000 	andeq	pc, r1, r0
    13e8:	00020400 	andeq	r0, r2, r0, lsl #8
    13ec:	50000100 	andpl	r0, r0, r0, lsl #2
	...
    13f8:	00000210 	andeq	r0, r0, r0, lsl r2
    13fc:	00000228 	andeq	r0, r0, r8, lsr #4
    1400:	9f300002 	svcls	0x00300002
    1404:	0000026c 	andeq	r0, r0, ip, ror #4
    1408:	0000027c 	andeq	r0, r0, ip, ror r2
    140c:	00540001 	subseq	r0, r4, r1
    1410:	00000000 	andeq	r0, r0, r0
    1414:	30000000 	andcc	r0, r0, r0
    1418:	34000002 	strcc	r0, [r0], #-2
    141c:	01000002 	tsteq	r0, r2
    1420:	02345300 	eorseq	r5, r4, #0
    1424:	02380000 	eorseq	r0, r8, #0
    1428:	00030000 	andeq	r0, r3, r0
    142c:	389f0173 	ldmcc	pc, {r0, r1, r4, r5, r6, r8}	; <UNPREDICTABLE>
    1430:	4c000002 	stcmi	0, cr0, [r0], {2}
    1434:	01000002 	tsteq	r0, r2
    1438:	00005300 	andeq	r5, r0, r0, lsl #6
    143c:	00000000 	andeq	r0, r0, r0
    1440:	027c0000 	rsbseq	r0, ip, #0
    1444:	02800000 	addeq	r0, r0, #0
    1448:	00020000 	andeq	r0, r2, r0
    144c:	0280007d 	addeq	r0, r0, #125	; 0x7d
    1450:	031c0000 	tsteq	ip, #0
    1454:	00020000 	andeq	r0, r2, r0
    1458:	0000107d 	andeq	r1, r0, sp, ror r0
    145c:	00000000 	andeq	r0, r0, r0
    1460:	02b00000 	adcseq	r0, r0, #0
    1464:	02b80000 	adcseq	r0, r8, #0
    1468:	00010000 	andeq	r0, r1, r0
    146c:	0002b850 	andeq	fp, r2, r0, asr r8
    1470:	0002cc00 	andeq	ip, r2, r0, lsl #24
    1474:	70000500 	andvc	r0, r0, r0, lsl #10
    1478:	9f47e080 	svcls	0x0047e080
	...
    1484:	000002c4 	andeq	r0, r0, r4, asr #5
    1488:	000002ec 	andeq	r0, r0, ip, ror #5
    148c:	00730005 	rsbseq	r0, r3, r5
    1490:	009f2544 	addseq	r2, pc, r4, asr #10
    1494:	00000000 	andeq	r0, r0, r0
    1498:	cc000000 	stcgt	0, cr0, [r0], {-0}
    149c:	e4000002 	str	r0, [r0], #-2
    14a0:	01000002 	tsteq	r0, r2
    14a4:	00005000 	andeq	r5, r0, r0
    14a8:	00000000 	andeq	r0, r0, r0
    14ac:	03500000 	cmpeq	r0, #0
    14b0:	03580000 	cmpeq	r8, #0
    14b4:	00020000 	andeq	r0, r2, r0
    14b8:	0358007d 	cmpeq	r8, #125	; 0x7d
    14bc:	03e00000 	mvneq	r0, #0
    14c0:	00020000 	andeq	r0, r2, r0
    14c4:	0000047d 	andeq	r0, r0, sp, ror r4
    14c8:	00000000 	andeq	r0, r0, r0
    14cc:	03500000 	cmpeq	r0, #0
    14d0:	03640000 	cmneq	r4, #0
    14d4:	00010000 	andeq	r0, r1, r0
    14d8:	00036850 	andeq	r6, r3, r0, asr r8
    14dc:	00037c00 	andeq	r7, r3, r0, lsl #24
    14e0:	50000100 	andpl	r0, r0, r0, lsl #2
    14e4:	0000037c 	andeq	r0, r0, ip, ror r3
    14e8:	00000384 	andeq	r0, r0, r4, lsl #7
    14ec:	01700003 	cmneq	r0, r3
    14f0:	0000009f 	muleq	r0, pc, r0	; <UNPREDICTABLE>
    14f4:	00000000 	andeq	r0, r0, r0
    14f8:	00039000 	andeq	r9, r3, r0
    14fc:	0003b400 	andeq	fp, r3, r0, lsl #8
    1500:	5c000100 	stfpls	f0, [r0], {-0}
	...
    150c:	000003e0 	andeq	r0, r0, r0, ror #7
    1510:	000003e8 	andeq	r0, r0, r8, ror #7
    1514:	007d0002 	rsbseq	r0, sp, r2
    1518:	000003e8 	andeq	r0, r0, r8, ror #7
    151c:	0000046c 	andeq	r0, r0, ip, ror #8
    1520:	047d0002 	ldrbteq	r0, [sp], #-2
	...
    152c:	000003e0 	andeq	r0, r0, r0, ror #7
    1530:	000003f4 	strdeq	r0, [r0], -r4
    1534:	00500001 	subseq	r0, r0, r1
	...
    1540:	18000004 	stmdane	r0, {r2}
    1544:	02000004 	andeq	r0, r0, #4
    1548:	5c9f3000 	ldcpl	0, cr3, [pc], {0}
    154c:	6c000004 	stcvs	0, cr0, [r0], {4}
    1550:	01000004 	tsteq	r0, r4
    1554:	00005400 	andeq	r5, r0, r0, lsl #8
    1558:	00000000 	andeq	r0, r0, r0
    155c:	04200000 	strteq	r0, [r0], #-0
    1560:	04240000 	strteq	r0, [r4], #-0
    1564:	00010000 	andeq	r0, r1, r0
    1568:	00042453 	andeq	r2, r4, r3, asr r4
    156c:	00042800 	andeq	r2, r4, r0, lsl #16
    1570:	73000300 	movwvc	r0, #768	; 0x300
    1574:	04289f01 	strteq	r9, [r8], #-3841	; 0xf01
    1578:	043c0000 	ldrteq	r0, [ip], #-0
    157c:	00010000 	andeq	r0, r1, r0
    1580:	00000053 	andeq	r0, r0, r3, asr r0
	...
    158c:	00000400 	andeq	r0, r0, r0, lsl #8
    1590:	7d000200 	sfmvc	f0, 4, [r0, #-0]
    1594:	00000400 	andeq	r0, r0, r0, lsl #8
    1598:	00001c00 	andeq	r1, r0, r0, lsl #24
    159c:	7d000200 	sfmvc	f0, 4, [r0, #-0]
    15a0:	00001c1c 	andeq	r1, r0, ip, lsl ip
    15a4:	0000bc00 	andeq	fp, r0, r0, lsl #24
    15a8:	7d000300 	stcvc	3, cr0, [r0, #-0]
    15ac:	000000c8 	andeq	r0, r0, r8, asr #1
	...
    15b8:	002c0000 	eoreq	r0, ip, r0
    15bc:	00010000 	andeq	r0, r1, r0
    15c0:	00002c50 	andeq	r2, r0, r0, asr ip
    15c4:	00004c00 	andeq	r4, r0, r0, lsl #24
    15c8:	54000100 	strpl	r0, [r0], #-256	; 0x100
    15cc:	0000004c 	andeq	r0, r0, ip, asr #32
    15d0:	00000050 	andeq	r0, r0, r0, asr r0
    15d4:	78500001 	ldmdavc	r0, {r0}^
    15d8:	ac000000 	stcge	0, cr0, [r0], {-0}
    15dc:	01000000 	mrseq	r0, (UNDEF: 0)
    15e0:	00005000 	andeq	r5, r0, r0
	...
    15ec:	002c0000 	eoreq	r0, ip, r0
    15f0:	00010000 	andeq	r0, r1, r0
    15f4:	00002c51 	andeq	r2, r0, r1, asr ip
    15f8:	0000bc00 	andeq	fp, r0, r0, lsl #24
    15fc:	57000100 	strpl	r0, [r0, -r0, lsl #2]
	...
    160c:	0000002c 	andeq	r0, r0, ip, lsr #32
    1610:	2c520001 	mrrccs	0, 0, r0, r2, cr1
    1614:	bc000000 	stclt	0, cr0, [r0], {-0}
    1618:	01000000 	mrseq	r0, (UNDEF: 0)
    161c:	00005500 	andeq	r5, r0, r0, lsl #10
    1620:	00000000 	andeq	r0, r0, r0
    1624:	004c0000 	subeq	r0, ip, r0
    1628:	00500000 	subseq	r0, r0, r0
    162c:	00010000 	andeq	r0, r1, r0
    1630:	00008053 	andeq	r8, r0, r3, asr r0
    1634:	00008400 	andeq	r8, r0, r0, lsl #8
    1638:	53000100 	movwpl	r0, #256	; 0x100
    163c:	00000084 	andeq	r0, r0, r4, lsl #1
    1640:	00000090 	muleq	r0, r0, r0
    1644:	00580001 	subseq	r0, r8, r1
    1648:	00000000 	andeq	r0, r0, r0
    164c:	84000000 	strhi	r0, [r0], #-0
    1650:	90000000 	andls	r0, r0, r0
    1654:	02000000 	andeq	r0, r0, #0
    1658:	009f3000 	addseq	r3, pc, r0
    165c:	00000000 	andeq	r0, r0, r0
    1660:	bc000000 	stclt	0, cr0, [r0], {-0}
    1664:	c0000000 	andgt	r0, r0, r0
    1668:	02000000 	andeq	r0, r0, #0
    166c:	c0007d00 	andgt	r7, r0, r0, lsl #26
    1670:	d8000000 	stmdale	r0, {}	; <UNPREDICTABLE>
    1674:	02000000 	andeq	r0, r0, #0
    1678:	d8107d00 	ldmdale	r0, {r8, sl, fp, ip, sp, lr}
    167c:	64000000 	strvs	r0, [r0], #-0
    1680:	02000001 	andeq	r0, r0, #1
    1684:	00287d00 	eoreq	r7, r8, r0, lsl #26
    1688:	00000000 	andeq	r0, r0, r0
    168c:	bc000000 	stclt	0, cr0, [r0], {-0}
    1690:	e0000000 	and	r0, r0, r0
    1694:	01000000 	mrseq	r0, (UNDEF: 0)
    1698:	00e05000 	rsceq	r5, r0, r0
    169c:	01140000 	tsteq	r4, r0
    16a0:	00010000 	andeq	r0, r1, r0
    16a4:	00000055 	andeq	r0, r0, r5, asr r0
    16a8:	00000000 	andeq	r0, r0, r0
    16ac:	0000bc00 	andeq	fp, r0, r0, lsl #24
    16b0:	0000e000 	andeq	lr, r0, r0
    16b4:	51000100 	mrspl	r0, (UNDEF: 16)
    16b8:	000000e0 	andeq	r0, r0, r0, ror #1
    16bc:	00000164 	andeq	r0, r0, r4, ror #2
    16c0:	00570001 	subseq	r0, r7, r1
    16c4:	00000000 	andeq	r0, r0, r0
    16c8:	bc000000 	stclt	0, cr0, [r0], {-0}
    16cc:	e0000000 	and	r0, r0, r0
    16d0:	01000000 	mrseq	r0, (UNDEF: 0)
    16d4:	00e05200 	rsceq	r5, r0, r0, lsl #4
    16d8:	01640000 	cmneq	r4, r0
    16dc:	00010000 	andeq	r0, r1, r0
    16e0:	00000056 	andeq	r0, r0, r6, asr r0
    16e4:	00000000 	andeq	r0, r0, r0
    16e8:	00010000 	andeq	r0, r1, r0
    16ec:	00013000 	andeq	r3, r1, r0
    16f0:	50000100 	andpl	r0, r0, r0, lsl #2
    16f4:	00000130 	andeq	r0, r0, r0, lsr r1
    16f8:	00000148 	andeq	r0, r0, r8, asr #2
    16fc:	48510001 	ldmdami	r1, {r0}^
    1700:	4c000001 	stcmi	0, cr0, [r0], {1}
    1704:	03000001 	movweq	r0, #1
    1708:	9f7f7100 	svcls	0x007f7100
    170c:	0000014c 	andeq	r0, r0, ip, asr #2
    1710:	00000154 	andeq	r0, r0, r4, asr r1
    1714:	00510001 	subseq	r0, r1, r1
	...
    1720:	2c000001 	stccs	0, cr0, [r0], {1}
    1724:	03000001 	movweq	r0, #1
    1728:	9f707c00 	svcls	0x00707c00
    172c:	0000012c 	andeq	r0, r0, ip, lsr #2
    1730:	00000130 	andeq	r0, r0, r0, lsr r1
    1734:	54910003 	ldrpl	r0, [r1], #3
    1738:	0000009f 	muleq	r0, pc, r0	; <UNPREDICTABLE>
    173c:	00000000 	andeq	r0, r0, r0
    1740:	00010000 	andeq	r0, r1, r0
    1744:	00011400 	andeq	r1, r1, r0, lsl #8
    1748:	55000100 	strpl	r0, [r0, #-256]	; 0x100
    174c:	00000114 	andeq	r0, r0, r4, lsl r1
    1750:	00000118 	andeq	r0, r0, r8, lsl r1
    1754:	18530001 	ldmdane	r3, {r0}^
    1758:	20000001 	andcs	r0, r0, r1
    175c:	01000001 	tsteq	r0, r1
    1760:	01205500 	teqeq	r0, r0, lsl #10
    1764:	01280000 	teqeq	r8, r0
    1768:	00010000 	andeq	r0, r1, r0
    176c:	00012853 	andeq	r2, r1, r3, asr r8
    1770:	00013000 	andeq	r3, r1, r0
    1774:	55000100 	strpl	r0, [r0, #-256]	; 0x100
    1778:	00000130 	andeq	r0, r0, r0, lsr r1
    177c:	00000134 	andeq	r0, r0, r4, lsr r1
    1780:	34530001 	ldrbcc	r0, [r3], #-1
    1784:	44000001 	strmi	r0, [r0], #-1
    1788:	01000001 	tsteq	r0, r1
    178c:	01445500 	cmpeq	r4, r0, lsl #10
    1790:	01540000 	cmpeq	r4, r0
    1794:	00010000 	andeq	r0, r1, r0
    1798:	00000053 	andeq	r0, r0, r3, asr r0
    179c:	00000000 	andeq	r0, r0, r0
    17a0:	00010000 	andeq	r0, r1, r0
    17a4:	00011400 	andeq	r1, r1, r0, lsl #8
    17a8:	55000100 	strpl	r0, [r0, #-256]	; 0x100
	...
    17b4:	00000164 	andeq	r0, r0, r4, ror #2
    17b8:	00000168 	andeq	r0, r0, r8, ror #2
    17bc:	007d0002 	rsbseq	r0, sp, r2
    17c0:	00000168 	andeq	r0, r0, r8, ror #2
    17c4:	0000017c 	andeq	r0, r0, ip, ror r1
    17c8:	147d0002 	ldrbtne	r0, [sp], #-2
    17cc:	0000017c 	andeq	r0, r0, ip, ror r1
    17d0:	0000024c 	andeq	r0, r0, ip, asr #4
    17d4:	c07d0003 	rsbsgt	r0, sp, r3
	...
    17e0:	00016400 	andeq	r6, r1, r0, lsl #8
    17e4:	00018400 	andeq	r8, r1, r0, lsl #8
    17e8:	50000100 	andpl	r0, r0, r0, lsl #2
    17ec:	00000184 	andeq	r0, r0, r4, lsl #3
    17f0:	000001d8 	ldrdeq	r0, [r0], -r8
    17f4:	d85c0001 	ldmdale	ip, {r0}^
    17f8:	e8000001 	stmda	r0, {r0}
    17fc:	01000001 	tsteq	r0, r1
    1800:	01e85200 	mvneq	r5, r0, lsl #4
    1804:	01fc0000 	mvnseq	r0, r0
    1808:	00010000 	andeq	r0, r1, r0
    180c:	0000005c 	andeq	r0, r0, ip, asr r0
    1810:	00000000 	andeq	r0, r0, r0
    1814:	00016400 	andeq	r6, r1, r0, lsl #8
    1818:	00018400 	andeq	r8, r1, r0, lsl #8
    181c:	51000100 	mrspl	r0, (UNDEF: 16)
    1820:	00000184 	andeq	r0, r0, r4, lsl #3
    1824:	0000024c 	andeq	r0, r0, ip, asr #4
    1828:	00560001 	subseq	r0, r6, r1
    182c:	00000000 	andeq	r0, r0, r0
    1830:	64000000 	strvs	r0, [r0], #-0
    1834:	a0000001 	andge	r0, r0, r1
    1838:	02000001 	andeq	r0, r0, #1
    183c:	a09f3000 	addsge	r3, pc, r0
    1840:	b0000001 	andlt	r0, r0, r1
    1844:	02000001 	andeq	r0, r0, #1
    1848:	b09f3100 	addslt	r3, pc, r0, lsl #2
    184c:	04000001 	streq	r0, [r0], #-1
    1850:	01000002 	tsteq	r0, r2
    1854:	00005700 	andeq	r5, r0, r0, lsl #14
    1858:	00000000 	andeq	r0, r0, r0
    185c:	01b00000 	movseq	r0, r0
    1860:	01c00000 	biceq	r0, r0, r0
    1864:	00020000 	andeq	r0, r2, r0
    1868:	01c09f30 	biceq	r9, r0, r0, lsr pc
    186c:	01c40000 	biceq	r0, r4, r0
    1870:	00010000 	andeq	r0, r1, r0
    1874:	0001d854 	andeq	sp, r1, r4, asr r8
    1878:	00020800 	andeq	r0, r2, r0, lsl #16
    187c:	54000100 	strpl	r0, [r0], #-256	; 0x100
    1880:	00000208 	andeq	r0, r0, r8, lsl #4
    1884:	00000230 	andeq	r0, r0, r0, lsr r2
    1888:	00530001 	subseq	r0, r3, r1
    188c:	00000000 	andeq	r0, r0, r0
    1890:	fc000000 	stc2	0, cr0, [r0], {-0}
    1894:	08000001 	stmdaeq	r0, {r0}
    1898:	02000002 	andeq	r0, r0, #2
    189c:	089f3000 	ldmeq	pc, {ip, sp}	; <UNPREDICTABLE>
    18a0:	14000002 	strne	r0, [r0], #-2
    18a4:	01000002 	tsteq	r0, r2
    18a8:	00005700 	andeq	r5, r0, r0, lsl #14
    18ac:	00000000 	andeq	r0, r0, r0
    18b0:	024c0000 	subeq	r0, ip, #0
    18b4:	02500000 	subseq	r0, r0, #0
    18b8:	00020000 	andeq	r0, r2, r0
    18bc:	0250007d 	subseq	r0, r0, #125	; 0x7d
    18c0:	02540000 	subseq	r0, r4, #0
    18c4:	00020000 	andeq	r0, r2, r0
    18c8:	0254107d 	subseq	r1, r4, #125	; 0x7d
    18cc:	02580000 	subseq	r0, r8, #0
    18d0:	00020000 	andeq	r0, r2, r0
    18d4:	0258307d 	subseq	r3, r8, #125	; 0x7d
    18d8:	051c0000 	ldreq	r0, [ip, #-0]
    18dc:	00030000 	andeq	r0, r3, r0
    18e0:	0000c87d 	andeq	ip, r0, sp, ror r8
    18e4:	00000000 	andeq	r0, r0, r0
    18e8:	4c000000 	stcmi	0, cr0, [r0], {-0}
    18ec:	64000002 	strvs	r0, [r0], #-2
    18f0:	02000002 	andeq	r0, r0, #2
    18f4:	64709100 	ldrbtvs	r9, [r0], #-256	; 0x100
    18f8:	88000002 	stmdahi	r0, {r1}
    18fc:	02000002 	andeq	r0, r0, #2
    1900:	88489100 	stmdahi	r8, {r8, ip, pc}^
    1904:	a4000002 	strge	r0, [r0], #-2
    1908:	01000002 	tsteq	r0, r2
    190c:	02a45400 	adceq	r5, r4, #0
    1910:	02bc0000 	adcseq	r0, ip, #0
    1914:	00030000 	andeq	r0, r3, r0
    1918:	c49f0174 	ldrgt	r0, [pc], #372	; 1920 <__standby_start+0x1920>
    191c:	1c000002 	stcne	0, cr0, [r0], {2}
    1920:	01000005 	tsteq	r0, r5
    1924:	00005400 	andeq	r5, r0, r0, lsl #8
    1928:	00000000 	andeq	r0, r0, r0
    192c:	024c0000 	subeq	r0, ip, #0
    1930:	02880000 	addeq	r0, r8, #0
    1934:	00060000 	andeq	r0, r6, r0
    1938:	0034c403 	eorseq	ip, r4, r3, lsl #8
    193c:	02889ff0 	addeq	r9, r8, #960	; 0x3c0
    1940:	02980000 	addseq	r0, r8, #0
    1944:	00010000 	andeq	r0, r1, r0
    1948:	00033855 	andeq	r3, r3, r5, asr r8
    194c:	00035000 	andeq	r5, r3, r0
    1950:	55000100 	strpl	r0, [r0, #-256]	; 0x100
    1954:	000003bc 			; <UNDEFINED> instruction: 0x000003bc
    1958:	000003c0 	andeq	r0, r0, r0, asr #7
    195c:	0c550001 	mrrceq	0, 0, r0, r5, cr1
    1960:	10000004 	andne	r0, r0, r4
    1964:	01000004 	tsteq	r0, r4
    1968:	047c5500 	ldrbteq	r5, [ip], #-1280	; 0x500
    196c:	04800000 	streq	r0, [r0], #0
    1970:	00010000 	andeq	r0, r1, r0
    1974:	00049c55 	andeq	r9, r4, r5, asr ip
    1978:	0004a800 	andeq	sl, r4, r0, lsl #16
    197c:	75000300 	strvc	r0, [r0, #-768]	; 0x300
    1980:	04a89f01 	strteq	r9, [r8], #3841	; 0xf01
    1984:	04ac0000 	strteq	r0, [ip], #0
    1988:	00010000 	andeq	r0, r1, r0
    198c:	00051455 	andeq	r1, r5, r5, asr r4
    1990:	00051c00 	andeq	r1, r5, r0, lsl #24
    1994:	55000100 	strpl	r0, [r0, #-256]	; 0x100
	...
    19a0:	000003d4 	ldrdeq	r0, [r0], -r4
    19a4:	00000410 	andeq	r0, r0, r0, lsl r4
    19a8:	a4910004 	ldrge	r0, [r1], #4
    19ac:	0000067f 	andeq	r0, r0, pc, ror r6
    19b0:	00000000 	andeq	r0, r0, r0
    19b4:	02c00000 	sbceq	r0, r0, #0
    19b8:	032c0000 	teqeq	ip, #0
    19bc:	00010000 	andeq	r0, r1, r0
    19c0:	00035057 	andeq	r5, r3, r7, asr r0
    19c4:	00051c00 	andeq	r1, r5, r0, lsl #24
    19c8:	57000100 	strpl	r0, [r0, -r0, lsl #2]
	...
    19d4:	0000024c 	andeq	r0, r0, ip, asr #4
    19d8:	00000288 	andeq	r0, r0, r8, lsl #5
    19dc:	9f300002 	svcls	0x00300002
    19e0:	0000038c 	andeq	r0, r0, ip, lsl #7
    19e4:	000003a4 	andeq	r0, r0, r4, lsr #7
    19e8:	a45a0001 	ldrbge	r0, [sl], #-1
    19ec:	c0000003 	andgt	r0, r0, r3
    19f0:	01000003 	tsteq	r0, r3
    19f4:	044c5000 	strbeq	r5, [ip], #-0
    19f8:	04640000 	strbteq	r0, [r4], #-0
    19fc:	00010000 	andeq	r0, r1, r0
    1a00:	0004645a 	andeq	r6, r4, sl, asr r4
    1a04:	00048000 	andeq	r8, r4, r0
    1a08:	50000100 	andpl	r0, r0, r0, lsl #2
    1a0c:	000004e4 	andeq	r0, r0, r4, ror #9
    1a10:	000004fc 	strdeq	r0, [r0], -ip
    1a14:	fc5a0001 	mrrc2	0, 0, r0, sl, cr1
    1a18:	1c000004 	stcne	0, cr0, [r0], {4}
    1a1c:	01000005 	tsteq	r0, r5
    1a20:	00005000 	andeq	r5, r0, r0
    1a24:	00000000 	andeq	r0, r0, r0
    1a28:	036c0000 	cmneq	ip, #0
    1a2c:	03c00000 	biceq	r0, r0, #0
    1a30:	00010000 	andeq	r0, r1, r0
    1a34:	00000056 	andeq	r0, r0, r6, asr r0
    1a38:	00000000 	andeq	r0, r0, r0
    1a3c:	00036c00 	andeq	r6, r3, r0, lsl #24
    1a40:	00037c00 	andeq	r7, r3, r0, lsl #24
    1a44:	56000100 	strpl	r0, [r0], -r0, lsl #2
    1a48:	0000037c 	andeq	r0, r0, ip, ror r3
    1a4c:	00000380 	andeq	r0, r0, r0, lsl #7
    1a50:	805a0001 	subshi	r0, sl, r1
    1a54:	8c000003 	stchi	0, cr0, [r0], {3}
    1a58:	03000003 	movweq	r0, #3
    1a5c:	9f7f7a00 	svcls	0x007f7a00
	...
    1a68:	000003a4 	andeq	r0, r0, r4, lsr #7
    1a6c:	000003a8 	andeq	r0, r0, r8, lsr #7
    1a70:	00560001 	subseq	r0, r6, r1
    1a74:	00000000 	andeq	r0, r0, r0
    1a78:	a4000000 	strge	r0, [r0], #-0
    1a7c:	a8000003 	stmdage	r0, {r0, r1}
    1a80:	01000003 	tsteq	r0, r3
    1a84:	03a85500 			; <UNDEFINED> instruction: 0x03a85500
    1a88:	03c00000 	biceq	r0, r0, #0
    1a8c:	00010000 	andeq	r0, r1, r0
    1a90:	00000051 	andeq	r0, r0, r1, asr r0
    1a94:	00000000 	andeq	r0, r0, r0
    1a98:	0003a400 	andeq	sl, r3, r0, lsl #8
    1a9c:	0003bc00 	andeq	fp, r3, r0, lsl #24
    1aa0:	55000100 	strpl	r0, [r0, #-256]	; 0x100
	...
    1aac:	000003d4 	ldrdeq	r0, [r0], -r4
    1ab0:	000003d8 	ldrdeq	r0, [r0], -r8
    1ab4:	a4910004 	ldrge	r0, [r1], #4
    1ab8:	0000067f 	andeq	r0, r0, pc, ror r6
    1abc:	00000000 	andeq	r0, r0, r0
    1ac0:	03d40000 	bicseq	r0, r4, #0
    1ac4:	03d80000 	bicseq	r0, r8, #0
    1ac8:	00010000 	andeq	r0, r1, r0
    1acc:	0003d855 	andeq	sp, r3, r5, asr r8
    1ad0:	00041000 	andeq	r1, r4, r0
    1ad4:	51000100 	mrspl	r0, (UNDEF: 16)
	...
    1ae0:	000003d4 	ldrdeq	r0, [r0], -r4
    1ae4:	0000040c 	andeq	r0, r0, ip, lsl #8
    1ae8:	00550001 	subseq	r0, r5, r1
    1aec:	00000000 	andeq	r0, r0, r0
    1af0:	e8000000 	stmda	r0, {}	; <UNPREDICTABLE>
    1af4:	f8000003 			; <UNDEFINED> instruction: 0xf8000003
    1af8:	04000003 	streq	r0, [r0], #-3
    1afc:	7fa49100 	svcvc	0x00a49100
    1b00:	0003f806 	andeq	pc, r3, r6, lsl #16
    1b04:	0003fc00 	andeq	pc, r3, r0, lsl #24
    1b08:	53000100 	movwpl	r0, #256	; 0x100
    1b0c:	000003fc 	strdeq	r0, [r0], -ip
    1b10:	00000408 	andeq	r0, r0, r8, lsl #8
    1b14:	7f730003 	svcvc	0x00730003
    1b18:	0000009f 	muleq	r0, pc, r0	; <UNPREDICTABLE>
    1b1c:	00000000 	andeq	r0, r0, r0
    1b20:	00042c00 	andeq	r2, r4, r0, lsl #24
    1b24:	00048000 	andeq	r8, r4, r0
    1b28:	56000100 	strpl	r0, [r0], -r0, lsl #2
	...
    1b34:	0000042c 	andeq	r0, r0, ip, lsr #8
    1b38:	0000043c 	andeq	r0, r0, ip, lsr r4
    1b3c:	3c560001 	mrrccc	0, 0, r0, r6, cr1
    1b40:	40000004 	andmi	r0, r0, r4
    1b44:	01000004 	tsteq	r0, r4
    1b48:	04405a00 	strbeq	r5, [r0], #-2560	; 0xa00
    1b4c:	044c0000 	strbeq	r0, [ip], #-0
    1b50:	00030000 	andeq	r0, r3, r0
    1b54:	009f7f7a 	addseq	r7, pc, sl, ror pc	; <UNPREDICTABLE>
    1b58:	00000000 	andeq	r0, r0, r0
    1b5c:	64000000 	strvs	r0, [r0], #-0
    1b60:	68000004 	stmdavs	r0, {r2}
    1b64:	01000004 	tsteq	r0, r4
    1b68:	00005600 	andeq	r5, r0, r0, lsl #12
    1b6c:	00000000 	andeq	r0, r0, r0
    1b70:	04640000 	strbteq	r0, [r4], #-0
    1b74:	04680000 	strbteq	r0, [r8], #-0
    1b78:	00010000 	andeq	r0, r1, r0
    1b7c:	00046855 	andeq	r6, r4, r5, asr r8
    1b80:	00048000 	andeq	r8, r4, r0
    1b84:	51000100 	mrspl	r0, (UNDEF: 16)
	...
    1b90:	00000464 	andeq	r0, r0, r4, ror #8
    1b94:	0000047c 	andeq	r0, r0, ip, ror r4
    1b98:	00550001 	subseq	r0, r5, r1
    1b9c:	00000000 	andeq	r0, r0, r0
    1ba0:	c4000000 	strgt	r0, [r0], #-0
    1ba4:	d4000004 	strle	r0, [r0], #-4
    1ba8:	01000004 	tsteq	r0, r4
    1bac:	04d45600 	ldrbeq	r5, [r4], #1536	; 0x600
    1bb0:	04d80000 	ldrbeq	r0, [r8], #0
    1bb4:	00010000 	andeq	r0, r1, r0
    1bb8:	0004d85a 	andeq	sp, r4, sl, asr r8
    1bbc:	0004e400 	andeq	lr, r4, r0, lsl #8
    1bc0:	7a000300 	bvc	27c8 <__standby_start+0x27c8>
    1bc4:	00009f7f 	andeq	r9, r0, pc, ror pc
    1bc8:	00000000 	andeq	r0, r0, r0
    1bcc:	04fc0000 	ldrbteq	r0, [ip], #0
    1bd0:	05000000 	streq	r0, [r0, #-0]
    1bd4:	00010000 	andeq	r0, r1, r0
    1bd8:	00000056 	andeq	r0, r0, r6, asr r0
    1bdc:	00000000 	andeq	r0, r0, r0
    1be0:	0004fc00 	andeq	pc, r4, r0, lsl #24
    1be4:	00050000 	andeq	r0, r5, r0
    1be8:	55000100 	strpl	r0, [r0, #-256]	; 0x100
    1bec:	00000500 	andeq	r0, r0, r0, lsl #10
    1bf0:	0000051c 	andeq	r0, r0, ip, lsl r5
    1bf4:	00510001 	subseq	r0, r1, r1
    1bf8:	00000000 	andeq	r0, r0, r0
    1bfc:	fc000000 	stc2	0, cr0, [r0], {-0}
    1c00:	14000004 	strne	r0, [r0], #-4
    1c04:	01000005 	tsteq	r0, r5
    1c08:	00005500 	andeq	r5, r0, r0, lsl #10
    1c0c:	00000000 	andeq	r0, r0, r0
    1c10:	051c0000 	ldreq	r0, [ip, #-0]
    1c14:	05200000 	streq	r0, [r0, #-0]!
    1c18:	00020000 	andeq	r0, r2, r0
    1c1c:	0520007d 	streq	r0, [r0, #-125]!	; 0x7d
    1c20:	05240000 	streq	r0, [r4, #-0]!
    1c24:	00020000 	andeq	r0, r2, r0
    1c28:	0524107d 	streq	r1, [r4, #-125]!	; 0x7d
    1c2c:	05280000 	streq	r0, [r8, #-0]!
    1c30:	00020000 	andeq	r0, r2, r0
    1c34:	0528307d 	streq	r3, [r8, #-125]!	; 0x7d
    1c38:	07ec0000 	strbeq	r0, [ip, r0]!
    1c3c:	00030000 	andeq	r0, r3, r0
    1c40:	0000c87d 	andeq	ip, r0, sp, ror r8
    1c44:	00000000 	andeq	r0, r0, r0
    1c48:	1c000000 	stcne	0, cr0, [r0], {-0}
    1c4c:	34000005 	strcc	r0, [r0], #-5
    1c50:	02000005 	andeq	r0, r0, #5
    1c54:	34709100 	ldrbtcc	r9, [r0], #-256	; 0x100
    1c58:	58000005 	stmdapl	r0, {r0, r2}
    1c5c:	02000005 	andeq	r0, r0, #5
    1c60:	58489100 	stmdapl	r8, {r8, ip, pc}^
    1c64:	74000005 	strvc	r0, [r0], #-5
    1c68:	01000005 	tsteq	r0, r5
    1c6c:	05745400 	ldrbeq	r5, [r4, #-1024]!	; 0x400
    1c70:	058c0000 	streq	r0, [ip]
    1c74:	00030000 	andeq	r0, r3, r0
    1c78:	949f0174 	ldrls	r0, [pc], #372	; 1c80 <__standby_start+0x1c80>
    1c7c:	ec000005 	stc	0, cr0, [r0], {5}
    1c80:	01000007 	tsteq	r0, r7
    1c84:	00005400 	andeq	r5, r0, r0, lsl #8
    1c88:	00000000 	andeq	r0, r0, r0
    1c8c:	051c0000 	ldreq	r0, [ip, #-0]
    1c90:	05580000 	ldrbeq	r0, [r8, #-0]
    1c94:	00060000 	andeq	r0, r6, r0
    1c98:	0034c403 	eorseq	ip, r4, r3, lsl #8
    1c9c:	05589ff0 	ldrbeq	r9, [r8, #-4080]	; 0xff0
    1ca0:	05680000 	strbeq	r0, [r8, #-0]!
    1ca4:	00010000 	andeq	r0, r1, r0
    1ca8:	00060855 	andeq	r0, r6, r5, asr r8
    1cac:	00062000 	andeq	r2, r6, r0
    1cb0:	55000100 	strpl	r0, [r0, #-256]	; 0x100
    1cb4:	0000068c 	andeq	r0, r0, ip, lsl #13
    1cb8:	00000690 	muleq	r0, r0, r6
    1cbc:	dc550001 	mrrcle	0, 0, r0, r5, cr1
    1cc0:	e0000006 	and	r0, r0, r6
    1cc4:	01000006 	tsteq	r0, r6
    1cc8:	074c5500 	strbeq	r5, [ip, -r0, lsl #10]
    1ccc:	07500000 	ldrbeq	r0, [r0, -r0]
    1cd0:	00010000 	andeq	r0, r1, r0
    1cd4:	00076c55 	andeq	r6, r7, r5, asr ip
    1cd8:	00077800 	andeq	r7, r7, r0, lsl #16
    1cdc:	75000300 	strvc	r0, [r0, #-768]	; 0x300
    1ce0:	07789f01 	ldrbeq	r9, [r8, -r1, lsl #30]!
    1ce4:	077c0000 	ldrbeq	r0, [ip, -r0]!
    1ce8:	00010000 	andeq	r0, r1, r0
    1cec:	0007e455 	andeq	lr, r7, r5, asr r4
    1cf0:	0007ec00 	andeq	lr, r7, r0, lsl #24
    1cf4:	55000100 	strpl	r0, [r0, #-256]	; 0x100
	...
    1d00:	000006a4 	andeq	r0, r0, r4, lsr #13
    1d04:	000006e0 	andeq	r0, r0, r0, ror #13
    1d08:	a4910004 	ldrge	r0, [r1], #4
    1d0c:	0000067f 	andeq	r0, r0, pc, ror r6
    1d10:	00000000 	andeq	r0, r0, r0
    1d14:	05900000 	ldreq	r0, [r0]
    1d18:	05fc0000 	ldrbeq	r0, [ip, #0]!
    1d1c:	00010000 	andeq	r0, r1, r0
    1d20:	00062057 	andeq	r2, r6, r7, asr r0
    1d24:	0007ec00 	andeq	lr, r7, r0, lsl #24
    1d28:	57000100 	strpl	r0, [r0, -r0, lsl #2]
	...
    1d34:	0000051c 	andeq	r0, r0, ip, lsl r5
    1d38:	00000558 	andeq	r0, r0, r8, asr r5
    1d3c:	9f300002 	svcls	0x00300002
    1d40:	0000065c 	andeq	r0, r0, ip, asr r6
    1d44:	00000674 	andeq	r0, r0, r4, ror r6
    1d48:	745a0001 	ldrbvc	r0, [sl], #-1
    1d4c:	90000006 	andls	r0, r0, r6
    1d50:	01000006 	tsteq	r0, r6
    1d54:	071c5000 	ldreq	r5, [ip, -r0]
    1d58:	07340000 	ldreq	r0, [r4, -r0]!
    1d5c:	00010000 	andeq	r0, r1, r0
    1d60:	0007345a 	andeq	r3, r7, sl, asr r4
    1d64:	00075000 	andeq	r5, r7, r0
    1d68:	50000100 	andpl	r0, r0, r0, lsl #2
    1d6c:	000007b4 			; <UNDEFINED> instruction: 0x000007b4
    1d70:	000007cc 	andeq	r0, r0, ip, asr #15
    1d74:	cc5a0001 	mrrcgt	0, 0, r0, sl, cr1
    1d78:	ec000007 	stc	0, cr0, [r0], {7}
    1d7c:	01000007 	tsteq	r0, r7
    1d80:	00005000 	andeq	r5, r0, r0
    1d84:	00000000 	andeq	r0, r0, r0
    1d88:	063c0000 	ldrteq	r0, [ip], -r0
    1d8c:	06900000 	ldreq	r0, [r0], r0
    1d90:	00010000 	andeq	r0, r1, r0
    1d94:	00000056 	andeq	r0, r0, r6, asr r0
    1d98:	00000000 	andeq	r0, r0, r0
    1d9c:	00063c00 	andeq	r3, r6, r0, lsl #24
    1da0:	00064c00 	andeq	r4, r6, r0, lsl #24
    1da4:	56000100 	strpl	r0, [r0], -r0, lsl #2
    1da8:	0000064c 	andeq	r0, r0, ip, asr #12
    1dac:	00000650 	andeq	r0, r0, r0, asr r6
    1db0:	505a0001 	subspl	r0, sl, r1
    1db4:	5c000006 	stcpl	0, cr0, [r0], {6}
    1db8:	03000006 	movweq	r0, #6
    1dbc:	9f7f7a00 	svcls	0x007f7a00
	...
    1dc8:	00000674 	andeq	r0, r0, r4, ror r6
    1dcc:	00000678 	andeq	r0, r0, r8, ror r6
    1dd0:	00560001 	subseq	r0, r6, r1
    1dd4:	00000000 	andeq	r0, r0, r0
    1dd8:	74000000 	strvc	r0, [r0], #-0
    1ddc:	78000006 	stmdavc	r0, {r1, r2}
    1de0:	01000006 	tsteq	r0, r6
    1de4:	06785500 	ldrbteq	r5, [r8], -r0, lsl #10
    1de8:	06900000 	ldreq	r0, [r0], r0
    1dec:	00010000 	andeq	r0, r1, r0
    1df0:	00000051 	andeq	r0, r0, r1, asr r0
    1df4:	00000000 	andeq	r0, r0, r0
    1df8:	00067400 	andeq	r7, r6, r0, lsl #8
    1dfc:	00068c00 	andeq	r8, r6, r0, lsl #24
    1e00:	55000100 	strpl	r0, [r0, #-256]	; 0x100
	...
    1e0c:	000006a4 	andeq	r0, r0, r4, lsr #13
    1e10:	000006a8 	andeq	r0, r0, r8, lsr #13
    1e14:	a4910004 	ldrge	r0, [r1], #4
    1e18:	0000067f 	andeq	r0, r0, pc, ror r6
    1e1c:	00000000 	andeq	r0, r0, r0
    1e20:	06a40000 	strteq	r0, [r4], r0
    1e24:	06a80000 	strteq	r0, [r8], r0
    1e28:	00010000 	andeq	r0, r1, r0
    1e2c:	0006a855 	andeq	sl, r6, r5, asr r8
    1e30:	0006e000 	andeq	lr, r6, r0
    1e34:	51000100 	mrspl	r0, (UNDEF: 16)
	...
    1e40:	000006a4 	andeq	r0, r0, r4, lsr #13
    1e44:	000006dc 	ldrdeq	r0, [r0], -ip
    1e48:	00550001 	subseq	r0, r5, r1
    1e4c:	00000000 	andeq	r0, r0, r0
    1e50:	b8000000 	stmdalt	r0, {}	; <UNPREDICTABLE>
    1e54:	c8000006 	stmdagt	r0, {r1, r2}
    1e58:	04000006 	streq	r0, [r0], #-6
    1e5c:	7fa49100 	svcvc	0x00a49100
    1e60:	0006c806 	andeq	ip, r6, r6, lsl #16
    1e64:	0006cc00 	andeq	ip, r6, r0, lsl #24
    1e68:	53000100 	movwpl	r0, #256	; 0x100
    1e6c:	000006cc 	andeq	r0, r0, ip, asr #13
    1e70:	000006d8 	ldrdeq	r0, [r0], -r8
    1e74:	7f730003 	svcvc	0x00730003
    1e78:	0000009f 	muleq	r0, pc, r0	; <UNPREDICTABLE>
    1e7c:	00000000 	andeq	r0, r0, r0
    1e80:	0006fc00 	andeq	pc, r6, r0, lsl #24
    1e84:	00075000 	andeq	r5, r7, r0
    1e88:	56000100 	strpl	r0, [r0], -r0, lsl #2
	...
    1e94:	000006fc 	strdeq	r0, [r0], -ip
    1e98:	0000070c 	andeq	r0, r0, ip, lsl #14
    1e9c:	0c560001 	mrrceq	0, 0, r0, r6, cr1
    1ea0:	10000007 	andne	r0, r0, r7
    1ea4:	01000007 	tsteq	r0, r7
    1ea8:	07105a00 	ldreq	r5, [r0, -r0, lsl #20]
    1eac:	071c0000 	ldreq	r0, [ip, -r0]
    1eb0:	00030000 	andeq	r0, r3, r0
    1eb4:	009f7f7a 	addseq	r7, pc, sl, ror pc	; <UNPREDICTABLE>
    1eb8:	00000000 	andeq	r0, r0, r0
    1ebc:	34000000 	strcc	r0, [r0], #-0
    1ec0:	38000007 	stmdacc	r0, {r0, r1, r2}
    1ec4:	01000007 	tsteq	r0, r7
    1ec8:	00005600 	andeq	r5, r0, r0, lsl #12
    1ecc:	00000000 	andeq	r0, r0, r0
    1ed0:	07340000 	ldreq	r0, [r4, -r0]!
    1ed4:	07380000 	ldreq	r0, [r8, -r0]!
    1ed8:	00010000 	andeq	r0, r1, r0
    1edc:	00073855 	andeq	r3, r7, r5, asr r8
    1ee0:	00075000 	andeq	r5, r7, r0
    1ee4:	51000100 	mrspl	r0, (UNDEF: 16)
	...
    1ef0:	00000734 	andeq	r0, r0, r4, lsr r7
    1ef4:	0000074c 	andeq	r0, r0, ip, asr #14
    1ef8:	00550001 	subseq	r0, r5, r1
    1efc:	00000000 	andeq	r0, r0, r0
    1f00:	94000000 	strls	r0, [r0], #-0
    1f04:	a4000007 	strge	r0, [r0], #-7
    1f08:	01000007 	tsteq	r0, r7
    1f0c:	07a45600 	streq	r5, [r4, r0, lsl #12]!
    1f10:	07a80000 	streq	r0, [r8, r0]!
    1f14:	00010000 	andeq	r0, r1, r0
    1f18:	0007a85a 	andeq	sl, r7, sl, asr r8
    1f1c:	0007b400 	andeq	fp, r7, r0, lsl #8
    1f20:	7a000300 	bvc	2b28 <__standby_start+0x2b28>
    1f24:	00009f7f 	andeq	r9, r0, pc, ror pc
    1f28:	00000000 	andeq	r0, r0, r0
    1f2c:	07cc0000 	strbeq	r0, [ip, r0]
    1f30:	07d00000 	ldrbeq	r0, [r0, r0]
    1f34:	00010000 	andeq	r0, r1, r0
    1f38:	00000056 	andeq	r0, r0, r6, asr r0
    1f3c:	00000000 	andeq	r0, r0, r0
    1f40:	0007cc00 	andeq	ip, r7, r0, lsl #24
    1f44:	0007d000 	andeq	sp, r7, r0
    1f48:	55000100 	strpl	r0, [r0, #-256]	; 0x100
    1f4c:	000007d0 	ldrdeq	r0, [r0], -r0	; <UNPREDICTABLE>
    1f50:	000007ec 	andeq	r0, r0, ip, ror #15
    1f54:	00510001 	subseq	r0, r1, r1
    1f58:	00000000 	andeq	r0, r0, r0
    1f5c:	cc000000 	stcgt	0, cr0, [r0], {-0}
    1f60:	e4000007 	str	r0, [r0], #-7
    1f64:	01000007 	tsteq	r0, r7
    1f68:	00005500 	andeq	r5, r0, r0, lsl #10
    1f6c:	00000000 	andeq	r0, r0, r0
    1f70:	000c0000 	andeq	r0, ip, r0
    1f74:	00540000 	subseq	r0, r4, r0
    1f78:	00010000 	andeq	r0, r1, r0
    1f7c:	00000050 	andeq	r0, r0, r0, asr r0
    1f80:	00000000 	andeq	r0, r0, r0
    1f84:	00000c00 	andeq	r0, r0, r0, lsl #24
    1f88:	00002000 	andeq	r2, r0, r0
    1f8c:	51000100 	mrspl	r0, (UNDEF: 16)
	...
    1f98:	0000000c 	andeq	r0, r0, ip
    1f9c:	00000020 	andeq	r0, r0, r0, lsr #32
    1fa0:	20510001 	subscs	r0, r1, r1
    1fa4:	24000000 	strcs	r0, [r0], #-0
    1fa8:	05000000 	streq	r0, [r0, #-0]
    1fac:	31007100 	mrscc	r7, (UNDEF: 16)
    1fb0:	00249f24 	eoreq	r9, r4, r4, lsr #30
    1fb4:	00280000 	eoreq	r0, r8, r0
    1fb8:	00010000 	andeq	r0, r1, r0
    1fbc:	00003051 	andeq	r3, r0, r1, asr r0
    1fc0:	00005800 	andeq	r5, r0, r0, lsl #16
    1fc4:	51000100 	mrspl	r0, (UNDEF: 16)
	...
    1fd0:	0000000c 	andeq	r0, r0, ip
    1fd4:	00000030 	andeq	r0, r0, r0, lsr r0
    1fd8:	9f300002 	svcls	0x00300002
    1fdc:	00000030 	andeq	r0, r0, r0, lsr r0
    1fe0:	00000040 	andeq	r0, r0, r0, asr #32
    1fe4:	44520001 	ldrbmi	r0, [r2], #-1
    1fe8:	50000000 	andpl	r0, r0, r0
    1fec:	01000000 	mrseq	r0, (UNDEF: 0)
    1ff0:	00005200 	andeq	r5, r0, r0, lsl #4
    1ff4:	00000000 	andeq	r0, r0, r0
    1ff8:	000c0000 	andeq	r0, ip, r0
    1ffc:	00200000 	eoreq	r0, r0, r0
    2000:	00020000 	andeq	r0, r2, r0
    2004:	00289f30 	eoreq	r9, r8, r0, lsr pc
    2008:	002c0000 	eoreq	r0, ip, r0
    200c:	00010000 	andeq	r0, r1, r0
    2010:	00003053 	andeq	r3, r0, r3, asr r0
    2014:	00004800 	andeq	r4, r0, r0, lsl #16
    2018:	53000100 	movwpl	r0, #256	; 0x100
	...
    2028:	00000010 	andeq	r0, r0, r0, lsl r0
    202c:	007d0002 	rsbseq	r0, sp, r2
    2030:	00000010 	andeq	r0, r0, r0, lsl r0
    2034:	00000090 	muleq	r0, r0, r0
    2038:	087d0002 	ldmdaeq	sp!, {r1}^
	...
    2048:	00000030 	andeq	r0, r0, r0, lsr r0
    204c:	9f300002 	svcls	0x00300002
    2050:	0000006c 	andeq	r0, r0, ip, rrx
    2054:	0000007f 	andeq	r0, r0, pc, ror r0
    2058:	00510001 	subseq	r0, r1, r1
    205c:	00000000 	andeq	r0, r0, r0
    2060:	90000000 	andls	r0, r0, r0
    2064:	98000000 	stmdals	r0, {}	; <UNPREDICTABLE>
    2068:	02000000 	andeq	r0, r0, #0
    206c:	98007d00 	stmdals	r0, {r8, sl, fp, ip, sp, lr}
    2070:	e4000000 	str	r0, [r0], #-0
    2074:	02000000 	andeq	r0, r0, #0
    2078:	00087d00 	andeq	r7, r8, r0, lsl #26
    207c:	00000000 	andeq	r0, r0, r0
    2080:	90000000 	andls	r0, r0, r0
    2084:	b0000000 	andlt	r0, r0, r0
    2088:	02000000 	andeq	r0, r0, #0
    208c:	cc9f3000 	ldcgt	0, cr3, [pc], {0}
    2090:	e4000000 	str	r0, [r0], #-0
    2094:	01000000 	mrseq	r0, (UNDEF: 0)
    2098:	00005300 	andeq	r5, r0, r0, lsl #6
    209c:	00000000 	andeq	r0, r0, r0
    20a0:	00a00000 	adceq	r0, r0, r0
    20a4:	00b40000 	adcseq	r0, r4, r0
    20a8:	00020000 	andeq	r0, r2, r0
    20ac:	00b47491 	umlalseq	r7, r4, r1, r4
    20b0:	00bc0000 	adcseq	r0, ip, r0
    20b4:	00010000 	andeq	r0, r1, r0
    20b8:	0000bc51 	andeq	fp, r0, r1, asr ip
    20bc:	0000e400 	andeq	lr, r0, r0, lsl #8
    20c0:	91000200 	mrsls	r0, R8_usr
    20c4:	00000074 	andeq	r0, r0, r4, ror r0
    20c8:	00000000 	andeq	r0, r0, r0
    20cc:	0000e400 	andeq	lr, r0, r0, lsl #8
    20d0:	0000ec00 	andeq	lr, r0, r0, lsl #24
    20d4:	7d000200 	sfmvc	f0, 4, [r0, #-0]
    20d8:	0000ec00 	andeq	lr, r0, r0, lsl #24
    20dc:	00013c00 	andeq	r3, r1, r0, lsl #24
    20e0:	7d000200 	sfmvc	f0, 4, [r0, #-0]
    20e4:	00000008 	andeq	r0, r0, r8
    20e8:	00000000 	andeq	r0, r0, r0
    20ec:	0000e400 	andeq	lr, r0, r0, lsl #8
    20f0:	00012400 	andeq	r2, r1, r0, lsl #8
    20f4:	50000100 	andpl	r0, r0, r0, lsl #2
	...
    2100:	000000e4 	andeq	r0, r0, r4, ror #1
    2104:	00000124 	andeq	r0, r0, r4, lsr #2
    2108:	00700005 	rsbseq	r0, r0, r5
    210c:	009f2535 	addseq	r2, pc, r5, lsr r5	; <UNPREDICTABLE>
    2110:	00000000 	andeq	r0, r0, r0
    2114:	e4000000 	str	r0, [r0], #-0
    2118:	24000000 	strcs	r0, [r0], #-0
    211c:	05000001 	streq	r0, [r0, #-1]
    2120:	4f007000 	svcmi	0x00007000
    2124:	01249f1a 	teqeq	r4, sl, lsl pc
    2128:	013c0000 	teqeq	ip, r0
    212c:	00010000 	andeq	r0, r1, r0
    2130:	00000055 	andeq	r0, r0, r5, asr r0
    2134:	00000000 	andeq	r0, r0, r0
    2138:	00013c00 	andeq	r3, r1, r0, lsl #24
    213c:	00016c00 	andeq	r6, r1, r0, lsl #24
    2140:	50000100 	andpl	r0, r0, r0, lsl #2
	...
    214c:	0000013c 	andeq	r0, r0, ip, lsr r1
    2150:	00000170 	andeq	r0, r0, r0, ror r1
    2154:	9f300002 	svcls	0x00300002
	...
    2160:	0000013c 	andeq	r0, r0, ip, lsr r1
    2164:	0000016c 	andeq	r0, r0, ip, ror #2
    2168:	00700005 	rsbseq	r0, r0, r5
    216c:	009f2535 	addseq	r2, pc, r5, lsr r5	; <UNPREDICTABLE>
    2170:	00000000 	andeq	r0, r0, r0
    2174:	3c000000 	stccc	0, cr0, [r0], {-0}
    2178:	6c000001 	stcvs	0, cr0, [r0], {1}
    217c:	05000001 	streq	r0, [r0, #-1]
    2180:	4f007000 	svcmi	0x00007000
    2184:	016c9f1a 	cmneq	ip, sl, lsl pc
    2188:	01840000 	orreq	r0, r4, r0
    218c:	00010000 	andeq	r0, r1, r0
    2190:	00000050 	andeq	r0, r0, r0, asr r0
	...
    219c:	00001000 	andeq	r1, r0, r0
    21a0:	50000100 	andpl	r0, r0, r0, lsl #2
    21a4:	00000010 	andeq	r0, r0, r0, lsl r0
    21a8:	00000060 	andeq	r0, r0, r0, rrx
    21ac:	00520001 	subseq	r0, r2, r1
    21b0:	00000000 	andeq	r0, r0, r0
    21b4:	60000000 	andvs	r0, r0, r0
    21b8:	78000000 	stmdavc	r0, {}	; <UNPREDICTABLE>
    21bc:	01000000 	mrseq	r0, (UNDEF: 0)
    21c0:	00785000 	rsbseq	r5, r8, r0
    21c4:	00a80000 	adceq	r0, r8, r0
    21c8:	00010000 	andeq	r0, r1, r0
    21cc:	00000052 	andeq	r0, r0, r2, asr r0
	...
    21d8:	00001c00 	andeq	r1, r0, r0, lsl #24
    21dc:	50000100 	andpl	r0, r0, r0, lsl #2
	...
    21e8:	00000040 	andeq	r0, r0, r0, asr #32
    21ec:	00000050 	andeq	r0, r0, r0, asr r0
    21f0:	50500001 	subspl	r0, r0, r1
    21f4:	7c000000 	stcvc	0, cr0, [r0], {-0}
    21f8:	01000000 	mrseq	r0, (UNDEF: 0)
    21fc:	00005200 	andeq	r5, r0, r0, lsl #4
    2200:	00000000 	andeq	r0, r0, r0
    2204:	007c0000 	rsbseq	r0, ip, r0
    2208:	00940000 	addseq	r0, r4, r0
    220c:	00010000 	andeq	r0, r1, r0
    2210:	00009450 	andeq	r9, r0, r0, asr r4
    2214:	0000a800 	andeq	sl, r0, r0, lsl #16
    2218:	52000100 	andpl	r0, r0, #0
	...
    2224:	000000b0 	strheq	r0, [r0], -r0	; <UNPREDICTABLE>
    2228:	000000b4 	strheq	r0, [r0], -r4
    222c:	007d0002 	rsbseq	r0, sp, r2
    2230:	000000b4 	strheq	r0, [r0], -r4
    2234:	00000118 	andeq	r0, r0, r8, lsl r1
    2238:	107d0002 	rsbsne	r0, sp, r2
	...
    2244:	000000b0 	strheq	r0, [r0], -r0	; <UNPREDICTABLE>
    2248:	000000d0 	ldrdeq	r0, [r0], -r0	; <UNPREDICTABLE>
    224c:	d0500001 	subsle	r0, r0, r1
    2250:	18000000 	stmdane	r0, {}	; <UNPREDICTABLE>
    2254:	01000001 	tsteq	r0, r1
    2258:	00005400 	andeq	r5, r0, r0, lsl #8
    225c:	00000000 	andeq	r0, r0, r0
    2260:	01180000 	tsteq	r8, r0
    2264:	01200000 	teqeq	r0, r0
    2268:	00020000 	andeq	r0, r2, r0
    226c:	0120007d 	teqeq	r0, sp, ror r0
    2270:	01600000 	cmneq	r0, r0
    2274:	00020000 	andeq	r0, r2, r0
    2278:	0000047d 	andeq	r0, r0, sp, ror r4
    227c:	00000000 	andeq	r0, r0, r0
    2280:	01180000 	tsteq	r8, r0
    2284:	01240000 	teqeq	r4, r0
    2288:	00010000 	andeq	r0, r1, r0
    228c:	00012450 	andeq	r2, r1, r0, asr r4
    2290:	00016000 	andeq	r6, r1, r0
    2294:	52000100 	andpl	r0, r0, #0
	...
    22a0:	00000160 	andeq	r0, r0, r0, ror #2
    22a4:	00000178 	andeq	r0, r0, r8, ror r1
    22a8:	007d0002 	rsbseq	r0, sp, r2
    22ac:	00000178 	andeq	r0, r0, r8, ror r1
    22b0:	000001c0 	andeq	r0, r0, r0, asr #3
    22b4:	047d0002 	ldrbteq	r0, [sp], #-2
	...
    22c0:	00000160 	andeq	r0, r0, r0, ror #2
    22c4:	00000180 	andeq	r0, r0, r0, lsl #3
    22c8:	80500001 	subshi	r0, r0, r1
    22cc:	ac000001 	stcge	0, cr0, [r0], {1}
    22d0:	01000001 	tsteq	r0, r1
    22d4:	00005100 	andeq	r5, r0, r0, lsl #2
    22d8:	00000000 	andeq	r0, r0, r0
    22dc:	01c00000 	biceq	r0, r0, r0
    22e0:	01d40000 	bicseq	r0, r4, r0
    22e4:	00020000 	andeq	r0, r2, r0
    22e8:	01d4007d 	bicseq	r0, r4, sp, ror r0
    22ec:	02100000 	andseq	r0, r0, #0
    22f0:	00020000 	andeq	r0, r2, r0
    22f4:	00000c7d 	andeq	r0, r0, sp, ror ip
    22f8:	00000000 	andeq	r0, r0, r0
    22fc:	01c00000 	biceq	r0, r0, r0
    2300:	01e00000 	mvneq	r0, r0
    2304:	00010000 	andeq	r0, r1, r0
    2308:	0001e050 	andeq	lr, r1, r0, asr r0
    230c:	00021000 	andeq	r1, r2, r0
    2310:	52000100 	andpl	r0, r0, #0
	...
    231c:	00000210 	andeq	r0, r0, r0, lsl r2
    2320:	00000218 	andeq	r0, r0, r8, lsl r2
    2324:	18500001 	ldmdane	r0, {r0}^
    2328:	6c000002 	stcvs	0, cr0, [r0], {2}
    232c:	01000002 	tsteq	r0, r2
    2330:	00005200 	andeq	r5, r0, r0, lsl #4
    2334:	00000000 	andeq	r0, r0, r0
    2338:	02840000 	addeq	r0, r4, #0
    233c:	02940000 	addseq	r0, r4, #0
    2340:	00010000 	andeq	r0, r1, r0
    2344:	00029450 	andeq	r9, r2, r0, asr r4
    2348:	0002e400 	andeq	lr, r2, r0, lsl #8
    234c:	52000100 	andpl	r0, r0, #0
	...
    2358:	000002e4 	andeq	r0, r0, r4, ror #5
    235c:	00000320 	andeq	r0, r0, r0, lsr #6
    2360:	9f310002 	svcls	0x00310002
    2364:	00000320 	andeq	r0, r0, r0, lsr #6
    2368:	00000343 	andeq	r0, r0, r3, asr #6
    236c:	e503000e 	str	r0, [r3, #-14]
    2370:	94f00035 	ldrbtls	r0, [r0], #53	; 0x35
    2374:	48244801 	stmdami	r4!, {r0, fp, lr}
    2378:	9f012325 	svcls	0x00012325
    237c:	00000344 	andeq	r0, r0, r4, asr #6
    2380:	00000350 	andeq	r0, r0, r0, asr r3
    2384:	9f310002 	svcls	0x00310002
	...
    2390:	000002e4 	andeq	r0, r0, r4, ror #5
    2394:	00000320 	andeq	r0, r0, r0, lsr #6
    2398:	9f310002 	svcls	0x00310002
    239c:	00000344 	andeq	r0, r0, r4, asr #6
    23a0:	00000350 	andeq	r0, r0, r0, asr r3
    23a4:	9f310002 	svcls	0x00310002
	...
    23b0:	000002e4 	andeq	r0, r0, r4, ror #5
    23b4:	00000320 	andeq	r0, r0, r0, lsr #6
    23b8:	9f310002 	svcls	0x00310002
    23bc:	00000320 	andeq	r0, r0, r0, lsr #6
    23c0:	00000343 	andeq	r0, r0, r3, asr #6
    23c4:	e403000e 	str	r0, [r3], #-14
    23c8:	94f00035 	ldrbtls	r0, [r0], #53	; 0x35
    23cc:	48244801 	stmdami	r4!, {r0, fp, lr}
    23d0:	9f012325 	svcls	0x00012325
    23d4:	00000344 	andeq	r0, r0, r4, asr #6
    23d8:	00000350 	andeq	r0, r0, r0, asr r3
    23dc:	9f310002 	svcls	0x00310002
	...
    23e8:	000002e4 	andeq	r0, r0, r4, ror #5
    23ec:	00000320 	andeq	r0, r0, r0, lsr #6
    23f0:	9f310002 	svcls	0x00310002
    23f4:	00000320 	andeq	r0, r0, r0, lsr #6
    23f8:	00000343 	andeq	r0, r0, r3, asr #6
    23fc:	0331000e 	teqeq	r1, #14
    2400:	f00035e6 			; <UNDEFINED> instruction: 0xf00035e6
    2404:	24480194 	strbcs	r0, [r8], #-404	; 0x194
    2408:	9f242548 	svcls	0x00242548
    240c:	00000344 	andeq	r0, r0, r4, asr #6
    2410:	00000350 	andeq	r0, r0, r0, asr r3
    2414:	9f310002 	svcls	0x00310002
	...
    2420:	000002e4 	andeq	r0, r0, r4, ror #5
    2424:	000002f4 	strdeq	r0, [r0], -r4
    2428:	9f300002 	svcls	0x00300002
    242c:	000002f4 	strdeq	r0, [r0], -r4
    2430:	00000328 	andeq	r0, r0, r8, lsr #6
    2434:	44510001 	ldrbmi	r0, [r1], #-1
    2438:	50000003 	andpl	r0, r0, r3
    243c:	01000003 	tsteq	r0, r3
    2440:	00005100 	andeq	r5, r0, r0, lsl #2
    2444:	00000000 	andeq	r0, r0, r0
    2448:	02e40000 	rsceq	r0, r4, #0
    244c:	03480000 	movteq	r0, #32768	; 0x8000
    2450:	00020000 	andeq	r0, r2, r0
    2454:	03489f30 	movteq	r9, #36656	; 0x8f30
    2458:	03500000 	cmpeq	r0, #0
    245c:	00010000 	andeq	r0, r1, r0
    2460:	00000050 	andeq	r0, r0, r0, asr r0
    2464:	00000000 	andeq	r0, r0, r0
	...

Disassembly of section .debug_aranges:

00000000 <.debug_aranges>:
   0:	0000001c 	andeq	r0, r0, ip, lsl r0
   4:	00000002 	andeq	r0, r0, r2
   8:	00040000 	andeq	r0, r4, r0
   c:	00000000 	andeq	r0, r0, r0
  10:	f0000000 			; <UNDEFINED> instruction: 0xf0000000
  14:	00000454 	andeq	r0, r0, r4, asr r4
	...
  20:	0000001c 	andeq	r0, r0, ip, lsl r0
  24:	05520002 	ldrbeq	r0, [r2, #-2]
  28:	00040000 	andeq	r0, r4, r0
  2c:	00000000 	andeq	r0, r0, r0
  30:	f0000454 			; <UNDEFINED> instruction: 0xf0000454
  34:	00000044 	andeq	r0, r0, r4, asr #32
	...
  40:	0000001c 	andeq	r0, r0, ip, lsl r0
  44:	06650002 	strbteq	r0, [r5], -r2
  48:	00040000 	andeq	r0, r4, r0
  4c:	00000000 	andeq	r0, r0, r0
  50:	f0000498 			; <UNDEFINED> instruction: 0xf0000498
  54:	000000ac 	andeq	r0, r0, ip, lsr #1
	...
  60:	0000001c 	andeq	r0, r0, ip, lsl r0
  64:	18b80002 	ldmne	r8!, {r1}
  68:	00040000 	andeq	r0, r4, r0
  6c:	00000000 	andeq	r0, r0, r0
  70:	f0000544 			; <UNDEFINED> instruction: 0xf0000544
  74:	00000020 	andeq	r0, r0, r0, lsr #32
	...
  80:	0000001c 	andeq	r0, r0, ip, lsl r0
  84:	19880002 	stmibne	r8, {r1}
  88:	00040000 	andeq	r0, r4, r0
  8c:	00000000 	andeq	r0, r0, r0
  90:	f0000564 			; <UNDEFINED> instruction: 0xf0000564
  94:	000000a8 	andeq	r0, r0, r8, lsr #1
	...
  a0:	0000001c 	andeq	r0, r0, ip, lsl r0
  a4:	1b090002 	blne	2400b4 <__standby_start+0x2400b4>
  a8:	00040000 	andeq	r0, r4, r0
  ac:	00000000 	andeq	r0, r0, r0
  b0:	f000060c 			; <UNDEFINED> instruction: 0xf000060c
  b4:	00000258 	andeq	r0, r0, r8, asr r2
	...
  c0:	0000001c 	andeq	r0, r0, ip, lsl r0
  c4:	1e4e0002 	cdpne	0, 4, cr0, cr14, cr2, {0}
  c8:	00040000 	andeq	r0, r4, r0
  cc:	00000000 	andeq	r0, r0, r0
  d0:	f0000864 			; <UNDEFINED> instruction: 0xf0000864
  d4:	00000344 	andeq	r0, r0, r4, asr #6
	...
  e0:	0000001c 	andeq	r0, r0, ip, lsl r0
  e4:	21130002 	tstcs	r3, r2
  e8:	00040000 	andeq	r0, r4, r0
  ec:	00000000 	andeq	r0, r0, r0
  f0:	f0000ba8 			; <UNDEFINED> instruction: 0xf0000ba8
  f4:	00000020 	andeq	r0, r0, r0, lsr #32
	...
 100:	0000001c 	andeq	r0, r0, ip, lsl r0
 104:	22020002 	andcs	r0, r2, #2
 108:	00040000 	andeq	r0, r4, r0
 10c:	00000000 	andeq	r0, r0, r0
 110:	f0000bc8 			; <UNDEFINED> instruction: 0xf0000bc8
 114:	00000268 	andeq	r0, r0, r8, ror #4
	...
 120:	0000001c 	andeq	r0, r0, ip, lsl r0
 124:	268a0002 	strcs	r0, [sl], r2
 128:	00040000 	andeq	r0, r4, r0
 12c:	00000000 	andeq	r0, r0, r0
 130:	f0000e30 			; <UNDEFINED> instruction: 0xf0000e30
 134:	00000338 	andeq	r0, r0, r8, lsr r3
	...
 140:	0000001c 	andeq	r0, r0, ip, lsl r0
 144:	2af00002 	bcs	ffc00154 <__bss_end+0xfbfcb38>
 148:	00040000 	andeq	r0, r4, r0
 14c:	00000000 	andeq	r0, r0, r0
 150:	f0001168 			; <UNDEFINED> instruction: 0xf0001168
 154:	00000054 	andeq	r0, r0, r4, asr r0
	...
 160:	0000001c 	andeq	r0, r0, ip, lsl r0
 164:	2be60002 	blcs	ff980174 <__bss_end+0xf97cb58>
 168:	00040000 	andeq	r0, r4, r0
 16c:	00000000 	andeq	r0, r0, r0
 170:	f00011bc 			; <UNDEFINED> instruction: 0xf00011bc
 174:	000000f0 	strdeq	r0, [r0], -r0	; <UNPREDICTABLE>
	...
 180:	0000001c 	andeq	r0, r0, ip, lsl r0
 184:	2e1d0002 	cdpcs	0, 1, cr0, cr13, cr2, {0}
 188:	00040000 	andeq	r0, r4, r0
 18c:	00000000 	andeq	r0, r0, r0
 190:	f00012ac 			; <UNDEFINED> instruction: 0xf00012ac
 194:	00000178 	andeq	r0, r0, r8, ror r1
	...
 1a0:	0000001c 	andeq	r0, r0, ip, lsl r0
 1a4:	30ac0002 	adccc	r0, ip, r2
 1a8:	00040000 	andeq	r0, r4, r0
 1ac:	00000000 	andeq	r0, r0, r0
 1b0:	f0001424 			; <UNDEFINED> instruction: 0xf0001424
 1b4:	000001bc 			; <UNDEFINED> instruction: 0x000001bc
	...
 1c0:	0000001c 	andeq	r0, r0, ip, lsl r0
 1c4:	351d0002 	ldrcc	r0, [sp, #-2]
 1c8:	00040000 	andeq	r0, r4, r0
 1cc:	00000000 	andeq	r0, r0, r0
 1d0:	f00015e0 			; <UNDEFINED> instruction: 0xf00015e0
 1d4:	000000a0 	andeq	r0, r0, r0, lsr #1
	...
 1e0:	0000001c 	andeq	r0, r0, ip, lsl r0
 1e4:	36650002 	strbtcc	r0, [r5], -r2
 1e8:	00040000 	andeq	r0, r4, r0
 1ec:	00000000 	andeq	r0, r0, r0
 1f0:	f0001680 			; <UNDEFINED> instruction: 0xf0001680
 1f4:	00000530 	andeq	r0, r0, r0, lsr r5
	...
 200:	0000001c 	andeq	r0, r0, ip, lsl r0
 204:	36e80002 	strbtcc	r0, [r8], r2
 208:	00040000 	andeq	r0, r4, r0
 20c:	00000000 	andeq	r0, r0, r0
 210:	f0001bc0 			; <UNDEFINED> instruction: 0xf0001bc0
 214:	0000046c 	andeq	r0, r0, ip, ror #8
	...
 220:	0000001c 	andeq	r0, r0, ip, lsl r0
 224:	4d1b0002 	ldcmi	0, cr0, [fp, #-8]
 228:	00040000 	andeq	r0, r4, r0
 22c:	00000000 	andeq	r0, r0, r0
 230:	f000202c 			; <UNDEFINED> instruction: 0xf000202c
 234:	000007ec 	andeq	r0, r0, ip, ror #15
	...
 240:	0000001c 	andeq	r0, r0, ip, lsl r0
 244:	54f20002 	ldrbtpl	r0, [r2], #2
 248:	00040000 	andeq	r0, r4, r0
 24c:	00000000 	andeq	r0, r0, r0
 250:	f0002818 			; <UNDEFINED> instruction: 0xf0002818
 254:	000001dc 	ldrdeq	r0, [r0], -ip
	...
 260:	0000001c 	andeq	r0, r0, ip, lsl r0
 264:	55710002 	ldrbpl	r0, [r1, #-2]!
 268:	00040000 	andeq	r0, r4, r0
 26c:	00000000 	andeq	r0, r0, r0
 270:	f00029f4 			; <UNDEFINED> instruction: 0xf00029f4
 274:	00000058 	andeq	r0, r0, r8, asr r0
	...
 280:	0000001c 	andeq	r0, r0, ip, lsl r0
 284:	56640002 	strbtpl	r0, [r4], -r2
 288:	00040000 	andeq	r0, r4, r0
 28c:	00000000 	andeq	r0, r0, r0
 290:	f0002a4c 			; <UNDEFINED> instruction: 0xf0002a4c
 294:	0000018c 	andeq	r0, r0, ip, lsl #3
	...
 2a0:	0000001c 	andeq	r0, r0, ip, lsl r0
 2a4:	58440002 	stmdapl	r4, {r1}^
 2a8:	00040000 	andeq	r0, r4, r0
 2ac:	00000000 	andeq	r0, r0, r0
 2b0:	f0002bd8 			; <UNDEFINED> instruction: 0xf0002bd8
 2b4:	00000198 	muleq	r0, r8, r1
	...
 2c0:	0000001c 	andeq	r0, r0, ip, lsl r0
 2c4:	5c950002 	ldcpl	0, cr0, [r5], {2}
 2c8:	00040000 	andeq	r0, r4, r0
 2cc:	00000000 	andeq	r0, r0, r0
 2d0:	f0002d70 			; <UNDEFINED> instruction: 0xf0002d70
 2d4:	00000350 	andeq	r0, r0, r0, asr r3
	...

Disassembly of section .debug_ranges:

00000000 <.debug_ranges>:
   0:	00000344 	andeq	r0, r0, r4, asr #6
   4:	00000374 	andeq	r0, r0, r4, ror r3
   8:	00000378 	andeq	r0, r0, r8, ror r3
   c:	0000037c 	andeq	r0, r0, ip, ror r3
	...
  1c:	00000004 	andeq	r0, r0, r4
  20:	0000000c 	andeq	r0, r0, ip
  24:	00000044 	andeq	r0, r0, r4, asr #32
  28:	0000004c 	andeq	r0, r0, ip, asr #32
  2c:	00000050 	andeq	r0, r0, r0, asr r0
	...
  3c:	00000004 	andeq	r0, r0, r4
  40:	0000000c 	andeq	r0, r0, ip
  44:	00000044 	andeq	r0, r0, r4, asr #32
  48:	0000004c 	andeq	r0, r0, ip, asr #32
  4c:	00000050 	andeq	r0, r0, r0, asr r0
	...
  58:	000001a0 	andeq	r0, r0, r0, lsr #3
  5c:	000001a4 	andeq	r0, r0, r4, lsr #3
  60:	000001b0 			; <UNDEFINED> instruction: 0x000001b0
  64:	000001ec 	andeq	r0, r0, ip, ror #3
  68:	000001f4 	strdeq	r0, [r0], -r4
  6c:	000001f8 	strdeq	r0, [r0], -r8
	...
  78:	000001a0 	andeq	r0, r0, r0, lsr #3
  7c:	000001a4 	andeq	r0, r0, r4, lsr #3
  80:	000001b0 			; <UNDEFINED> instruction: 0x000001b0
  84:	000001ec 	andeq	r0, r0, ip, ror #3
  88:	000001f4 	strdeq	r0, [r0], -r4
  8c:	000001f8 	strdeq	r0, [r0], -r8
	...
  98:	00000268 	andeq	r0, r0, r8, ror #4
  9c:	000002a4 	andeq	r0, r0, r4, lsr #5
  a0:	000002ac 	andeq	r0, r0, ip, lsr #5
  a4:	000002e8 	andeq	r0, r0, r8, ror #5
  a8:	00000338 	andeq	r0, r0, r8, lsr r3
  ac:	00000344 	andeq	r0, r0, r4, asr #6
	...
  b8:	00000268 	andeq	r0, r0, r8, ror #4
  bc:	000002a4 	andeq	r0, r0, r4, lsr #5
  c0:	000002ac 	andeq	r0, r0, ip, lsr #5
  c4:	000002e8 	andeq	r0, r0, r8, ror #5
  c8:	00000338 	andeq	r0, r0, r8, lsr r3
  cc:	00000344 	andeq	r0, r0, r4, asr #6
	...
  d8:	00000230 	andeq	r0, r0, r0, lsr r2
  dc:	00000284 	andeq	r0, r0, r4, lsl #5
  e0:	000002f8 	strdeq	r0, [r0], -r8
  e4:	00000304 	andeq	r0, r0, r4, lsl #6
	...
  f0:	00000244 	andeq	r0, r0, r4, asr #4
  f4:	00000248 	andeq	r0, r0, r8, asr #4
  f8:	0000024c 	andeq	r0, r0, ip, asr #4
  fc:	00000260 	andeq	r0, r0, r0, ror #4
 100:	000002f8 	strdeq	r0, [r0], -r8
 104:	00000304 	andeq	r0, r0, r4, lsl #6
	...
 110:	000002b0 			; <UNDEFINED> instruction: 0x000002b0
 114:	000002b4 			; <UNDEFINED> instruction: 0x000002b4
 118:	000002b8 			; <UNDEFINED> instruction: 0x000002b8
 11c:	000002cc 	andeq	r0, r0, ip, asr #5
	...
 128:	00000048 	andeq	r0, r0, r8, asr #32
 12c:	00000058 	andeq	r0, r0, r8, asr r0
 130:	00000060 	andeq	r0, r0, r0, rrx
 134:	00000074 	andeq	r0, r0, r4, ror r0
	...
 140:	00000048 	andeq	r0, r0, r8, asr #32
 144:	00000058 	andeq	r0, r0, r8, asr r0
 148:	00000060 	andeq	r0, r0, r0, rrx
 14c:	00000074 	andeq	r0, r0, r4, ror r0
	...
 158:	000000c4 	andeq	r0, r0, r4, asr #1
 15c:	000000c8 	andeq	r0, r0, r8, asr #1
 160:	000000cc 	andeq	r0, r0, ip, asr #1
 164:	000000f0 	strdeq	r0, [r0], -r0	; <UNPREDICTABLE>
	...
 170:	000000c4 	andeq	r0, r0, r4, asr #1
 174:	000000c8 	andeq	r0, r0, r8, asr #1
 178:	000000cc 	andeq	r0, r0, ip, asr #1
 17c:	000000f0 	strdeq	r0, [r0], -r0	; <UNPREDICTABLE>
	...
 188:	00000184 	andeq	r0, r0, r4, lsl #3
 18c:	00000188 	andeq	r0, r0, r8, lsl #3
 190:	0000018c 	andeq	r0, r0, ip, lsl #3
 194:	00000194 	muleq	r0, r4, r1
 198:	000001d0 	ldrdeq	r0, [r0], -r0	; <UNPREDICTABLE>
 19c:	000001f0 	strdeq	r0, [r0], -r0	; <UNPREDICTABLE>
	...
 1a8:	0000021c 	andeq	r0, r0, ip, lsl r2
 1ac:	00000220 	andeq	r0, r0, r0, lsr #4
 1b0:	00000224 	andeq	r0, r0, r4, lsr #4
 1b4:	00000228 	andeq	r0, r0, r8, lsr #4
 1b8:	00000230 	andeq	r0, r0, r0, lsr r2
 1bc:	0000024c 	andeq	r0, r0, ip, asr #4
 1c0:	00000254 	andeq	r0, r0, r4, asr r2
 1c4:	0000025c 	andeq	r0, r0, ip, asr r2
	...
 1d0:	0000021c 	andeq	r0, r0, ip, lsl r2
 1d4:	00000220 	andeq	r0, r0, r0, lsr #4
 1d8:	00000224 	andeq	r0, r0, r4, lsr #4
 1dc:	00000228 	andeq	r0, r0, r8, lsr #4
 1e0:	00000230 	andeq	r0, r0, r0, lsr r2
 1e4:	0000024c 	andeq	r0, r0, ip, asr #4
 1e8:	00000254 	andeq	r0, r0, r4, asr r2
 1ec:	0000025c 	andeq	r0, r0, ip, asr r2
	...
 1f8:	00000280 	andeq	r0, r0, r0, lsl #5
 1fc:	00000288 	andeq	r0, r0, r8, lsl #5
 200:	0000028c 	andeq	r0, r0, ip, lsl #5
 204:	000002ac 	andeq	r0, r0, ip, lsr #5
	...
 210:	00000280 	andeq	r0, r0, r0, lsl #5
 214:	00000288 	andeq	r0, r0, r8, lsl #5
 218:	0000028c 	andeq	r0, r0, ip, lsl #5
 21c:	000002ac 	andeq	r0, r0, ip, lsr #5
	...
 228:	00000374 	andeq	r0, r0, r4, ror r3
 22c:	00000378 	andeq	r0, r0, r8, ror r3
 230:	0000037c 	andeq	r0, r0, ip, ror r3
 234:	00000384 	andeq	r0, r0, r4, lsl #7
 238:	000003c0 	andeq	r0, r0, r0, asr #7
 23c:	000003e0 	andeq	r0, r0, r0, ror #7
	...
 248:	0000040c 	andeq	r0, r0, ip, lsl #8
 24c:	00000410 	andeq	r0, r0, r0, lsl r4
 250:	00000414 	andeq	r0, r0, r4, lsl r4
 254:	00000418 	andeq	r0, r0, r8, lsl r4
 258:	00000420 	andeq	r0, r0, r0, lsr #8
 25c:	0000043c 	andeq	r0, r0, ip, lsr r4
 260:	00000444 	andeq	r0, r0, r4, asr #8
 264:	0000044c 	andeq	r0, r0, ip, asr #8
	...
 270:	0000040c 	andeq	r0, r0, ip, lsl #8
 274:	00000410 	andeq	r0, r0, r0, lsl r4
 278:	00000414 	andeq	r0, r0, r4, lsl r4
 27c:	00000418 	andeq	r0, r0, r8, lsl r4
 280:	00000420 	andeq	r0, r0, r0, lsr #8
 284:	0000043c 	andeq	r0, r0, ip, lsr r4
 288:	00000444 	andeq	r0, r0, r4, asr #8
 28c:	0000044c 	andeq	r0, r0, ip, asr #8
	...
 298:	000000f8 	strdeq	r0, [r0], -r8
 29c:	000000fc 	strdeq	r0, [r0], -ip
 2a0:	00000100 	andeq	r0, r0, r0, lsl #2
 2a4:	00000154 	andeq	r0, r0, r4, asr r1
	...
 2b0:	000000f8 	strdeq	r0, [r0], -r8
 2b4:	000000fc 	strdeq	r0, [r0], -ip
 2b8:	00000100 	andeq	r0, r0, r0, lsl #2
 2bc:	00000154 	andeq	r0, r0, r4, asr r1
	...

Disassembly of section .debug_line:

00000000 <.debug_line>:
       0:	0000019a 	muleq	r0, sl, r1
       4:	00b10002 	adcseq	r0, r1, r2
       8:	01020000 	mrseq	r0, (UNDEF: 2)
       c:	000d0efb 	strdeq	r0, [sp], -fp
      10:	01010101 	tsteq	r1, r1, lsl #2
      14:	01000000 	mrseq	r0, (UNDEF: 0)
      18:	61010000 	mrsvs	r0, (UNDEF: 1)
      1c:	2f686372 	svccs	0x00686372
      20:	2f6d7261 	svccs	0x006d7261
      24:	6863616d 	stmdavs	r3!, {r0, r2, r3, r5, r6, r8, sp, lr}^
      28:	6e75732d 	cdpvs	3, 7, cr7, cr5, cr13, {1}
      2c:	702f6978 	eorvc	r6, pc, r8, ror r9	; <UNPREDICTABLE>
      30:	74732f6d 	ldrbtvc	r2, [r3], #-3949	; 0xf6d
      34:	62646e61 	rsbvs	r6, r4, #1552	; 0x610
      38:	72610079 	rsbvc	r0, r1, #121	; 0x79
      3c:	612f6863 	teqvs	pc, r3, ror #16
      40:	6d2f6d72 	stcvs	13, cr6, [pc, #-456]!	; fffffe80 <__bss_end+0xfffc864>
      44:	2d686361 	stclcs	3, cr6, [r8, #-388]!	; 0xfffffe7c
      48:	786e7573 	stmdavc	lr!, {r0, r1, r4, r5, r6, r8, sl, ip, sp, lr}^
      4c:	6d702f69 	ldclvs	15, cr2, [r0, #-420]!	; 0xfffffe5c
      50:	6174732f 	cmnvs	r4, pc, lsr #6
      54:	7962646e 	stmdbvc	r2!, {r1, r2, r3, r5, r6, sl, sp, lr}^
      58:	002e2e2f 	eoreq	r2, lr, pc, lsr #28
      5c:	6c636e69 	stclvs	14, cr6, [r3], #-420	; 0xfffffe5c
      60:	2f656475 	svccs	0x00656475
      64:	756e696c 	strbvc	r6, [lr, #-2412]!	; 0x96c
      68:	6f702f78 	svcvs	0x00702f78
      6c:	00726577 	rsbseq	r6, r2, r7, ror r5
      70:	61747300 	cmnvs	r4, r0, lsl #6
      74:	7962646e 	stmdbvc	r2!, {r1, r2, r3, r5, r6, sl, sp, lr}^
      78:	0100632e 	tsteq	r0, lr, lsr #6
      7c:	6d700000 	ldclvs	0, cr0, [r0, #-0]
      80:	6265645f 	rsbvs	r6, r5, #1593835520	; 0x5f000000
      84:	682e6775 	stmdavs	lr!, {r0, r2, r4, r5, r6, r8, r9, sl, sp, lr}
      88:	00000200 	andeq	r0, r0, r0, lsl #4
      8c:	5f6d656d 	svcpl	0x006d656d
      90:	2e746e69 	cdpcs	14, 7, cr6, cr4, cr9, {3}
      94:	00020068 	andeq	r0, r2, r8, rrx
      98:	5f776100 	svcpl	0x00776100
      9c:	682e6d70 	stmdavs	lr!, {r4, r5, r6, r8, sl, fp, sp, lr}
      a0:	00000300 	andeq	r0, r0, r0, lsl #6
      a4:	745f6d70 	ldrbvc	r6, [pc], #-3440	; ac <__standby_start+0xac>
      a8:	73657079 	cmnvc	r5, #121	; 0x79
      ac:	0200682e 	andeq	r6, r0, #3014656	; 0x2e0000
      b0:	6d700000 	ldclvs	0, cr0, [r0, #-0]
      b4:	0200682e 	andeq	r6, r0, #3014656	; 0x2e0000
      b8:	00000000 	andeq	r0, r0, r0
      bc:	00000205 	andeq	r0, r0, r5, lsl #4
      c0:	c603f000 	strgt	pc, [r3], -r0
      c4:	30310100 	eorscc	r0, r1, r0, lsl #2
      c8:	7703352c 	strvc	r3, [r3, -ip, lsr #10]
      cc:	2e0c032e 	cdpcs	3, 0, cr0, cr12, cr14, {1}
      d0:	01040200 	mrseq	r0, R12_usr
      d4:	69064a06 	stmdbvs	r6, {r1, r2, r9, fp, lr}
      d8:	4c4c2a32 	vmovmi	s5, s6, r2, ip
      dc:	684b3485 	stmdavs	fp, {r0, r2, r7, sl, ip, sp}^
      e0:	2f2f2f4c 	svccs	0x002f2f4c
      e4:	6c4d6d4c 	mcrrvs	13, 4, r6, sp, cr12
      e8:	f5036a50 			; <UNDEFINED> instruction: 0xf5036a50
      ec:	2f4b4a00 	svccs	0x004b4a00
      f0:	31302931 	teqcc	r0, r1, lsr r9
      f4:	2e1c0331 	mrccs	3, 0, r0, cr12, cr1, {1}
      f8:	034c302f 	movteq	r3, #49199	; 0xc02f
      fc:	4c4b2e65 	mcrrmi	14, 6, r2, fp, cr5
     100:	fb034c2f 	blx	d31c6 <__standby_start+0xd31c6>
     104:	304c4a7e 	subcc	r4, ip, lr, ror sl
     108:	2d4b302c 	stclcs	0, cr3, [fp, #-176]	; 0xffffff50
     10c:	312ba14b 	teqcc	fp, fp, asr #2
     110:	312b3133 	teqcc	fp, r3, lsr r1
     114:	02002f2c 	andeq	r2, r0, #176	; 0xb0
     118:	00490104 	subeq	r0, r9, r4, lsl #2
     11c:	4b010402 	blmi	4112c <__standby_start+0x4112c>
     120:	01040200 	mrseq	r0, R12_usr
     124:	0b03362d 	bleq	cd9e0 <__standby_start+0xcd9e0>
     128:	6b2f4c4a 	blvs	bd3258 <__standby_start+0xbd3258>
     12c:	4b302f2f 	blmi	c0bdf0 <__standby_start+0xc0bdf0>
     130:	0b034c6a 	bleq	d32e0 <__standby_start+0xd32e0>
     134:	2f2a3166 	svccs	0x002a3166
     138:	2e160331 	mrccs	3, 0, r0, cr6, cr1, {1}
     13c:	4c2f6767 	stcmi	7, cr6, [pc], #-412	; ffffffa8 <__bss_end+0xfffc98c>
     140:	4a7f9003 	bmi	1fe4154 <__standby_start+0x1fe4154>
     144:	2f4b6885 	svccs	0x004b6885
     148:	51661503 	cmnpl	r6, r3, lsl #10
     14c:	01cb0367 	biceq	r0, fp, r7, ror #6
     150:	4b4b4b82 	blmi	12d2f60 <__standby_start+0x12d2f60>
     154:	6767674b 	strbvs	r6, [r7, -fp, asr #14]!
     158:	7e800367 	cdpvc	3, 8, cr0, cr0, cr7, {3}
     15c:	674b2f82 	strbvs	r2, [fp, -r2, lsl #31]
     160:	6600f603 	strvs	pc, [r0], -r3, lsl #12
     164:	2e57032f 	cdpcs	3, 5, cr0, cr7, cr15, {1}
     168:	7503844d 	strvc	r8, [r3, #-1101]	; 0x44d
     16c:	6676034a 	ldrbtvs	r0, [r6], -sl, asr #6
     170:	6601c603 	strvs	ip, [r1], -r3, lsl #12
     174:	03676783 	cmneq	r7, #34340864	; 0x20c0000
     178:	034a7eaa 	movteq	r7, #44714	; 0xaeaa
     17c:	032e01d6 	teqeq	lr, #-2147483595	; 0x80000035
     180:	002e7eaa 	eoreq	r7, lr, sl, lsr #29
     184:	06010402 	streq	r0, [r1], -r2, lsl #8
     188:	03f3064a 	mvnseq	r0, #77594624	; 0x4a00000
     18c:	834a01dc 	movthi	r0, #41436	; 0xa1dc
     190:	f6038383 			; <UNDEFINED> instruction: 0xf6038383
     194:	2e039e7d 	mcrcs	14, 0, r9, cr3, cr13, {3}
     198:	002c0266 	eoreq	r0, ip, r6, ror #4
     19c:	00b10101 	adcseq	r0, r1, r1, lsl #2
     1a0:	00020000 	andeq	r0, r2, r0
     1a4:	00000081 	andeq	r0, r0, r1, lsl #1
     1a8:	0efb0102 	cdpeq	1, 15, cr0, cr11, cr2, {0}
     1ac:	0101000d 	tsteq	r1, sp
     1b0:	00000101 	andeq	r0, r0, r1, lsl #2
     1b4:	00000100 	andeq	r0, r0, r0, lsl #2
     1b8:	63726101 	cmnvs	r2, #1073741824	; 0x40000000
     1bc:	72612f68 	rsbvc	r2, r1, #416	; 0x1a0
     1c0:	616d2f6d 	cmnvs	sp, sp, ror #30
     1c4:	732d6863 	teqvc	sp, #6488064	; 0x630000
     1c8:	69786e75 	ldmdbvs	r8!, {r0, r2, r4, r5, r6, r9, sl, fp, sp, lr}^
     1cc:	2f6d702f 	svccs	0x006d702f
     1d0:	6e617473 	mcrvs	4, 3, r7, cr1, cr3, {3}
     1d4:	00796264 	rsbseq	r6, r9, r4, ror #4
     1d8:	68637261 	stmdavs	r3!, {r0, r5, r6, r9, ip, sp, lr}^
     1dc:	6d72612f 	ldfvse	f6, [r2, #-188]!	; 0xffffff44
     1e0:	63616d2f 	cmnvs	r1, #3008	; 0xbc0
     1e4:	75732d68 	ldrbvc	r2, [r3, #-3432]!	; 0xd68
     1e8:	2f69786e 	svccs	0x0069786e
     1ec:	732f6d70 	teqvc	pc, #7168	; 0x1c00
     1f0:	646e6174 	strbtvs	r6, [lr], #-372	; 0x174
     1f4:	2e2f7962 	cdpcs	9, 2, cr7, cr15, cr2, {3}
     1f8:	6300002e 	movwvs	r0, #46	; 0x2e
     1fc:	6f6d6d6f 	svcvs	0x006d6d6f
     200:	00632e6e 	rsbeq	r2, r3, lr, ror #28
     204:	70000001 	andvc	r0, r0, r1
     208:	79745f6d 	ldmdbvc	r4!, {r0, r2, r3, r5, r6, r8, r9, sl, fp, ip, lr}^
     20c:	2e736570 	mrccs	5, 3, r6, cr3, cr0, {3}
     210:	00020068 	andeq	r0, r2, r8, rrx
     214:	61747300 	cmnvs	r4, r0, lsl #6
     218:	7962646e 	stmdbvc	r2!, {r1, r2, r3, r5, r6, sl, sp, lr}^
     21c:	6f6c635f 	svcvs	0x006c635f
     220:	682e6b63 	stmdavs	lr!, {r0, r1, r5, r6, r8, r9, fp, sp, lr}
     224:	00000100 	andeq	r0, r0, r0, lsl #2
     228:	02050000 	andeq	r0, r5, #0
     22c:	f0000454 			; <UNDEFINED> instruction: 0xf0000454
     230:	16012303 	strne	r2, [r1], -r3, lsl #6
     234:	01040200 	mrseq	r0, R12_usr
     238:	4a76036b 	bmi	1d80fec <__standby_start+0x1d80fec>
     23c:	02040200 	andeq	r0, r4, #0
     240:	004a0b03 	subeq	r0, sl, r3, lsl #22
     244:	49020402 	stmdbmi	r2, {r1, sl}
     248:	13661703 	cmnne	r6, #786432	; 0xc0000
     24c:	02021183 	andeq	r1, r2, #-1073741792	; 0xc0000020
     250:	cc010100 	stfgts	f0, [r1], {-0}
     254:	02000000 	andeq	r0, r0, #0
     258:	00008d00 	andeq	r8, r0, r0, lsl #26
     25c:	fb010200 	blx	40a66 <__standby_start+0x40a66>
     260:	01000d0e 	tsteq	r0, lr, lsl #26
     264:	00010101 	andeq	r0, r1, r1, lsl #2
     268:	00010000 	andeq	r0, r1, r0
     26c:	72610100 	rsbvc	r0, r1, #0
     270:	612f6863 	teqvs	pc, r3, ror #16
     274:	6d2f6d72 	stcvs	13, cr6, [pc, #-456]!	; b4 <__standby_start+0xb4>
     278:	2d686361 	stclcs	3, cr6, [r8, #-388]!	; 0xfffffe7c
     27c:	786e7573 	stmdavc	lr!, {r0, r1, r4, r5, r6, r8, sl, ip, sp, lr}^
     280:	6d702f69 	ldclvs	15, cr2, [r0, #-420]!	; 0xfffffe5c
     284:	6174732f 	cmnvs	r4, pc, lsr #6
     288:	7962646e 	stmdbvc	r2!, {r1, r2, r3, r5, r6, sl, sp, lr}^
     28c:	63726100 	cmnvs	r2, #0
     290:	72612f68 	rsbvc	r2, r1, #416	; 0x1a0
     294:	616d2f6d 	cmnvs	sp, sp, ror #30
     298:	732d6863 	teqvc	sp, #6488064	; 0x630000
     29c:	69786e75 	ldmdbvs	r8!, {r0, r2, r4, r5, r6, r9, sl, fp, sp, lr}^
     2a0:	2f6d702f 	svccs	0x006d702f
     2a4:	6e617473 	mcrvs	4, 3, r7, cr1, cr3, {3}
     2a8:	2f796264 	svccs	0x00796264
     2ac:	00002e2e 	andeq	r2, r0, lr, lsr #28
     2b0:	6e617473 	mcrvs	4, 3, r7, cr1, cr3, {3}
     2b4:	5f796264 	svcpl	0x00796264
     2b8:	636f6c63 	cmnvs	pc, #25344	; 0x6300
     2bc:	00632e6b 	rsbeq	r2, r3, fp, ror #28
     2c0:	70000001 	andvc	r0, r0, r1
     2c4:	79745f6d 	ldmdbvc	r4!, {r0, r2, r3, r5, r6, r8, r9, sl, fp, ip, lr}^
     2c8:	2e736570 	mrccs	5, 3, r6, cr3, cr0, {3}
     2cc:	00020068 	andeq	r0, r2, r8, rrx
     2d0:	6d656d00 	stclvs	13, cr6, [r5, #-0]
     2d4:	6d63635f 	stclvs	3, cr6, [r3, #-380]!	; 0xfffffe84
     2d8:	75732d75 	ldrbvc	r2, [r3, #-3445]!	; 0xd75
     2dc:	7769386e 	strbvc	r3, [r9, -lr, ror #16]!
     2e0:	2e317035 	mrccs	0, 1, r7, cr1, cr5, {1}
     2e4:	00020068 	andeq	r0, r2, r8, rrx
     2e8:	05000000 	streq	r0, [r0, #-0]
     2ec:	00049802 	andeq	r9, r4, r2, lsl #16
     2f0:	013803f0 			; <UNDEFINED> instruction: 0x013803f0
     2f4:	4b2d4b13 	blmi	b52f48 <__standby_start+0xb52f48>
     2f8:	322a332d 	eorcc	r3, sl, #-1275068416	; 0xb4000000
     2fc:	152e1203 	strne	r1, [lr, #-515]!	; 0x203
     300:	134a0d03 	movtne	r0, #44291	; 0xad03
     304:	4b672d2f 	blmi	19cb7c8 <__standby_start+0x19cb7c8>
     308:	2e0e0330 	mcrcs	3, 0, r0, cr14, cr0, {1}
     30c:	2f2f8315 	svccs	0x002f8315
     310:	312f3031 	teqcc	pc, r1, lsr r0	; <UNPREDICTABLE>
     314:	03312f2f 	teqeq	r1, #188	; 0xbc
     318:	83132e0d 	tsthi	r3, #208	; 0xd0
     31c:	0202304b 	andeq	r3, r2, #75	; 0x4b
     320:	94010100 	strls	r0, [r1], #-256	; 0x100
     324:	02000000 	andeq	r0, r0, #0
     328:	00007200 	andeq	r7, r0, r0, lsl #4
     32c:	fb010200 	blx	40b36 <__standby_start+0x40b36>
     330:	01000d0e 	tsteq	r0, lr, lsl #26
     334:	00010101 	andeq	r0, r1, r1, lsl #2
     338:	00010000 	andeq	r0, r1, r0
     33c:	72610100 	rsbvc	r0, r1, #0
     340:	612f6863 	teqvs	pc, r3, ror #16
     344:	6d2f6d72 	stcvs	13, cr6, [pc, #-456]!	; 184 <__standby_start+0x184>
     348:	2d686361 	stclcs	3, cr6, [r8, #-388]!	; 0xfffffe7c
     34c:	786e7573 	stmdavc	lr!, {r0, r1, r4, r5, r6, r8, sl, ip, sp, lr}^
     350:	6d702f69 	ldclvs	15, cr2, [r0, #-420]!	; 0xfffffe5c
     354:	6174732f 	cmnvs	r4, pc, lsr #6
     358:	7962646e 	stmdbvc	r2!, {r1, r2, r3, r5, r6, sl, sp, lr}^
     35c:	63726100 	cmnvs	r2, #0
     360:	72612f68 	rsbvc	r2, r1, #416	; 0x1a0
     364:	616d2f6d 	cmnvs	sp, sp, ror #30
     368:	732d6863 	teqvc	sp, #6488064	; 0x630000
     36c:	69786e75 	ldmdbvs	r8!, {r0, r2, r4, r5, r6, r9, sl, fp, sp, lr}^
     370:	2f6d702f 	svccs	0x006d702f
     374:	6e617473 	mcrvs	4, 3, r7, cr1, cr3, {3}
     378:	2f796264 	svccs	0x00796264
     37c:	00002e2e 	andeq	r2, r0, lr, lsr #28
     380:	6e617473 	mcrvs	4, 3, r7, cr1, cr3, {3}
     384:	5f796264 	svcpl	0x00796264
     388:	632e7269 	teqvs	lr, #-1879048186	; 0x90000006
     38c:	00000100 	andeq	r0, r0, r0, lsl #2
     390:	745f6d70 	ldrbvc	r6, [pc], #-3440	; 398 <__standby_start+0x398>
     394:	73657079 	cmnvc	r5, #121	; 0x79
     398:	0200682e 	andeq	r6, r0, #3014656	; 0x2e0000
     39c:	00000000 	andeq	r0, r0, r0
     3a0:	05440205 	strbeq	r0, [r4, #-517]	; 0x205
     3a4:	2303f000 	movwcs	pc, #12288	; 0x3000	; <UNPREDICTABLE>
     3a8:	11031401 	tstne	r3, r1, lsl #8
     3ac:	1103144a 	tstne	r3, sl, asr #8
     3b0:	1003144a 	andne	r1, r3, sl, asr #8
     3b4:	0402144a 	streq	r1, [r2], #-1098	; 0x44a
     3b8:	bf010100 	svclt	0x00010100
     3bc:	02000000 	andeq	r0, r0, #0
     3c0:	00008400 	andeq	r8, r0, r0, lsl #8
     3c4:	fb010200 	blx	40bce <__standby_start+0x40bce>
     3c8:	01000d0e 	tsteq	r0, lr, lsl #26
     3cc:	00010101 	andeq	r0, r1, r1, lsl #2
     3d0:	00010000 	andeq	r0, r1, r0
     3d4:	72610100 	rsbvc	r0, r1, #0
     3d8:	612f6863 	teqvs	pc, r3, ror #16
     3dc:	6d2f6d72 	stcvs	13, cr6, [pc, #-456]!	; 21c <__standby_start+0x21c>
     3e0:	2d686361 	stclcs	3, cr6, [r8, #-388]!	; 0xfffffe7c
     3e4:	786e7573 	stmdavc	lr!, {r0, r1, r4, r5, r6, r8, sl, ip, sp, lr}^
     3e8:	6d702f69 	ldclvs	15, cr2, [r0, #-420]!	; 0xfffffe5c
     3ec:	6174732f 	cmnvs	r4, pc, lsr #6
     3f0:	7962646e 	stmdbvc	r2!, {r1, r2, r3, r5, r6, sl, sp, lr}^
     3f4:	63726100 	cmnvs	r2, #0
     3f8:	72612f68 	rsbvc	r2, r1, #416	; 0x1a0
     3fc:	616d2f6d 	cmnvs	sp, sp, ror #30
     400:	732d6863 	teqvc	sp, #6488064	; 0x630000
     404:	69786e75 	ldmdbvs	r8!, {r0, r2, r4, r5, r6, r9, sl, fp, sp, lr}^
     408:	2f6d702f 	svccs	0x006d702f
     40c:	6e617473 	mcrvs	4, 3, r7, cr1, cr3, {3}
     410:	2f796264 	svccs	0x00796264
     414:	00002e2e 	andeq	r2, r0, lr, lsr #28
     418:	6e617473 	mcrvs	4, 3, r7, cr1, cr3, {3}
     41c:	5f796264 	svcpl	0x00796264
     420:	2e79656b 	cdpcs	5, 7, cr6, cr9, cr11, {3}
     424:	00010063 	andeq	r0, r1, r3, rrx
     428:	5f6d7000 	svcpl	0x006d7000
     42c:	65707974 	ldrbvs	r7, [r0, #-2420]!	; 0x974
     430:	00682e73 	rsbeq	r2, r8, r3, ror lr
     434:	73000002 	movwvc	r0, #2
     438:	646e6174 	strbtvs	r6, [lr], #-372	; 0x174
     43c:	6b5f7962 	blvs	17de9cc <__standby_start+0x17de9cc>
     440:	682e7965 	stmdavs	lr!, {r0, r2, r5, r6, r8, fp, ip, sp, lr}
     444:	00000100 	andeq	r0, r0, r0, lsl #2
     448:	02050000 	andeq	r0, r5, #0
     44c:	f0000564 			; <UNDEFINED> instruction: 0xf0000564
     450:	33012703 	movwcc	r2, #5891	; 0x1703
     454:	332b6947 	teqcc	fp, #1163264	; 0x11c000
     458:	2f2b3429 	svccs	0x002b3429
     45c:	2f2f2f4b 	svccs	0x002f2f4b
     460:	2f29332d 	svccs	0x0029332d
     464:	0f03312f 	svceq	0x0003312f
     468:	2b31132e 	blcs	c45128 <__standby_start+0xc45128>
     46c:	302f2d4b 	eorcc	r2, pc, fp, asr #26
     470:	132e0f03 	teqne	lr, #12
     474:	312d2f84 	smlawbcc	sp, r4, pc, r2	; <UNPREDICTABLE>
     478:	0004022f 	andeq	r0, r4, pc, lsr #4
     47c:	011b0101 	tsteq	fp, r1, lsl #2
     480:	00020000 	andeq	r0, r2, r0
     484:	00000099 	muleq	r0, r9, r0
     488:	0efb0102 	cdpeq	1, 15, cr0, cr11, cr2, {0}
     48c:	0101000d 	tsteq	r1, sp
     490:	00000101 	andeq	r0, r0, r1, lsl #2
     494:	00000100 	andeq	r0, r0, r0, lsl #2
     498:	63726101 	cmnvs	r2, #1073741824	; 0x40000000
     49c:	72612f68 	rsbvc	r2, r1, #416	; 0x1a0
     4a0:	616d2f6d 	cmnvs	sp, sp, ror #30
     4a4:	732d6863 	teqvc	sp, #6488064	; 0x630000
     4a8:	69786e75 	ldmdbvs	r8!, {r0, r2, r4, r5, r6, r9, sl, fp, sp, lr}^
     4ac:	2f6d702f 	svccs	0x006d702f
     4b0:	6e617473 	mcrvs	4, 3, r7, cr1, cr3, {3}
     4b4:	00796264 	rsbseq	r6, r9, r4, ror #4
     4b8:	68637261 	stmdavs	r3!, {r0, r5, r6, r9, ip, sp, lr}^
     4bc:	6d72612f 	ldfvse	f6, [r2, #-188]!	; 0xffffff44
     4c0:	63616d2f 	cmnvs	r1, #3008	; 0xbc0
     4c4:	75732d68 	ldrbvc	r2, [r3, #-3432]!	; 0xd68
     4c8:	2f69786e 	svccs	0x0069786e
     4cc:	732f6d70 	teqvc	pc, #7168	; 0x1c00
     4d0:	646e6174 	strbtvs	r6, [lr], #-372	; 0x174
     4d4:	2e2f7962 	cdpcs	9, 2, cr7, cr15, cr2, {3}
     4d8:	7300002e 	movwvc	r0, #46	; 0x2e
     4dc:	646e6174 	strbtvs	r6, [lr], #-372	; 0x174
     4e0:	705f7962 	subsvc	r7, pc, r2, ror #18
     4e4:	7265776f 	rsbvc	r7, r5, #29097984	; 0x1bc0000
     4e8:	0100632e 	tsteq	r0, lr, lsr #6
     4ec:	6d700000 	ldclvs	0, cr0, [r0, #-0]
     4f0:	7079745f 	rsbsvc	r7, r9, pc, asr r4
     4f4:	682e7365 	stmdavs	lr!, {r0, r2, r5, r6, r8, r9, ip, sp, lr}
     4f8:	00000200 	andeq	r0, r0, r0, lsl #4
     4fc:	6e617473 	mcrvs	4, 3, r7, cr1, cr3, {3}
     500:	5f796264 	svcpl	0x00796264
     504:	65776f70 	ldrbvs	r6, [r7, #-3952]!	; 0xf70
     508:	00682e72 	rsbeq	r2, r8, r2, ror lr
     50c:	73000001 	movwvc	r0, #1
     510:	646e6174 	strbtvs	r6, [lr], #-372	; 0x174
     514:	745f7962 	ldrbvc	r7, [pc], #-2402	; 51c <__standby_start+0x51c>
     518:	682e6977 	stmdavs	lr!, {r0, r1, r2, r4, r5, r6, r8, fp, sp, lr}
     51c:	00000100 	andeq	r0, r0, r0, lsl #2
     520:	02050000 	andeq	r0, r5, #0
     524:	f000060c 			; <UNDEFINED> instruction: 0xf000060c
     528:	0100c803 	tsteq	r0, r3, lsl #16
     52c:	03016a03 	movweq	r6, #6659	; 0x1a03
     530:	6a032e16 	bvs	cbd90 <__standby_start+0xcbd90>
     534:	4c2d9d4a 	stcmi	13, cr9, [sp], #-296	; 0xfffffed8
     538:	03482f2d 	movteq	r2, #36653	; 0x8f2d
     53c:	034a00c7 	movteq	r0, #41159	; 0xa0c7
     540:	034a7fba 	movteq	r7, #44986	; 0xafba
     544:	3f032e65 	svccc	0x00032e65
     548:	17034bba 			; <UNDEFINED> instruction: 0x17034bba
     54c:	804c3c08 	subhi	r3, ip, r8, lsl #24
     550:	322a3068 	eorcc	r3, sl, #104	; 0x68
     554:	2f2d2f67 	svccs	0x002d2f67
     558:	65032f65 	strvs	r2, [r3, #-3941]	; 0xf65
     55c:	67f3864a 	ldrbvs	r8, [r3, sl, asr #12]!
     560:	4d6e7d2d 	stclmi	13, cr7, [lr, #-180]!	; 0xffffff4c
     564:	032dd185 	teqeq	sp, #1073741857	; 0x40000021
     568:	a9039e29 	stmdbge	r3, {r0, r3, r5, r9, sl, fp, ip, pc}
     56c:	d703017f 	smlsdxle	r3, pc, r1, r0	; <UNPREDICTABLE>
     570:	a9032e00 	stmdbge	r3, {r9, sl, fp, sp}
     574:	2d9d667f 	ldccs	6, cr6, [sp, #508]	; 0x1fc
     578:	482f2d4c 	stmdami	pc!, {r2, r3, r6, r8, sl, fp, sp}	; <UNPREDICTABLE>
     57c:	4a00df03 	bmi	38190 <__standby_start+0x38190>
     580:	032e0b03 	teqeq	lr, #3072	; 0xc00
     584:	034a7f97 	movteq	r7, #44951	; 0xaf97
     588:	a02e00e1 	eorge	r0, lr, r1, ror #1
     58c:	312d2d68 	teqcc	sp, r8, ror #26
     590:	2c4e2a30 	vmovcs	s1, s2, r2, lr
     594:	302c322c 	eorcc	r3, ip, ip, lsr #4
     598:	01000802 	tsteq	r0, r2, lsl #16
     59c:	00016f01 	andeq	r6, r1, r1, lsl #30
     5a0:	84000200 	strhi	r0, [r0], #-512	; 0x200
     5a4:	02000000 	andeq	r0, r0, #0
     5a8:	0d0efb01 	vstreq	d15, [lr, #-4]
     5ac:	01010100 	mrseq	r0, (UNDEF: 17)
     5b0:	00000001 	andeq	r0, r0, r1
     5b4:	01000001 	tsteq	r0, r1
     5b8:	68637261 	stmdavs	r3!, {r0, r5, r6, r9, ip, sp, lr}^
     5bc:	6d72612f 	ldfvse	f6, [r2, #-188]!	; 0xffffff44
     5c0:	63616d2f 	cmnvs	r1, #3008	; 0xbc0
     5c4:	75732d68 	ldrbvc	r2, [r3, #-3432]!	; 0xd68
     5c8:	2f69786e 	svccs	0x0069786e
     5cc:	732f6d70 	teqvc	pc, #7168	; 0x1c00
     5d0:	646e6174 	strbtvs	r6, [lr], #-372	; 0x174
     5d4:	61007962 	tstvs	r0, r2, ror #18
     5d8:	2f686372 	svccs	0x00686372
     5dc:	2f6d7261 	svccs	0x006d7261
     5e0:	6863616d 	stmdavs	r3!, {r0, r2, r3, r5, r6, r8, sp, lr}^
     5e4:	6e75732d 	cdpvs	3, 7, cr7, cr5, cr13, {1}
     5e8:	702f6978 	eorvc	r6, pc, r8, ror r9	; <UNPREDICTABLE>
     5ec:	74732f6d 	ldrbtvc	r2, [r3], #-3949	; 0xf6d
     5f0:	62646e61 	rsbvs	r6, r4, #1552	; 0x610
     5f4:	2e2e2f79 	mcrcs	15, 1, r2, cr14, cr9, {3}
     5f8:	74730000 	ldrbtvc	r0, [r3], #-0
     5fc:	62646e61 	rsbvs	r6, r4, #1552	; 0x610
     600:	77745f79 			; <UNDEFINED> instruction: 0x77745f79
     604:	00632e69 	rsbeq	r2, r3, r9, ror #28
     608:	70000001 	andvc	r0, r0, r1
     60c:	79745f6d 	ldmdbvc	r4!, {r0, r2, r3, r5, r6, r8, r9, sl, fp, ip, lr}^
     610:	2e736570 	mrccs	5, 3, r6, cr3, cr0, {3}
     614:	00020068 	andeq	r0, r2, r8, rrx
     618:	61747300 	cmnvs	r4, r0, lsl #6
     61c:	7962646e 	stmdbvc	r2!, {r1, r2, r3, r5, r6, sl, sp, lr}^
     620:	6977745f 	ldmdbvs	r7!, {r0, r1, r2, r3, r4, r6, sl, ip, sp, lr}^
     624:	0100682e 	tsteq	r0, lr, lsr #16
     628:	00000000 	andeq	r0, r0, r0
     62c:	08640205 	stmdaeq	r4!, {r0, r2, r9}^
     630:	2e03f000 	cdpcs	0, 0, cr15, cr3, cr0, {0}
     634:	2a321301 	bcs	c85240 <__standby_start+0xc85240>
     638:	30302f4b 	eorscc	r2, r0, fp, asr #30
     63c:	322f2d2a 	eorcc	r2, pc, #2688	; 0xa80
     640:	01040200 	mrseq	r0, R12_usr
     644:	1003694b 	andne	r6, r3, fp, asr #18
     648:	2c4c3066 	mcrrcs	0, 6, r3, ip, cr6
     64c:	2c323184 	ldfcss	f3, [r2], #-528	; 0xfffffdf0
     650:	0368302c 	cmneq	r8, #44	; 0x2c
     654:	172e00c2 	strne	r0, [lr, -r2, asr #1]!
     658:	2f683329 	svccs	0x00683329
     65c:	2f660b03 	svccs	0x00660b03
     660:	02004c2d 	andeq	r4, r0, #11520	; 0x2d00
     664:	2e060204 	cdpcs	2, 0, cr0, cr6, cr4, {0}
     668:	01040200 	mrseq	r0, R12_usr
     66c:	4e67064a 	cdpmi	6, 6, cr0, cr7, cr10, {2}
     670:	2c306c2f 	ldccs	12, cr6, [r0], #-188	; 0xffffff44
     674:	0200682f 	andeq	r6, r0, #3080192	; 0x2f0000
     678:	2e060204 	cdpcs	2, 0, cr0, cr6, cr4, {0}
     67c:	01040200 	mrseq	r0, R12_usr
     680:	4e67064a 	cdpmi	6, 6, cr0, cr7, cr10, {2}
     684:	2d306c2f 	ldccs	12, cr6, [r0, #-188]!	; 0xffffff44
     688:	04020068 	streq	r0, [r2], #-104	; 0x68
     68c:	002e0602 	eoreq	r0, lr, r2, lsl #12
     690:	4a010402 	bmi	416a0 <__standby_start+0x416a0>
     694:	2f4e6706 	svccs	0x004e6706
     698:	4a14036b 	bmi	50144c <__standby_start+0x50144c>
     69c:	00682d2f 	rsbeq	r2, r8, pc, lsr #26
     6a0:	06020402 	streq	r0, [r2], -r2, lsl #8
     6a4:	0402002e 	streq	r0, [r2], #-46	; 0x2e
     6a8:	67064a01 	strvs	r4, [r6, -r1, lsl #20]
     6ac:	306c2f4e 	rsbcc	r2, ip, lr, asr #30
     6b0:	00682f2c 	rsbeq	r2, r8, ip, lsr #30
     6b4:	06020402 	streq	r0, [r2], -r2, lsl #8
     6b8:	0402002e 	streq	r0, [r2], #-46	; 0x2e
     6bc:	67064a01 	strvs	r4, [r6, -r1, lsl #20]
     6c0:	2f6c2f4e 	svccs	0x006c2f4e
     6c4:	02004c2d 	andeq	r4, r0, #11520	; 0x2d00
     6c8:	2e060204 	cdpcs	2, 0, cr0, cr6, cr4, {0}
     6cc:	01040200 	mrseq	r0, R12_usr
     6d0:	4e67064a 	cdpmi	6, 6, cr0, cr7, cr10, {2}
     6d4:	8b032f4b 	blhi	cc408 <__standby_start+0xcc408>
     6d8:	4f032e7f 	svcmi	0x00032e7f
     6dc:	68302c9e 	ldmdavs	r0!, {r1, r2, r3, r4, r7, sl, fp, sp}
     6e0:	ae039f4d 	cdpge	15, 0, cr9, cr3, cr13, {2}
     6e4:	d8036601 	stmdale	r3, {r0, r9, sl, sp, lr}
     6e8:	499f4a7e 	ldmibmi	pc, {r1, r2, r3, r4, r5, r6, r9, fp, lr}	; <UNPREDICTABLE>
     6ec:	00dc0351 	sbcseq	r0, ip, r1, asr r3
     6f0:	2f2c30ba 	svccs	0x002c30ba
     6f4:	04020068 	streq	r0, [r2], #-104	; 0x68
     6f8:	002e0602 	eoreq	r0, lr, r2, lsl #12
     6fc:	4a010402 	bmi	4170c <__standby_start+0x4170c>
     700:	2f4e6706 	svccs	0x004e6706
     704:	2e7fb903 	cdpcs	9, 7, cr11, cr15, cr3, {0}
     708:	02825403 	addeq	r5, r2, #50331648	; 0x3000000
     70c:	01010006 	tsteq	r1, r6
     710:	00000095 	muleq	r0, r5, r0
     714:	00730002 	rsbseq	r0, r3, r2
     718:	01020000 	mrseq	r0, (UNDEF: 2)
     71c:	000d0efb 	strdeq	r0, [sp], -fp
     720:	01010101 	tsteq	r1, r1, lsl #2
     724:	01000000 	mrseq	r0, (UNDEF: 0)
     728:	61010000 	mrsvs	r0, (UNDEF: 1)
     72c:	2f686372 	svccs	0x00686372
     730:	2f6d7261 	svccs	0x006d7261
     734:	6863616d 	stmdavs	r3!, {r0, r2, r3, r5, r6, r8, sp, lr}^
     738:	6e75732d 	cdpvs	3, 7, cr7, cr5, cr13, {1}
     73c:	702f6978 	eorvc	r6, pc, r8, ror r9	; <UNPREDICTABLE>
     740:	74732f6d 	ldrbtvc	r2, [r3], #-3949	; 0xf6d
     744:	62646e61 	rsbvs	r6, r4, #1552	; 0x610
     748:	72610079 	rsbvc	r0, r1, #121	; 0x79
     74c:	612f6863 	teqvs	pc, r3, ror #16
     750:	6d2f6d72 	stcvs	13, cr6, [pc, #-456]!	; 590 <__standby_start+0x590>
     754:	2d686361 	stclcs	3, cr6, [r8, #-388]!	; 0xfffffe7c
     758:	786e7573 	stmdavc	lr!, {r0, r1, r4, r5, r6, r8, sl, ip, sp, lr}^
     75c:	6d702f69 	ldclvs	15, cr2, [r0, #-420]!	; 0xfffffe5c
     760:	6174732f 	cmnvs	r4, pc, lsr #6
     764:	7962646e 	stmdbvc	r2!, {r1, r2, r3, r5, r6, sl, sp, lr}^
     768:	002e2e2f 	eoreq	r2, lr, pc, lsr #28
     76c:	61747300 	cmnvs	r4, r0, lsl #6
     770:	7962646e 	stmdbvc	r2!, {r1, r2, r3, r5, r6, sl, sp, lr}^
     774:	6273755f 	rsbsvs	r7, r3, #398458880	; 0x17c00000
     778:	0100632e 	tsteq	r0, lr, lsr #6
     77c:	6d700000 	ldclvs	0, cr0, [r0, #-0]
     780:	7079745f 	rsbsvc	r7, r9, pc, asr r4
     784:	682e7365 	stmdavs	lr!, {r0, r2, r5, r6, r8, r9, ip, sp, lr}
     788:	00000200 	andeq	r0, r0, r0, lsl #4
     78c:	02050000 	andeq	r0, r5, #0
     790:	f0000ba8 			; <UNDEFINED> instruction: 0xf0000ba8
     794:	14012603 	strne	r2, [r1], #-1539	; 0x603
     798:	144a0f03 	strbne	r0, [sl], #-3843	; 0xf03
     79c:	144a1203 	strbne	r1, [sl], #-515	; 0x203
     7a0:	144a1103 	strbne	r1, [sl], #-259	; 0x103
     7a4:	01000402 	tsteq	r0, r2, lsl #8
     7a8:	00012901 	andeq	r2, r1, r1, lsl #18
     7ac:	80000200 	andhi	r0, r0, r0, lsl #4
     7b0:	02000000 	andeq	r0, r0, #0
     7b4:	0d0efb01 	vstreq	d15, [lr, #-4]
     7b8:	01010100 	mrseq	r0, (UNDEF: 17)
     7bc:	00000001 	andeq	r0, r0, r1
     7c0:	01000001 	tsteq	r0, r1
     7c4:	68637261 	stmdavs	r3!, {r0, r5, r6, r9, ip, sp, lr}^
     7c8:	6d72612f 	ldfvse	f6, [r2, #-188]!	; 0xffffff44
     7cc:	63616d2f 	cmnvs	r1, #3008	; 0xbc0
     7d0:	75732d68 	ldrbvc	r2, [r3, #-3432]!	; 0xd68
     7d4:	2f69786e 	svccs	0x0069786e
     7d8:	732f6d70 	teqvc	pc, #7168	; 0x1c00
     7dc:	646e6174 	strbtvs	r6, [lr], #-372	; 0x174
     7e0:	2e2f7962 	cdpcs	9, 2, cr7, cr15, cr2, {3}
     7e4:	6972612f 	ldmdbvs	r2!, {r0, r1, r2, r3, r5, r8, sp, lr}^
     7e8:	69006373 	stmdbvs	r0, {r0, r1, r4, r5, r6, r8, r9, sp, lr}
     7ec:	756c636e 	strbvc	r6, [ip, #-878]!	; 0x36e
     7f0:	6c2f6564 	cfstr32vs	mvfx6, [pc], #-400	; 668 <__standby_start+0x668>
     7f4:	78756e69 	ldmdavc	r5!, {r0, r3, r5, r6, r9, sl, fp, sp, lr}^
     7f8:	776f702f 	strbvc	r7, [pc, -pc, lsr #32]!
     7fc:	00007265 	andeq	r7, r0, r5, ror #4
     800:	6e617473 	mcrvs	4, 3, r7, cr1, cr3, {3}
     804:	5f796264 	svcpl	0x00796264
     808:	73697261 	cmnvc	r9, #268435462	; 0x10000006
     80c:	00632e63 	rsbeq	r2, r3, r3, ror #28
     810:	61000001 	tstvs	r0, r1
     814:	6d705f77 	ldclvs	15, cr5, [r0, #-476]!	; 0xfffffe24
     818:	0200682e 	andeq	r6, r0, #3014656	; 0x2e0000
     81c:	72610000 	rsbvc	r0, r1, #0
     820:	5f637369 	svcpl	0x00637369
     824:	7373656d 	cmnvc	r3, #457179136	; 0x1b400000
     828:	73656761 	cmnvc	r5, #25427968	; 0x1840000
     82c:	0100682e 	tsteq	r0, lr, lsr #16
     830:	00000000 	andeq	r0, r0, r0
     834:	0bc80205 	bleq	ff201050 <__bss_end+0xf1fda34>
     838:	1903f000 	stmdbne	r3, {ip, sp, lr, pc}
     83c:	302c1401 	eorcc	r1, ip, r1, lsl #8
     840:	31313169 	teqcc	r1, r9, ror #2
     844:	31304d31 	teqcc	r0, r1, lsr sp
     848:	296b3031 	stmdbcs	fp!, {r0, r4, r5, ip, sp}^
     84c:	0b033130 	bleq	ccd14 <__standby_start+0xccd14>
     850:	4b332e2e 	blmi	ccc110 <__standby_start+0xccc110>
     854:	4f2d4f50 	svcmi	0x002d4f50
     858:	32312f2a 	eorscc	r2, r1, #168	; 0xa8
     85c:	4a75034c 	bmi	1d41594 <__standby_start+0x1d41594>
     860:	2d302933 	ldccs	9, cr2, [r0, #-204]!	; 0xffffff34
     864:	0334312f 	teqeq	r4, #-1073741813	; 0xc000000b
     868:	14034a6d 	strne	r4, [r3], #-2669	; 0xa6d
     86c:	2e09032e 	cdpcs	3, 0, cr0, cr9, cr14, {1}
     870:	332c6832 	teqcc	ip, #3276800	; 0x320000
     874:	322c302f 	eorcc	r3, ip, #47	; 0x2f
     878:	02004b68 	andeq	r4, r0, #106496	; 0x1a000
     87c:	00670104 	rsbeq	r0, r7, r4, lsl #2
     880:	2d010402 	cfstrscs	mvf0, [r1, #-8]
     884:	2d2f6d4d 	stccs	13, cr6, [pc, #-308]!	; 758 <__standby_start+0x758>
     888:	33512a2f 	cmpcc	r1, #192512	; 0x2f000
     88c:	324a0903 	subcc	r0, sl, #49152	; 0xc000
     890:	2b2f6850 	blcs	bda9d8 <__standby_start+0xbda9d8>
     894:	694e2f34 	stmdbvs	lr, {r2, r4, r5, r8, r9, sl, fp, sp}^
     898:	2c2f2f2d 	stccs	15, cr2, [pc], #-180	; 7ec <__standby_start+0x7ec>
     89c:	04020030 	streq	r0, [r2], #-48	; 0x30
     8a0:	02004b01 	andeq	r4, r0, #1024	; 0x400
     8a4:	4d2d0104 	stfmis	f0, [sp, #-16]!
     8a8:	2f2d2f6e 	svccs	0x002d2f6e
     8ac:	03325229 	teqeq	r2, #-1879048190	; 0x90000002
     8b0:	22032e67 	andcs	r2, r3, #1648	; 0x670
     8b4:	4b332e66 	blmi	ccc254 <__standby_start+0xccc254>
     8b8:	0b032c30 	bleq	cb980 <__standby_start+0xcb980>
     8bc:	2f2d2f2e 	svccs	0x002d2f2e
     8c0:	312b3167 	teqcc	fp, r7, ror #2
     8c4:	4a68034e 	bmi	1a01604 <__standby_start+0x1a01604>
     8c8:	342e1803 	strtcc	r1, [lr], #-2051	; 0x803
     8cc:	2f2d2f45 	svccs	0x002d2f45
     8d0:	00040232 	andeq	r0, r4, r2, lsr r2
     8d4:	01b20101 			; <UNDEFINED> instruction: 0x01b20101
     8d8:	00020000 	andeq	r0, r2, r0
     8dc:	000000d6 	ldrdeq	r0, [r0], -r6
     8e0:	0efb0102 	cdpeq	1, 15, cr0, cr11, cr2, {0}
     8e4:	0101000d 	tsteq	r1, sp
     8e8:	00000101 	andeq	r0, r0, r1, lsl #2
     8ec:	00000100 	andeq	r0, r0, r0, lsl #2
     8f0:	63726101 	cmnvs	r2, #1073741824	; 0x40000000
     8f4:	72612f68 	rsbvc	r2, r1, #416	; 0x1a0
     8f8:	616d2f6d 	cmnvs	sp, sp, ror #30
     8fc:	732d6863 	teqvc	sp, #6488064	; 0x630000
     900:	69786e75 	ldmdbvs	r8!, {r0, r2, r4, r5, r6, r9, sl, fp, sp, lr}^
     904:	2f6d702f 	svccs	0x006d702f
     908:	6e617473 	mcrvs	4, 3, r7, cr1, cr3, {3}
     90c:	2f796264 	svccs	0x00796264
     910:	72612f2e 	rsbvc	r2, r1, #184	; 0xb8
     914:	00637369 	rsbeq	r7, r3, r9, ror #6
     918:	68637261 	stmdavs	r3!, {r0, r5, r6, r9, ip, sp, lr}^
     91c:	6d72612f 	ldfvse	f6, [r2, #-188]!	; 0xffffff44
     920:	63616d2f 	cmnvs	r1, #3008	; 0xbc0
     924:	75732d68 	ldrbvc	r2, [r3, #-3432]!	; 0xd68
     928:	2f69786e 	svccs	0x0069786e
     92c:	732f6d70 	teqvc	pc, #7168	; 0x1c00
     930:	646e6174 	strbtvs	r6, [lr], #-372	; 0x174
     934:	2e2f7962 	cdpcs	9, 2, cr7, cr15, cr2, {3}
     938:	6972612f 	ldmdbvs	r2!, {r0, r1, r2, r3, r5, r8, sp, lr}^
     93c:	2e2f6373 	mcrcs	3, 1, r6, cr15, cr3, {3}
     940:	2f2e2e2f 	svccs	0x002e2e2f
     944:	69002e2e 	stmdbvs	r0, {r1, r2, r3, r5, r9, sl, fp, sp}
     948:	756c636e 	strbvc	r6, [ip, #-878]!	; 0x36e
     94c:	6c2f6564 	cfstr32vs	mvfx6, [pc], #-400	; 7c4 <__standby_start+0x7c4>
     950:	78756e69 	ldmdavc	r5!, {r0, r3, r5, r6, r9, sl, fp, sp, lr}^
     954:	6972612f 	ldmdbvs	r2!, {r0, r1, r2, r3, r5, r8, sp, lr}^
     958:	00006373 	andeq	r6, r0, r3, ror r3
     95c:	73697261 	cmnvc	r9, #268435462	; 0x10000006
     960:	77685f63 	strbvc	r5, [r8, -r3, ror #30]!
     964:	6267736d 	rsbvs	r7, r7, #-1275068415	; 0xb4000001
     968:	632e786f 	teqvs	lr, #7274496	; 0x6f0000
     96c:	00000100 	andeq	r0, r0, r0, lsl #2
     970:	745f6d70 	ldrbvc	r6, [pc], #-3440	; 978 <__standby_start+0x978>
     974:	73657079 	cmnvc	r5, #121	; 0x79
     978:	0200682e 	andeq	r6, r0, #3014656	; 0x2e0000
     97c:	72610000 	rsbvc	r0, r1, #0
     980:	5f637369 	svcpl	0x00637369
     984:	7373656d 	cmnvc	r3, #457179136	; 0x1b400000
     988:	73656761 	cmnvc	r5, #25427968	; 0x1840000
     98c:	0100682e 	tsteq	r0, lr, lsr #16
     990:	77680000 	strbvc	r0, [r8, -r0]!
     994:	6267736d 	rsbvs	r7, r7, #-1275068415	; 0xb4000001
     998:	682e786f 	stmdavs	lr!, {r0, r1, r2, r3, r5, r6, fp, ip, sp, lr}
     99c:	00000300 	andeq	r0, r0, r0, lsl #6
     9a0:	6e617473 	mcrvs	4, 3, r7, cr1, cr3, {3}
     9a4:	5f796264 	svcpl	0x00796264
     9a8:	73697261 	cmnvc	r9, #268435462	; 0x10000006
     9ac:	2e695f63 	cdpcs	15, 6, cr5, cr9, cr3, {3}
     9b0:	00010068 	andeq	r0, r1, r8, rrx
     9b4:	05000000 	streq	r0, [r0, #-0]
     9b8:	000e3002 	andeq	r3, lr, r2
     9bc:	012d03f0 	strdeq	r0, [sp, -r0]!	; <UNPREDICTABLE>
     9c0:	4a0e0314 	bmi	381618 <__standby_start+0x381618>
     9c4:	4a100314 	bmi	40161c <__standby_start+0x40161c>
     9c8:	2d322b15 	fldmdbxcs	r2!, {d2-d11}	;@ Deprecated
     9cc:	00483031 	subeq	r3, r8, r1, lsr r0
     9d0:	4c010402 	cfstrsmi	mvf0, [r1], {2}
     9d4:	682933a2 	stmdavs	r9!, {r1, r5, r7, r8, r9, ip, sp}
     9d8:	01040200 	mrseq	r0, R12_usr
     9dc:	034ca34d 	movteq	sl, #49997	; 0xc34d
     9e0:	02006617 	andeq	r6, r0, #24117248	; 0x1700000
     9e4:	70030104 	andvc	r0, r3, r4, lsl #2
     9e8:	4d84a34a 	stcmi	3, cr10, [r4, #296]	; 0x128
     9ec:	2b158930 	blcs	562eb4 <__standby_start+0x562eb4>
     9f0:	04020031 	streq	r0, [r2], #-49	; 0x31
     9f4:	31da4c01 	bicscc	r4, sl, r1, lsl #24
     9f8:	1203682b 	andne	r6, r3, #2818048	; 0x2b0000
     9fc:	6672034a 	ldrbtvs	r0, [r2], -sl, asr #6
     a00:	034a0d03 	movteq	r0, #44291	; 0xad03
     a04:	02002e73 	andeq	r2, r0, #1840	; 0x730
     a08:	db2f0104 	blle	bc0e20 <__standby_start+0xbc0e20>
     a0c:	4b682b31 	blmi	1a0b6d8 <__standby_start+0x1a0b6d8>
     a10:	154a1403 	strbne	r1, [sl, #-1027]	; 0x403
     a14:	2d2f312b 	stfcss	f3, [pc, #-172]!	; 970 <__standby_start+0x970>
     a18:	7a034f4b 	bvc	d474c <__standby_start+0xd474c>
     a1c:	67674b2e 	strbvs	r4, [r7, -lr, lsr #22]!
     a20:	4a0f034d 	bmi	3c175c <__standby_start+0x3c175c>
     a24:	30312b15 	eorscc	r2, r1, r5, lsl fp
     a28:	302b312c 	eorcc	r3, fp, ip, lsr #2
     a2c:	660f032f 	strvs	r0, [pc], -pc, lsr #6
     a30:	0e03bd13 	mcreq	13, 0, fp, cr3, cr3, {0}
     a34:	322a164a 	eorcc	r1, sl, #77594624	; 0x4a00000
     a38:	2f034b84 	svccs	0x00034b84
     a3c:	2e510366 	cdpcs	3, 5, cr0, cr1, cr6, {3}
     a40:	4b2e2f03 	blmi	b8c654 <__standby_start+0xb8c654>
     a44:	4a54032d 	bmi	1501700 <__standby_start+0x1501700>
     a48:	6003314c 	andvs	r3, r3, ip, asr #2
     a4c:	00c3034a 	sbceq	r0, r3, sl, asr #6
     a50:	4a690382 	bmi	1a41860 <__standby_start+0x1a41860>
     a54:	034a1603 	movteq	r1, #42499	; 0xa603
     a58:	4b302e6a 	blmi	c0c408 <__standby_start+0xc0c408>
     a5c:	03661803 	cmneq	r6, #196608	; 0x30000
     a60:	18032e68 	stmdane	r3, {r3, r5, r6, r9, sl, fp, sp}
     a64:	032d4b2e 	teqeq	sp, #47104	; 0xb800
     a68:	312b4a6b 	teqcc	fp, fp, ror #20
     a6c:	49033130 	stmdbmi	r3, {r4, r5, r8, ip, sp}
     a70:	823f034a 	eorshi	r0, pc, #671088641	; 0x28000001
     a74:	032e6603 	teqeq	lr, #3145728	; 0x300000
     a78:	00136621 	andseq	r6, r3, r1, lsr #12
     a7c:	9f010402 	svcls	0x00010402
     a80:	01040200 	mrseq	r0, R12_usr
     a84:	022f892b 	eoreq	r8, pc, #704512	; 0xac000
     a88:	01010004 	tsteq	r1, r4
     a8c:	0000007d 	andeq	r0, r0, sp, ror r0
     a90:	00500002 	subseq	r0, r0, r2
     a94:	01020000 	mrseq	r0, (UNDEF: 2)
     a98:	000d0efb 	strdeq	r0, [sp], -fp
     a9c:	01010101 	tsteq	r1, r1, lsl #2
     aa0:	01000000 	mrseq	r0, (UNDEF: 0)
     aa4:	61010000 	mrsvs	r0, (UNDEF: 1)
     aa8:	2f686372 	svccs	0x00686372
     aac:	2f6d7261 	svccs	0x006d7261
     ab0:	6863616d 	stmdavs	r3!, {r0, r2, r3, r5, r6, r8, sp, lr}^
     ab4:	6e75732d 	cdpvs	3, 7, cr7, cr5, cr13, {1}
     ab8:	702f6978 	eorvc	r6, pc, r8, ror r9	; <UNPREDICTABLE>
     abc:	74732f6d 	ldrbtvc	r2, [r3], #-3949	; 0xf6d
     ac0:	62646e61 	rsbvs	r6, r4, #1552	; 0x610
     ac4:	2f2e2f79 	svccs	0x002e2f79
     ac8:	73697261 	cmnvc	r9, #268435462	; 0x10000006
     acc:	61000063 	tstvs	r0, r3, rrx
     ad0:	63736972 	cmnvs	r3, #1867776	; 0x1c8000
     ad4:	7377685f 	cmnvc	r7, #6225920	; 0x5f0000
     ad8:	6c6e6970 	stclvs	9, cr6, [lr], #-448	; 0xfffffe40
     adc:	2e6b636f 	cdpcs	3, 6, cr6, cr11, cr15, {3}
     ae0:	00010063 	andeq	r0, r1, r3, rrx
     ae4:	05000000 	streq	r0, [r0, #-0]
     ae8:	00116802 	andseq	r6, r1, r2, lsl #16
     aec:	012303f0 	strdeq	r0, [r3, -r0]!	; <UNPREDICTABLE>
     af0:	4a0e0314 	bmi	381748 <__standby_start+0x381748>
     af4:	4a0e0314 	bmi	38174c <__standby_start+0x38174c>
     af8:	04020001 	streq	r0, [r2], #-1
     afc:	09038401 	stmdbeq	r3, {r0, sl, pc}
     b00:	4a0e0366 	bmi	3818a0 <__standby_start+0x3818a0>
     b04:	4d2b8514 	cfstr32mi	mvfx8, [fp, #-80]!	; 0xffffffb0
     b08:	01000202 	tsteq	r0, r2, lsl #4
     b0c:	0000cc01 	andeq	ip, r0, r1, lsl #24
     b10:	7e000200 	cdpvc	2, 0, cr0, cr0, cr0, {0}
     b14:	02000000 	andeq	r0, r0, #0
     b18:	0d0efb01 	vstreq	d15, [lr, #-4]
     b1c:	01010100 	mrseq	r0, (UNDEF: 17)
     b20:	00000001 	andeq	r0, r0, r1
     b24:	01000001 	tsteq	r0, r1
     b28:	68637261 	stmdavs	r3!, {r0, r5, r6, r9, ip, sp, lr}^
     b2c:	6d72612f 	ldfvse	f6, [r2, #-188]!	; 0xffffff44
     b30:	63616d2f 	cmnvs	r1, #3008	; 0xbc0
     b34:	75732d68 	ldrbvc	r2, [r3, #-3432]!	; 0xd68
     b38:	2f69786e 	svccs	0x0069786e
     b3c:	732f6d70 	teqvc	pc, #7168	; 0x1c00
     b40:	646e6174 	strbtvs	r6, [lr], #-372	; 0x174
     b44:	2e2f7962 	cdpcs	9, 2, cr7, cr15, cr2, {3}
     b48:	6972612f 	ldmdbvs	r2!, {r0, r1, r2, r3, r5, r8, sp, lr}^
     b4c:	00006373 	andeq	r6, r0, r3, ror r3
     b50:	73697261 	cmnvc	r9, #268435462	; 0x10000006
     b54:	656d5f63 	strbvs	r5, [sp, #-3939]!	; 0xf63
     b58:	67617373 			; <UNDEFINED> instruction: 0x67617373
     b5c:	616d5f65 	cmnvs	sp, r5, ror #30
     b60:	6567616e 	strbvs	r6, [r7, #-366]!	; 0x16e
     b64:	00632e72 	rsbeq	r2, r3, r2, ror lr
     b68:	61000001 	tstvs	r0, r1
     b6c:	63736972 	cmnvs	r3, #1867776	; 0x1c8000
     b70:	73656d5f 	cmnvc	r5, #6080	; 0x17c0
     b74:	65676173 	strbvs	r6, [r7, #-371]!	; 0x173
     b78:	00682e73 	rsbeq	r2, r8, r3, ror lr
     b7c:	73000001 	movwvc	r0, #1
     b80:	646e6174 	strbtvs	r6, [lr], #-372	; 0x174
     b84:	615f7962 	cmpvs	pc, r2, ror #18
     b88:	63736972 	cmnvs	r3, #1867776	; 0x1c8000
     b8c:	682e695f 	stmdavs	lr!, {r0, r1, r2, r3, r4, r6, r8, fp, sp, lr}
     b90:	00000100 	andeq	r0, r0, r0, lsl #2
     b94:	02050000 	andeq	r0, r5, #0
     b98:	f00011bc 			; <UNDEFINED> instruction: 0xf00011bc
     b9c:	14012803 	strne	r2, [r1], #-2051	; 0x803
     ba0:	4d2f2aa2 	vstmdbmi	pc!, {s4-s165}
     ba4:	142e0e03 	strtne	r0, [lr], #-3587	; 0xe03
     ba8:	334a0f03 	movtcc	r0, #44803	; 0xaf03
     bac:	4b4f3329 	blmi	13cd858 <__standby_start+0x13cd858>
     bb0:	7703fa67 	strvc	pc, [r3, -r7, ror #20]
     bb4:	4a0d032e 	bmi	341874 <__standby_start+0x341874>
     bb8:	31827403 	orrcc	r7, r2, r3, lsl #8
     bbc:	032e0903 	teqeq	lr, #49152	; 0xc000
     bc0:	12032e77 	andne	r2, r3, #1904	; 0x770
     bc4:	2e77032e 	cdpcs	3, 7, cr0, cr7, cr14, {1}
     bc8:	2f2b3136 	svccs	0x002b3136
     bcc:	4a100330 	bmi	401894 <__standby_start+0x401894>
     bd0:	4b312b31 	blmi	c4b89c <__standby_start+0xc4b89c>
     bd4:	2d302d4c 	ldccs	13, cr2, [r0, #-304]!	; 0xfffffed0
     bd8:	01000202 	tsteq	r0, r2, lsl #4
     bdc:	0000b501 	andeq	fp, r0, r1, lsl #10
     be0:	53000200 	movwpl	r0, #512	; 0x200
     be4:	02000000 	andeq	r0, r0, #0
     be8:	0d0efb01 	vstreq	d15, [lr, #-4]
     bec:	01010100 	mrseq	r0, (UNDEF: 17)
     bf0:	00000001 	andeq	r0, r0, r1
     bf4:	01000001 	tsteq	r0, r1
     bf8:	68637261 	stmdavs	r3!, {r0, r5, r6, r9, ip, sp, lr}^
     bfc:	6d72612f 	ldfvse	f6, [r2, #-188]!	; 0xffffff44
     c00:	63616d2f 	cmnvs	r1, #3008	; 0xbc0
     c04:	75732d68 	ldrbvc	r2, [r3, #-3432]!	; 0xd68
     c08:	2f69786e 	svccs	0x0069786e
     c0c:	732f6d70 	teqvc	pc, #7168	; 0x1c00
     c10:	646e6174 	strbtvs	r6, [lr], #-372	; 0x174
     c14:	2e2f7962 	cdpcs	9, 2, cr7, cr15, cr2, {3}
     c18:	002e2e2f 	eoreq	r2, lr, pc, lsr #28
     c1c:	5f6d7000 	svcpl	0x006d7000
     c20:	75626564 	strbvc	r6, [r2, #-1380]!	; 0x564
     c24:	00632e67 	rsbeq	r2, r3, r7, ror #28
     c28:	70000001 	andvc	r0, r0, r1
     c2c:	79745f6d 	ldmdbvc	r4!, {r0, r2, r3, r5, r6, r8, r9, sl, fp, ip, lr}^
     c30:	2e736570 	mrccs	5, 3, r6, cr3, cr0, {3}
     c34:	00010068 	andeq	r0, r1, r8, rrx
     c38:	05000000 	streq	r0, [r0, #-0]
     c3c:	0012ac02 	andseq	sl, r2, r2, lsl #24
     c40:	010b03f0 	strdeq	r0, [fp, -r0]
     c44:	04020030 	streq	r0, [r2], #-48	; 0x30
     c48:	516a4b01 	cmnpl	sl, r1, lsl #22
     c4c:	0319361a 	tsteq	r9, #27262976	; 0x1a00000
     c50:	142e00fd 	strtne	r0, [lr], #-253	; 0xfd
     c54:	16311431 			; <UNDEFINED> instruction: 0x16311431
     c58:	311431db 			; <UNDEFINED> instruction: 0x311431db
     c5c:	672f2d2f 	strvs	r2, [pc, -pc, lsr #26]!
     c60:	134d302f 	movtne	r3, #53295	; 0xd02f
     c64:	312e3167 	teqcc	lr, r7, ror #2
     c68:	9d2f312b 	stflss	f3, [pc, #-172]!	; bc4 <__standby_start+0xbc4>
     c6c:	2d2f4d4f 	stccs	13, cr4, [pc, #-316]!	; b38 <__standby_start+0xb38>
     c70:	2f4d4c2f 	svccs	0x004d4c2f
     c74:	034c2f2d 	movteq	r2, #53037	; 0xcf2d
     c78:	a1144a09 	tstge	r4, r9, lsl #20
     c7c:	2f671631 	svccs	0x00671631
     c80:	68153131 	ldmdavs	r5, {r0, r4, r5, r8, ip, sp}
     c84:	3034312f 	eorscc	r3, r4, pc, lsr #2
     c88:	302a4c4c 	eorcc	r4, sl, ip, asr #24
     c8c:	312c312f 	teqcc	ip, pc, lsr #2
     c90:	00020231 	andeq	r0, r2, r1, lsr r2
     c94:	01030101 	tsteq	r3, r1, lsl #2
     c98:	00020000 	andeq	r0, r2, r0
     c9c:	00000089 	andeq	r0, r0, r9, lsl #1
     ca0:	0efb0102 	cdpeq	1, 15, cr0, cr11, cr2, {0}
     ca4:	0101000d 	tsteq	r1, sp
     ca8:	00000101 	andeq	r0, r0, r1, lsl #2
     cac:	00000100 	andeq	r0, r0, r0, lsl #2
     cb0:	63726101 	cmnvs	r2, #1073741824	; 0x40000000
     cb4:	72612f68 	rsbvc	r2, r1, #416	; 0x1a0
     cb8:	616d2f6d 	cmnvs	sp, sp, ror #30
     cbc:	732d6863 	teqvc	sp, #6488064	; 0x630000
     cc0:	69786e75 	ldmdbvs	r8!, {r0, r2, r4, r5, r6, r9, sl, fp, sp, lr}^
     cc4:	2f6d702f 	svccs	0x006d702f
     cc8:	6e617473 	mcrvs	4, 3, r7, cr1, cr3, {3}
     ccc:	2f796264 	svccs	0x00796264
     cd0:	2e2e2f2e 	cdpcs	15, 2, cr2, cr14, cr14, {1}
     cd4:	63726100 	cmnvs	r2, #0
     cd8:	72612f68 	rsbvc	r2, r1, #416	; 0x1a0
     cdc:	616d2f6d 	cmnvs	sp, sp, ror #30
     ce0:	732d6863 	teqvc	sp, #6488064	; 0x630000
     ce4:	69786e75 	ldmdbvs	r8!, {r0, r2, r4, r5, r6, r9, sl, fp, sp, lr}^
     ce8:	2f6d702f 	svccs	0x006d702f
     cec:	6e617473 	mcrvs	4, 3, r7, cr1, cr3, {3}
     cf0:	2f796264 	svccs	0x00796264
     cf4:	2e2e2f2e 	cdpcs	15, 2, cr2, cr14, cr14, {1}
     cf8:	00002e2f 	andeq	r2, r0, pc, lsr #28
     cfc:	5f6d656d 	svcpl	0x006d656d
     d00:	696d6974 	stmdbvs	sp!, {r2, r4, r5, r6, r8, fp, sp, lr}^
     d04:	632e676e 	teqvs	lr, #28835840	; 0x1b80000
     d08:	00000100 	andeq	r0, r0, r0, lsl #2
     d0c:	745f6d70 	ldrbvc	r6, [pc], #-3440	; d14 <__standby_start+0xd14>
     d10:	73657079 	cmnvc	r5, #121	; 0x79
     d14:	0100682e 	tsteq	r0, lr, lsr #16
     d18:	6d700000 	ldclvs	0, cr0, [r0, #-0]
     d1c:	6265645f 	rsbvs	r6, r5, #1593835520	; 0x5f000000
     d20:	682e6775 	stmdavs	lr!, {r0, r2, r4, r5, r6, r8, r9, sl, sp, lr}
     d24:	00000200 	andeq	r0, r0, r0, lsl #4
     d28:	02050000 	andeq	r0, r5, #0
     d2c:	f0001424 			; <UNDEFINED> instruction: 0xf0001424
     d30:	14010b03 	strne	r0, [r1], #-2819	; 0xb03
     d34:	2f660903 	svccs	0x00660903
     d38:	4d323130 	ldfmis	f3, [r2, #-192]!	; 0xffffff40
     d3c:	85143131 	ldrhi	r3, [r4, #-305]	; 0x131
     d40:	8515314c 	ldrhi	r3, [r5, #-332]	; 0x14c
     d44:	30153184 	andscc	r3, r5, r4, lsl #3
     d48:	312f1531 	teqcc	pc, r1, lsr r5	; <UNPREDICTABLE>
     d4c:	7003312f 	andvc	r3, r3, pc, lsr #2
     d50:	4a17032e 	bmi	5c1a10 <__standby_start+0x5c1a10>
     d54:	2e344b84 	vaddcs.f64	d4, d20, d4
     d58:	82320336 	eorshi	r0, r2, #-671088640	; 0xd8000000
     d5c:	4c03302f 	stcmi	0, cr3, [r3], {47}	; 0x2f
     d60:	4a57032e 	bmi	15c1a20 <__standby_start+0x15c1a20>
     d64:	032e3003 	teqeq	lr, #3
     d68:	4d352e79 	ldcmi	14, cr2, [r5, #-484]!	; 0xfffffe1c
     d6c:	7fa7032f 	svcvc	0x00a7032f
     d70:	034d4e66 	movteq	r4, #56934	; 0xde66
     d74:	38034a1e 	stmdacc	r3, {r1, r2, r3, r4, r9, fp, lr}
     d78:	9e28032e 	cdpls	3, 2, cr0, cr8, cr14, {1}
     d7c:	030f4d13 	movweq	r4, #64787	; 0xfd13
     d80:	03142e21 	tsteq	r4, #528	; 0x210
     d84:	302f6609 	eorcc	r6, pc, r9, lsl #12
     d88:	314d3231 	cmpcc	sp, r1, lsr r2
     d8c:	3031a431 	eorscc	sl, r1, r1, lsr r4
     d90:	a44e312f 	strbge	r3, [lr], #-303	; 0x12f
     d94:	312f3031 	teqcc	pc, r1, lsr r0	; <UNPREDICTABLE>
     d98:	01000402 	tsteq	r0, r2, lsl #8
     d9c:	0000b001 	andeq	fp, r0, r1
     da0:	83000200 	movwhi	r0, #512	; 0x200
     da4:	02000000 	andeq	r0, r0, #0
     da8:	0d0efb01 	vstreq	d15, [lr, #-4]
     dac:	01010100 	mrseq	r0, (UNDEF: 17)
     db0:	00000001 	andeq	r0, r0, r1
     db4:	01000001 	tsteq	r0, r1
     db8:	68637261 	stmdavs	r3!, {r0, r5, r6, r9, ip, sp, lr}^
     dbc:	6d72612f 	ldfvse	f6, [r2, #-188]!	; 0xffffff44
     dc0:	63616d2f 	cmnvs	r1, #3008	; 0xbc0
     dc4:	75732d68 	ldrbvc	r2, [r3, #-3432]!	; 0xd68
     dc8:	2f69786e 	svccs	0x0069786e
     dcc:	732f6d70 	teqvc	pc, #7168	; 0x1c00
     dd0:	646e6174 	strbtvs	r6, [lr], #-372	; 0x174
     dd4:	2e2f7962 	cdpcs	9, 2, cr7, cr15, cr2, {3}
     dd8:	002e2e2f 	eoreq	r2, lr, pc, lsr #28
     ddc:	68637261 	stmdavs	r3!, {r0, r5, r6, r9, ip, sp, lr}^
     de0:	6d72612f 	ldfvse	f6, [r2, #-188]!	; 0xffffff44
     de4:	63616d2f 	cmnvs	r1, #3008	; 0xbc0
     de8:	75732d68 	ldrbvc	r2, [r3, #-3432]!	; 0xd68
     dec:	2f69786e 	svccs	0x0069786e
     df0:	732f6d70 	teqvc	pc, #7168	; 0x1c00
     df4:	646e6174 	strbtvs	r6, [lr], #-372	; 0x174
     df8:	2e2f7962 	cdpcs	9, 2, cr7, cr15, cr2, {3}
     dfc:	2f2e2e2f 	svccs	0x002e2e2f
     e00:	6d00002e 	stcvs	0, cr0, [r0, #-184]	; 0xffffff48
     e04:	6d5f6d65 	ldclvs	13, cr6, [pc, #-404]	; c78 <__standby_start+0xc78>
     e08:	705f756d 	subsvc	r7, pc, sp, ror #10
     e0c:	00632e63 	rsbeq	r2, r3, r3, ror #28
     e10:	70000001 	andvc	r0, r0, r1
     e14:	00682e6d 	rsbeq	r2, r8, sp, ror #28
     e18:	70000002 	andvc	r0, r0, r2
     e1c:	79745f6d 	ldmdbvc	r4!, {r0, r2, r3, r5, r6, r8, r9, sl, fp, ip, lr}^
     e20:	2e736570 	mrccs	5, 3, r6, cr3, cr0, {3}
     e24:	00010068 	andeq	r0, r1, r8, rrx
     e28:	05000000 	streq	r0, [r0, #-0]
     e2c:	0015e002 	andseq	lr, r5, r2
     e30:	4c1419f0 	ldcmi	9, cr1, [r4], {240}	; 0xf0
     e34:	4b4b4f4d 	blmi	12d4b70 <__standby_start+0x12d4b70>
     e38:	16314d4d 	ldrtne	r4, [r1], -sp, asr #26
     e3c:	4b4e4c4c 	blmi	1393f74 <__standby_start+0x1393f74>
     e40:	13bb4b2f 			; <UNDEFINED> instruction: 0x13bb4b2f
     e44:	4c321313 	ldcmi	3, cr1, [r2], #-76	; 0xffffffb4
     e48:	312f2f2f 	teqcc	pc, pc, lsr #30
     e4c:	01000202 	tsteq	r0, r2, lsl #4
     e50:	0001af01 	andeq	sl, r1, r1, lsl #30
     e54:	4b000200 	blmi	165c <__standby_start+0x165c>
     e58:	02000000 	andeq	r0, r0, #0
     e5c:	0d0efb01 	vstreq	d15, [lr, #-4]
     e60:	01010100 	mrseq	r0, (UNDEF: 17)
     e64:	00000001 	andeq	r0, r0, r1
     e68:	01000001 	tsteq	r0, r1
     e6c:	68637261 	stmdavs	r3!, {r0, r5, r6, r9, ip, sp, lr}^
     e70:	6d72612f 	ldfvse	f6, [r2, #-188]!	; 0xffffff44
     e74:	63616d2f 	cmnvs	r1, #3008	; 0xbc0
     e78:	75732d68 	ldrbvc	r2, [r3, #-3432]!	; 0xd68
     e7c:	2f69786e 	svccs	0x0069786e
     e80:	732f6d70 	teqvc	pc, #7168	; 0x1c00
     e84:	646e6174 	strbtvs	r6, [lr], #-372	; 0x174
     e88:	2e2f7962 	cdpcs	9, 2, cr7, cr15, cr2, {3}
     e8c:	002e2e2f 	eoreq	r2, lr, pc, lsr #28
     e90:	6d656d00 	stclvs	13, cr6, [r5, #-0]
     e94:	756d6d5f 	strbvc	r6, [sp, #-3423]!	; 0xd5f
     e98:	5f63705f 	svcpl	0x0063705f
     e9c:	2e6d7361 	cdpcs	3, 6, cr7, cr13, cr1, {3}
     ea0:	00010053 	andeq	r0, r1, r3, asr r0
     ea4:	05000000 	streq	r0, [r0, #-0]
     ea8:	00168002 	andseq	r8, r6, r2
     eac:	010a03f0 	strdeq	r0, [sl, -r0]
     eb0:	2f332f2f 	svccs	0x00332f2f
     eb4:	332f332f 	teqcc	pc, #-1140850688	; 0xbc000000
     eb8:	6613032f 	ldrvs	r0, [r3], -pc, lsr #6
     ebc:	2f2f2f2f 	svccs	0x002f2f2f
     ec0:	2f2f302f 	svccs	0x002f302f
     ec4:	2f2f2f2f 	svccs	0x002f2f2f
     ec8:	2f2f2f2f 	svccs	0x002f2f2f
     ecc:	2f2f2f2f 	svccs	0x002f2f2f
     ed0:	2f2f3030 	svccs	0x002f3030
     ed4:	2f2f2f2f 	svccs	0x002f2f2f
     ed8:	302f2f30 	eorcc	r2, pc, r0, lsr pc	; <UNPREDICTABLE>
     edc:	302f2f30 	eorcc	r2, pc, r0, lsr pc	; <UNPREDICTABLE>
     ee0:	2f2f2f33 	svccs	0x002f2f33
     ee4:	2f332f2f 	svccs	0x00332f2f
     ee8:	2f2f2f2f 	svccs	0x002f2f2f
     eec:	2f2f302f 	svccs	0x002f302f
     ef0:	2f2f2f2f 	svccs	0x002f2f2f
     ef4:	2f2f2f2f 	svccs	0x002f2f2f
     ef8:	2f2f2f2f 	svccs	0x002f2f2f
     efc:	2f2f3030 	svccs	0x002f3030
     f00:	2f2f2f2f 	svccs	0x002f2f2f
     f04:	302f2f30 	eorcc	r2, pc, r0, lsr pc	; <UNPREDICTABLE>
     f08:	2f2f2f30 	svccs	0x002f2f30
     f0c:	2f2f342f 	svccs	0x002f342f
     f10:	2f2f2f2f 	svccs	0x002f2f2f
     f14:	2f332f2f 	svccs	0x00332f2f
     f18:	2f2f2f2f 	svccs	0x002f2f2f
     f1c:	2f332f2f 	svccs	0x00332f2f
     f20:	2f2f2f2f 	svccs	0x002f2f2f
     f24:	2f2f332f 	svccs	0x002f332f
     f28:	2f2f2f2f 	svccs	0x002f2f2f
     f2c:	2f2f2f34 	svccs	0x002f2f34
     f30:	332f2f2f 	teqcc	pc, #188	; 0xbc
     f34:	2f2f2f2f 	svccs	0x002f2f2f
     f38:	332f2f2f 	teqcc	pc, #188	; 0xbc
     f3c:	2f2f2f2f 	svccs	0x002f2f2f
     f40:	0a032f2f 	beq	ccc04 <__standby_start+0xccc04>
     f44:	2f2f2f2e 	svccs	0x002f2f2e
     f48:	2f342f2f 	svccs	0x00342f2f
     f4c:	2f2f2f2f 	svccs	0x002f2f2f
     f50:	2f2f332f 	svccs	0x002f332f
     f54:	2f2f2f2f 	svccs	0x002f2f2f
     f58:	2f2e0903 	svccs	0x002e0903
     f5c:	2f303030 	svccs	0x00303030
     f60:	332f2f2f 	teqcc	pc, #188	; 0xbc
     f64:	2f2f2f30 	svccs	0x002f2f30
     f68:	2f2f2f2f 	svccs	0x002f2f2f
     f6c:	2f2f2f31 	svccs	0x002f2f31
     f70:	2f2f2f2f 	svccs	0x002f2f2f
     f74:	2f2f2f2f 	svccs	0x002f2f2f
     f78:	2f2f2f2f 	svccs	0x002f2f2f
     f7c:	2f2f2f2f 	svccs	0x002f2f2f
     f80:	2f2f2f2f 	svccs	0x002f2f2f
     f84:	2f2f2f2f 	svccs	0x002f2f2f
     f88:	2f2f2f2f 	svccs	0x002f2f2f
     f8c:	2f2f2f2f 	svccs	0x002f2f2f
     f90:	2f2f2f2f 	svccs	0x002f2f2f
     f94:	2f2f2f30 	svccs	0x002f2f30
     f98:	2f2f2f2f 	svccs	0x002f2f2f
     f9c:	2f2f2f2f 	svccs	0x002f2f2f
     fa0:	2f312f2f 	svccs	0x00312f2f
     fa4:	0a032f30 	beq	ccc6c <__standby_start+0xccc6c>
     fa8:	2f2f2f2e 	svccs	0x002f2f2e
     fac:	2f2f3050 	svccs	0x002f3050
     fb0:	2f2f3430 	svccs	0x002f3430
     fb4:	2f30f82f 	svccs	0x0030f82f
     fb8:	0d03302f 	stceq	0, cr3, [r3, #-188]	; 0xffffff44
     fbc:	302f2f2e 	eorcc	r2, pc, lr, lsr #30
     fc0:	2f820c03 	svccs	0x00820c03
     fc4:	2f2f2f2f 	svccs	0x002f2f2f
     fc8:	6d2f502f 	stcvs	0, cr5, [pc, #-188]!	; f14 <__standby_start+0xf14>
     fcc:	30302f2f 	eorscc	r2, r0, pc, lsr #30
     fd0:	2f302f2f 	svccs	0x00302f2f
     fd4:	7cac0330 	stcvc	3, cr0, [ip], #192	; 0xc0
     fd8:	3103352e 	tstcc	r3, lr, lsr #10
     fdc:	e803312e 	stmda	r3, {r1, r2, r3, r5, r8, ip, sp}
     fe0:	30302e01 	eorscc	r2, r0, r1, lsl #28
     fe4:	30303032 	eorscc	r3, r0, r2, lsr r0
     fe8:	30303030 	eorscc	r3, r0, r0, lsr r0
     fec:	30303030 	eorscc	r3, r0, r0, lsr r0
     ff0:	30303030 	eorscc	r3, r0, r0, lsr r0
     ff4:	30303030 	eorscc	r3, r0, r0, lsr r0
     ff8:	30303031 	eorscc	r3, r0, r1, lsr r0
     ffc:	02303030 	eorseq	r3, r0, #48	; 0x30
    1000:	01010002 	tsteq	r1, r2
    1004:	000001ab 	andeq	r0, r0, fp, lsr #3
    1008:	006d0002 	rsbeq	r0, sp, r2
    100c:	01020000 	mrseq	r0, (UNDEF: 2)
    1010:	000d0efb 	strdeq	r0, [sp], -fp
    1014:	01010101 	tsteq	r1, r1, lsl #2
    1018:	01000000 	mrseq	r0, (UNDEF: 0)
    101c:	61010000 	mrsvs	r0, (UNDEF: 1)
    1020:	2f686372 	svccs	0x00686372
    1024:	2f6d7261 	svccs	0x006d7261
    1028:	6863616d 	stmdavs	r3!, {r0, r2, r3, r5, r6, r8, sp, lr}^
    102c:	6e75732d 	cdpvs	3, 7, cr7, cr5, cr13, {1}
    1030:	702f6978 	eorvc	r6, pc, r8, ror r9	; <UNPREDICTABLE>
    1034:	74732f6d 	ldrbtvc	r2, [r3], #-3949	; 0xf6d
    1038:	62646e61 	rsbvs	r6, r4, #1552	; 0x610
    103c:	2f2e2f79 	svccs	0x002e2f79
    1040:	00002e2e 	andeq	r2, r0, lr, lsr #28
    1044:	5f6d656d 	svcpl	0x006d656d
    1048:	69726573 	ldmdbvs	r2!, {r0, r1, r4, r5, r6, r8, sl, sp, lr}^
    104c:	632e6c61 	teqvs	lr, #24832	; 0x6100
    1050:	00000100 	andeq	r0, r0, r0, lsl #2
    1054:	745f6d70 	ldrbvc	r6, [pc], #-3440	; 105c <__standby_start+0x105c>
    1058:	73657079 	cmnvc	r5, #121	; 0x79
    105c:	0100682e 	tsteq	r0, lr, lsr #16
    1060:	656d0000 	strbvs	r0, [sp, #-0]!
    1064:	63635f6d 	cmnvs	r3, #436	; 0x1b4
    1068:	732d756d 	teqvc	sp, #457179136	; 0x1b400000
    106c:	69386e75 	ldmdbvs	r8!, {r0, r2, r4, r5, r6, r9, sl, fp, sp, lr}
    1070:	31703577 	cmncc	r0, r7, ror r5
    1074:	0100682e 	tsteq	r0, lr, lsr #16
    1078:	00000000 	andeq	r0, r0, r0
    107c:	1bc00205 	blne	ff001898 <__bss_end+0xeffe27c>
    1080:	1f03f000 	svcne	0x0003f000
    1084:	4e362e01 	cdpmi	14, 3, cr2, cr6, cr1, {0}
    1088:	ddba0f03 	ldcle	15, cr0, [sl, #12]!
    108c:	82160330 	andshi	r0, r6, #-1073741824	; 0xc0000000
    1090:	032e6103 	teqeq	lr, #-1073741824	; 0xc0000000
    1094:	4c302e09 	ldcmi	14, cr2, [r0], #-36	; 0xffffffdc
    1098:	684a1203 	stmdavs	sl, {r0, r1, r9, ip}^
    109c:	364d2f67 	strbcc	r2, [sp], -r7, ror #30
    10a0:	4c2e7803 	stcmi	8, cr7, [lr], #-12
    10a4:	0196036c 	orrseq	r0, r6, ip, ror #6
    10a8:	2e770366 	cdpcs	3, 7, cr0, cr7, cr6, {3}
    10ac:	032e0f03 	teqeq	lr, #12
    10b0:	03a02e71 	moveq	r2, #1808	; 0x710
    10b4:	6731820d 	ldrvs	r8, [r1, -sp, lsl #4]!
    10b8:	034b2f2d 	movteq	r2, #48941	; 0xbf2d
    10bc:	73034a0e 	movwvc	r4, #14862	; 0x3a0e
    10c0:	2f2c314a 	svccs	0x002c314a
    10c4:	302f2f2c 	eorcc	r2, pc, ip, lsr #30
    10c8:	4c312f2d 	ldcmi	15, cr2, [r1], #-180	; 0xffffff4c
    10cc:	1403304e 	strne	r3, [r3], #-78	; 0x4e
    10d0:	312b152e 	teqcc	fp, lr, lsr #10
    10d4:	02002d4b 	andeq	r2, r0, #4800	; 0x12c0
    10d8:	03320104 	teqeq	r2, #1
    10dc:	0f036669 	svceq	0x00036669
    10e0:	2e71032e 	cdpcs	3, 7, cr0, cr1, cr14, {1}
    10e4:	2e18032f 	cdpcs	3, 1, cr0, cr8, cr15, {1}
    10e8:	2e610350 	mcrcs	3, 3, r0, cr1, cr0, {2}
    10ec:	2e16039f 	mrccs	3, 0, r0, cr6, cr15, {4}
    10f0:	2f660b03 	svccs	0x00660b03
    10f4:	9f4a5d03 	svcls	0x004a5d03
    10f8:	16662503 	strbtne	r2, [r6], -r3, lsl #10
    10fc:	2d4b322a 	sfmcs	f3, 2, [fp, #-168]	; 0xffffff58
    1100:	002e0b03 	eoreq	r0, lr, r3, lsl #22
    1104:	03010402 	movweq	r0, #5122	; 0x1402
    1108:	5b034a79 	blpl	d3af4 <__standby_start+0xd3af4>
    110c:	2e250366 	cdpcs	3, 2, cr0, cr5, cr6, {3}
    1110:	032e5b03 	teqeq	lr, #3072	; 0xc00
    1114:	5b032e25 	blpl	cc9b0 <__standby_start+0xcc9b0>
    1118:	24039f4a 	strcs	r9, [r3], #-3914	; 0xf4a
    111c:	4a5e034a 	bmi	1781e4c <__standby_start+0x1781e4c>
    1120:	4c4a2403 	cfstrdmi	mvd2, [sl], {3}
    1124:	9e0a032a 	cdpls	3, 0, cr0, cr10, cr10, {1}
    1128:	2e7fa003 	cdpcs	0, 7, cr10, cr15, cr3, {0}
    112c:	4a00e703 	bmi	3ad40 <__standby_start+0x3ad40>
    1130:	2e7f9903 	cdpcs	9, 7, cr9, cr15, cr3, {0}
    1134:	00e50384 	rsceq	r0, r5, r4, lsl #7
    1138:	2d673182 	stfcse	f3, [r7, #-520]!	; 0xfffffdf8
    113c:	0d034b2f 	vstreq	d4, [r3, #-188]	; 0xffffff44
    1140:	4a74034a 	bmi	1d01e70 <__standby_start+0x1d01e70>
    1144:	2c2f2c31 	stccs	12, cr2, [pc], #-196	; 1088 <__standby_start+0x1088>
    1148:	2d302f2f 	ldccs	15, cr2, [r0, #-188]!	; 0xffffff44
    114c:	4d4c312f 	stfmie	f3, [ip, #-188]	; 0xffffff44
    1150:	bc143130 	ldflts	f3, [r4], {48}	; 0x30
    1154:	034c4d4c 	movteq	r4, #52556	; 0xcd4c
    1158:	2b152e21 	blcs	54c9e4 <__standby_start+0x54c9e4>
    115c:	002d4b31 	eoreq	r4, sp, r1, lsr fp
    1160:	32010402 	andcc	r0, r1, #33554432	; 0x2000000
    1164:	03665d03 	cmneq	r6, #192	; 0xc0
    1168:	65032e1b 	strvs	r2, [r3, #-3611]	; 0xe1b
    116c:	24032f2e 	strcs	r2, [r3], #-3886	; 0xf2e
    1170:	5503502e 	strpl	r5, [r3, #-46]	; 0x2e
    1174:	22039f2e 	andcs	r9, r3, #184	; 0xb8
    1178:	660b032e 	strvs	r0, [fp], -lr, lsr #6
    117c:	4a51032f 	bmi	1441e40 <__standby_start+0x1441e40>
    1180:	6632039f 			; <UNDEFINED> instruction: 0x6632039f
    1184:	4b322a16 	blmi	c8b9e4 <__standby_start+0xc8b9e4>
    1188:	2e0b032d 	cdpcs	3, 0, cr0, cr11, cr13, {1}
    118c:	01040200 	mrseq	r0, R12_usr
    1190:	034a7903 	movteq	r7, #43267	; 0xa903
    1194:	3203664e 	andcc	r6, r3, #81788928	; 0x4e00000
    1198:	2e4e032e 	cdpcs	3, 4, cr0, cr14, cr14, {1}
    119c:	032e3203 	teqeq	lr, #805306368	; 0x30000000
    11a0:	039f4a4e 	orrseq	r4, pc, #319488	; 0x4e000
    11a4:	51034a31 	tstpl	r3, r1, lsr sl
    11a8:	4a31034a 	bmi	c41ed8 <__standby_start+0xc41ed8>
    11ac:	0a022a4c 	beq	8bae4 <__standby_start+0x8bae4>
    11b0:	28010100 	stmdacs	r1, {r8}
    11b4:	02000003 	andeq	r0, r0, #3
    11b8:	0000f400 	andeq	pc, r0, r0, lsl #8
    11bc:	fb010200 	blx	419c6 <__standby_start+0x419c6>
    11c0:	01000d0e 	tsteq	r0, lr, lsl #26
    11c4:	00010101 	andeq	r0, r1, r1, lsl #2
    11c8:	00010000 	andeq	r0, r1, r0
    11cc:	72610100 	rsbvc	r0, r1, #0
    11d0:	612f6863 	teqvs	pc, r3, ror #16
    11d4:	6d2f6d72 	stcvs	13, cr6, [pc, #-456]!	; 1014 <__standby_start+0x1014>
    11d8:	2d686361 	stclcs	3, cr6, [r8, #-388]!	; 0xfffffe7c
    11dc:	786e7573 	stmdavc	lr!, {r0, r1, r4, r5, r6, r8, sl, ip, sp, lr}^
    11e0:	6d702f69 	ldclvs	15, cr2, [r0, #-420]!	; 0xfffffe5c
    11e4:	6174732f 	cmnvs	r4, pc, lsr #6
    11e8:	7962646e 	stmdbvc	r2!, {r1, r2, r3, r5, r6, sl, sp, lr}^
    11ec:	2e2f2e2f 	cdpcs	14, 2, cr2, cr15, cr15, {1}
    11f0:	722f002e 	eorvc	r0, pc, #46	; 0x2e
    11f4:	2f746f6f 	svccs	0x00746f6f
    11f8:	6b726f77 	blvs	1c9cfdc <__standby_start+0x1c9cfdc>
    11fc:	6e69732f 	cdpvs	3, 6, cr7, cr9, cr15, {1}
    1200:	786e696c 	stmdavc	lr!, {r2, r3, r5, r6, r8, fp, sp, lr}^
    1204:	3333612f 	teqcc	r3, #-1073741813	; 0xc000000b
    1208:	63696c2f 	cmnvs	r9, #12032	; 0x2f00
    120c:	2f656568 	svccs	0x00656568
    1210:	2f74756f 	svccs	0x0074756f
    1214:	386e7573 	stmdacc	lr!, {r0, r1, r4, r5, r6, r8, sl, ip, sp, lr}^
    1218:	70357769 	eorsvc	r7, r5, r9, ror #14
    121c:	696c2f31 	stmdbvs	ip!, {r0, r4, r5, r8, r9, sl, fp, sp}^
    1220:	2f78756e 	svccs	0x0078756e
    1224:	6d6d6f63 	stclvs	15, cr6, [sp, #-396]!	; 0xfffffe74
    1228:	622f6e6f 	eorvs	r6, pc, #1776	; 0x6f0
    122c:	646c6975 	strbtvs	r6, [ip], #-2421	; 0x975
    1230:	746f6f72 	strbtvc	r6, [pc], #-3954	; 1238 <__standby_start+0x1238>
    1234:	7478652f 	ldrbtvc	r6, [r8], #-1327	; 0x52f
    1238:	616e7265 	cmnvs	lr, r5, ror #4
    123c:	6f742d6c 	svcvs	0x00742d6c
    1240:	68636c6f 	stmdavs	r3!, {r0, r1, r2, r3, r5, r6, sl, fp, sp, lr}^
    1244:	2f6e6961 	svccs	0x006e6961
    1248:	2f6e6962 	svccs	0x006e6962
    124c:	6c2f2e2e 	stcvs	14, cr2, [pc], #-184	; 119c <__standby_start+0x119c>
    1250:	672f6269 	strvs	r6, [pc, -r9, ror #4]!
    1254:	612f6363 	teqvs	pc, r3, ror #6
    1258:	6c2d6d72 	stcvs	13, cr6, [sp], #-456	; 0xfffffe38
    125c:	78756e69 	ldmdavc	r5!, {r0, r3, r5, r6, r9, sl, fp, sp, lr}^
    1260:	756e672d 	strbvc	r6, [lr, #-1837]!	; 0x72d
    1264:	69626165 	stmdbvs	r2!, {r0, r2, r5, r6, r8, sp, lr}^
    1268:	362e342f 	strtcc	r3, [lr], -pc, lsr #8
    126c:	692f332e 	stmdbvs	pc!, {r1, r2, r3, r5, r8, r9, ip, sp}	; <UNPREDICTABLE>
    1270:	756c636e 	strbvc	r6, [ip, #-878]!	; 0x36e
    1274:	00006564 	andeq	r6, r0, r4, ror #10
    1278:	5f6d656d 	svcpl	0x006d656d
    127c:	6e697270 	mcrvs	2, 3, r7, cr9, cr0, {3}
    1280:	632e6b74 	teqvs	lr, #118784	; 0x1d000
    1284:	00000100 	andeq	r0, r0, r0, lsl #2
    1288:	745f6d70 	ldrbvc	r6, [pc], #-3440	; 1290 <__standby_start+0x1290>
    128c:	73657079 	cmnvc	r5, #121	; 0x79
    1290:	0100682e 	tsteq	r0, lr, lsr #16
    1294:	74730000 	ldrbtvc	r0, [r3], #-0
    1298:	67726164 	ldrbvs	r6, [r2, -r4, ror #2]!
    129c:	0200682e 	andeq	r6, r0, #3014656	; 0x2e0000
    12a0:	623c0000 	eorsvs	r0, ip, #0
    12a4:	746c6975 	strbtvc	r6, [ip], #-2421	; 0x975
    12a8:	3e6e692d 	cdpcc	9, 6, cr6, cr14, cr13, {1}
    12ac:	00000000 	andeq	r0, r0, r0
    12b0:	02050000 	andeq	r0, r5, #0
    12b4:	f000202c 			; <UNDEFINED> instruction: 0xf000202c
    12b8:	0101ce03 	tsteq	r1, r3, lsl #28
    12bc:	882a2c34 	stmdahi	sl!, {r2, r4, r5, sl, fp, sp}
    12c0:	032fa32c 	teqeq	pc, #-1342177280	; 0xb0000000
    12c4:	2b332e7a 	blcs	ccccb4 <__standby_start+0xccccb4>
    12c8:	04020052 	streq	r0, [r2], #-82	; 0x52
    12cc:	02003102 	andeq	r3, r0, #-2147483648	; 0x80000000
    12d0:	00830204 	addeq	r0, r3, r4, lsl #4
    12d4:	2d020402 	cfstrscs	mvf0, [r2, #-8]
    12d8:	02040200 	andeq	r0, r4, #0
    12dc:	0402004b 	streq	r0, [r2], #-75	; 0x4b
    12e0:	02002d02 	andeq	r2, r0, #128	; 0x80
    12e4:	002f0204 	eoreq	r0, pc, r4, lsl #4
    12e8:	2a020402 	bcs	822f8 <__standby_start+0x822f8>
    12ec:	03667103 	cmneq	r6, #-1073741824	; 0xc0000000
    12f0:	02006617 	andeq	r6, r0, #24117248	; 0x1700000
    12f4:	2e060204 	cdpcs	2, 0, cr0, cr6, cr4, {0}
    12f8:	02040200 	andeq	r0, r4, #0
    12fc:	02003006 	andeq	r3, r0, #6
    1300:	332c0204 	teqcc	ip, #1073741824	; 0x40000000
    1304:	00fe0369 	rscseq	r0, lr, r9, ror #6
    1308:	2b2d3282 	blcs	b4dd18 <__standby_start+0xb4dd18>
    130c:	78038a85 	stmdavc	r3, {r0, r2, r7, r9, fp, pc}
    1310:	03312f2e 	teqeq	r1, #184	; 0xb8
    1314:	032e7ded 	teqeq	lr, #15168	; 0x3b40
    1318:	032e0293 	teqeq	lr, #805306377	; 0x30000009
    131c:	302e7ded 	eorcc	r7, lr, sp, ror #27
    1320:	82028903 	andhi	r8, r2, #49152	; 0xc000
    1324:	2e7df703 	cdpcs	7, 7, cr15, cr13, cr3, {0}
    1328:	2e028903 	cdpcs	9, 0, cr8, cr2, cr3, {0}
    132c:	2e7df703 	cdpcs	7, 7, cr15, cr13, cr3, {0}
    1330:	4cbc4652 	ldcmi	6, cr4, [ip], #328	; 0x148
    1334:	2e028e03 	cdpcs	14, 0, cr8, cr2, cr3, {0}
    1338:	827ea803 	rsbshi	sl, lr, #196608	; 0x30000
    133c:	7a032c36 	bvc	cc41c <__standby_start+0xcc41c>
    1340:	2f876c2e 	svccs	0x00876c2e
    1344:	332e7a03 	teqcc	lr, #12288	; 0x3000
    1348:	2e12032b 	cdpcs	3, 1, cr0, cr2, cr11, {1}
    134c:	2d2e7a03 	vstmdbcs	lr!, {s14-s16}
    1350:	032e7003 	teqeq	lr, #3
    1354:	474d2e14 	smlaldmi	r2, sp, r4, lr
    1358:	63316331 	teqvs	r1, #-1006632960	; 0xc4000000
    135c:	09036331 	stmdbeq	r3, {r0, r4, r5, r8, r9, sp, lr}
    1360:	2e77032e 	cdpcs	3, 7, cr0, cr7, cr14, {1}
    1364:	032e0c03 	teqeq	lr, #768	; 0x300
    1368:	2503665d 	strcs	r6, [r3, #-1629]	; 0x65d
    136c:	032c4c66 	teqeq	ip, #26112	; 0x6600
    1370:	2a034a5b 	bcs	d3ce4 <__standby_start+0xd3ce4>
    1374:	3903692e 	stmdbcc	r3, {r1, r2, r3, r5, r8, fp, sp, lr}
    1378:	660c039e 			; <UNDEFINED> instruction: 0x660c039e
    137c:	032e7403 	teqeq	lr, #50331648	; 0x3000000
    1380:	302d2e0c 	eorcc	r2, sp, ip, lsl #28
    1384:	c1033048 	tstgt	r3, r8, asr #32
    1388:	68032e00 	stmdavs	r3, {r9, sl, fp, sp}
    138c:	2e55032e 	cdpcs	3, 5, cr0, cr5, cr14, {1}
    1390:	00cb034c 	sbceq	r0, fp, ip, asr #6
    1394:	7fb5032e 	svcvc	0x00b5032e
    1398:	c6034c2e 	strgt	r4, [r3], -lr, lsr #24
    139c:	ba032e00 	blt	ccba4 <__standby_start+0xccba4>
    13a0:	69312e7f 	ldmdbvs	r1!, {r0, r1, r2, r3, r4, r5, r6, r9, sl, fp, sp}
    13a4:	0903292f 	stmdbeq	r3, {r0, r1, r2, r3, r5, r8, fp, sp}
    13a8:	03342a2e 	teqeq	r4, #188416	; 0x2e000
    13ac:	340200c1 	strcc	r0, [r2], #-193	; 0xc1
    13b0:	302c3001 	eorcc	r3, ip, r1
    13b4:	9e540331 	mrcls	3, 2, r0, cr4, cr1, {1}
    13b8:	d67de603 	ldrbtle	lr, [sp], -r3, lsl #12
    13bc:	66029b03 	strvs	r9, [r2], -r3, lsl #22
    13c0:	2e7de503 	cdpcs	5, 7, cr14, cr13, cr3, {0}
    13c4:	82029c03 	andhi	r9, r2, #768	; 0x300
    13c8:	d67df503 	ldrbtle	pc, [sp], -r3, lsl #10	; <UNPREDICTABLE>
    13cc:	82028d03 	andhi	r8, r2, #192	; 0xc0
    13d0:	2e0b032f 	cdpcs	3, 0, cr0, cr11, cr15, {1}
    13d4:	2e7fb903 	cdpcs	9, 7, cr11, cr15, cr3, {0}
    13d8:	2e00c703 	cdpcs	7, 0, cr12, cr0, cr3, {0}
    13dc:	667fb903 	ldrbtvs	fp, [pc], -r3, lsl #18
    13e0:	2e7eae03 	cdpcs	14, 7, cr10, cr14, cr3, {0}
    13e4:	03826f03 	orreq	r6, r2, #12
    13e8:	2ff202ac 	svccs	0x00f202ac
    13ec:	032e6303 	teqeq	lr, #201326592	; 0xc000000
    13f0:	03d67df0 	bicseq	r7, r6, #15360	; 0x3c00
    13f4:	03660291 	cmneq	r6, #268435465	; 0x10000009
    13f8:	032e7def 	teqeq	lr, #15296	; 0x3bc0
    13fc:	03820292 	orreq	r0, r2, #536870921	; 0x20000009
    1400:	03d67dff 	bicseq	r7, r6, #16320	; 0x3fc0
    1404:	5082028d 	addpl	r0, r2, sp, lsl #5
    1408:	2e0d039f 	mcrcs	3, 0, r0, cr13, cr15, {4}
    140c:	8252032f 	subshi	r0, r2, #-1140850688	; 0xbc000000
    1410:	ba7dfb03 	blt	1f80024 <__standby_start+0x1f80024>
    1414:	66028603 	strvs	r8, [r2], -r3, lsl #12
    1418:	2e7dfa03 	vaddcs.f32	s31, s26, s6
    141c:	82028703 	andhi	r8, r2, #786432	; 0xc0000
    1420:	d67e8a03 	ldrbtle	r8, [lr], -r3, lsl #20
    1424:	82028d03 	andhi	r8, r2, #192	; 0xc0
    1428:	03663b03 	cmneq	r6, #3072	; 0xc00
    142c:	7403660c 	strvc	r6, [r3], #-1548	; 0x60c
    1430:	2e0c032e 	cdpcs	3, 0, cr0, cr12, cr14, {1}
    1434:	3048302d 	subcc	r3, r8, sp, lsr #32
    1438:	2e00c103 	mvfcss	f4, f3
    143c:	032e6803 	teqeq	lr, #196608	; 0x30000
    1440:	034c2e55 	movteq	r2, #52821	; 0xce55
    1444:	032e00cb 	teqeq	lr, #203	; 0xcb
    1448:	4c2e7fb5 	stcmi	15, cr7, [lr], #-724	; 0xfffffd2c
    144c:	2e00c603 	cfmadd32cs	mvax0, mvfx12, mvfx0, mvfx3
    1450:	2e7fba03 	vaddcs.f32	s23, s30, s6
    1454:	292f6931 	stmdbcs	pc!, {r0, r4, r5, r8, fp, sp, lr}	; <UNPREDICTABLE>
    1458:	2a2e0903 	bcs	b8386c <__standby_start+0xb8386c>
    145c:	00c10334 	sbceq	r0, r1, r4, lsr r3
    1460:	30013402 	andcc	r3, r1, r2, lsl #8
    1464:	0331302c 	teqeq	r1, #44	; 0x2c
    1468:	f1039e54 			; <UNDEFINED> instruction: 0xf1039e54
    146c:	9003d67c 	andls	sp, r3, ip, ror r6
    1470:	f0036603 			; <UNDEFINED> instruction: 0xf0036603
    1474:	91032e7c 	tstls	r3, ip, ror lr
    1478:	80038203 	andhi	r8, r3, r3, lsl #4
    147c:	8203d67d 	andhi	sp, r3, #131072000	; 0x7d00000
    1480:	032f8203 	teqeq	pc, #805306368	; 0x30000000
    1484:	b9032e0b 	stmdblt	r3, {r0, r1, r3, r9, sl, fp, sp}
    1488:	c7032e7f 	smlsdxgt	r3, pc, lr, r2	; <UNPREDICTABLE>
    148c:	b9032e00 	stmdblt	r3, {r9, sl, fp, sp}
    1490:	b903667f 	stmdblt	r3, {r0, r1, r2, r3, r4, r5, r6, r9, sl, sp, lr}
    1494:	6f032e7d 	svcvs	0x00032e7d
    1498:	03a10382 			; <UNDEFINED> instruction: 0x03a10382
    149c:	63032ff2 	movwvs	r2, #16370	; 0x3ff2
    14a0:	7cfb032e 	ldclvc	3, cr0, [fp], #184	; 0xb8
    14a4:	038603d6 	orreq	r0, r6, #1476395011	; 0x58000003
    14a8:	7cfa0366 	ldclvc	3, cr0, [sl], #408	; 0x198
    14ac:	0387032e 	orreq	r0, r7, #-1207959552	; 0xb8000000
    14b0:	7d8a0382 	stcvc	3, cr0, [sl, #520]	; 0x208
    14b4:	038203d6 	orreq	r0, r2, #1476395011	; 0x58000003
    14b8:	039f5082 	orrseq	r5, pc, #130	; 0x82
    14bc:	032f2e0d 	teqeq	pc, #208	; 0xd0
    14c0:	86038252 			; <UNDEFINED> instruction: 0x86038252
    14c4:	fb03ba7d 	blx	efec2 <__standby_start+0xefec2>
    14c8:	85036602 	strhi	r6, [r3, #-1538]	; 0x602
    14cc:	fc032e7d 	stc2	14, cr2, [r3], {125}	; 0x7d
    14d0:	95038202 	strls	r8, [r3, #-514]	; 0x202
    14d4:	8203d67d 	andhi	sp, r3, #131072000	; 0x7d00000
    14d8:	06028203 	streq	r8, [r2], -r3, lsl #4
    14dc:	ab010100 	blge	418e4 <__standby_start+0x418e4>
    14e0:	02000000 	andeq	r0, r0, #0
    14e4:	00004700 	andeq	r4, r0, r0, lsl #14
    14e8:	fb010200 	blx	41cf2 <__standby_start+0x41cf2>
    14ec:	01000d0e 	tsteq	r0, lr, lsl #26
    14f0:	00010101 	andeq	r0, r1, r1, lsl #2
    14f4:	00010000 	andeq	r0, r1, r0
    14f8:	72610100 	rsbvc	r0, r1, #0
    14fc:	612f6863 	teqvs	pc, r3, ror #16
    1500:	6d2f6d72 	stcvs	13, cr6, [pc, #-456]!	; 1340 <__standby_start+0x1340>
    1504:	2d686361 	stclcs	3, cr6, [r8, #-388]!	; 0xfffffe7c
    1508:	786e7573 	stmdavc	lr!, {r0, r1, r4, r5, r6, r8, sl, ip, sp, lr}^
    150c:	6d702f69 	ldclvs	15, cr2, [r0, #-420]!	; 0xfffffe5c
    1510:	6174732f 	cmnvs	r4, pc, lsr #6
    1514:	7962646e 	stmdbvc	r2!, {r1, r2, r3, r5, r6, sl, sp, lr}^
    1518:	2e2f2e2f 	cdpcs	14, 2, cr2, cr15, cr15, {1}
    151c:	6d00002e 	stcvs	0, cr0, [r0, #-184]	; 0xffffff48
    1520:	645f6d65 	ldrbvs	r6, [pc], #-3429	; 1528 <__standby_start+0x1528>
    1524:	696c7669 	stmdbvs	ip!, {r0, r3, r5, r6, r9, sl, ip, sp, lr}^
    1528:	00532e62 	subseq	r2, r3, r2, ror #28
    152c:	00000001 	andeq	r0, r0, r1
    1530:	18020500 	stmdane	r2, {r8, sl}
    1534:	03f00028 	mvnseq	r0, #40	; 0x28
    1538:	2f2f010e 	svccs	0x002f010e
    153c:	2f2f2f30 	svccs	0x002f2f30
    1540:	342f302f 	strtcc	r3, [pc], #-47	; 1548 <__standby_start+0x1548>
    1544:	d5032f2f 	strle	r2, [r3, #-3887]	; 0xf2f
    1548:	2f2f2e00 	svccs	0x002f2e00
    154c:	2f2f332f 	svccs	0x002f332f
    1550:	2f2f2f2f 	svccs	0x002f2f2f
    1554:	142e0230 	strtne	r0, [lr], #-560	; 0x230
    1558:	2f2f302f 	svccs	0x002f302f
    155c:	342f4c30 	strtcc	r4, [pc], #-3120	; 1564 <__standby_start+0x1564>
    1560:	2f2f2f2f 	svccs	0x002f2f2f
    1564:	2f2f2f2f 	svccs	0x002f2f2f
    1568:	302f2f2f 	eorcc	r2, pc, pc, lsr #30
    156c:	2f142e02 	svccs	0x00142e02
    1570:	2f2f302f 	svccs	0x002f302f
    1574:	2f2f2f30 	svccs	0x002f2f30
    1578:	2f2f4c30 	svccs	0x002f4c30
    157c:	2f2f332f 	svccs	0x002f332f
    1580:	332f2f2f 	teqcc	pc, #188	; 0xbc
    1584:	2f2f2f2f 	svccs	0x002f2f2f
    1588:	0002022f 	andeq	r0, r2, pc, lsr #4
    158c:	00840101 	addeq	r0, r4, r1, lsl #2
    1590:	00020000 	andeq	r0, r2, r0
    1594:	00000056 	andeq	r0, r0, r6, asr r0
    1598:	0efb0102 	cdpeq	1, 15, cr0, cr11, cr2, {0}
    159c:	0101000d 	tsteq	r1, sp
    15a0:	00000101 	andeq	r0, r0, r1, lsl #2
    15a4:	00000100 	andeq	r0, r0, r0, lsl #2
    15a8:	63726101 	cmnvs	r2, #1073741824	; 0x40000000
    15ac:	72612f68 	rsbvc	r2, r1, #416	; 0x1a0
    15b0:	616d2f6d 	cmnvs	sp, sp, ror #30
    15b4:	732d6863 	teqvc	sp, #6488064	; 0x630000
    15b8:	69786e75 	ldmdbvs	r8!, {r0, r2, r4, r5, r6, r9, sl, fp, sp, lr}^
    15bc:	2f6d702f 	svccs	0x006d702f
    15c0:	6e617473 	mcrvs	4, 3, r7, cr1, cr3, {3}
    15c4:	2f796264 	svccs	0x00796264
    15c8:	2e2e2f2e 	cdpcs	15, 2, cr2, cr14, cr14, {1}
    15cc:	656d0000 	strbvs	r0, [sp, #-0]!
    15d0:	69645f6d 	stmdbvs	r4!, {r0, r2, r3, r5, r6, r8, r9, sl, fp, ip, lr}^
    15d4:	62696c76 	rsbvs	r6, r9, #30208	; 0x7600
    15d8:	00632e63 	rsbeq	r2, r3, r3, ror #28
    15dc:	70000001 	andvc	r0, r0, r1
    15e0:	79745f6d 	ldmdbvc	r4!, {r0, r2, r3, r5, r6, r8, r9, sl, fp, ip, lr}^
    15e4:	2e736570 	mrccs	5, 3, r6, cr3, cr0, {3}
    15e8:	00010068 	andeq	r0, r1, r8, rrx
    15ec:	05000000 	streq	r0, [r0, #-0]
    15f0:	0029f402 	eoreq	pc, r9, r2, lsl #8
    15f4:	4b1315f0 	blmi	4c6dbc <__standby_start+0x4c6dbc>
    15f8:	31173211 	tstcc	r7, r1, lsl r2
    15fc:	0402002b 	streq	r0, [r2], #-43	; 0x2b
    1600:	4a063401 	bmi	18e60c <__standby_start+0x18e60c>
    1604:	032b3106 	teqeq	fp, #-2147483647	; 0x80000001
    1608:	302b4a0b 	eorcc	r4, fp, fp, lsl #20
    160c:	30342a33 	eorscc	r2, r4, r3, lsr sl
    1610:	0004024d 	andeq	r0, r4, sp, asr #4
    1614:	00f60101 	rscseq	r0, r6, r1, lsl #2
    1618:	00020000 	andeq	r0, r2, r0
    161c:	0000005f 	andeq	r0, r0, pc, asr r0
    1620:	0efb0102 	cdpeq	1, 15, cr0, cr11, cr2, {0}
    1624:	0101000d 	tsteq	r1, sp
    1628:	00000101 	andeq	r0, r0, r1, lsl #2
    162c:	00000100 	andeq	r0, r0, r0, lsl #2
    1630:	63726101 	cmnvs	r2, #1073741824	; 0x40000000
    1634:	72612f68 	rsbvc	r2, r1, #416	; 0x1a0
    1638:	616d2f6d 	cmnvs	sp, sp, ror #30
    163c:	732d6863 	teqvc	sp, #6488064	; 0x630000
    1640:	69786e75 	ldmdbvs	r8!, {r0, r2, r4, r5, r6, r9, sl, fp, sp, lr}^
    1644:	2f6d702f 	svccs	0x006d702f
    1648:	6e617473 	mcrvs	4, 3, r7, cr1, cr3, {3}
    164c:	2f796264 	svccs	0x00796264
    1650:	2e2e2f2e 	cdpcs	15, 2, cr2, cr14, cr14, {1}
    1654:	656d0000 	strbvs	r0, [sp, #-0]!
    1658:	6e695f6d 	cdpvs	15, 6, cr5, cr9, cr13, {3}
    165c:	00632e74 	rsbeq	r2, r3, r4, ror lr
    1660:	70000001 	andvc	r0, r0, r1
    1664:	79745f6d 	ldmdbvc	r4!, {r0, r2, r3, r5, r6, r8, r9, sl, fp, ip, lr}^
    1668:	2e736570 	mrccs	5, 3, r6, cr3, cr0, {3}
    166c:	00010068 	andeq	r0, r1, r8, rrx
    1670:	6d656d00 	stclvs	13, cr6, [r5, #-0]
    1674:	746e695f 	strbtvc	r6, [lr], #-2399	; 0x95f
    1678:	0100682e 	tsteq	r0, lr, lsr #16
    167c:	00000000 	andeq	r0, r0, r0
    1680:	2a4c0205 	bcs	1301e9c <__standby_start+0x1301e9c>
    1684:	2203f000 	andcs	pc, r3, #0
    1688:	032f1401 	teqeq	pc, #16777216	; 0x1000000
    168c:	73032e0a 	movwvc	r2, #15882	; 0x3e0a
    1690:	2f2d312e 	svccs	0x002d312e
    1694:	2d2e0b03 	fstmdbxcs	lr!, {d0}	;@ Deprecated
    1698:	2f2e7503 	svccs	0x002e7503
    169c:	02040200 	andeq	r0, r4, #0
    16a0:	004a0b03 	subeq	r0, sl, r3, lsl #22
    16a4:	2d020402 	cfstrscs	mvf0, [r2, #-8]
    16a8:	03064a06 	movweq	r4, #27142	; 0x6a06
    16ac:	75032e0b 	strvc	r2, [r3, #-3595]	; 0xe0b
    16b0:	2e0c032e 	cdpcs	3, 0, cr0, cr12, cr14, {1}
    16b4:	0402002d 	streq	r0, [r2], #-45	; 0x2d
    16b8:	02002f02 	andeq	r2, r0, #8
    16bc:	4e2d0204 	cdpmi	2, 2, cr0, cr13, cr4, {0}
    16c0:	4c4c2c30 	mcrrmi	12, 3, r2, ip, cr0
    16c4:	0f034f2f 	svceq	0x00034f2f
    16c8:	332c1482 	teqcc	ip, #-2113929216	; 0x82000000
    16cc:	0402002b 	streq	r0, [r2], #-43	; 0x2b
    16d0:	0200a202 	andeq	sl, r0, #536870912	; 0x20000000
    16d4:	004b0204 	subeq	r0, fp, r4, lsl #4
    16d8:	80020402 	andhi	r0, r2, r2, lsl #8
    16dc:	820f036c 	andhi	r0, pc, #-1342177279	; 0xb0000001
    16e0:	32322d13 	eorscc	r2, r2, #1216	; 0x4c0
    16e4:	2d2b322a 	sfmcs	f3, 4, [fp, #-168]!	; 0xffffff58
    16e8:	2b322a32 	blcs	c8bfb8 <__standby_start+0xc8bfb8>
    16ec:	2e7a0331 	mrccs	3, 3, r0, cr10, cr1, {1}
    16f0:	2e0b0330 	mcrcs	3, 0, r0, cr11, cr0, {1}
    16f4:	312e7603 	teqcc	lr, r3, lsl #12
    16f8:	4a0f036d 	bmi	3c24b4 <__standby_start+0x3c24b4>
    16fc:	2b4d3114 	blcs	134db54 <__standby_start+0x134db54>
    1700:	302f2b31 	eorcc	r2, pc, r1, lsr fp	; <UNPREDICTABLE>
    1704:	3329302c 	teqcc	r9, #44	; 0x2c
    1708:	024b352c 	subeq	r3, fp, #184549376	; 0xb000000
    170c:	01010008 	tsteq	r1, r8
    1710:	000000c7 	andeq	r0, r0, r7, asr #1
    1714:	005f0002 	subseq	r0, pc, r2
    1718:	01020000 	mrseq	r0, (UNDEF: 2)
    171c:	000d0efb 	strdeq	r0, [sp], -fp
    1720:	01010101 	tsteq	r1, r1, lsl #2
    1724:	01000000 	mrseq	r0, (UNDEF: 0)
    1728:	61010000 	mrsvs	r0, (UNDEF: 1)
    172c:	2f686372 	svccs	0x00686372
    1730:	2f6d7261 	svccs	0x006d7261
    1734:	6863616d 	stmdavs	r3!, {r0, r2, r3, r5, r6, r8, sp, lr}^
    1738:	6e75732d 	cdpvs	3, 7, cr7, cr5, cr13, {1}
    173c:	702f6978 	eorvc	r6, pc, r8, ror r9	; <UNPREDICTABLE>
    1740:	74732f6d 	ldrbtvc	r2, [r3], #-3949	; 0xf6d
    1744:	62646e61 	rsbvs	r6, r4, #1552	; 0x610
    1748:	2f2e2f79 	svccs	0x002e2f79
    174c:	00002e2e 	andeq	r2, r0, lr, lsr #28
    1750:	5f6d656d 	svcpl	0x006d656d
    1754:	2e726d74 	mrccs	13, 3, r6, cr2, cr4, {3}
    1758:	00010063 	andeq	r0, r1, r3, rrx
    175c:	5f6d7000 	svcpl	0x006d7000
    1760:	65707974 	ldrbvs	r7, [r0, #-2420]!	; 0x974
    1764:	00682e73 	rsbeq	r2, r8, r3, ror lr
    1768:	6d000001 	stcvs	0, cr0, [r0, #-4]
    176c:	745f6d65 	ldrbvc	r6, [pc], #-3429	; 1774 <__standby_start+0x1774>
    1770:	682e726d 	stmdavs	lr!, {r0, r2, r3, r5, r6, r9, ip, sp, lr}
    1774:	00000100 	andeq	r0, r0, r0, lsl #2
    1778:	02050000 	andeq	r0, r5, #0
    177c:	f0002bd8 			; <UNDEFINED> instruction: 0xf0002bd8
    1780:	18011103 	stmdane	r1, {r0, r1, r8, ip}
    1784:	342e7a03 	strtcc	r7, [lr], #-2563	; 0xa03
    1788:	032b312b 	teqeq	fp, #-1073741814	; 0xc000000a
    178c:	7703820c 	strvc	r8, [r3, -ip, lsl #4]
    1790:	4b4b2f2e 	blmi	12cd450 <__standby_start+0x12cd450>
    1794:	4d4b4b4b 	vstrmi	d20, [fp, #-300]	; 0xfffffed4
    1798:	142e0f03 	strtne	r0, [lr], #-3843	; 0xf03
    179c:	09033064 	stmdbeq	r3, {r2, r5, r6, ip, sp}
    17a0:	2e77032e 	cdpcs	3, 7, cr0, cr7, cr14, {1}
    17a4:	4b4b4b2f 	blmi	12d4468 <__standby_start+0x12d4468>
    17a8:	034d4b4b 	movteq	r4, #56139	; 0xdb4b
    17ac:	2c162e0f 	ldccs	14, cr2, [r6], {15}
    17b0:	2c302c30 	ldccs	12, cr2, [r0], #-192	; 0xffffff40
    17b4:	4b2f2951 	blmi	bcbd00 <__standby_start+0xbcbd00>
    17b8:	2e0f034d 	cdpcs	3, 0, cr0, cr15, cr13, {2}
    17bc:	4b293313 	blmi	a4e410 <__standby_start+0xa4e410>
    17c0:	2f2f2c2f 	svccs	0x002f2c2f
    17c4:	2e120331 	mrccs	3, 0, r0, cr2, cr1, {1}
    17c8:	4d68bb15 	fstmdbxmi	r8!, {d27-d36}	;@ Deprecated
    17cc:	12036969 	andne	r6, r3, #1720320	; 0x1a4000
    17d0:	69bb142e 	ldmibvs	fp!, {r1, r2, r3, r5, sl, ip}
    17d4:	02026769 	andeq	r6, r2, #27525120	; 0x1a40000
    17d8:	19010100 	stmdbne	r1, {r8}
    17dc:	02000000 	andeq	r0, r0, #0
    17e0:	00001300 	andeq	r1, r0, r0, lsl #6
    17e4:	fb010200 	blx	41fee <__standby_start+0x41fee>
    17e8:	01000d0e 	tsteq	r0, lr, lsl #26
    17ec:	00010101 	andeq	r0, r1, r1, lsl #2
    17f0:	00010000 	andeq	r0, r1, r0
    17f4:	00000100 	andeq	r0, r0, r0, lsl #2
    17f8:	00000167 	andeq	r0, r0, r7, ror #2
    17fc:	00770002 	rsbseq	r0, r7, r2
    1800:	01020000 	mrseq	r0, (UNDEF: 2)
    1804:	000d0efb 	strdeq	r0, [sp], -fp
    1808:	01010101 	tsteq	r1, r1, lsl #2
    180c:	01000000 	mrseq	r0, (UNDEF: 0)
    1810:	61010000 	mrsvs	r0, (UNDEF: 1)
    1814:	2f686372 	svccs	0x00686372
    1818:	2f6d7261 	svccs	0x006d7261
    181c:	6863616d 	stmdavs	r3!, {r0, r2, r3, r5, r6, r8, sp, lr}^
    1820:	6e75732d 	cdpvs	3, 7, cr7, cr5, cr13, {1}
    1824:	702f6978 	eorvc	r6, pc, r8, ror r9	; <UNPREDICTABLE>
    1828:	74732f6d 	ldrbtvc	r2, [r3], #-3949	; 0xf6d
    182c:	62646e61 	rsbvs	r6, r4, #1552	; 0x610
    1830:	2f2e2f79 	svccs	0x002e2f79
    1834:	00002e2e 	andeq	r2, r0, lr, lsr #28
    1838:	5f6d656d 	svcpl	0x006d656d
    183c:	2e6b6c63 	cdpcs	12, 6, cr6, cr11, cr3, {3}
    1840:	00010063 	andeq	r0, r1, r3, rrx
    1844:	5f6d7000 	svcpl	0x006d7000
    1848:	65707974 	ldrbvs	r7, [r0, #-2420]!	; 0x974
    184c:	00682e73 	rsbeq	r2, r8, r3, ror lr
    1850:	6d000001 	stcvs	0, cr0, [r0, #-4]
    1854:	635f6d65 	cmpvs	pc, #6464	; 0x1940
    1858:	2d756d63 	ldclcs	13, cr6, [r5, #-396]!	; 0xfffffe74
    185c:	386e7573 	stmdacc	lr!, {r0, r1, r4, r5, r6, r8, sl, ip, sp, lr}^
    1860:	70357769 	eorsvc	r7, r5, r9, ror #14
    1864:	00682e31 	rsbeq	r2, r8, r1, lsr lr
    1868:	6d000001 	stcvs	0, cr0, [r0, #-4]
    186c:	635f6d65 	cmpvs	pc, #6464	; 0x1940
    1870:	682e6b6c 	stmdavs	lr!, {r2, r3, r5, r6, r8, r9, fp, sp, lr}
    1874:	00000100 	andeq	r0, r0, r0, lsl #2
    1878:	02050000 	andeq	r0, r5, #0
    187c:	f0002d70 			; <UNDEFINED> instruction: 0xf0002d70
    1880:	13011503 	movwne	r1, #5379	; 0x1503
    1884:	3048682f 	subcc	r6, r8, pc, lsr #16
    1888:	0332302c 	teqeq	r2, #44	; 0x2c
    188c:	4b144a11 	blmi	5140d8 <__standby_start+0x5140d8>
    1890:	134a1403 	movtne	r1, #41987	; 0xa403
    1894:	2b4d2f2d 	blcs	134d550 <__standby_start+0x134d550>
    1898:	2e780352 	mrccs	3, 3, r0, cr8, cr2, {2}
    189c:	4d4b2f31 	stclmi	15, cr2, [fp, #-196]	; 0xffffff3c
    18a0:	142e1203 	strtne	r1, [lr], #-515	; 0x203
    18a4:	2e760352 	mrccs	3, 3, r0, cr6, cr2, {2}
    18a8:	2e0d0330 	mcrcs	3, 0, r0, cr13, cr0, {1}
    18ac:	362e7303 	strtcc	r7, [lr], -r3, lsl #6
    18b0:	034d4b2f 	movteq	r4, #56111	; 0xdb2f
    18b4:	4e2f2e0f 	cdpmi	14, 2, cr2, cr15, cr15, {0}
    18b8:	7603346a 	strvc	r3, [r3], -sl, ror #8
    18bc:	4b2f312e 	blmi	bcdd7c <__standby_start+0xbcdd7c>
    18c0:	32308332 	eorscc	r8, r0, #-939524096	; 0xc8000000
    18c4:	6d034e2a 	stcvs	14, cr4, [r3, #-168]	; 0xffffff58
    18c8:	2e14032e 	cdpcs	3, 1, cr0, cr4, cr14, {1}
    18cc:	134a0e03 	movtne	r0, #44547	; 0xae03
    18d0:	312d302d 	teqcc	sp, sp, lsr #32
    18d4:	2f2f296b 	svccs	0x002f296b
    18d8:	4d2f2f2d 	stcmi	15, cr2, [pc, #-180]!	; 182c <__standby_start+0x182c>
    18dc:	13661003 	cmnne	r6, #3
    18e0:	2f2d2f65 	svccs	0x002d2f65
    18e4:	032e1003 	teqeq	lr, #3
    18e8:	312b2e74 	teqcc	fp, r4, ror lr
    18ec:	6768684c 	strbvs	r6, [r8, -ip, asr #16]!
    18f0:	4a0f0333 	bmi	3c25c4 <__standby_start+0x3c25c4>
    18f4:	2f2e8113 	svccs	0x002e8113
    18f8:	032e0e03 	teqeq	lr, #48	; 0x30
    18fc:	302f2e73 	eorcc	r2, pc, r3, ror lr	; <UNPREDICTABLE>
    1900:	78033031 	stmdavc	r3, {r0, r4, r5, ip, sp}
    1904:	31302f2e 	teqcc	r0, lr, lsr #30
    1908:	0e033330 	mcreq	3, 0, r3, cr3, cr0, {1}
    190c:	2c31014a 	ldfcss	f0, [r1], #-296	; 0xfffffed8
    1910:	2e1a03a0 	cdpcs	3, 1, cr0, cr10, cr0, {5}
    1914:	4d2e6903 	stcmi	9, cr6, [lr, #-12]!
    1918:	4b4b4b4b 	blmi	12d464c <__standby_start+0x12d464c>
    191c:	034a0d03 	movteq	r0, #44291	; 0xad03
    1920:	0b032e74 	bleq	cd2f8 <__standby_start+0xcd2f8>
    1924:	304b2f4a 	subcc	r2, fp, sl, asr #30
    1928:	132e0f03 	teqne	lr, #12
    192c:	2d4b2f2d 	stclcs	15, cr2, [fp, #-180]	; 0xffffff4c
    1930:	034a1503 	movteq	r1, #42243	; 0xa503
    1934:	032f2e6c 	teqeq	pc, #1728	; 0x6c0
    1938:	4b4b4a09 	blmi	12d4164 <__standby_start+0x12d4164>
    193c:	4f4b4b4b 	svcmi	0x004b4b4b
    1940:	1a2e2f03 	bne	b8d554 <__standby_start+0xb8d554>
    1944:	30322b69 	eorscc	r2, r2, r9, ror #22
    1948:	304e322c 	subcc	r3, lr, ip, lsr #4
    194c:	352c2f2d 	strcc	r2, [ip, #-3885]!	; 0xf2d
    1950:	3030482c 	eorscc	r4, r0, ip, lsr #16
    1954:	017a036c 	cmneq	sl, ip, ror #6
    1958:	032e7703 	teqeq	lr, #786432	; 0xc0000
    195c:	04022e0f 	streq	r2, [r2], #-3599	; 0xe0f
    1960:	19010100 	stmdbne	r1, {r8}
    1964:	02000000 	andeq	r0, r0, #0
    1968:	00001300 	andeq	r1, r0, r0, lsl #6
    196c:	fb010200 	blx	42176 <__standby_start+0x42176>
    1970:	01000d0e 	tsteq	r0, lr, lsl #26
    1974:	00010101 	andeq	r0, r1, r1, lsl #2
    1978:	00010000 	andeq	r0, r1, r0
    197c:	00000100 	andeq	r0, r0, r0, lsl #2

Disassembly of section .debug_str:

00000000 <.debug_str>:
       0:	5f657270 	svcpl	0x00657270
       4:	00766964 	rsbseq	r6, r6, r4, ror #18
       8:	535f4d50 	cmppl	pc, #5120	; 0x1400
       c:	444e4154 	strbmi	r4, [lr], #-340	; 0x154
      10:	505f5942 	subspl	r5, pc, r2, asr #18
      14:	544e4952 	strbpl	r4, [lr], #-2386	; 0x952
      18:	5543435f 	strbpl	r4, [r3, #-863]	; 0x35f
      1c:	4154535f 	cmpmi	r4, pc, asr r3
      20:	00535554 	subseq	r5, r3, r4, asr r5
      24:	6f697067 	svcvs	0x00697067
      28:	616e655f 	cmnvs	lr, pc, asr r5
      2c:	5f656c62 	svcpl	0x00656c62
      30:	6d746962 	ldclvs	9, cr6, [r4, #-392]!	; 0xfffffe78
      34:	63007061 	movwvs	r7, #97	; 0x61
      38:	5f787570 	svcpl	0x00787570
      3c:	6f697067 	svcvs	0x00697067
      40:	69625f67 	stmdbvs	r2!, {r0, r1, r2, r5, r6, r8, r9, sl, fp, ip, lr}^
      44:	70616d74 	rsbvc	r6, r1, r4, ror sp
      48:	5f4d5000 	svcpl	0x004d5000
      4c:	4e415453 	mcrmi	4, 2, r5, cr1, cr3, {2}
      50:	5f594244 	svcpl	0x00594244
      54:	4e495250 	mcrmi	2, 2, r5, cr9, cr0, {2}
      58:	50435f54 	subpl	r5, r3, r4, asr pc
      5c:	495f5355 	ldmdbmi	pc, {r0, r2, r4, r6, r8, r9, ip, lr}^	; <UNPREDICTABLE>
      60:	54535f4f 	ldrbpl	r5, [r3], #-3919	; 0xf4f
      64:	53555441 	cmppl	r5, #1090519040	; 0x41000000
      68:	69777400 	ldmdbvs	r7!, {sl, ip, sp, lr}^
      6c:	726f705f 	rsbvc	r7, pc, #95	; 0x5f
      70:	72610074 	rsbvc	r0, r1, #116	; 0x74
      74:	612f6863 	teqvs	pc, r3, ror #16
      78:	6d2f6d72 	stcvs	13, cr6, [pc, #-456]!	; fffffeb8 <__bss_end+0xfffc89c>
      7c:	2d686361 	stclcs	3, cr6, [r8, #-388]!	; 0xfffffe7c
      80:	786e7573 	stmdavc	lr!, {r0, r1, r4, r5, r6, r8, sl, ip, sp, lr}^
      84:	6d702f69 	ldclvs	15, cr2, [r0, #-420]!	; 0xfffffe5c
      88:	6174732f 	cmnvs	r4, pc, lsr #6
      8c:	7962646e 	stmdbvc	r2!, {r1, r2, r3, r5, r6, sl, sp, lr}^
      90:	6174732f 	cmnvs	r4, pc, lsr #6
      94:	7962646e 	stmdbvc	r2!, {r1, r2, r3, r5, r6, sl, sp, lr}^
      98:	5f00632e 	svcpl	0x0000632e
      9c:	7373625f 	cmnvc	r3, #-268435451	; 0xf0000005
      a0:	646e655f 	strbtvs	r6, [lr], #-1375	; 0x55f
      a4:	635f6400 	cmpvs	pc, #0
      a8:	65686361 	strbvs	r6, [r8, #-865]!	; 0x361
      ac:	73696d5f 	cmnvc	r9, #6080	; 0x17c0
      b0:	74735f73 	ldrbtvc	r5, [r3], #-3955	; 0xf73
      b4:	00747261 	rsbseq	r7, r4, r1, ror #4
      b8:	726f6873 	rsbvc	r6, pc, #7536640	; 0x730000
      bc:	6e692074 	mcrvs	0, 3, r2, cr9, cr4, {3}
      c0:	65720074 	ldrbvs	r0, [r2, #-116]!	; 0x74
      c4:	726f7473 	rsbvc	r7, pc, #1929379840	; 0x73000000
      c8:	63635f65 	cmnvs	r3, #404	; 0x194
      cc:	61630075 	smcvs	12293	; 0x3005
      d0:	5f656863 	svcpl	0x00656863
      d4:	6e756f63 	cdpvs	15, 7, cr6, cr5, cr3, {3}
      d8:	65675f74 	strbvs	r5, [r7, #-3956]!	; 0xf74
      dc:	6e690074 	mcrvs	0, 3, r0, cr9, cr4, {3}
      e0:	705f7469 	subsvc	r7, pc, r9, ror #8
      e4:	645f6c6c 	ldrbvs	r6, [pc], #-3180	; ec <__standby_start+0xec>
      e8:	62007369 	andvs	r7, r0, #-1543503871	; 0xa4000001
      ec:	756b6361 	strbvc	r6, [fp, #-865]!	; 0x361
      f0:	63635f70 	cmnvs	r3, #448	; 0x1c0
      f4:	6d740075 	ldclvs	0, cr0, [r4, #-468]!	; 0xfffffe2c
      f8:	72745070 	rsbsvc	r5, r4, #112	; 0x70
      fc:	544e4900 	strbpl	r4, [lr], #-2304	; 0x900
     100:	554f535f 	strbpl	r5, [pc, #-863]	; fffffda9 <__bss_end+0xfffc78d>
     104:	5f454352 	svcpl	0x00454352
     108:	43554f54 	cmpmi	r5, #336	; 0x150
     10c:	4c4e5048 	mcrrmi	0, 4, r5, lr, cr8
     110:	746e6900 	strbtvc	r6, [lr], #-2304	; 0x900
     114:	75727265 	ldrbvc	r7, [r2, #-613]!	; 0x265
     118:	735f7470 	cmpvc	pc, #1879048192	; 0x70000000
     11c:	6372756f 	cmnvs	r2, #465567744	; 0x1bc00000
     120:	00655f65 	rsbeq	r5, r5, r5, ror #30
     124:	61635f69 	cmnvs	r3, r9, ror #30
     128:	5f656863 	svcpl	0x00656863
     12c:	7373696d 	cmnvc	r3, #1785856	; 0x1b4000
     130:	646e655f 	strbtvs	r6, [lr], #-1375	; 0x55f
     134:	73756200 	cmnvc	r5, #0
     138:	7261705f 	rsbvc	r7, r1, #95	; 0x5f
     13c:	00745f61 	rsbseq	r5, r4, r1, ror #30
     140:	6f6f722f 	svcvs	0x006f722f
     144:	6f772f74 	svcvs	0x00772f74
     148:	732f6b72 	teqvc	pc, #116736	; 0x1c800
     14c:	696c6e69 	stmdbvs	ip!, {r0, r3, r5, r6, r9, sl, fp, sp, lr}^
     150:	612f786e 	teqvs	pc, lr, ror #16
     154:	6c2f3333 	stcvs	3, cr3, [pc], #-204	; 90 <__standby_start+0x90>
     158:	65686369 	strbvs	r6, [r8, #-873]!	; 0x369
     15c:	696c2f65 	stmdbvs	ip!, {r0, r2, r5, r6, r8, r9, sl, fp, sp}^
     160:	2d78756e 	cfldr64cs	mvdx7, [r8, #-440]!	; 0xfffffe48
     164:	00342e33 	eorseq	r2, r4, r3, lsr lr
     168:	74697865 	strbtvc	r7, [r9], #-2149	; 0x865
     16c:	6c6c705f 	stclvs	0, cr7, [ip], #-380	; 0xfffffe84
     170:	006e655f 	rsbeq	r6, lr, pc, asr r5
     174:	61635f64 	cmnvs	r3, r4, ror #30
     178:	5f656863 	svcpl	0x00656863
     17c:	7373696d 	cmnvc	r3, #1785856	; 0x1b4000
     180:	646e655f 	strbtvs	r6, [lr], #-1375	; 0x55f
     184:	745f6900 	ldrbvc	r6, [pc], #-2304	; 18c <__standby_start+0x18c>
     188:	6d5f626c 	lfmvs	f6, 2, [pc, #-432]	; ffffffe0 <__bss_end+0xfffc9c4>
     18c:	5f737369 	svcpl	0x00737369
     190:	00646e65 	rsbeq	r6, r4, r5, ror #28
     194:	41435f49 	cmpmi	r3, r9, asr #30
     198:	5f454843 	svcpl	0x00454843
     19c:	5353494d 	cmppl	r3, #1261568	; 0x134000
     1a0:	5f4d5000 	svcpl	0x004d5000
     1a4:	4e415453 	mcrmi	4, 2, r5, cr1, cr3, {2}
     1a8:	5f594244 	svcpl	0x00594244
     1ac:	4e495250 	mcrmi	2, 2, r5, cr9, cr0, {2}
     1b0:	54475f54 	strbpl	r5, [r7], #-3924	; 0xf54
     1b4:	5f535542 	svcpl	0x00535542
     1b8:	00474552 	subeq	r4, r7, r2, asr r5
     1bc:	535f4d50 	cmppl	pc, #5120	; 0x1400
     1c0:	444e4154 	strbmi	r4, [lr], #-340	; 0x154
     1c4:	505f5942 	subspl	r5, pc, r2, asr #18
     1c8:	544e4952 	strbpl	r4, [lr], #-2386	; 0x952
     1cc:	4341435f 	movtmi	r4, #4959	; 0x135f
     1d0:	545f4548 	ldrbpl	r4, [pc], #-1352	; 1d8 <__standby_start+0x1d8>
     1d4:	4d5f424c 	lfmmi	f4, 2, [pc, #-304]	; ac <__standby_start+0xac>
     1d8:	00535349 	subseq	r5, r3, r9, asr #6
     1dc:	676e6f6c 	strbvs	r6, [lr, -ip, ror #30]!
     1e0:	6e6f6c20 	cdpvs	12, 6, cr6, cr15, cr0, {1}
     1e4:	6e692067 	cdpvs	0, 6, cr2, cr9, cr7, {3}
     1e8:	5f690074 	svcpl	0x00690074
     1ec:	68636163 	stmdavs	r3!, {r0, r1, r5, r6, r8, sp, lr}^
     1f0:	696d5f65 	stmdbvs	sp!, {r0, r2, r5, r6, r8, r9, sl, fp, ip, lr}^
     1f4:	735f7373 	cmpvc	pc, #-872415231	; 0xcc000001
     1f8:	74726174 	ldrbtvc	r6, [r2], #-372	; 0x174
     1fc:	554e4700 	strbpl	r4, [lr, #-1792]	; 0x700
     200:	34204320 	strtcc	r4, [r0], #-800	; 0x320
     204:	332e362e 	teqcc	lr, #48234496	; 0x2e00000
     208:	31303220 	teqcc	r0, r0, lsr #4
     20c:	30323032 	eorscc	r3, r2, r2, lsr r0
     210:	70282031 	eorvc	r2, r8, r1, lsr r0
     214:	65726572 	ldrbvs	r6, [r2, #-1394]!	; 0x572
     218:	7361656c 	cmnvc	r1, #452984832	; 0x1b000000
     21c:	64002965 	strvs	r2, [r0], #-2405	; 0x965
     220:	626c745f 	rsbvs	r7, ip, #1593835520	; 0x5f000000
     224:	73696d5f 	cmnvc	r9, #6080	; 0x17c0
     228:	6e655f73 	mcrvs	15, 3, r5, cr5, cr3, {3}
     22c:	6f6e0064 	svcvs	0x006e0064
     230:	6c616d72 	stclvs	13, cr6, [r1], #-456	; 0xfffffe38
     234:	6174735f 	cmnvs	r4, pc, asr r3
     238:	7962646e 	stmdbvc	r2!, {r1, r2, r3, r5, r6, sl, sp, lr}^
     23c:	7261705f 	rsbvc	r7, r1, #95	; 0x5f
     240:	77610061 	strbvc	r0, [r1, -r1, rrx]!
     244:	756d705f 	strbvc	r7, [sp, #-95]!	; 0x5f
     248:	6772615f 			; <UNDEFINED> instruction: 0x6772615f
     24c:	62747400 	rsbsvs	r7, r4, #0
     250:	5f72305f 	svcpl	0x0072305f
     254:	6b636162 	blvs	18d87e4 <__standby_start+0x18d87e4>
     258:	44007075 	strmi	r7, [r0], #-117	; 0x75
     25c:	424c545f 	submi	r5, ip, #1593835520	; 0x5f000000
     260:	53494d5f 	movtpl	r4, #40287	; 0x9d5f
     264:	6e750053 	mrcvs	0, 3, r0, cr5, cr3, {2}
     268:	6e676973 	mcrvs	9, 3, r6, cr7, cr3, {3}
     26c:	63206465 	teqvs	r0, #1694498816	; 0x65000000
     270:	00726168 	rsbseq	r6, r2, r8, ror #2
     274:	6e617473 	mcrvs	4, 3, r7, cr1, cr3, {3}
     278:	5f796264 	svcpl	0x00796264
     27c:	6e69616d 	powvsez	f6, f1, #5.0
     280:	62656400 	rsbvs	r6, r5, #0
     284:	6d5f6775 	ldclvs	7, cr6, [pc, #-468]	; b8 <__standby_start+0xb8>
     288:	006b7361 	rsbeq	r7, fp, r1, ror #6
     28c:	5f63736f 	svcpl	0x0063736f
     290:	70006e65 	andvc	r6, r0, r5, ror #28
     294:	645f7277 	ldrbvs	r7, [pc], #-631	; 29c <__standby_start+0x29c>
     298:	6e655f6d 	cdpvs	15, 6, cr5, cr5, cr13, {3}
     29c:	73756200 	cmnvc	r5, #0
     2a0:	7261705f 	rsbvc	r7, r1, #95	; 0x5f
     2a4:	61630061 	cmnvs	r3, r1, rrx
     2a8:	5f656863 	svcpl	0x00656863
     2ac:	6e756f63 	cdpvs	15, 7, cr6, cr5, cr3, {3}
     2b0:	6e695f74 	mcrvs	15, 3, r5, cr9, cr4, {3}
     2b4:	65007469 	strvs	r7, [r0, #-1129]	; 0x469
     2b8:	6e657478 	mcrvs	4, 3, r7, cr5, cr8, {3}
     2bc:	5f646564 	svcpl	0x00646564
     2c0:	6e617473 	mcrvs	4, 3, r7, cr1, cr3, {3}
     2c4:	5f796264 	svcpl	0x00796264
     2c8:	75620074 	strbvc	r0, [r2, #-116]!	; 0x74
     2cc:	61665f73 	smcvs	26099	; 0x65f3
     2d0:	726f7463 	rsbvc	r7, pc, #1660944384	; 0x63000000
     2d4:	5f4d5000 	svcpl	0x004d5000
     2d8:	4e415453 	mcrmi	4, 2, r5, cr1, cr3, {2}
     2dc:	5f594244 	svcpl	0x00594244
     2e0:	4e495250 	mcrmi	2, 2, r5, cr9, cr0, {2}
     2e4:	54535f54 	ldrbpl	r5, [r3], #-3924	; 0xf54
     2e8:	42444e41 	submi	r4, r4, #1040	; 0x410
     2ec:	6f6c0059 	svcvs	0x006c0059
     2f0:	6c20676e 	stcvs	7, cr6, [r0], #-440	; 0xfffffe48
     2f4:	20676e6f 	rsbcs	r6, r7, pc, ror #28
     2f8:	69736e75 	ldmdbvs	r3!, {r0, r2, r4, r5, r6, r9, sl, fp, sp, lr}^
     2fc:	64656e67 	strbtvs	r6, [r5], #-3687	; 0xe67
     300:	746e6920 	strbtvc	r6, [lr], #-2336	; 0x920
     304:	70786100 	rsbsvc	r6, r8, r0, lsl #2
     308:	6576655f 	ldrbvs	r6, [r6, #-1375]!	; 0x55f
     30c:	6900746e 	stmdbvs	r0, {r1, r2, r3, r5, r6, sl, ip, sp, lr}
     310:	626c745f 	rsbvs	r7, ip, #1593835520	; 0x5f000000
     314:	73696d5f 	cmnvc	r9, #6080	; 0x17c0
     318:	74735f73 	ldrbtvc	r5, [r3], #-3955	; 0xf73
     31c:	00747261 	rsbseq	r7, r4, r1, ror #4
     320:	5f766564 	svcpl	0x00766564
     324:	72646461 	rsbvc	r6, r4, #1627389952	; 0x61000000
     328:	5f4d5000 	svcpl	0x004d5000
     32c:	4e415453 	mcrmi	4, 2, r5, cr1, cr3, {2}
     330:	5f594244 	svcpl	0x00594244
     334:	4e495250 	mcrmi	2, 2, r5, cr9, cr0, {2}
     338:	4f495f54 	svcmi	0x00495f54
     33c:	4154535f 	cmpmi	r4, pc, asr r3
     340:	00535554 	subseq	r5, r3, r4, asr r5
     344:	625f7073 	subsvs	r7, pc, #115	; 0x73
     348:	756b6361 	strbvc	r6, [fp, #-865]!	; 0x361
     34c:	77610070 			; <UNDEFINED> instruction: 0x77610070
     350:	5f6d705f 	svcpl	0x006d705f
     354:	6f666e69 	svcvs	0x00666e69
     358:	5f4d5000 	svcpl	0x004d5000
     35c:	4e415453 	mcrmi	4, 2, r5, cr1, cr3, {2}
     360:	5f594244 	svcpl	0x00594244
     364:	54534554 	ldrbpl	r4, [r3], #-1364	; 0x554
     368:	5f4d5000 	svcpl	0x004d5000
     36c:	4e415453 	mcrmi	4, 2, r5, cr1, cr3, {2}
     370:	5f594244 	svcpl	0x00594244
     374:	4e495250 	mcrmi	2, 2, r5, cr9, cr0, {2}
     378:	45525f54 	ldrbmi	r5, [r2, #-3924]	; 0xf54
     37c:	454d5553 	strbmi	r5, [sp, #-1363]	; 0x553
     380:	435f4400 	cmpmi	pc, #0
     384:	45484341 	strbmi	r4, [r8, #-833]	; 0x341
     388:	53494d5f 	movtpl	r4, #40287	; 0x9d5f
     38c:	5f5f0053 	svcpl	0x005f0053
     390:	00323375 	eorseq	r3, r2, r5, ror r3
     394:	535f4d50 	cmppl	pc, #5120	; 0x1400
     398:	444e4154 	strbmi	r4, [lr], #-340	; 0x154
     39c:	455f5942 	ldrbmi	r5, [pc, #-2370]	; fffffa62 <__bss_end+0xfffc446>
     3a0:	4c42414e 	stfmie	f4, [r2], {78}	; 0x4e
     3a4:	544a5f45 	strbpl	r5, [sl], #-3909	; 0xf45
     3a8:	50004741 	andpl	r4, r0, r1, asr #14
     3ac:	54535f4d 	ldrbpl	r5, [r3], #-3917	; 0xf4d
     3b0:	42444e41 	submi	r4, r4, #1040	; 0x410
     3b4:	52505f59 	subspl	r5, r0, #356	; 0x164
     3b8:	5f544e49 	svcpl	0x00544e49
     3bc:	55534552 	ldrbpl	r4, [r3, #-1362]	; 0x552
     3c0:	495f454d 	ldmdbmi	pc, {r0, r2, r3, r6, r8, sl, lr}^	; <UNPREDICTABLE>
     3c4:	54535f4f 	ldrbpl	r5, [r3], #-3919	; 0xf4f
     3c8:	53555441 	cmppl	r5, #1090519040	; 0x41000000
     3cc:	6c6c7000 	stclvs	0, cr7, [ip], #-0
     3d0:	7261705f 	rsbvc	r7, r1, #95	; 0x5f
     3d4:	00745f61 	rsbseq	r5, r4, r1, ror #30
     3d8:	5f544e49 	svcpl	0x00544e49
     3dc:	52554f53 	subspl	r4, r5, #332	; 0x14c
     3e0:	455f4543 	ldrbmi	r4, [pc, #-1347]	; fffffea5 <__bss_end+0xfffc889>
     3e4:	4d4e5458 	cfstrdmi	mvd5, [lr, #-352]	; 0xfffffea0
     3e8:	68730049 	ldmdavs	r3!, {r0, r3, r6}^
     3ec:	2074726f 	rsbscs	r7, r4, pc, ror #4
     3f0:	69736e75 	ldmdbvs	r3!, {r0, r2, r4, r5, r6, r9, sl, fp, sp, lr}^
     3f4:	64656e67 	strbtvs	r6, [r5], #-3687	; 0xe67
     3f8:	746e6920 	strbtvc	r6, [lr], #-2336	; 0x920
     3fc:	544e4900 	strbpl	r4, [lr], #-2304	; 0x900
     400:	554f535f 	strbpl	r5, [pc, #-863]	; a9 <__standby_start+0xa9>
     404:	5f454352 	svcpl	0x00454352
     408:	4441524c 	strbmi	r5, [r1], #-588	; 0x24c
     40c:	6c700043 	ldclvs	0, cr0, [r0], #-268	; 0xfffffef4
     410:	61705f6c 	cmnvs	r0, ip, ror #30
     414:	49006172 	stmdbmi	r0, {r1, r4, r5, r6, r8, sp, lr}
     418:	535f544e 	cmppl	pc, #1308622848	; 0x4e000000
     41c:	4352554f 	cmpmi	r2, #331350016	; 0x13c00000
     420:	49545f45 	ldmdbmi	r4, {r0, r2, r6, r8, r9, sl, fp, ip, lr}^
     424:	3052454d 	subscc	r4, r2, sp, asr #10
     428:	544e4900 	strbpl	r4, [lr], #-2304	; 0x900
     42c:	554f535f 	strbpl	r5, [pc, #-863]	; d5 <__standby_start+0xd5>
     430:	5f454352 	svcpl	0x00454352
     434:	454d4954 	strbmi	r4, [sp, #-2388]	; 0x954
     438:	6e003152 	mcrvs	1, 0, r3, cr0, cr2, {2}
     43c:	616d726f 	cmnvs	sp, pc, ror #4
     440:	74735f6c 	ldrbtvc	r5, [r3], #-3948	; 0xf6c
     444:	62646e61 	rsbvs	r6, r4, #1552	; 0x610
     448:	61705f79 	cmnvs	r0, r9, ror pc
     44c:	695f6172 	ldmdbvs	pc, {r1, r4, r5, r6, r8, sp, lr}^	; <UNPREDICTABLE>
     450:	006f666e 	rsbeq	r6, pc, lr, ror #12
     454:	535f4d50 	cmppl	pc, #5120	; 0x1400
     458:	444e4154 	strbmi	r4, [lr], #-340	; 0x154
     45c:	505f5942 	subspl	r5, pc, r2, asr #18
     460:	544e4952 	strbpl	r4, [lr], #-2386	; 0x952
     464:	4943435f 	stmdbmi	r3, {r0, r1, r2, r3, r4, r6, r8, r9, lr}^
     468:	5f303034 	svcpl	0x00303034
     46c:	00474552 	subeq	r4, r7, r2, asr r5
     470:	6c745f64 	ldclvs	15, cr5, [r4], #-400	; 0xfffffe70
     474:	696d5f62 	stmdbvs	sp!, {r1, r5, r6, r8, r9, sl, fp, ip, lr}^
     478:	735f7373 	cmpvc	pc, #-872415231	; 0xcc000001
     47c:	74726174 	ldrbtvc	r6, [r2], #-372	; 0x174
     480:	5f776100 	svcpl	0x00776100
     484:	6e617473 	mcrvs	4, 3, r7, cr1, cr3, {3}
     488:	5f796264 	svcpl	0x00796264
     48c:	61726170 	cmnvs	r2, r0, ror r1
     490:	76696400 	strbtvc	r6, [r9], -r0, lsl #8
     494:	7461725f 	strbtvc	r7, [r1], #-607	; 0x25f
     498:	63006f69 	movwvs	r6, #3945	; 0xf69
     49c:	746e756f 	strbtvc	r7, [lr], #-1391	; 0x56f
     4a0:	745f7265 	ldrbvc	r7, [pc], #-613	; 4a8 <__standby_start+0x4a8>
     4a4:	5f657079 	svcpl	0x00657079
     4a8:	6c700065 	ldclvs	0, cr0, [r0], #-404	; 0xfffffe6c
     4ac:	68635f6c 	stmdavs	r3!, {r2, r3, r5, r6, r8, r9, sl, fp, ip, lr}^
     4b0:	65676e61 	strbvs	r6, [r7, #-3681]!	; 0xe61
     4b4:	625f5f00 	subsvs	r5, pc, #0
     4b8:	735f7373 	cmpvc	pc, #-872415231	; 0xcc000001
     4bc:	74726174 	ldrbtvc	r6, [r2], #-372	; 0x174
     4c0:	78657000 	stmdavc	r5!, {ip, sp, lr}^
     4c4:	646e6574 	strbtvs	r6, [lr], #-1396	; 0x574
     4c8:	735f6465 	cmpvc	pc, #1694498816	; 0x65000000
     4cc:	646e6174 	strbtvs	r6, [lr], #-372	; 0x174
     4d0:	49007962 	stmdbmi	r0, {r1, r5, r6, r8, fp, ip, sp, lr}
     4d4:	535f544e 	cmppl	pc, #1308622848	; 0x4e000000
     4d8:	4352554f 	cmpmi	r2, #331350016	; 0x13c00000
     4dc:	534d5f45 	movtpl	r5, #57157	; 0xdf45
     4e0:	4f425f47 	svcmi	0x00425f47
     4e4:	5f490058 	svcpl	0x00490058
     4e8:	5f424c54 	svcpl	0x00424c54
     4ec:	5353494d 	cmppl	r3, #1261568	; 0x134000
     4f0:	63616300 	cmnvs	r1, #0
     4f4:	635f6568 	cmpvs	pc, #436207616	; 0x1a000000
     4f8:	746e756f 	strbtvc	r7, [lr], #-1391	; 0x56f
     4fc:	74756f5f 	ldrbtvc	r6, [r5], #-3935	; 0xf5f
     500:	00747570 	rsbseq	r7, r4, r0, ror r5
     504:	5f737562 	svcpl	0x00737562
     508:	6e616863 	cdpvs	8, 6, cr6, cr1, cr3, {3}
     50c:	6d006567 	cfstr32vs	mvfx6, [r0, #-412]	; 0xfffffe64
     510:	625f756d 	subsvs	r7, pc, #457179136	; 0x1b400000
     514:	756b6361 	strbvc	r6, [fp, #-865]!	; 0x361
     518:	72610070 	rsbvc	r0, r1, #112	; 0x70
     51c:	612f6863 	teqvs	pc, r3, ror #16
     520:	6d2f6d72 	stcvs	13, cr6, [pc, #-456]!	; 360 <__standby_start+0x360>
     524:	2d686361 	stclcs	3, cr6, [r8, #-388]!	; 0xfffffe7c
     528:	786e7573 	stmdavc	lr!, {r0, r1, r4, r5, r6, r8, sl, ip, sp, lr}^
     52c:	6d702f69 	ldclvs	15, cr2, [r0, #-420]!	; 0xfffffe5c
     530:	6174732f 	cmnvs	r4, pc, lsr #6
     534:	7962646e 	stmdbvc	r2!, {r1, r2, r3, r5, r6, sl, sp, lr}^
     538:	6d6f632f 	stclvs	3, cr6, [pc, #-188]!	; 484 <__standby_start+0x484>
     53c:	2e6e6f6d 	cdpcs	15, 6, cr6, cr14, cr13, {3}
     540:	74730063 	ldrbtvc	r0, [r3], #-99	; 0x63
     544:	62646e61 	rsbvs	r6, r4, #1552	; 0x610
     548:	646d5f79 	strbtvs	r5, [sp], #-3961	; 0xf79
     54c:	79616c65 	stmdbvc	r1!, {r0, r2, r5, r6, sl, fp, sp, lr}^
     550:	706d7400 	rsbvc	r7, sp, r0, lsl #8
     554:	7473645f 	ldrbtvc	r6, [r3], #-1119	; 0x45f
     558:	75706300 	ldrbvc	r6, [r0, #-768]!	; 0x300
     55c:	5f736d5f 	svcpl	0x00736d5f
     560:	706f6f6c 	rsbvc	r6, pc, ip, ror #30
     564:	00746e63 	rsbseq	r6, r4, r3, ror #28
     568:	6e617473 	mcrvs	4, 3, r7, cr1, cr3, {3}
     56c:	5f796264 	svcpl	0x00796264
     570:	636d656d 	cmnvs	sp, #457179136	; 0x1b400000
     574:	74007970 	strvc	r7, [r0], #-2416	; 0x970
     578:	735f706d 	cmpvc	pc, #109	; 0x6d
     57c:	50006372 	andpl	r6, r0, r2, ror r3
     580:	34326c6c 	ldrtcc	r6, [r2], #-3180	; 0xc6c
     584:	74754f4d 	ldrbtvc	r4, [r5], #-3917	; 0xf4d
     588:	50006e45 	andpl	r6, r0, r5, asr #28
     58c:	72446c6c 	subvc	r6, r4, #27648	; 0x6c00
     590:	50306d61 	eorspl	r6, r0, r1, ror #26
     594:	65747461 	ldrbvs	r7, [r4, #-1121]!	; 0x461
     598:	5f006e72 	svcpl	0x00006e72
     59c:	4d43435f 	stclmi	3, cr4, [r3, #-380]	; 0xfffffe84
     5a0:	48415f55 	stmdami	r1, {r0, r2, r4, r6, r8, r9, sl, fp, ip, lr}^
     5a4:	525f3142 	subspl	r3, pc, #-2147483632	; 0x80000010
     5a8:	4f495441 	svcmi	0x00495441
     5ac:	4745525f 	smlsldmi	r5, r5, pc, r2	; <UNPREDICTABLE>
     5b0:	34353030 	ldrtcc	r3, [r5], #-48	; 0x30
     5b4:	635f5f00 	cmpvs	pc, #0
     5b8:	5f756d63 	svcpl	0x00756d63
     5bc:	6970696d 	ldmdbvs	r0!, {r0, r2, r3, r5, r6, r8, fp, sp, lr}^
     5c0:	6c6c705f 	stclvs	0, cr7, [ip], #-380	; 0xfffffe84
     5c4:	6765725f 			; <UNDEFINED> instruction: 0x6765725f
     5c8:	30343030 	eorscc	r3, r4, r0, lsr r0
     5cc:	7200745f 	andvc	r7, r0, #1593835520	; 0x5f000000
     5d0:	72657365 	rsbvc	r7, r5, #-1811939327	; 0x94000001
     5d4:	31646576 	smccc	18006	; 0x4656
     5d8:	72003233 	andvc	r3, r0, #805306371	; 0x30000003
     5dc:	72657365 	rsbvc	r7, r5, #-1811939327	; 0x94000001
     5e0:	31646576 	smccc	18006	; 0x4656
     5e4:	72003333 	andvc	r3, r0, #-872415232	; 0xcc000000
     5e8:	72657365 	rsbvc	r7, r5, #-1811939327	; 0x94000001
     5ec:	31646576 	smccc	18006	; 0x4656
     5f0:	64003433 	strvs	r3, [r0], #-1075	; 0x433
     5f4:	6c617677 	stclvs	6, cr7, [r1], #-476	; 0xfffffe24
     5f8:	64634c00 	strbtvs	r4, [r3], #-3072	; 0xc00
     5fc:	30684330 	rsbcc	r4, r8, r0, lsr r3
     600:	64634c00 	strbtvs	r4, [r3], #-3072	; 0xc00
     604:	31684330 	cmncc	r8, r0, lsr r3
     608:	6c6c5000 	stclvs	0, cr5, [ip], #-0
     60c:	6c744336 	ldclvs	3, cr4, [r4], #-216	; 0xffffff28
     610:	73657200 	cmnvc	r5, #0
     614:	65767265 	ldrbvs	r7, [r6, #-613]!	; 0x265
     618:	31343164 	teqcc	r4, r4, ror #2
     61c:	73657200 	cmnvc	r5, #0
     620:	65767265 	ldrbvs	r7, [r6, #-613]!	; 0x265
     624:	32343164 	eorscc	r3, r4, #25
     628:	73657200 	cmnvc	r5, #0
     62c:	65767265 	ldrbvs	r7, [r6, #-613]!	; 0x265
     630:	33343164 	teqcc	r4, #25
     634:	6c6c5000 	stclvs	0, cr5, [ip], #-0
     638:	00637253 	rsbeq	r7, r3, r3, asr r2
     63c:	30733249 	rsbscc	r3, r3, r9, asr #4
     640:	73324900 	teqvc	r2, #0
     644:	6c500031 	mrrcvs	0, 3, r0, r0, cr1	; <UNPREDICTABLE>
     648:	4330316c 	teqmi	r0, #27
     64c:	50006c74 	andpl	r6, r0, r4, ror ip
     650:	43346c6c 	teqmi	r4, #27648	; 0x6c00
     654:	73006c74 	movwvc	r6, #3188	; 0xc74
     658:	646e6174 	strbtvs	r6, [lr], #-372	; 0x174
     65c:	635f7962 	cmpvs	pc, #1605632	; 0x188000
     660:	635f6b6c 	cmpvs	pc, #110592	; 0x1b000
     664:	3265726f 	rsbcc	r7, r5, #-268435450	; 0xf0000006
     668:	63736f68 	cmnvs	r3, #416	; 0x1a0
     66c:	635f5f00 	cmpvs	pc, #0
     670:	5f756d63 	svcpl	0x00756d63
     674:	366c6c70 			; <UNDEFINED> instruction: 0x366c6c70
     678:	6765725f 			; <UNDEFINED> instruction: 0x6765725f
     67c:	38323030 	ldmdacc	r2!, {r4, r5, ip, sp}
     680:	4d00745f 	cfstrsmi	mvf7, [r0, #-380]	; 0xfffffe84
     684:	44697069 	strbtmi	r7, [r9], #-105	; 0x69
     688:	5f006973 	svcpl	0x00006973
     68c:	6d63635f 	stclvs	3, cr6, [r3, #-380]!	; 0xfffffe84
     690:	79735f75 	ldmdbvc	r3!, {r0, r2, r4, r5, r6, r8, r9, sl, fp, ip, lr}^
     694:	6b6c6373 	blvs	1b19468 <__standby_start+0x1b19468>
     698:	7461725f 	strbtvc	r7, [r1], #-607	; 0x25f
     69c:	725f6f69 	subsvc	r6, pc, #420	; 0x1a4
     6a0:	30306765 	eorscc	r6, r0, r5, ror #14
     6a4:	745f3035 	ldrbvc	r3, [pc], #-53	; 6ac <__standby_start+0x6ac>
     6a8:	6f644c00 	svcvs	0x00644c00
     6ac:	006e4532 	rsbeq	r4, lr, r2, lsr r5
     6b0:	416c6c50 	cmnmi	ip, r0, asr ip
     6b4:	6f696475 	svcvs	0x00696475
     6b8:	73616942 	cmnvc	r1, #1081344	; 0x108000
     6bc:	756d4300 	strbvc	r4, [sp, #-768]!	; 0x300
     6c0:	5f676552 	svcpl	0x00676552
     6c4:	316c6c50 	cmncc	ip, r0, asr ip
     6c8:	5f6c7443 	svcpl	0x006c7443
     6cc:	00706d74 	rsbseq	r6, r0, r4, ror sp
     6d0:	65736572 	ldrbvs	r6, [r3, #-1394]!	; 0x572
     6d4:	64657672 	strbtvs	r7, [r5], #-1650	; 0x672
     6d8:	00313531 	eorseq	r3, r1, r1, lsr r5
     6dc:	65736572 	ldrbvs	r6, [r3, #-1394]!	; 0x572
     6e0:	64657672 	strbtvs	r7, [r5], #-1650	; 0x672
     6e4:	00323531 	eorseq	r3, r2, r1, lsr r5
     6e8:	65736572 	ldrbvs	r6, [r3, #-1394]!	; 0x572
     6ec:	64657672 	strbtvs	r7, [r5], #-1650	; 0x672
     6f0:	00333531 	eorseq	r3, r3, r1, lsr r5
     6f4:	65736572 	ldrbvs	r6, [r3, #-1394]!	; 0x572
     6f8:	64657672 	strbtvs	r7, [r5], #-1650	; 0x672
     6fc:	00343531 	eorseq	r3, r4, r1, lsr r5
     700:	486c6c50 	stmdami	ip!, {r4, r6, sl, fp, sp, lr}^
     704:	50636973 	rsbpl	r6, r3, r3, ror r9
     708:	65747461 	ldrbvs	r7, [r4, #-1121]!	; 0x461
     70c:	50006e72 	andpl	r6, r0, r2, ror lr
     710:	66434c4c 	strbvs	r4, [r3], -ip, asr #24
     714:	64705567 	ldrbtvs	r5, [r0], #-1383	; 0x567
     718:	00657461 	rsbeq	r7, r5, r1, ror #8
     71c:	476c6c50 			; <UNDEFINED> instruction: 0x476c6c50
     720:	61507570 	cmpvs	r0, r0, ror r5
     724:	72657474 	rsbvc	r7, r5, #1946157056	; 0x74000000
     728:	6c50006e 	mrrcvs	0, 6, r0, r0, cr14	; <UNPREDICTABLE>
     72c:	6973486c 	ldmdbvs	r3!, {r2, r3, r5, r6, fp, lr}^
     730:	61694263 	cmnvs	r9, r3, ror #4
     734:	5f5f0073 	svcpl	0x005f0073
     738:	756d6363 	strbvc	r6, [sp, #-867]!	; 0x363
     73c:	6c6c705f 	stclvs	0, cr7, [ip], #-380	; 0xfffffe84
     740:	65725f35 	ldrbvs	r5, [r2, #-3893]!	; 0xf35
     744:	32303067 	eorscc	r3, r0, #103	; 0x67
     748:	00745f30 	rsbseq	r5, r4, r0, lsr pc
     74c:	316c6c50 	cmncc	ip, r0, asr ip
     750:	006e7554 	rsbeq	r7, lr, r4, asr r5
     754:	7375424d 	cmnvc	r5, #-805306364	; 0xd0000004
     758:	66560030 			; <UNDEFINED> instruction: 0x66560030
     75c:	6c655362 	stclvs	3, cr5, [r5], #-392	; 0xfffffe78
     760:	70694d00 	rsbvc	r4, r9, r0, lsl #26
     764:	6c6c5069 	stclvs	0, cr5, [ip], #-420	; 0xfffffe5c
     768:	006c7443 	rsbeq	r7, ip, r3, asr #8
     76c:	74636146 	strbtvc	r6, [r3], #-326	; 0x146
     770:	004b726f 	subeq	r7, fp, pc, ror #4
     774:	74636146 	strbtvc	r6, [r3], #-326	; 0x146
     778:	004d726f 	subeq	r7, sp, pc, ror #4
     77c:	74636146 	strbtvc	r6, [r3], #-326	; 0x146
     780:	004e726f 	subeq	r7, lr, pc, ror #4
     784:	32627041 	rsbcc	r7, r2, #65	; 0x41
     788:	00766944 	rsbseq	r6, r6, r4, asr #18
     78c:	74636146 	strbtvc	r6, [r3], #-326	; 0x146
     790:	0050726f 	subseq	r7, r0, pc, ror #4
     794:	65736572 	ldrbvs	r6, [r3, #-1394]!	; 0x572
     798:	64657672 	strbtvs	r7, [r5], #-1650	; 0x672
     79c:	00323032 	eorseq	r3, r2, r2, lsr r0
     7a0:	65736572 	ldrbvs	r6, [r3, #-1394]!	; 0x572
     7a4:	64657672 	strbtvs	r7, [r5], #-1650	; 0x672
     7a8:	00333032 	eorseq	r3, r3, r2, lsr r0
     7ac:	65736572 	ldrbvs	r6, [r3, #-1394]!	; 0x572
     7b0:	64657672 	strbtvs	r7, [r5], #-1650	; 0x672
     7b4:	00343032 	eorseq	r3, r4, r2, lsr r0
     7b8:	65736572 	ldrbvs	r6, [r3, #-1394]!	; 0x572
     7bc:	64657672 	strbtvs	r7, [r5], #-1650	; 0x672
     7c0:	00353032 	eorseq	r3, r5, r2, lsr r0
     7c4:	65736572 	ldrbvs	r6, [r3, #-1394]!	; 0x572
     7c8:	64657672 	strbtvs	r7, [r5], #-1650	; 0x672
     7cc:	00363032 	eorseq	r3, r6, r2, lsr r0
     7d0:	476c6c50 			; <UNDEFINED> instruction: 0x476c6c50
     7d4:	69427570 	stmdbvs	r2, {r4, r5, r6, r8, sl, ip, sp, lr}^
     7d8:	47007361 	strmi	r7, [r0, -r1, ror #6]
     7dc:	654d7570 	strbvs	r7, [sp, #-1392]	; 0x570
     7e0:	7473006d 	ldrbtvc	r0, [r3], #-109	; 0x6d
     7e4:	62646e61 	rsbvs	r6, r4, #1552	; 0x610
     7e8:	6c635f79 	stclvs	15, cr5, [r3], #-484	; 0xfffffe1c
     7ec:	78655f6b 	stmdavc	r5!, {r0, r1, r3, r5, r6, r8, r9, sl, fp, ip, lr}^
     7f0:	72007469 	andvc	r7, r0, #1761607680	; 0x69000000
     7f4:	72657365 	rsbvc	r7, r5, #-1811939327	; 0x94000001
     7f8:	31646576 	smccc	18006	; 0x4656
     7fc:	44003131 	strmi	r3, [r0], #-305	; 0x131
     800:	004d7669 	subeq	r7, sp, r9, ror #12
     804:	4e766944 	cdpmi	9, 7, cr6, cr6, cr4, {2}
     808:	62704100 	rsbsvs	r4, r0, #0
     80c:	73655232 	cmnvc	r5, #536870915	; 0x20000003
     810:	72007465 	andvc	r7, r0, #1694498816	; 0x65000000
     814:	72657365 	rsbvc	r7, r5, #-1811939327	; 0x94000001
     818:	31646576 	smccc	18006	; 0x4656
     81c:	72003137 	andvc	r3, r0, #-1073741811	; 0xc000000d
     820:	72657365 	rsbvc	r7, r5, #-1811939327	; 0x94000001
     824:	31646576 	smccc	18006	; 0x4656
     828:	72003237 	andvc	r3, r0, #1879048195	; 0x70000003
     82c:	72657365 	rsbvc	r7, r5, #-1811939327	; 0x94000001
     830:	31646576 	smccc	18006	; 0x4656
     834:	50003337 	andpl	r3, r0, r7, lsr r3
     838:	6f4c6c6c 	svcvs	0x004c6c6c
     83c:	5f006b63 	svcpl	0x00006b63
     840:	4d43435f 	stclmi	3, cr4, [r3, #-380]	; 0xfffffe84
     844:	4c505f55 	mrrcmi	15, 5, r5, r0, cr5
     848:	525f384c 	subspl	r3, pc, #4980736	; 0x4c0000
     84c:	30304745 	eorscc	r4, r0, r5, asr #14
     850:	47003833 	smladxmi	r0, r3, r8, r3
     854:	6f437570 	svcvs	0x00437570
     858:	49006572 	stmdbmi	r0, {r1, r4, r5, r6, r8, sl, sp, lr}
     85c:	72447065 	subvc	r7, r4, #101	; 0x65
     860:	43003063 	movwmi	r3, #99	; 0x63
     864:	6c437570 	cfstr64vs	mvdx7, [r3], {112}	; 0x70
     868:	6372536b 	cmnvs	r2, #-1409286143	; 0xac000001
     86c:	73657200 	cmnvc	r5, #0
     870:	65767265 	ldrbvs	r7, [r6, #-613]!	; 0x265
     874:	31383164 	teqcc	r8, r4, ror #2
     878:	62684100 	rsbvs	r4, r8, #0
     87c:	65746147 	ldrbvs	r6, [r4, #-327]!	; 0x147
     880:	68410030 	stmdavs	r1, {r4, r5}^
     884:	74614762 	strbtvc	r4, [r1], #-1890	; 0x762
     888:	50003165 	andpl	r3, r0, r5, ror #2
     88c:	65566c6c 	ldrbvs	r6, [r6, #-3180]	; 0xc6c
     890:	426f6964 	rsbmi	r6, pc, #1638400	; 0x190000
     894:	00736169 	rsbseq	r6, r3, r9, ror #2
     898:	6e617473 	mcrvs	4, 3, r7, cr1, cr3, {3}
     89c:	5f796264 	svcpl	0x00796264
     8a0:	5f6b6c63 	svcpl	0x006b6c63
     8a4:	316c6c70 	smccc	50880	; 0xc6c0
     8a8:	62616e65 	rsbvs	r6, r1, #1616	; 0x650
     8ac:	5000656c 	andpl	r6, r0, ip, ror #10
     8b0:	43316c6c 	teqmi	r1, #27648	; 0x6c00
     8b4:	41006c74 	tstmi	r0, r4, ror ip
     8b8:	00616464 	rsbeq	r6, r1, r4, ror #8
     8bc:	6e617473 	mcrvs	4, 3, r7, cr1, cr3, {3}
     8c0:	5f796264 	svcpl	0x00796264
     8c4:	5f6b6c63 	svcpl	0x006b6c63
     8c8:	74696e69 	strbtvc	r6, [r9], #-3689	; 0xe69
     8cc:	635f5f00 	cmpvs	pc, #0
     8d0:	5f756d63 	svcpl	0x00756d63
     8d4:	386c6c70 	stmdacc	ip!, {r4, r5, r6, sl, fp, sp, lr}^
     8d8:	6765725f 			; <UNDEFINED> instruction: 0x6765725f
     8dc:	38333030 	ldmdacc	r3!, {r4, r5, ip, sp}
     8e0:	7300745f 	movwvc	r7, #1119	; 0x45f
     8e4:	646e6174 	strbtvs	r6, [lr], #-372	; 0x174
     8e8:	635f7962 	cmpvs	pc, #1605632	; 0x188000
     8ec:	6c5f6b6c 	mrrcvs	11, 6, r6, pc, cr12	; <UNPREDICTABLE>
     8f0:	6e656f64 	cdpvs	15, 6, cr6, cr5, cr4, {3}
     8f4:	656c6261 	strbvs	r6, [ip, #-609]!	; 0x261
     8f8:	6c6c5000 	stclvs	0, cr5, [ip], #-0
     8fc:	6c744338 	ldclvs	3, cr4, [r4], #-224	; 0xffffff20
     900:	73657200 	cmnvc	r5, #0
     904:	65767265 	ldrbvs	r7, [r6, #-613]!	; 0x265
     908:	00303164 	eorseq	r3, r0, r4, ror #2
     90c:	43435f5f 	movtmi	r5, #16223	; 0x3f5f
     910:	505f554d 	subspl	r5, pc, sp, asr #10
     914:	4f4c4c4c 	svcmi	0x004c4c4c
     918:	525f4b43 	subspl	r4, pc, #68608	; 0x10c00
     91c:	32304745 	eorscc	r4, r0, #18087936	; 0x1140000
     920:	72003030 	andvc	r3, r0, #48	; 0x30
     924:	72657365 	rsbvc	r7, r5, #-1811939327	; 0x94000001
     928:	31646576 	smccc	18006	; 0x4656
     92c:	65720032 	ldrbvs	r0, [r2, #-50]!	; 0x32
     930:	76726573 			; <UNDEFINED> instruction: 0x76726573
     934:	34316465 	ldrtcc	r6, [r1], #-1125	; 0x465
     938:	73657200 	cmnvc	r5, #0
     93c:	65767265 	ldrbvs	r7, [r6, #-613]!	; 0x265
     940:	00353164 	eorseq	r3, r5, r4, ror #2
     944:	65736572 	ldrbvs	r6, [r3, #-1394]!	; 0x572
     948:	64657672 	strbtvs	r7, [r5], #-1650	; 0x672
     94c:	72003631 	andvc	r3, r0, #51380224	; 0x3100000
     950:	72657365 	rsbvc	r7, r5, #-1811939327	; 0x94000001
     954:	31646576 	smccc	18006	; 0x4656
     958:	6c500037 	mrrcvs	0, 3, r0, r0, cr7	; <UNPREDICTABLE>
     95c:	7264446c 	rsbvc	r4, r4, #1811939328	; 0x6c000000
     960:	00676643 	rsbeq	r6, r7, r3, asr #12
     964:	4d6c6c50 	stclmi	12, cr6, [ip, #-320]!	; 0xfffffec0
     968:	50697069 	rsbpl	r7, r9, r9, rrx
     96c:	65747461 	ldrbvs	r7, [r4, #-1121]!	; 0x461
     970:	53006e72 	movwpl	r6, #3698	; 0xe72
     974:	616d6769 	cmnvs	sp, r9, ror #14
     978:	53006e45 	movwpl	r6, #3653	; 0xe45
     97c:	616d6769 	cmnvs	sp, r9, ror #14
     980:	746c6544 	strbtvc	r6, [ip], #-1348	; 0x544
     984:	006e4561 	rsbeq	r4, lr, r1, ror #10
     988:	68637261 	stmdavs	r3!, {r0, r5, r6, r9, ip, sp, lr}^
     98c:	6d72612f 	ldfvse	f6, [r2, #-188]!	; 0xffffff44
     990:	63616d2f 	cmnvs	r1, #3008	; 0xbc0
     994:	75732d68 	ldrbvc	r2, [r3, #-3432]!	; 0xd68
     998:	2f69786e 	svccs	0x0069786e
     99c:	732f6d70 	teqvc	pc, #7168	; 0x1c00
     9a0:	646e6174 	strbtvs	r6, [lr], #-372	; 0x174
     9a4:	732f7962 	teqvc	pc, #1605632	; 0x188000
     9a8:	646e6174 	strbtvs	r6, [lr], #-372	; 0x174
     9ac:	635f7962 	cmpvs	pc, #1605632	; 0x188000
     9b0:	6b636f6c 	blvs	18dc768 <__standby_start+0x18dc768>
     9b4:	5000632e 	andpl	r6, r0, lr, lsr #6
     9b8:	42786c6c 	rsbsmi	r6, r8, #27648	; 0x6c00
     9bc:	00736169 	rsbseq	r6, r3, r9, ror #2
     9c0:	4d6c6c50 	stclmi	12, cr6, [ip, #-320]!	; 0xfffffec0
     9c4:	42697069 	rsbmi	r7, r9, #105	; 0x69
     9c8:	00736169 	rsbseq	r6, r3, r9, ror #2
     9cc:	316c6c50 	cmncc	ip, r0, asr ip
     9d0:	74746150 	ldrbtvc	r6, [r4], #-336	; 0x150
     9d4:	006e7265 	rsbeq	r7, lr, r5, ror #4
     9d8:	6970694d 	ldmdbvs	r0!, {r0, r2, r3, r6, r8, fp, sp, lr}^
     9dc:	546c6c50 	strbtpl	r6, [ip], #-3152	; 0xc50
     9e0:	72006e75 	andvc	r6, r0, #1872	; 0x750
     9e4:	72657365 	rsbvc	r7, r5, #-1811939327	; 0x94000001
     9e8:	32646576 	rsbcc	r6, r4, #494927872	; 0x1d800000
     9ec:	65720031 	ldrbvs	r0, [r2, #-49]!	; 0x31
     9f0:	76726573 			; <UNDEFINED> instruction: 0x76726573
     9f4:	32326465 	eorscc	r6, r2, #1694498816	; 0x65000000
     9f8:	6c6c5000 	stclvs	0, cr5, [ip], #-0
     9fc:	69426556 	stmdbvs	r2, {r1, r2, r4, r6, r8, sl, sp, lr}^
     a00:	50007361 	andpl	r7, r0, r1, ror #6
     a04:	54356c6c 	ldrtpl	r6, [r5], #-3180	; 0xc6c
     a08:	72006e75 	andvc	r6, r0, #1872	; 0x750
     a0c:	72657365 	rsbvc	r7, r5, #-1811939327	; 0x94000001
     a10:	31646576 	smccc	18006	; 0x4656
     a14:	4c500031 	mrrcmi	0, 3, r0, r0, cr1	; <UNPREDICTABLE>
     a18:	7079424c 	rsbsvc	r4, r9, ip, asr #4
     a1c:	00737361 	rsbseq	r7, r3, r1, ror #6
     a20:	31626841 	cmncc	r2, r1, asr #16
     a24:	00766944 	rsbseq	r6, r6, r4, asr #18
     a28:	65736572 	ldrbvs	r6, [r3, #-1394]!	; 0x572
     a2c:	64657672 	strbtvs	r7, [r5], #-1650	; 0x672
     a30:	72003831 	andvc	r3, r0, #3211264	; 0x310000
     a34:	72657365 	rsbvc	r7, r5, #-1811939327	; 0x94000001
     a38:	31646576 	smccc	18006	; 0x4656
     a3c:	65720039 	ldrbvs	r0, [r2, #-57]!	; 0x39
     a40:	76726573 			; <UNDEFINED> instruction: 0x76726573
     a44:	33316465 	teqcc	r1, #1694498816	; 0x65000000
     a48:	6c500031 	mrrcvs	0, 3, r0, r0, cr1	; <UNPREDICTABLE>
     a4c:	7443336c 	strbvc	r3, [r3], #-876	; 0x36c
     a50:	7953006c 	ldmdbvc	r3, {r2, r3, r5, r6}^
     a54:	6b6c4373 	blvs	1b11828 <__standby_start+0x1b11828>
     a58:	00766944 	rsbseq	r6, r6, r4, asr #18
     a5c:	436c6c50 	cmnmi	ip, #20480	; 0x5000
     a60:	754f6b6c 	strbvc	r6, [pc, #-2924]	; fffffefc <__bss_end+0xfffc8e0>
     a64:	006e4574 	rsbeq	r4, lr, r4, ror r5
     a68:	63635f5f 	cmnvs	r3, #380	; 0x17c
     a6c:	615f756d 	cmpvs	pc, sp, ror #10
     a70:	5f326270 	svcpl	0x00326270
     a74:	69746172 	ldmdbvs	r4!, {r1, r4, r5, r6, r8, sp, lr}^
     a78:	65725f6f 	ldrbvs	r5, [r2, #-3951]!	; 0xf6f
     a7c:	35303067 	ldrcc	r3, [r0, #-103]!	; 0x67
     a80:	00745f38 	rsbseq	r5, r4, r8, lsr pc
     a84:	7375624d 	cmnvc	r5, #-805306364	; 0xd0000004
     a88:	65736552 	ldrbvs	r6, [r3, #-1362]!	; 0x552
     a8c:	67655274 			; <UNDEFINED> instruction: 0x67655274
     a90:	75704700 	ldrbvc	r4, [r0, #-1792]!	; 0x700
     a94:	00647948 	rsbeq	r7, r4, r8, asr #18
     a98:	52626841 	rsbpl	r6, r2, #4259840	; 0x410000
     a9c:	74657365 	strbtvc	r7, [r5], #-869	; 0x365
     aa0:	68410030 	stmdavs	r1, {r4, r5}^
     aa4:	73655262 	cmnvc	r5, #536870918	; 0x20000006
     aa8:	00317465 	eorseq	r7, r1, r5, ror #8
     aac:	52626841 	rsbpl	r6, r2, #4259840	; 0x410000
     ab0:	74657365 	strbtvc	r7, [r5], #-869	; 0x365
     ab4:	64530032 	ldrbvs	r0, [r3], #-50	; 0x32
     ab8:	006e456d 	rsbeq	r4, lr, sp, ror #10
     abc:	32627041 	rsbcc	r7, r2, #65	; 0x41
     ac0:	65746147 	ldrbvs	r6, [r4, #-327]!	; 0x147
     ac4:	435f5f00 	cmpmi	pc, #0
     ac8:	5f554d43 	svcpl	0x00554d43
     acc:	4950494d 	ldmdbmi	r0, {r0, r2, r3, r6, r8, fp, lr}^
     ad0:	4c4c505f 	mcrrmi	0, 5, r5, ip, cr15
     ad4:	4745525f 	smlsldmi	r5, r5, pc, r2	; <UNPREDICTABLE>
     ad8:	30343030 	eorscc	r3, r4, r0, lsr r0
     adc:	6c6c5000 	stclvs	0, cr5, [ip], #-0
     ae0:	636f4c31 	cmnvs	pc, #12544	; 0x3100
     ae4:	6c50006b 	mrrcvs	0, 6, r0, r0, cr11	; <UNPREDICTABLE>
     ae8:	6172446c 	cmnvs	r2, ip, ror #8
     aec:	6942306d 	stmdbvs	r2, {r0, r2, r3, r5, r6, ip, sp}^
     af0:	53007361 	movwpl	r7, #865	; 0x361
     af4:	32366c65 	eorscc	r6, r6, #25856	; 0x6500
     af8:	37724f35 			; <UNDEFINED> instruction: 0x37724f35
     afc:	5f003035 	svcpl	0x00003035
     b00:	6d63635f 	stclvs	3, cr6, [r3, #-380]!	; 0xfffffe84
     b04:	6c705f75 	ldclvs	15, cr5, [r0], #-468	; 0xfffffe2c
     b08:	725f326c 	subsvc	r3, pc, #-1073741818	; 0xc0000006
     b0c:	30306765 	eorscc	r6, r0, r5, ror #14
     b10:	745f3830 	ldrbvc	r3, [pc], #-2096	; b18 <__standby_start+0xb18>
     b14:	61724400 	cmnvs	r2, r0, lsl #8
     b18:	7461476d 	strbtvc	r4, [r1], #-1901	; 0x76d
     b1c:	68410065 	stmdavs	r1, {r0, r2, r5, r6}^
     b20:	6c433162 	stfvse	f3, [r3], {98}	; 0x62
     b24:	6372536b 	cmnvs	r2, #-1409286143	; 0xac000001
     b28:	6c6c5000 	stclvs	0, cr5, [ip], #-0
     b2c:	69426544 	stmdbvs	r2, {r2, r6, r8, sl, sp, lr}^
     b30:	41007361 	tstmi	r0, r1, ror #6
     b34:	44316270 	ldrtmi	r6, [r1], #-624	; 0x270
     b38:	4d007669 	stcmi	6, cr7, [r0, #-420]	; 0xfffffe5c
     b3c:	5365646f 	cmnpl	r5, #1862270976	; 0x6f000000
     b40:	5f006c65 	svcpl	0x00006c65
     b44:	3233735f 	eorscc	r7, r3, #2080374785	; 0x7c000001
     b48:	65654600 	strbvs	r4, [r5, #-1536]!	; 0x600
     b4c:	63614264 	cmnvs	r1, #1073741830	; 0x40000006
     b50:	7669446b 	strbtvc	r4, [r9], -fp, ror #8
     b54:	73657200 	cmnvc	r5, #0
     b58:	65767265 	ldrbvs	r7, [r6, #-613]!	; 0x265
     b5c:	00313564 	eorseq	r3, r1, r4, ror #10
     b60:	356c6c50 	strbcc	r6, [ip, #-3152]!	; 0xc50
     b64:	006c7443 	rsbeq	r7, ip, r3, asr #8
     b68:	43435f5f 	movtmi	r5, #16223	; 0x3f5f
     b6c:	505f554d 	subspl	r5, pc, sp, asr #10
     b70:	5f354c4c 	svcpl	0x00354c4c
     b74:	30474552 	subcc	r4, r7, r2, asr r5
     b78:	00303230 	eorseq	r3, r0, r0, lsr r2
     b7c:	76694453 			; <UNDEFINED> instruction: 0x76694453
     b80:	4c500032 	mrrcmi	0, 3, r0, r0, cr2	; <UNPREDICTABLE>
     b84:	006e454c 	rsbeq	r4, lr, ip, asr #10
     b88:	63635f5f 	cmnvs	r3, #380	; 0x17c
     b8c:	705f756d 	subsvc	r7, pc, sp, ror #10
     b90:	5f316c6c 	svcpl	0x00316c6c
     b94:	30676572 	rsbcc	r6, r7, r2, ror r5
     b98:	5f303030 	svcpl	0x00303030
     b9c:	6c500074 	mrrcvs	0, 7, r0, r0, cr4	; <UNPREDICTABLE>
     ba0:	7264446c 	rsbvc	r4, r4, #1811939328	; 0x6c000000
     ba4:	6c744331 	ldclvs	3, cr4, [r4], #-196	; 0xffffff3c
     ba8:	435f5f00 	cmpmi	pc, #0
     bac:	5f554d43 	svcpl	0x00554d43
     bb0:	324c4c50 	subcc	r4, ip, #20480	; 0x5000
     bb4:	4745525f 	smlsldmi	r5, r5, pc, r2	; <UNPREDICTABLE>
     bb8:	38303030 	ldmdacc	r0!, {r4, r5, ip, sp}
     bbc:	62744100 	rsbsvs	r4, r4, #0
     bc0:	43627041 	cmnmi	r2, #65	; 0x41
     bc4:	69446b6c 	stmdbvs	r4, {r2, r3, r5, r6, r8, r9, fp, sp, lr}^
     bc8:	70410076 	subvc	r0, r1, r6, ror r0
     bcc:	65523162 	ldrbvs	r3, [r2, #-354]	; 0x162
     bd0:	00746573 	rsbseq	r6, r4, r3, ror r5
     bd4:	316f644c 	cmncc	pc, ip, asr #8
     bd8:	72006e45 	andvc	r6, r0, #1104	; 0x450
     bdc:	72657365 	rsbvc	r7, r5, #-1811939327	; 0x94000001
     be0:	30646576 	rsbcc	r6, r4, r6, ror r5
     be4:	73657200 	cmnvc	r5, #0
     be8:	65767265 	ldrbvs	r7, [r6, #-613]!	; 0x265
     bec:	72003164 	andvc	r3, r0, #25
     bf0:	72657365 	rsbvc	r7, r5, #-1811939327	; 0x94000001
     bf4:	32646576 	rsbcc	r6, r4, #494927872	; 0x1d800000
     bf8:	73657200 	cmnvc	r5, #0
     bfc:	65767265 	ldrbvs	r7, [r6, #-613]!	; 0x265
     c00:	72003364 	andvc	r3, r0, #-1879048191	; 0x90000001
     c04:	72657365 	rsbvc	r7, r5, #-1811939327	; 0x94000001
     c08:	34646576 	strbtcc	r6, [r4], #-1398	; 0x576
     c0c:	73657200 	cmnvc	r5, #0
     c10:	65767265 	ldrbvs	r7, [r6, #-613]!	; 0x265
     c14:	72003564 	andvc	r3, r0, #419430400	; 0x19000000
     c18:	72657365 	rsbvc	r7, r5, #-1811939327	; 0x94000001
     c1c:	36646576 			; <UNDEFINED> instruction: 0x36646576
     c20:	73657200 	cmnvc	r5, #0
     c24:	65767265 	ldrbvs	r7, [r6, #-613]!	; 0x265
     c28:	72003764 	andvc	r3, r0, #26214400	; 0x1900000
     c2c:	72657365 	rsbvc	r7, r5, #-1811939327	; 0x94000001
     c30:	39646576 	stmdbcc	r4!, {r1, r2, r4, r5, r6, r8, sl, sp, lr}^
     c34:	6c6c5000 	stclvs	0, cr5, [ip], #-0
     c38:	61506544 	cmpvs	r0, r4, asr #10
     c3c:	72657474 	rsbvc	r7, r5, #1946157056	; 0x74000000
     c40:	7343006e 	movtvc	r0, #12398	; 0x306e
     c44:	46003069 	strmi	r3, [r0], -r9, rrx
     c48:	4d636172 	stfmie	f6, [r3, #-456]!	; 0xfffffe38
     c4c:	5000646f 	andpl	r6, r0, pc, ror #8
     c50:	75416c6c 	strbvc	r6, [r1, #-3180]	; 0xc6c
     c54:	506f6964 	rsbpl	r6, pc, r4, ror #18
     c58:	65747461 	ldrbvs	r7, [r4, #-1121]!	; 0x461
     c5c:	72006e72 	andvc	r6, r0, #1824	; 0x720
     c60:	6372705f 	cmnvs	r2, #95	; 0x5f
     c64:	7053006d 	subsvc	r0, r3, sp, rrx
     c68:	53003069 	movwpl	r3, #105	; 0x69
     c6c:	00316970 	eorseq	r6, r1, r0, ror r9
     c70:	65736572 	ldrbvs	r6, [r3, #-1394]!	; 0x572
     c74:	64657672 	strbtvs	r7, [r5], #-1650	; 0x672
     c78:	31353032 	teqcc	r5, r2, lsr r0
     c7c:	756d4300 	strbvc	r4, [sp, #-768]!	; 0x300
     c80:	00676552 	rsbeq	r6, r7, r2, asr r5
     c84:	63635f5f 	cmnvs	r3, #380	; 0x17c
     c88:	705f756d 	subsvc	r7, pc, sp, ror #10
     c8c:	6f6c6c6c 	svcvs	0x006c6c6c
     c90:	725f6b63 	subsvc	r6, pc, #101376	; 0x18c00
     c94:	32306765 	eorscc	r6, r0, #26476544	; 0x1940000
     c98:	745f3030 	ldrbvc	r3, [pc], #-48	; ca0 <__standby_start+0xca0>
     c9c:	6c6c5000 	stclvs	0, cr5, [ip], #-0
     ca0:	69726550 	ldmdbvs	r2!, {r4, r6, r8, sl, sp, lr}^
     ca4:	69426870 	stmdbvs	r2, {r4, r5, r6, fp, sp, lr}^
     ca8:	72007361 	andvc	r7, r0, #-2080374783	; 0x84000001
     cac:	72657365 	rsbvc	r7, r5, #-1811939327	; 0x94000001
     cb0:	31646576 	smccc	18006	; 0x4656
     cb4:	46003130 			; <UNDEFINED> instruction: 0x46003130
     cb8:	4d636172 	stfmie	f6, [r3, #-456]!	; 0xfffffe38
     cbc:	0065646f 	rsbeq	r6, r5, pc, ror #8
     cc0:	52756d43 	rsbspl	r6, r5, #4288	; 0x10c0
     cc4:	535f6765 	cmppl	pc, #26476544	; 0x1940000
     cc8:	6c437379 	mcrrvs	3, 7, r7, r3, cr9
     ccc:	7669446b 	strbtvc	r4, [r9], -fp, ror #8
     cd0:	706d745f 	rsbvc	r7, sp, pc, asr r4
     cd4:	635f5f00 	cmpvs	pc, #0
     cd8:	5f756d63 	svcpl	0x00756d63
     cdc:	5f676572 	svcpl	0x00676572
     ce0:	7473696c 	ldrbtvc	r6, [r3], #-2412	; 0x96c
     ce4:	5000745f 	andpl	r7, r0, pc, asr r4
     ce8:	72446c6c 	subvc	r6, r4, #27648	; 0x6c00
     cec:	42316d61 	eorsmi	r6, r1, #6208	; 0x1840
     cf0:	52736169 	rsbspl	r6, r3, #1073741850	; 0x4000001a
     cf4:	50006765 	andpl	r6, r0, r5, ror #14
     cf8:	34326c6c 	ldrtcc	r6, [r2], #-3180	; 0xc6c
     cfc:	6964504d 	stmdbvs	r4!, {r0, r2, r3, r6, ip, lr}^
     d00:	72440076 	subvc	r0, r4, #118	; 0x76
     d04:	66436d61 	strbvs	r6, [r3], -r1, ror #26
     d08:	5f5f0067 	svcpl	0x005f0067
     d0c:	756d6363 	strbvc	r6, [sp, #-867]!	; 0x363
     d10:	6268615f 	rsbvs	r6, r8, #-1073741801	; 0xc0000017
     d14:	61725f31 	cmnvs	r2, r1, lsr pc
     d18:	5f6f6974 	svcpl	0x006f6974
     d1c:	30676572 	rsbcc	r6, r7, r2, ror r5
     d20:	5f343530 	svcpl	0x00343530
     d24:	65720074 	ldrbvs	r0, [r2, #-116]!	; 0x74
     d28:	76726573 			; <UNDEFINED> instruction: 0x76726573
     d2c:	31386465 	teqcc	r8, r5, ror #8
     d30:	435f5f00 	cmpmi	pc, #0
     d34:	5f554d43 	svcpl	0x00554d43
     d38:	32425041 	subcc	r5, r2, #65	; 0x41
     d3c:	5441525f 	strbpl	r5, [r1], #-607	; 0x25f
     d40:	525f4f49 	subspl	r4, pc, #292	; 0x124
     d44:	30304745 	eorscc	r4, r0, r5, asr #14
     d48:	50003835 	andpl	r3, r0, r5, lsr r8
     d4c:	72446c6c 	subvc	r6, r4, #27648	; 0x6c00
     d50:	50316d61 	eorspl	r6, r1, r1, ror #26
     d54:	65747461 	ldrbvs	r7, [r4, #-1121]!	; 0x461
     d58:	65526e72 	ldrbvs	r6, [r2, #-3698]	; 0xe72
     d5c:	50003067 	andpl	r3, r0, r7, rrx
     d60:	72446c6c 	subvc	r6, r4, #27648	; 0x6c00
     d64:	50316d61 	eorspl	r6, r1, r1, ror #26
     d68:	65747461 	ldrbvs	r7, [r4, #-1121]!	; 0x461
     d6c:	65526e72 	ldrbvs	r6, [r2, #-3698]	; 0xe72
     d70:	72003167 	andvc	r3, r0, #-1073741799	; 0xc0000019
     d74:	72657365 	rsbvc	r7, r5, #-1811939327	; 0x94000001
     d78:	31646576 	smccc	18006	; 0x4656
     d7c:	4c003136 	stfmis	f3, [r0], {54}	; 0x36
     d80:	546b636f 	strbtpl	r6, [fp], #-879	; 0x36f
     d84:	00656d69 	rsbeq	r6, r5, r9, ror #26
     d88:	31626841 	cmncc	r2, r1, asr #16
     d8c:	44657250 	strbtmi	r7, [r5], #-592	; 0x250
     d90:	50007669 	andpl	r7, r0, r9, ror #12
     d94:	65566c6c 	ldrbvs	r6, [r6, #-3180]	; 0xc6c
     d98:	506f6964 	rsbpl	r6, pc, r4, ror #18
     d9c:	65747461 	ldrbvs	r7, [r4, #-1121]!	; 0x461
     da0:	50006e72 	andpl	r6, r0, r2, ror lr
     da4:	65566c6c 	ldrbvs	r6, [r6, #-3180]	; 0xc6c
     da8:	74746150 	ldrbtvc	r6, [r4], #-336	; 0x150
     dac:	006e7265 	rsbeq	r7, lr, r5, ror #4
     db0:	65736572 	ldrbvs	r6, [r3, #-1394]!	; 0x572
     db4:	64657672 	strbtvs	r7, [r5], #-1650	; 0x672
     db8:	00313032 	eorseq	r3, r1, r2, lsr r0
     dbc:	65736572 	ldrbvs	r6, [r3, #-1394]!	; 0x572
     dc0:	64657672 	strbtvs	r7, [r5], #-1650	; 0x672
     dc4:	49584100 	ldmdbmi	r8, {r8, lr}^
     dc8:	446b6c43 	strbtmi	r6, [fp], #-3139	; 0xc43
     dcc:	41007669 	tstmi	r0, r9, ror #12
     dd0:	47316270 			; <UNDEFINED> instruction: 0x47316270
     dd4:	00657461 	rsbeq	r7, r5, r1, ror #8
     dd8:	65736572 	ldrbvs	r6, [r3, #-1394]!	; 0x572
     ddc:	64657672 	strbtvs	r7, [r5], #-1650	; 0x672
     de0:	72003139 	andvc	r3, r0, #1073741838	; 0x4000000e
     de4:	72657365 	rsbvc	r7, r5, #-1811939327	; 0x94000001
     de8:	39646576 	stmdbcc	r4!, {r1, r2, r4, r5, r6, r8, sl, sp, lr}^
     dec:	65720032 	ldrbvs	r0, [r2, #-50]!	; 0x32
     df0:	76726573 			; <UNDEFINED> instruction: 0x76726573
     df4:	33396465 	teqcc	r9, #1694498816	; 0x65000000
     df8:	73657200 	cmnvc	r5, #0
     dfc:	65767265 	ldrbvs	r7, [r6, #-613]!	; 0x265
     e00:	31323164 	teqcc	r2, r4, ror #2
     e04:	6c6c5000 	stclvs	0, cr5, [ip], #-0
     e08:	6c744332 	ldclvs	3, cr4, [r4], #-200	; 0xffffff38
     e0c:	435f5f00 	cmpmi	pc, #0
     e10:	5f554d43 	svcpl	0x00554d43
     e14:	5f474552 	svcpl	0x00474552
     e18:	5453494c 	ldrbpl	r4, [r3], #-2380	; 0x94c
     e1c:	6e614e00 	cdpvs	14, 6, cr4, cr1, cr0, {0}
     e20:	5f003064 	svcpl	0x00003064
     e24:	4d43435f 	stclmi	3, cr4, [r3, #-380]	; 0xfffffe84
     e28:	4c505f55 	mrrcmi	15, 5, r5, r0, cr5
     e2c:	525f364c 	subspl	r3, pc, #79691776	; 0x4c00000
     e30:	30304745 	eorscc	r4, r0, r5, asr #14
     e34:	50003832 	andpl	r3, r0, r2, lsr r8
     e38:	43396c6c 	teqmi	r9, #27648	; 0x6c00
     e3c:	73006c74 	movwvc	r6, #3188	; 0xc74
     e40:	646e6174 	strbtvs	r6, [lr], #-372	; 0x174
     e44:	695f7962 	ldmdbvs	pc, {r1, r5, r6, r8, fp, ip, sp, lr}^	; <UNPREDICTABLE>
     e48:	78655f72 	stmdavc	r5!, {r1, r4, r5, r6, r8, r9, sl, fp, ip, lr}^
     e4c:	73007469 	movwvc	r7, #1129	; 0x469
     e50:	646e6174 	strbtvs	r6, [lr], #-372	; 0x174
     e54:	695f7962 	ldmdbvs	pc, {r1, r5, r6, r8, fp, ip, sp, lr}^	; <UNPREDICTABLE>
     e58:	65765f72 	ldrbvs	r5, [r6, #-3954]!	; 0xf72
     e5c:	79666972 	stmdbvc	r6!, {r1, r4, r5, r6, r8, fp, sp, lr}^
     e60:	63726100 	cmnvs	r2, #0
     e64:	72612f68 	rsbvc	r2, r1, #416	; 0x1a0
     e68:	616d2f6d 	cmnvs	sp, sp, ror #30
     e6c:	732d6863 	teqvc	sp, #6488064	; 0x630000
     e70:	69786e75 	ldmdbvs	r8!, {r0, r2, r4, r5, r6, r9, sl, fp, sp, lr}^
     e74:	2f6d702f 	svccs	0x006d702f
     e78:	6e617473 	mcrvs	4, 3, r7, cr1, cr3, {3}
     e7c:	2f796264 	svccs	0x00796264
     e80:	6e617473 	mcrvs	4, 3, r7, cr1, cr3, {3}
     e84:	5f796264 	svcpl	0x00796264
     e88:	632e7269 	teqvs	lr, #-1879048186	; 0x90000006
     e8c:	61747300 	cmnvs	r4, r0, lsl #6
     e90:	7962646e 	stmdbvc	r2!, {r1, r2, r3, r5, r6, sl, sp, lr}^
     e94:	5f72695f 	svcpl	0x0072695f
     e98:	74696e69 	strbtvc	r6, [r9], #-3689	; 0xe69
     e9c:	61747300 	cmnvs	r4, r0, lsl #6
     ea0:	7962646e 	stmdbvc	r2!, {r1, r2, r3, r5, r6, sl, sp, lr}^
     ea4:	5f72695f 	svcpl	0x0072695f
     ea8:	65746564 	ldrbvs	r6, [r4, #-1380]!	; 0x564
     eac:	4c007463 	cfstrsmi	mvf7, [r0], {99}	; 0x63
     eb0:	63646172 	cmnvs	r4, #-2147483620	; 0x8000001c
     eb4:	746e495f 	strbtvc	r4, [lr], #-2399	; 0x95f
     eb8:	5f5f0073 	svcpl	0x005f0073
     ebc:	6e617473 	mcrvs	4, 3, r7, cr1, cr3, {3}
     ec0:	5f796264 	svcpl	0x00796264
     ec4:	5f79656b 	svcpl	0x0079656b
     ec8:	5f676572 	svcpl	0x00676572
     ecc:	72610074 	rsbvc	r0, r1, #116	; 0x74
     ed0:	612f6863 	teqvs	pc, r3, ror #16
     ed4:	6d2f6d72 	stcvs	13, cr6, [pc, #-456]!	; d14 <__standby_start+0xd14>
     ed8:	2d686361 	stclcs	3, cr6, [r8, #-388]!	; 0xfffffe7c
     edc:	786e7573 	stmdavc	lr!, {r0, r1, r4, r5, r6, r8, sl, ip, sp, lr}^
     ee0:	6d702f69 	ldclvs	15, cr2, [r0, #-420]!	; 0xfffffe5c
     ee4:	6174732f 	cmnvs	r4, pc, lsr #6
     ee8:	7962646e 	stmdbvc	r2!, {r1, r2, r3, r5, r6, sl, sp, lr}^
     eec:	6174732f 	cmnvs	r4, pc, lsr #6
     ef0:	7962646e 	stmdbvc	r2!, {r1, r2, r3, r5, r6, sl, sp, lr}^
     ef4:	79656b5f 	stmdbvc	r5!, {r0, r1, r2, r3, r4, r6, r8, r9, fp, sp, lr}^
     ef8:	4b00632e 	blmi	19bb8 <__standby_start+0x19bb8>
     efc:	6e497965 	cdpvs	9, 4, cr7, cr9, cr5, {3}
     f00:	4b007374 	blmi	1dcd8 <__standby_start+0x1dcd8>
     f04:	65527965 	ldrbvs	r7, [r2, #-2405]	; 0x965
     f08:	724c0067 	subvc	r0, ip, #103	; 0x67
     f0c:	5f636461 	svcpl	0x00636461
     f10:	63746e49 	cmnvs	r4, #1168	; 0x490
     f14:	61747300 	cmnvs	r4, r0, lsl #6
     f18:	7962646e 	stmdbvc	r2!, {r1, r2, r3, r5, r6, sl, sp, lr}^
     f1c:	79656b5f 	stmdbvc	r5!, {r0, r1, r2, r3, r4, r6, r8, r9, fp, sp, lr}^
     f20:	6978655f 	ldmdbvs	r8!, {r0, r1, r2, r3, r4, r6, r8, sl, sp, lr}^
     f24:	654b0074 	strbvs	r0, [fp, #-116]	; 0x74
     f28:	74614479 	strbtvc	r4, [r1], #-1145	; 0x479
     f2c:	4b003061 	blmi	d0b8 <__standby_start+0xd0b8>
     f30:	61447965 	cmpvs	r4, r5, ror #18
     f34:	00316174 	eorseq	r6, r1, r4, ror r1
     f38:	6461724c 	strbtvs	r7, [r1], #-588	; 0x24c
     f3c:	74435f63 	strbvc	r5, [r3], #-3939	; 0xf63
     f40:	4c006c72 	stcmi	12, cr6, [r0], {114}	; 0x72
     f44:	63646172 	cmnvs	r4, #-2147483620	; 0x8000001c
     f48:	7461445f 	strbtvc	r4, [r1], #-1119	; 0x45f
     f4c:	73003161 	movwvc	r3, #353	; 0x161
     f50:	646e6174 	strbtvs	r6, [lr], #-372	; 0x174
     f54:	6b5f7962 	blvs	17df4e4 <__standby_start+0x17df4e4>
     f58:	695f7965 	ldmdbvs	pc, {r0, r2, r5, r6, r8, fp, ip, sp, lr}^	; <UNPREDICTABLE>
     f5c:	0074696e 	rsbseq	r6, r4, lr, ror #18
     f60:	4979654b 	ldmdbmi	r9!, {r0, r1, r3, r6, r8, sl, sp, lr}^
     f64:	0063746e 	rsbeq	r7, r3, lr, ror #8
     f68:	6e617473 	mcrvs	4, 3, r7, cr1, cr3, {3}
     f6c:	5f796264 	svcpl	0x00796264
     f70:	72657571 	rsbvc	r7, r5, #473956352	; 0x1c400000
     f74:	656b5f79 	strbvs	r5, [fp, #-3961]!	; 0xf79
     f78:	5f5f0079 	svcpl	0x005f0079
     f7c:	4e415453 	mcrmi	4, 2, r5, cr1, cr3, {2}
     f80:	5f594244 	svcpl	0x00594244
     f84:	5f59454b 	svcpl	0x0059454b
     f88:	00474552 	subeq	r4, r7, r2, asr r5
     f8c:	6461724c 	strbtvs	r7, [r1], #-588	; 0x24c
     f90:	61445f63 	cmpvs	r4, r3, ror #30
     f94:	00306174 	eorseq	r6, r0, r4, ror r1
     f98:	4379654b 	cmnmi	r9, #314572800	; 0x12c00000
     f9c:	006c7274 	rsbeq	r7, ip, r4, ror r2
     fa0:	6e617473 	mcrvs	4, 3, r7, cr1, cr3, {3}
     fa4:	5f796264 	svcpl	0x00796264
     fa8:	5f746567 	svcpl	0x00746567
     fac:	746c6f76 	strbtvc	r6, [ip], #-3958	; 0xf76
     fb0:	00656761 	rsbeq	r6, r5, r1, ror #14
     fb4:	646e6966 	strbtvs	r6, [lr], #-2406	; 0x966
     fb8:	666e695f 			; <UNDEFINED> instruction: 0x666e695f
     fbc:	616d006f 	cmnvs	sp, pc, rrx
     fc0:	56755f78 	uhsub16pl	r5, r5, r8
     fc4:	65747300 	ldrbvs	r7, [r4, #-768]!	; 0x300
     fc8:	56755f70 	uhsub16pl	r5, r5, r0
     fcc:	49575400 	ldmdbmi	r7, {sl, ip, lr}^
     fd0:	5f504f5f 	svcpl	0x00504f5f
     fd4:	76005257 			; <UNDEFINED> instruction: 0x76005257
     fd8:	6e5f6c6f 	cdpvs	12, 5, cr6, cr15, cr15, {3}
     fdc:	73746962 	cmnvc	r4, #1605632	; 0x188000
     fe0:	63726100 	cmnvs	r2, #0
     fe4:	72612f68 	rsbvc	r2, r1, #416	; 0x1a0
     fe8:	616d2f6d 	cmnvs	sp, sp, ror #30
     fec:	732d6863 	teqvc	sp, #6488064	; 0x630000
     ff0:	69786e75 	ldmdbvs	r8!, {r0, r2, r4, r5, r6, r9, sl, fp, sp, lr}^
     ff4:	2f6d702f 	svccs	0x006d702f
     ff8:	6e617473 	mcrvs	4, 3, r7, cr1, cr3, {3}
     ffc:	2f796264 	svccs	0x00796264
    1000:	6e617473 	mcrvs	4, 3, r7, cr1, cr3, {3}
    1004:	5f796264 	svcpl	0x00796264
    1008:	65776f70 	ldrbvs	r6, [r7, #-3952]!	; 0xf70
    100c:	00632e72 	rsbeq	r2, r3, r2, ror lr
    1010:	6e617473 	mcrvs	4, 3, r7, cr1, cr3, {3}
    1014:	5f796264 	svcpl	0x00796264
    1018:	5f746573 	svcpl	0x00746573
    101c:	746c6f76 	strbtvc	r6, [ip], #-3958	; 0xf76
    1020:	00656761 	rsbeq	r6, r5, r1, ror #14
    1024:	5f6c6f76 	svcpl	0x006c6f76
    1028:	66696873 			; <UNDEFINED> instruction: 0x66696873
    102c:	78610074 	stmdavc	r1!, {r2, r4, r5, r6}^
    1030:	5f303270 	svcpl	0x00303270
    1034:	6f666e69 	svcvs	0x00666e69
    1038:	70786100 	rsbsvc	r6, r8, r0, lsl #2
    103c:	666e695f 			; <UNDEFINED> instruction: 0x666e695f
    1040:	5754006f 	ldrbpl	r0, [r4, -pc, rrx]
    1044:	504f5f49 	subpl	r5, pc, r9, asr #30
    1048:	0044525f 	subeq	r5, r4, pc, asr r2
    104c:	5f697774 	svcpl	0x00697774
    1050:	745f706f 	ldrbvc	r7, [pc], #-111	; 1058 <__standby_start+0x1058>
    1054:	5f657079 	svcpl	0x00657079
    1058:	65720065 	ldrbvs	r0, [r2, #-101]!	; 0x65
    105c:	61765f67 	cmnvs	r6, r7, ror #30
    1060:	4f50006c 	svcmi	0x0050006c
    1064:	5f524557 	svcpl	0x00524557
    1068:	5f4c4f56 	svcpl	0x004c4f56
    106c:	43444344 	movtmi	r4, #17220	; 0x4344
    1070:	4f500031 	svcmi	0x00500031
    1074:	5f524557 	svcpl	0x00524557
    1078:	5f4c4f56 	svcpl	0x004c4f56
    107c:	43444344 	movtmi	r4, #17220	; 0x4344
    1080:	4f500032 	svcmi	0x00500032
    1084:	5f524557 	svcpl	0x00524557
    1088:	5f4c4f56 	svcpl	0x004c4f56
    108c:	43444344 	movtmi	r4, #17220	; 0x4344
    1090:	6f700033 	svcvs	0x00700033
    1094:	5f726577 	svcpl	0x00726577
    1098:	5f6c6f76 	svcpl	0x006c6f76
    109c:	65707974 	ldrbvs	r7, [r0, #-2420]!	; 0x974
    10a0:	5f00655f 	svcpl	0x0000655f
    10a4:	0038755f 	eorseq	r7, r8, pc, asr r5
    10a8:	32707861 	rsbscc	r7, r0, #6356992	; 0x610000
    10ac:	646c5f30 	strbtvs	r5, [ip], #-3888	; 0xf30
    10b0:	645f346f 	ldrbvs	r3, [pc], #-1135	; 10b8 <__standby_start+0x10b8>
    10b4:	00617461 	rsbeq	r7, r1, r1, ror #8
    10b8:	5f6c6f76 	svcpl	0x006c6f76
    10bc:	00676572 	rsbeq	r6, r7, r2, ror r5
    10c0:	65707974 	ldrbvs	r7, [r0, #-2420]!	; 0x974
    10c4:	574f5000 	strbpl	r5, [pc, -r0]
    10c8:	565f5245 	ldrbpl	r5, [pc], -r5, asr #4
    10cc:	4c5f4c4f 	mrrcmi	12, 4, r4, pc, cr15	; <UNPREDICTABLE>
    10d0:	00314f44 	eorseq	r4, r1, r4, asr #30
    10d4:	45574f50 	ldrbmi	r4, [r7, #-3920]	; 0xf50
    10d8:	4f565f52 	svcmi	0x00565f52
    10dc:	444c5f4c 	strbmi	r5, [ip], #-3916	; 0xf4c
    10e0:	5000324f 	andpl	r3, r0, pc, asr #4
    10e4:	5245574f 	subpl	r5, r5, #20709376	; 0x13c0000
    10e8:	4c4f565f 	mcrrmi	6, 5, r5, pc, cr15
    10ec:	4f444c5f 	svcmi	0x00444c5f
    10f0:	4f500033 	svcmi	0x00500033
    10f4:	5f524557 	svcpl	0x00524557
    10f8:	5f4c4f56 	svcpl	0x004c4f56
    10fc:	344f444c 	strbcc	r4, [pc], #-1100	; 1104 <__standby_start+0x1104>
    1100:	65686300 	strbvs	r6, [r8, #-768]!	; 0x300
    1104:	725f6b63 	subsvc	r6, pc, #101376	; 0x18c00
    1108:	65676e61 	strbvs	r6, [r7, #-3681]!	; 0xe61
    110c:	6e696d00 	cdpvs	13, 6, cr6, cr9, cr0, {0}
    1110:	0056755f 	subseq	r7, r6, pc, asr r5
    1114:	5f676572 	svcpl	0x00676572
    1118:	00726665 	rsbseq	r6, r2, r5, ror #12
    111c:	43697754 	cmnmi	r9, #22020096	; 0x1500000
    1120:	65526c74 	ldrbvs	r6, [r2, #-3188]	; 0xc74
    1124:	6b614267 	blvs	1851ac8 <__standby_start+0x1851ac8>
    1128:	706f6e00 	rsbvc	r6, pc, r0, lsl #28
    112c:	6165725f 	cmnvs	r5, pc, asr r2
    1130:	65720064 	ldrbvs	r0, [r2, #-100]!	; 0x64
    1134:	65725f67 	ldrbvs	r5, [r2, #-3943]!	; 0xf67
    1138:	00746573 	rsbseq	r6, r4, r3, ror r5
    113c:	6174735f 	cmnvs	r4, pc, asr r3
    1140:	7962646e 	stmdbvc	r2!, {r1, r2, r3, r5, r6, sl, sp, lr}^
    1144:	6977745f 	ldmdbvs	r7!, {r0, r1, r2, r3, r4, r6, sl, ip, sp, lr}^
    1148:	6f74735f 	svcvs	0x0074735f
    114c:	72670070 	rsbvc	r0, r7, #112	; 0x70
    1150:	0070756f 	rsbseq	r7, r0, pc, ror #10
    1154:	5f697774 	svcpl	0x00697774
    1158:	00676572 	rsbeq	r6, r7, r2, ror r5
    115c:	77745f5f 			; <UNDEFINED> instruction: 0x77745f5f
    1160:	725f6369 	subsvc	r6, pc, #-1543503871	; 0xa4000001
    1164:	745f6765 	ldrbvc	r6, [pc], #-1893	; 116c <__standby_start+0x116c>
    1168:	67657200 	strbvs	r7, [r5, -r0, lsl #4]!
    116c:	6b6c635f 	blvs	1b19ef0 <__standby_start+0x1b19ef0>
    1170:	65720072 	ldrbvs	r0, [r2, #-114]!	; 0x72
    1174:	61645f67 	cmnvs	r4, r7, ror #30
    1178:	54006174 	strpl	r6, [r0], #-372	; 0x174
    117c:	525f4957 	subspl	r4, pc, #1425408	; 0x15c000
    1180:	425f4745 	subsmi	r4, pc, #18087936	; 0x1140000
    1184:	00455341 	subeq	r5, r5, r1, asr #6
    1188:	6e617473 	mcrvs	4, 3, r7, cr1, cr3, {3}
    118c:	5f796264 	svcpl	0x00796264
    1190:	5f697774 	svcpl	0x00697774
    1194:	74697865 	strbtvc	r7, [r9], #-2149	; 0x865
    1198:	67657200 	strbvs	r7, [r5, -r0, lsl #4]!
    119c:	6173785f 	cmnvs	r3, pc, asr r8
    11a0:	00726464 	rsbseq	r6, r2, r4, ror #8
    11a4:	43697754 	cmnmi	r9, #22020096	; 0x1500000
    11a8:	65526b6c 	ldrbvs	r6, [r2, #-2924]	; 0xb6c
    11ac:	6b614267 	blvs	1851b50 <__standby_start+0x1851b50>
    11b0:	69777400 	ldmdbvs	r7!, {sl, ip, sp, lr}^
    11b4:	7479625f 	ldrbtvc	r6, [r9], #-607	; 0x25f
    11b8:	77725f65 	ldrbvc	r5, [r2, -r5, ror #30]!
    11bc:	64616200 	strbtvs	r6, [r1], #-512	; 0x200
    11c0:	73007264 	movwvc	r7, #612	; 0x264
    11c4:	5f706f74 	svcpl	0x00706f74
    11c8:	0074756f 	rsbseq	r7, r4, pc, ror #10
    11cc:	5f676572 	svcpl	0x00676572
    11d0:	006c7463 	rsbeq	r7, ip, r3, ror #8
    11d4:	68637261 	stmdavs	r3!, {r0, r5, r6, r9, ip, sp, lr}^
    11d8:	6d72612f 	ldfvse	f6, [r2, #-188]!	; 0xffffff44
    11dc:	63616d2f 	cmnvs	r1, #3008	; 0xbc0
    11e0:	75732d68 	ldrbvc	r2, [r3, #-3432]!	; 0xd68
    11e4:	2f69786e 	svccs	0x0069786e
    11e8:	732f6d70 	teqvc	pc, #7168	; 0x1c00
    11ec:	646e6174 	strbtvs	r6, [lr], #-372	; 0x174
    11f0:	732f7962 	teqvc	pc, #1605632	; 0x188000
    11f4:	646e6174 	strbtvs	r6, [lr], #-372	; 0x174
    11f8:	745f7962 	ldrbvc	r7, [pc], #-2402	; 1200 <__standby_start+0x1200>
    11fc:	632e6977 	teqvs	lr, #1949696	; 0x1dc000
    1200:	61747300 	cmnvs	r4, r0, lsl #6
    1204:	7962646e 	stmdbvc	r2!, {r1, r2, r3, r5, r6, sl, sp, lr}^
    1208:	6977745f 	ldmdbvs	r7!, {r0, r1, r2, r3, r4, r6, sl, ip, sp, lr}^
    120c:	696e695f 	stmdbvs	lr!, {r0, r1, r2, r3, r4, r6, r8, fp, sp, lr}^
    1210:	61740074 	cmnvs	r4, r4, ror r0
    1214:	77745f67 	ldrbvc	r5, [r4, -r7, ror #30]!
    1218:	725f6369 	subsvc	r6, pc, #-1543503871	; 0xa4000001
    121c:	72006765 	andvc	r6, r0, #26476544	; 0x1940000
    1220:	735f6765 	cmpvc	pc, #26476544	; 0x1940000
    1224:	72646461 	rsbvc	r6, r4, #1627389952	; 0x61000000
    1228:	67657200 	strbvs	r7, [r5, -r0, lsl #4]!
    122c:	74636c5f 	strbtvc	r6, [r3], #-3167	; 0xc5f
    1230:	6572006c 	ldrbvs	r0, [r2, #-108]!	; 0x6c
    1234:	74735f67 	ldrbtvc	r5, [r3], #-3943	; 0xf67
    1238:	73757461 	cmnvc	r5, #1627389952	; 0x61000000
    123c:	61747300 	cmnvs	r4, r0, lsl #6
    1240:	745f6574 	ldrbvc	r6, [pc], #-1396	; 1248 <__standby_start+0x1248>
    1244:	6100706d 	tstvs	r0, sp, rrx
    1248:	2f686372 	svccs	0x00686372
    124c:	2f6d7261 	svccs	0x006d7261
    1250:	6863616d 	stmdavs	r3!, {r0, r2, r3, r5, r6, r8, sp, lr}^
    1254:	6e75732d 	cdpvs	3, 7, cr7, cr5, cr13, {1}
    1258:	702f6978 	eorvc	r6, pc, r8, ror r9	; <UNPREDICTABLE>
    125c:	74732f6d 	ldrbtvc	r2, [r3], #-3949	; 0xf6d
    1260:	62646e61 	rsbvs	r6, r4, #1552	; 0x610
    1264:	74732f79 	ldrbtvc	r2, [r3], #-3961	; 0xf79
    1268:	62646e61 	rsbvs	r6, r4, #1552	; 0x610
    126c:	73755f79 	cmnvc	r5, #484	; 0x1e4
    1270:	00632e62 	rsbeq	r2, r3, r2, ror #28
    1274:	6e617473 	mcrvs	4, 3, r7, cr1, cr3, {3}
    1278:	5f796264 	svcpl	0x00796264
    127c:	5f627375 	svcpl	0x00627375
    1280:	74697865 	strbtvc	r7, [r9], #-2149	; 0x865
    1284:	61747300 	cmnvs	r4, r0, lsl #6
    1288:	7962646e 	stmdbvc	r2!, {r1, r2, r3, r5, r6, sl, sp, lr}^
    128c:	5f73695f 	svcpl	0x0073695f
    1290:	5f627375 	svcpl	0x00627375
    1294:	74617473 	strbtvc	r7, [r1], #-1139	; 0x473
    1298:	635f7375 	cmpvs	pc, #-738197503	; 0xd4000001
    129c:	676e6168 	strbvs	r6, [lr, -r8, ror #2]!
    12a0:	74730065 	ldrbtvc	r0, [r3], #-101	; 0x65
    12a4:	62646e61 	rsbvs	r6, r4, #1552	; 0x610
    12a8:	75715f79 	ldrbvc	r5, [r1, #-3961]!	; 0xf79
    12ac:	5f797265 	svcpl	0x00797265
    12b0:	5f627375 	svcpl	0x00627375
    12b4:	6e657665 	cdpvs	6, 6, cr7, cr5, cr5, {3}
    12b8:	74730074 	ldrbtvc	r0, [r3], #-116	; 0x74
    12bc:	62646e61 	rsbvs	r6, r4, #1552	; 0x610
    12c0:	73755f79 	cmnvc	r5, #484	; 0x1e4
    12c4:	6e695f62 	cdpvs	15, 6, cr5, cr9, cr2, {3}
    12c8:	72007469 	andvc	r7, r0, #1761607680	; 0x69000000
    12cc:	6c757365 	ldclvs	3, cr7, [r5], #-404	; 0xfffffe6c
    12d0:	72700074 	rsbsvc	r0, r0, #116	; 0x74
    12d4:	74617669 	strbtvc	r7, [r1], #-1641	; 0x669
    12d8:	72610065 	rsbvc	r0, r1, #101	; 0x65
    12dc:	5f637369 	svcpl	0x00637369
    12e0:	745f6263 	ldrbvc	r6, [pc], #-611	; 12e8 <__standby_start+0x12e8>
    12e4:	6b617700 	blvs	185eeec <__standby_start+0x185eeec>
    12e8:	5f707565 	svcpl	0x00707565
    12ec:	6e657665 	cdpvs	6, 6, cr7, cr5, cr5, {3}
    12f0:	72610074 	rsbvc	r0, r1, #116	; 0x74
    12f4:	5f637369 	svcpl	0x00637369
    12f8:	5f67736d 	svcpl	0x0067736d
    12fc:	73006263 	movwvc	r6, #611	; 0x263
    1300:	646e6174 	strbtvs	r6, [lr], #-372	; 0x174
    1304:	615f7962 	cmpvs	pc, r2, ror #18
    1308:	63736972 	cmnvs	r3, #1867776	; 0x1c8000
    130c:	696e695f 	stmdbvs	lr!, {r0, r1, r2, r3, r4, r6, r8, fp, sp, lr}^
    1310:	65720074 	ldrbvs	r0, [r2, #-116]!	; 0x74
    1314:	726f7473 	rsbvc	r7, pc, #1929379840	; 0x73000000
    1318:	6f635f65 	svcvs	0x00635f65
    131c:	656c706d 	strbvs	r7, [ip, #-109]!	; 0x6d
    1320:	00646574 	rsbeq	r6, r4, r4, ror r5
    1324:	65646f6d 	strbvs	r6, [r4, #-3949]!	; 0xf6d
    1328:	6e616800 	cdpvs	8, 6, cr6, cr1, cr0, {0}
    132c:	72656c64 	rsbvc	r6, r5, #25600	; 0x6400
    1330:	61747300 	cmnvs	r4, r0, lsl #6
    1334:	7962646e 	stmdbvc	r2!, {r1, r2, r3, r5, r6, sl, sp, lr}^
    1338:	6972615f 	ldmdbvs	r2!, {r0, r1, r2, r3, r4, r6, r8, sp, lr}^
    133c:	655f6373 	ldrbvs	r6, [pc, #-883]	; fd1 <__standby_start+0xfd1>
    1340:	00746978 	rsbseq	r6, r4, r8, ror r9
    1344:	73656d70 	cmnvc	r5, #7168	; 0x1c00
    1348:	65676173 	strbvs	r6, [r7, #-371]!	; 0x173
    134c:	69726100 	ldmdbvs	r2!, {r8, sp, lr}^
    1350:	6d5f6373 	ldclvs	3, cr6, [pc, #-460]	; 118c <__standby_start+0x118c>
    1354:	61737365 	cmnvs	r3, r5, ror #6
    1358:	61006567 	tstvs	r0, r7, ror #10
    135c:	63736972 	cmnvs	r3, #1867776	; 0x1c8000
    1360:	6172735f 	cmnvs	r2, pc, asr r3
    1364:	32615f6d 	rsbcc	r5, r1, #436	; 0x1b4
    1368:	6162765f 	cmnvs	r2, pc, asr r6
    136c:	73006573 	movwvc	r6, #1395	; 0x573
    1370:	646e6174 	strbtvs	r6, [lr], #-372	; 0x174
    1374:	615f7962 	cmpvs	pc, r2, ror #18
    1378:	63736972 	cmnvs	r3, #1867776	; 0x1c8000
    137c:	6568635f 	strbvs	r6, [r8, #-863]!	; 0x35f
    1380:	725f6b63 	subsvc	r6, pc, #101376	; 0x18c00
    1384:	6f747365 	svcvs	0x00747365
    1388:	735f6572 	cmpvc	pc, #478150656	; 0x1c800000
    138c:	75746174 	ldrbvc	r6, [r4, #-372]!	; 0x174
    1390:	61700073 	cmnvs	r0, r3, ror r0
    1394:	00736172 	rsbseq	r6, r3, r2, ror r1
    1398:	6e617473 	mcrvs	4, 3, r7, cr1, cr3, {3}
    139c:	5f796264 	svcpl	0x00796264
    13a0:	73697261 	cmnvc	r9, #268435462	; 0x10000006
    13a4:	6f6e5f63 	svcvs	0x006e5f63
    13a8:	79666974 	stmdbvc	r6!, {r2, r4, r5, r6, r8, fp, sp, lr}^
    13ac:	7365725f 	cmnvc	r5, #-268435451	; 0xf0000005
    13b0:	65726f74 	ldrbvs	r6, [r2, #-3956]!	; 0xf74
    13b4:	63726100 	cmnvs	r2, #0
    13b8:	72612f68 	rsbvc	r2, r1, #416	; 0x1a0
    13bc:	616d2f6d 	cmnvs	sp, sp, ror #30
    13c0:	732d6863 	teqvc	sp, #6488064	; 0x630000
    13c4:	69786e75 	ldmdbvs	r8!, {r0, r2, r4, r5, r6, r9, sl, fp, sp, lr}^
    13c8:	2f6d702f 	svccs	0x006d702f
    13cc:	6e617473 	mcrvs	4, 3, r7, cr1, cr3, {3}
    13d0:	2f796264 	svccs	0x00796264
    13d4:	72612f2e 	rsbvc	r2, r1, #184	; 0xb8
    13d8:	2f637369 	svccs	0x00637369
    13dc:	6e617473 	mcrvs	4, 3, r7, cr1, cr3, {3}
    13e0:	5f796264 	svcpl	0x00796264
    13e4:	73697261 	cmnvc	r9, #268435462	; 0x10000006
    13e8:	00632e63 	rsbeq	r2, r3, r3, ror #28
    13ec:	6e617473 	mcrvs	4, 3, r7, cr1, cr3, {3}
    13f0:	5f796264 	svcpl	0x00796264
    13f4:	73697261 	cmnvc	r9, #268435462	; 0x10000006
    13f8:	75715f63 	ldrbvc	r5, [r1, #-3939]!	; 0xf63
    13fc:	5f797265 	svcpl	0x00797265
    1400:	656b6177 	strbvs	r6, [fp, #-375]!	; 0x177
    1404:	735f7075 	cmpvc	pc, #117	; 0x75
    1408:	73006372 	movwvc	r6, #882	; 0x372
    140c:	646e6174 	strbtvs	r6, [lr], #-372	; 0x174
    1410:	615f7962 	cmpvs	pc, r2, ror #18
    1414:	63736972 	cmnvs	r3, #1867776	; 0x1c8000
    1418:	6174735f 	cmnvs	r4, pc, asr r3
    141c:	7962646e 	stmdbvc	r2!, {r1, r2, r3, r5, r6, sl, sp, lr}^
    1420:	726f6e5f 	rsbvc	r6, pc, #1520	; 0x5f0
    1424:	006c616d 	rsbeq	r6, ip, sp, ror #2
    1428:	7478656e 	ldrbtvc	r6, [r8], #-1390	; 0x56e
    142c:	69726100 	ldmdbvs	r2!, {r8, sp, lr}^
    1430:	685f6373 	ldmdavs	pc, {r0, r1, r4, r5, r6, r8, r9, sp, lr}^	; <UNPREDICTABLE>
    1434:	67736d77 			; <UNDEFINED> instruction: 0x67736d77
    1438:	5f786f62 	svcpl	0x00786f62
    143c:	646e6573 	strbtvs	r6, [lr], #-1395	; 0x573
    1440:	73656d5f 	cmnvc	r5, #6080	; 0x17c0
    1444:	65676173 	strbvs	r6, [r7, #-371]!	; 0x173
    1448:	69726100 	ldmdbvs	r2!, {r8, sp, lr}^
    144c:	685f6373 	ldmdavs	pc, {r0, r1, r4, r5, r6, r8, r9, sp, lr}^	; <UNPREDICTABLE>
    1450:	67736d77 			; <UNDEFINED> instruction: 0x67736d77
    1454:	5f786f62 	svcpl	0x00786f62
    1458:	72657571 	rsbvc	r7, r5, #473956352	; 0x1c400000
    145c:	65725f79 	ldrbvs	r5, [r2, #-3961]!	; 0xf79
    1460:	76696563 	strbtvc	r6, [r9], -r3, ror #10
    1464:	705f7265 	subsvc	r7, pc, r5, ror #4
    1468:	69646e65 	stmdbvs	r4!, {r0, r2, r5, r6, r9, sl, fp, sp, lr}^
    146c:	7600676e 	strvc	r6, [r0], -lr, ror #14
    1470:	65756c61 	ldrbvs	r6, [r5, #-3169]!	; 0xc61
    1474:	69726100 	ldmdbvs	r2!, {r8, sp, lr}^
    1478:	685f6373 	ldmdavs	pc, {r0, r1, r4, r5, r6, r8, r9, sp, lr}^	; <UNPREDICTABLE>
    147c:	67736d77 			; <UNDEFINED> instruction: 0x67736d77
    1480:	5f786f62 	svcpl	0x00786f62
    1484:	74697865 	strbtvc	r7, [r9], #-2149	; 0x865
    1488:	5f574100 	svcpl	0x00574100
    148c:	534d5748 	movtpl	r5, #55112	; 0xd748
    1490:	55515f47 	ldrbpl	r5, [r1, #-3911]	; 0xf47
    1494:	5f455545 	svcpl	0x00455545
    1498:	52455355 	subpl	r5, r5, #1409286145	; 0x54000001
    149c:	4952415f 	ldmdbmi	r2, {r0, r1, r2, r3, r4, r6, r8, lr}^
    14a0:	61004353 	tstvs	r0, r3, asr r3
    14a4:	77685f77 			; <UNDEFINED> instruction: 0x77685f77
    14a8:	5f67736d 	svcpl	0x0067736d
    14ac:	75657571 	strbvc	r7, [r5, #-1393]!	; 0x571
    14b0:	73755f65 	cmnvc	r5, #404	; 0x194
    14b4:	61007265 	tstvs	r0, r5, ror #4
    14b8:	63736972 	cmnvs	r3, #1867776	; 0x1c8000
    14bc:	6d77685f 	ldclvs	8, cr6, [r7, #-380]!	; 0xfffffe84
    14c0:	6f626773 	svcvs	0x00626773
    14c4:	65665f78 	strbvs	r5, [r6, #-3960]!	; 0xf78
    14c8:	61626465 	cmnvs	r2, r5, ror #8
    14cc:	6d5f6b63 	vldrvs	d22, [pc, #-396]	; 1348 <__standby_start+0x1348>
    14d0:	61737365 	cmnvs	r3, r5, ror #6
    14d4:	61006567 	tstvs	r0, r7, ror #10
    14d8:	63736972 	cmnvs	r3, #1867776	; 0x1c8000
    14dc:	73656d5f 	cmnvc	r5, #6080	; 0x17c0
    14e0:	65676173 	strbvs	r6, [r7, #-371]!	; 0x173
    14e4:	6c61765f 	stclvs	6, cr7, [r1], #-380	; 0xfffffe84
    14e8:	71006469 	tstvc	r0, r9, ror #8
    14ec:	65756575 	ldrbvs	r6, [r5, #-1397]!	; 0x575
    14f0:	69726100 	ldmdbvs	r2!, {r8, sp, lr}^
    14f4:	685f6373 	ldmdavs	pc, {r0, r1, r4, r5, r6, r8, r9, sp, lr}^	; <UNPREDICTABLE>
    14f8:	67736d77 			; <UNDEFINED> instruction: 0x67736d77
    14fc:	5f786f62 	svcpl	0x00786f62
    1500:	74696e69 	strbtvc	r6, [r9], #-3689	; 0xe69
    1504:	63726100 	cmnvs	r2, #0
    1508:	72612f68 	rsbvc	r2, r1, #416	; 0x1a0
    150c:	616d2f6d 	cmnvs	sp, sp, ror #30
    1510:	732d6863 	teqvc	sp, #6488064	; 0x630000
    1514:	69786e75 	ldmdbvs	r8!, {r0, r2, r4, r5, r6, r9, sl, fp, sp, lr}^
    1518:	2f6d702f 	svccs	0x006d702f
    151c:	6e617473 	mcrvs	4, 3, r7, cr1, cr3, {3}
    1520:	2f796264 	svccs	0x00796264
    1524:	72612f2e 	rsbvc	r2, r1, #184	; 0xb8
    1528:	2f637369 	svccs	0x00637369
    152c:	73697261 	cmnvc	r9, #268435462	; 0x10000006
    1530:	77685f63 	strbvc	r5, [r8, -r3, ror #30]!
    1534:	6267736d 	rsbvs	r7, r7, #-1275068415	; 0xb4000001
    1538:	632e786f 	teqvs	lr, #7274496	; 0x6f0000
    153c:	69726100 	ldmdbvs	r2!, {r8, sp, lr}^
    1540:	685f6373 	ldmdavs	pc, {r0, r1, r4, r5, r6, r8, r9, sp, lr}^	; <UNPREDICTABLE>
    1544:	67736d77 			; <UNDEFINED> instruction: 0x67736d77
    1548:	5f786f62 	svcpl	0x00786f62
    154c:	72657571 	rsbvc	r7, r5, #473956352	; 0x1c400000
    1550:	656d5f79 	strbvs	r5, [sp, #-3961]!	; 0xf79
    1554:	67617373 			; <UNDEFINED> instruction: 0x67617373
    1558:	72610065 	rsbvc	r0, r1, #101	; 0x65
    155c:	5f637369 	svcpl	0x00637369
    1560:	736d7768 	cmnvc	sp, #27262976	; 0x1a00000
    1564:	786f6267 	stmdavc	pc!, {r0, r1, r2, r5, r6, r9, sp, lr}^	; <UNPREDICTABLE>
    1568:	656c635f 	strbvs	r6, [ip, #-863]!	; 0x35f
    156c:	725f7261 	subsvc	r7, pc, #268435462	; 0x10000006
    1570:	69656365 	stmdbvs	r5!, {r0, r2, r5, r6, r8, r9, sp, lr}^
    1574:	5f726576 	svcpl	0x00726576
    1578:	646e6570 	strbtvs	r6, [lr], #-1392	; 0x570
    157c:	00676e69 	rsbeq	r6, r7, r9, ror #28
    1580:	73697261 	cmnvc	r9, #268435462	; 0x10000006
    1584:	77685f63 	strbvc	r5, [r8, -r3, ror #30]!
    1588:	6267736d 	rsbvs	r7, r7, #-1275068415	; 0xb4000001
    158c:	655f786f 	ldrbvs	r7, [pc, #-2159]	; d25 <__standby_start+0xd25>
    1590:	6c62616e 	stfvse	f6, [r2], #-440	; 0xfffffe48
    1594:	65725f65 	ldrbvs	r5, [r2, #-3941]!	; 0xf65
    1598:	76696563 	strbtvc	r6, [r9], -r3, ror #10
    159c:	695f7265 	ldmdbvs	pc, {r0, r2, r5, r6, r9, ip, sp, lr}^	; <UNPREDICTABLE>
    15a0:	4100746e 	tstmi	r0, lr, ror #8
    15a4:	57485f57 	smlsldpl	r5, r8, r7, pc	; <UNPREDICTABLE>
    15a8:	5f47534d 	svcpl	0x0047534d
    15ac:	55455551 	strbpl	r5, [r5, #-1361]	; 0x551
    15b0:	53555f45 	cmppl	r5, #276	; 0x114
    15b4:	415f5245 	cmpmi	pc, r5, asr #4
    15b8:	37323343 	ldrcc	r3, [r2, -r3, asr #6]!
    15bc:	63726100 	cmnvs	r2, #0
    15c0:	72612f68 	rsbvc	r2, r1, #416	; 0x1a0
    15c4:	616d2f6d 	cmnvs	sp, sp, ror #30
    15c8:	732d6863 	teqvc	sp, #6488064	; 0x630000
    15cc:	69786e75 	ldmdbvs	r8!, {r0, r2, r4, r5, r6, r9, sl, fp, sp, lr}^
    15d0:	2f6d702f 	svccs	0x006d702f
    15d4:	6e617473 	mcrvs	4, 3, r7, cr1, cr3, {3}
    15d8:	2f796264 	svccs	0x00796264
    15dc:	72612f2e 	rsbvc	r2, r1, #184	; 0xb8
    15e0:	2f637369 	svccs	0x00637369
    15e4:	73697261 	cmnvc	r9, #268435462	; 0x10000006
    15e8:	77685f63 	strbvc	r5, [r8, -r3, ror #30]!
    15ec:	6e697073 	mcrvs	0, 3, r7, cr9, cr3, {3}
    15f0:	6b636f6c 	blvs	18dd3a8 <__standby_start+0x18dd3a8>
    15f4:	6800632e 	stmdavs	r0, {r1, r2, r3, r5, r8, r9, sp, lr}
    15f8:	00646977 	rsbeq	r6, r4, r7, ror r9
    15fc:	73697261 	cmnvc	r9, #268435462	; 0x10000006
    1600:	77685f63 	strbvc	r5, [r8, -r3, ror #30]!
    1604:	6e697073 	mcrvs	0, 3, r7, cr9, cr3, {3}
    1608:	6b636f6c 	blvs	18dd3c0 <__standby_start+0x18dd3c0>
    160c:	6978655f 	ldmdbvs	r8!, {r0, r1, r2, r3, r4, r6, r8, sl, sp, lr}^
    1610:	72610074 	rsbvc	r0, r1, #116	; 0x74
    1614:	5f637369 	svcpl	0x00637369
    1618:	70737768 	rsbsvc	r7, r3, r8, ror #14
    161c:	755f6e69 	ldrbvc	r6, [pc, #-3689]	; 7bb <__standby_start+0x7bb>
    1620:	636f6c6e 	cmnvs	pc, #28160	; 0x6e00
    1624:	7261006b 	rsbvc	r0, r1, #107	; 0x6b
    1628:	5f637369 	svcpl	0x00637369
    162c:	70737768 	rsbsvc	r7, r3, r8, ror #14
    1630:	6f6c6e69 	svcvs	0x006c6e69
    1634:	695f6b63 	ldmdbvs	pc, {r0, r1, r5, r6, r8, r9, fp, sp, lr}^	; <UNPREDICTABLE>
    1638:	0074696e 	rsbseq	r6, r4, lr, ror #18
    163c:	73697261 	cmnvc	r9, #268435462	; 0x10000006
    1640:	77685f63 	strbvc	r5, [r8, -r3, ror #30]!
    1644:	6e697073 	mcrvs	0, 3, r7, cr9, cr3, {3}
    1648:	636f6c5f 	cmnvs	pc, #24320	; 0x5f00
    164c:	69745f6b 	ldmdbvs	r4!, {r0, r1, r3, r5, r6, r8, r9, sl, fp, ip, lr}^
    1650:	756f656d 	strbvc	r6, [pc, #-1389]!	; 10eb <__standby_start+0x10eb>
    1654:	72610074 	rsbvc	r0, r1, #116	; 0x74
    1658:	5f637369 	svcpl	0x00637369
    165c:	7373656d 	cmnvc	r3, #457179136	; 0x1b400000
    1660:	5f656761 	svcpl	0x00656761
    1664:	616e616d 	cmnvs	lr, sp, ror #2
    1668:	5f726567 	svcpl	0x00726567
    166c:	74697865 	strbtvc	r7, [r9], #-2149	; 0x865
    1670:	69726100 	ldmdbvs	r2!, {r8, sp, lr}^
    1674:	6d5f6373 	ldclvs	3, cr6, [pc, #-460]	; 14b0 <__standby_start+0x14b0>
    1678:	61737365 	cmnvs	r3, r5, ror #6
    167c:	615f6567 	cmpvs	pc, r7, ror #10
    1680:	636f6c6c 	cmnvs	pc, #27648	; 0x6c00
    1684:	00657461 	rsbeq	r7, r5, r1, ror #8
    1688:	7373656d 	cmnvc	r3, #457179136	; 0x1b400000
    168c:	5f656761 	svcpl	0x00656761
    1690:	00646e65 	rsbeq	r6, r4, r5, ror #28
    1694:	73697261 	cmnvc	r9, #268435462	; 0x10000006
    1698:	656d5f63 	strbvs	r5, [sp, #-3939]!	; 0xf63
    169c:	67617373 			; <UNDEFINED> instruction: 0x67617373
    16a0:	72665f65 	rsbvc	r5, r6, #404	; 0x194
    16a4:	6d006565 	cfstr32vs	mvfx6, [r0, #-404]	; 0xfffffe6c
    16a8:	61737365 	cmnvs	r3, r5, ror #6
    16ac:	735f6567 	cmpvc	pc, #432013312	; 0x19c00000
    16b0:	74726174 	ldrbtvc	r6, [r2], #-372	; 0x174
    16b4:	69726100 	ldmdbvs	r2!, {r8, sp, lr}^
    16b8:	6d5f6373 	ldclvs	3, cr6, [pc, #-460]	; 14f4 <__standby_start+0x14f4>
    16bc:	61737365 	cmnvs	r3, r5, ror #6
    16c0:	6d5f6567 	cfldr64vs	mvdx6, [pc, #-412]	; 152c <__standby_start+0x152c>
    16c4:	67616e61 	strbvs	r6, [r1, -r1, ror #28]!
    16c8:	695f7265 	ldmdbvs	pc, {r0, r2, r5, r6, r9, ip, sp, lr}^	; <UNPREDICTABLE>
    16cc:	0074696e 	rsbseq	r6, r4, lr, ror #18
    16d0:	68637261 	stmdavs	r3!, {r0, r5, r6, r9, ip, sp, lr}^
    16d4:	6d72612f 	ldfvse	f6, [r2, #-188]!	; 0xffffff44
    16d8:	63616d2f 	cmnvs	r1, #3008	; 0xbc0
    16dc:	75732d68 	ldrbvc	r2, [r3, #-3432]!	; 0xd68
    16e0:	2f69786e 	svccs	0x0069786e
    16e4:	732f6d70 	teqvc	pc, #7168	; 0x1c00
    16e8:	646e6174 	strbtvs	r6, [lr], #-372	; 0x174
    16ec:	2e2f7962 	cdpcs	9, 2, cr7, cr15, cr2, {3}
    16f0:	6972612f 	ldmdbvs	r2!, {r0, r1, r2, r3, r5, r8, sp, lr}^
    16f4:	612f6373 	teqvs	pc, r3, ror r3	; <UNPREDICTABLE>
    16f8:	63736972 	cmnvs	r3, #1867776	; 0x1c8000
    16fc:	73656d5f 	cmnvc	r5, #6080	; 0x17c0
    1700:	65676173 	strbvs	r6, [r7, #-371]!	; 0x173
    1704:	6e616d5f 	mcrvs	13, 3, r6, cr1, cr15, {2}
    1708:	72656761 	rsbvc	r6, r5, #25427968	; 0x1840000
    170c:	6d00632e 	stcvs	3, cr6, [r0, #-184]	; 0xffffff48
    1710:	615f6773 	cmpvs	pc, r3, ror r7	; <UNPREDICTABLE>
    1714:	00727474 	rsbseq	r7, r2, r4, ror r4
    1718:	6c6c6170 	stfvse	f6, [ip], #-448	; 0xfffffe40
    171c:	6c00636f 	stcvs	3, cr6, [r0], {111}	; 0x6f
    1720:	5f706f6f 	svcpl	0x00706f6f
    1724:	67616c66 	strbvs	r6, [r1, -r6, ror #24]!
    1728:	73756200 	cmnvc	r5, #0
    172c:	61775f79 	cmnvs	r7, r9, ror pc
    1730:	6e697469 	cdpvs	4, 6, cr7, cr9, cr9, {3}
    1734:	6c630067 	stclvs	0, cr0, [r3], #-412	; 0xfffffe64
    1738:	5f726165 	svcpl	0x00726165
    173c:	5f6d656d 	svcpl	0x006d656d
    1740:	67616c66 	strbvs	r6, [r1, -r6, ror #24]!
    1744:	76617300 	strbtvc	r7, [r1], -r0, lsl #6
    1748:	656d5f65 	strbvs	r5, [sp, #-3941]!	; 0xf65
    174c:	74735f6d 	ldrbtvc	r5, [r3], #-3949	; 0xf6d
    1750:	73757461 	cmnvc	r5, #1627389952	; 0x61000000
    1754:	6d656d00 	stclvs	13, cr6, [r5, #-0]
    1758:	6174735f 	cmnvs	r4, pc, asr r3
    175c:	5f737574 	svcpl	0x00737574
    1760:	74696e69 	strbtvc	r6, [r9], #-3689	; 0xe69
    1764:	6d6f6e5f 	stclvs	14, cr6, [pc, #-380]!	; 15f0 <__standby_start+0x15f0>
    1768:	7300756d 	movwvc	r7, #1389	; 0x56d
    176c:	5f776f68 	svcpl	0x00776f68
    1770:	5f6d656d 	svcpl	0x006d656d
    1774:	74617473 	strbtvc	r7, [r1], #-1139	; 0x473
    1778:	69007375 	stmdbvs	r0, {r0, r2, r4, r5, r6, r8, r9, ip, sp, lr}
    177c:	69685f6f 	stmdbvs	r8!, {r0, r1, r2, r3, r5, r6, r8, r9, sl, fp, ip, lr}^
    1780:	73006867 	movwvc	r6, #2151	; 0x867
    1784:	5f657661 	svcpl	0x00657661
    1788:	78757063 	ldmdavc	r5!, {r0, r1, r5, r6, ip, sp, lr}^
    178c:	6d656d5f 	stclvs	13, cr6, [r5, #-380]!	; 0xfffffe84
    1790:	6174735f 	cmnvs	r4, pc, asr r3
    1794:	5f737574 	svcpl	0x00737574
    1798:	6d6d6f6e 	stclvs	15, cr6, [sp, #-440]!	; 0xfffffe48
    179c:	656d0075 	strbvs	r0, [sp, #-117]!	; 0x75
    17a0:	74735f6d 	ldrbtvc	r5, [r3], #-3949	; 0xf6d
    17a4:	73757461 	cmnvc	r5, #1627389952	; 0x61000000
    17a8:	6978655f 	ldmdbvs	r8!, {r0, r1, r2, r3, r4, r6, r8, sl, sp, lr}^
    17ac:	6f690074 	svcvs	0x00690074
    17b0:	696e695f 	stmdbvs	lr!, {r0, r1, r2, r3, r4, r6, r8, fp, sp, lr}^
    17b4:	61730074 	cmnvs	r3, r4, ror r0
    17b8:	6d5f6576 	cfldr64vs	mvdx6, [pc, #-472]	; 15e8 <__standby_start+0x15e8>
    17bc:	735f6d65 	cmpvc	pc, #6464	; 0x1940
    17c0:	75746174 	ldrbvc	r6, [r4, #-372]!	; 0x174
    17c4:	6f6e5f73 	svcvs	0x006e5f73
    17c8:	00756d6d 	rsbseq	r6, r5, sp, ror #26
    17cc:	5f746567 	svcpl	0x00746567
    17d0:	5f6d656d 	svcpl	0x006d656d
    17d4:	74617473 	strbtvc	r7, [r1], #-1139	; 0x473
    17d8:	6d007375 	stcvs	3, cr7, [r0, #-468]	; 0xfffffe2c
    17dc:	735f6d65 	cmpvc	pc, #6464	; 0x1940
    17e0:	75746174 	ldrbvc	r6, [r4, #-372]!	; 0x174
    17e4:	6c635f73 	stclvs	15, cr5, [r3], #-460	; 0xfffffe34
    17e8:	00726165 	rsbseq	r6, r2, r5, ror #2
    17ec:	5f6d656d 	svcpl	0x006d656d
    17f0:	74617473 	strbtvc	r7, [r1], #-1139	; 0x473
    17f4:	695f7375 	ldmdbvs	pc, {r0, r2, r4, r5, r6, r8, r9, ip, sp, lr}^	; <UNPREDICTABLE>
    17f8:	0074696e 	rsbseq	r6, r4, lr, ror #18
    17fc:	68637261 	stmdavs	r3!, {r0, r5, r6, r9, ip, sp, lr}^
    1800:	6d72612f 	ldfvse	f6, [r2, #-188]!	; 0xffffff44
    1804:	63616d2f 	cmnvs	r1, #3008	; 0xbc0
    1808:	75732d68 	ldrbvc	r2, [r3, #-3432]!	; 0xd68
    180c:	2f69786e 	svccs	0x0069786e
    1810:	732f6d70 	teqvc	pc, #7168	; 0x1c00
    1814:	646e6174 	strbtvs	r6, [lr], #-372	; 0x174
    1818:	2e2f7962 	cdpcs	9, 2, cr7, cr15, cr2, {3}
    181c:	2f2e2e2f 	svccs	0x002e2e2f
    1820:	645f6d70 	ldrbvs	r6, [pc], #-3440	; 1828 <__standby_start+0x1828>
    1824:	67756265 	ldrbvs	r6, [r5, -r5, ror #4]!
    1828:	7000632e 	andvc	r6, r0, lr, lsr #6
    182c:	746e6972 	strbtvc	r6, [lr], #-2418	; 0x972
    1830:	616c665f 	cmnvs	ip, pc, asr r6
    1834:	6f690067 	svcvs	0x00690067
    1838:	696e695f 	stmdbvs	lr!, {r0, r1, r2, r3, r4, r6, r8, fp, sp, lr}^
    183c:	6f6c5f74 	svcvs	0x006c5f74
    1840:	61730077 	cmnvs	r3, r7, ror r0
    1844:	6d5f6576 	cfldr64vs	mvdx6, [pc, #-472]	; 1674 <__standby_start+0x1674>
    1848:	665f6d65 	ldrbvs	r6, [pc], -r5, ror #26
    184c:	0067616c 	rsbeq	r6, r7, ip, ror #2
    1850:	695f6f69 	ldmdbvs	pc, {r0, r3, r5, r6, r8, r9, sl, fp, sp, lr}^	; <UNPREDICTABLE>
    1854:	5f74696e 	svcpl	0x0074696e
    1858:	68676968 	stmdavs	r7!, {r3, r5, r6, r8, fp, sp, lr}^
    185c:	65766500 	ldrbvs	r6, [r6, #-1280]!	; 0x500
    1860:	635f746e 	cmpvs	pc, #1845493760	; 0x6e000000
    1864:	6200746e 	andvs	r7, r0, #1845493760	; 0x6e000000
    1868:	756b6361 	strbvc	r6, [fp, #-865]!	; 0x361
    186c:	65705f70 	ldrbvs	r5, [r0, #-3952]!	; 0xf70
    1870:	635f6672 	cmpvs	pc, #119537664	; 0x7200000
    1874:	746e756f 	strbtvc	r7, [lr], #-1391	; 0x56f
    1878:	655f7265 	ldrbvs	r7, [pc, #-613]	; 161b <__standby_start+0x161b>
    187c:	6c62616e 	stfvse	f6, [r2], #-440	; 0xfffffe48
    1880:	65725f65 	ldrbvs	r5, [r2, #-3941]!	; 0xf65
    1884:	6f630067 	svcvs	0x00630067
    1888:	65746e75 	ldrbvs	r6, [r4, #-3701]!	; 0xe75
    188c:	6e655f72 	mcrvs	15, 3, r5, cr5, cr2, {3}
    1890:	656c6261 	strbvs	r6, [ip, #-609]!	; 0x261
    1894:	72617400 	rsbvc	r7, r1, #0
    1898:	00746567 	rsbseq	r6, r4, r7, ror #10
    189c:	616c6564 	cmnvs	ip, r4, ror #10
    18a0:	736d5f79 	cmnvc	sp, #484	; 0x1e4
    18a4:	73657200 	cmnvc	r5, #0
    18a8:	635f7465 	cmpvs	pc, #1694498816	; 0x65000000
    18ac:	746e756f 	strbtvc	r7, [lr], #-1391	; 0x56f
    18b0:	62007265 	andvs	r7, r0, #1342177286	; 0x50000006
    18b4:	756b6361 	strbvc	r6, [fp, #-865]!	; 0x361
    18b8:	65705f70 	ldrbvs	r5, [r0, #-3952]!	; 0xf70
    18bc:	6f636672 	svcvs	0x00636672
    18c0:	65746e75 	ldrbvs	r6, [r4, #-3701]!	; 0xe75
    18c4:	65640072 	strbvs	r0, [r4, #-114]!	; 0x72
    18c8:	5f79616c 	svcpl	0x0079616c
    18cc:	75007375 	strvc	r7, [r0, #-885]	; 0x375
    18d0:	6e635f73 	mcrvs	15, 3, r5, cr3, cr3, {3}
    18d4:	6e690074 	mcrvs	0, 3, r0, cr9, cr4, {3}
    18d8:	705f7469 	subsvc	r7, pc, r9, ror #8
    18dc:	63667265 	cmnvs	r6, #1342177286	; 0x50000006
    18e0:	746e756f 	strbtvc	r7, [lr], #-1391	; 0x56f
    18e4:	00737265 	rsbseq	r7, r3, r5, ror #4
    18e8:	74696e69 	strbtvc	r6, [r9], #-3689	; 0xe69
    18ec:	6576655f 	ldrbvs	r6, [r6, #-1375]!	; 0x55f
    18f0:	635f746e 	cmpvs	pc, #1845493760	; 0x6e000000
    18f4:	746e756f 	strbtvc	r7, [lr], #-1391	; 0x56f
    18f8:	65007265 	strvs	r7, [r0, #-613]	; 0x265
    18fc:	6c62616e 	stfvse	f6, [r2], #-440	; 0xfffffe48
    1900:	69645f65 	stmdbvs	r4!, {r0, r2, r5, r6, r8, r9, sl, fp, ip, lr}^
    1904:	65646976 	strbvs	r6, [r4, #-2422]!	; 0x976
    1908:	68630072 	stmdavs	r3!, {r1, r4, r5, r6}^
    190c:	65676e61 	strbvs	r6, [r7, #-3681]!	; 0xe61
    1910:	6e75725f 	mrcvs	2, 3, r7, cr5, cr15, {2}
    1914:	656d6974 	strbvs	r6, [sp, #-2420]!	; 0x974
    1918:	766e655f 			; <UNDEFINED> instruction: 0x766e655f
    191c:	65766f00 	ldrbvs	r6, [r6, #-3840]!	; 0xf00
    1920:	61656872 	smcvs	22146	; 0x5682
    1924:	72610064 	rsbvc	r0, r1, #100	; 0x64
    1928:	612f6863 	teqvs	pc, r3, ror #16
    192c:	6d2f6d72 	stcvs	13, cr6, [pc, #-456]!	; 176c <__standby_start+0x176c>
    1930:	2d686361 	stclcs	3, cr6, [r8, #-388]!	; 0xfffffe7c
    1934:	786e7573 	stmdavc	lr!, {r0, r1, r4, r5, r6, r8, sl, ip, sp, lr}^
    1938:	6d702f69 	ldclvs	15, cr2, [r0, #-420]!	; 0xfffffe5c
    193c:	6174732f 	cmnvs	r4, pc, lsr #6
    1940:	7962646e 	stmdbvc	r2!, {r1, r2, r3, r5, r6, sl, sp, lr}^
    1944:	2e2f2e2f 	cdpcs	14, 2, cr2, cr15, cr15, {1}
    1948:	656d2f2e 	strbvs	r2, [sp, #-3886]!	; 0xf2e
    194c:	69745f6d 	ldmdbvs	r4!, {r0, r2, r3, r5, r6, r8, r9, sl, fp, ip, lr}^
    1950:	676e696d 	strbvs	r6, [lr, -sp, ror #18]!
    1954:	6700632e 	strvs	r6, [r0, -lr, lsr #6]
    1958:	635f7465 	cmpvs	pc, #1694498816	; 0x65000000
    195c:	656c6379 	strbvs	r6, [ip, #-889]!	; 0x379
    1960:	6e756f63 	cdpvs	15, 7, cr6, cr5, cr3, {3}
    1964:	6f640074 	svcvs	0x00640074
    1968:	7365725f 	cmnvc	r5, #-268435451	; 0xf0000005
    196c:	63007465 	movwvs	r7, #1125	; 0x465
    1970:	7265746e 	rsbvc	r7, r5, #1845493760	; 0x6e000000
    1974:	74657300 	strbtvc	r7, [r5], #-768	; 0x300
    1978:	6576655f 	ldrbvs	r6, [r6, #-1375]!	; 0x55f
    197c:	635f746e 	cmpvs	pc, #1845493760	; 0x6e000000
    1980:	746e756f 	strbtvc	r7, [lr], #-1391	; 0x56f
    1984:	6d007265 	sfmvs	f7, 4, [r0, #-404]	; 0xfffffe6c
    1988:	68637461 	stmdavs	r3!, {r0, r5, r6, sl, ip, sp, lr}^
    198c:	6576655f 	ldrbvs	r6, [r6, #-1375]!	; 0x55f
    1990:	635f746e 	cmpvs	pc, #1845493760	; 0x6e000000
    1994:	746e756f 	strbtvc	r7, [lr], #-1391	; 0x56f
    1998:	62007265 	andvs	r7, r0, #1342177286	; 0x50000006
    199c:	756b6361 	strbvc	r6, [fp, #-865]!	; 0x361
    19a0:	65705f70 	ldrbvs	r5, [r0, #-3952]!	; 0xf70
    19a4:	635f6672 	cmpvs	pc, #119537664	; 0x7200000
    19a8:	746e756f 	strbtvc	r7, [lr], #-1391	; 0x56f
    19ac:	635f7265 	cmpvs	pc, #1342177286	; 0x50000006
    19b0:	5f6c7274 	svcpl	0x006c7274
    19b4:	00676572 	rsbeq	r6, r7, r2, ror r5
    19b8:	74736572 	ldrbtvc	r6, [r3], #-1394	; 0x572
    19bc:	5f65726f 	svcpl	0x0065726f
    19c0:	66726570 			; <UNDEFINED> instruction: 0x66726570
    19c4:	6e756f63 	cdpvs	15, 7, cr6, cr5, cr3, {3}
    19c8:	00726574 	rsbseq	r6, r2, r4, ror r5
    19cc:	5f746567 	svcpl	0x00746567
    19d0:	6e657665 	cdpvs	6, 6, cr7, cr5, cr5, {3}
    19d4:	6f635f74 	svcvs	0x00635f74
    19d8:	65746e75 	ldrbvs	r6, [r4, #-3701]!	; 0xe75
    19dc:	726e0072 	rsbvc	r0, lr, #114	; 0x72
    19e0:	73007272 	movwvc	r7, #626	; 0x272
    19e4:	64657661 	strbtvs	r7, [r5], #-1633	; 0x661
    19e8:	756d6d5f 	strbvc	r6, [sp, #-3423]!	; 0xd5f
    19ec:	6174735f 	cmnvs	r4, pc, asr r3
    19f0:	64006574 	strvs	r6, [r0], #-1396	; 0x574
    19f4:	00726361 	rsbseq	r6, r2, r1, ror #6
    19f8:	63627474 	cmnvs	r2, #1946157056	; 0x74000000
    19fc:	74740072 	ldrbtvc	r0, [r4], #-114	; 0x72
    1a00:	72315f62 	eorsvc	r5, r1, #392	; 0x188
    1a04:	73657200 	cmnvc	r5, #0
    1a08:	65726f74 	ldrbvs	r6, [r2, #-3956]!	; 0xf74
    1a0c:	756d6d5f 	strbvc	r6, [sp, #-3423]!	; 0xd5f
    1a10:	6174735f 	cmnvs	r4, pc, asr r3
    1a14:	73006574 	movwvc	r6, #1396	; 0x574
    1a18:	5f657661 	svcpl	0x00657661
    1a1c:	5f756d6d 	svcpl	0x00756d6d
    1a20:	74617473 	strbtvc	r7, [r1], #-1139	; 0x473
    1a24:	72610065 	rsbvc	r0, r1, #101	; 0x65
    1a28:	612f6863 	teqvs	pc, r3, ror #16
    1a2c:	6d2f6d72 	stcvs	13, cr6, [pc, #-456]!	; 186c <__standby_start+0x186c>
    1a30:	2d686361 	stclcs	3, cr6, [r8, #-388]!	; 0xfffffe7c
    1a34:	786e7573 	stmdavc	lr!, {r0, r1, r4, r5, r6, r8, sl, ip, sp, lr}^
    1a38:	6d702f69 	ldclvs	15, cr2, [r0, #-420]!	; 0xfffffe5c
    1a3c:	6174732f 	cmnvs	r4, pc, lsr #6
    1a40:	7962646e 	stmdbvc	r2!, {r1, r2, r3, r5, r6, sl, sp, lr}^
    1a44:	2e2f2e2f 	cdpcs	14, 2, cr2, cr15, cr15, {1}
    1a48:	656d2f2e 	strbvs	r2, [sp, #-3886]!	; 0xf2e
    1a4c:	6d6d5f6d 	stclvs	15, cr5, [sp, #-436]!	; 0xfffffe4c
    1a50:	63705f75 	cmnvs	r0, #468	; 0x1d4
    1a54:	7000632e 	andvc	r6, r0, lr, lsr #6
    1a58:	00727272 	rsbseq	r7, r2, r2, ror r2
    1a5c:	72636163 	rsbvc	r6, r3, #-1073741800	; 0xc0000018
    1a60:	73736300 	cmnvc	r3, #0
    1a64:	74740072 	ldrbtvc	r0, [r4], #-114	; 0x72
    1a68:	72305f62 	eorsvc	r5, r0, #392	; 0x188
    1a6c:	72657300 	rsbvc	r7, r5, #0
    1a70:	5f6c6169 	svcpl	0x006c6169
    1a74:	73747570 	cmnvc	r4, #469762048	; 0x1c000000
    1a78:	6d6f6e5f 	stclvs	14, cr6, [pc, #-380]!	; 1904 <__standby_start+0x1904>
    1a7c:	7300756d 	movwvc	r7, #1389	; 0x56d
    1a80:	735f7465 	cmpvc	pc, #1694498816	; 0x65000000
    1a84:	61697265 	cmnvs	r9, r5, ror #4
    1a88:	6c635f6c 	stclvs	15, cr5, [r3], #-432	; 0xfffffe50
    1a8c:	6573006b 	ldrbvs	r0, [r3, #-107]!	; 0x6b
    1a90:	65735f74 	ldrbvs	r5, [r3, #-3956]!	; 0xf74
    1a94:	6c616972 	stclvs	9, cr6, [r1], #-456	; 0xfffffe38
    1a98:	6970675f 	ldmdbvs	r0!, {r0, r1, r2, r3, r4, r6, r8, r9, sl, sp, lr}^
    1a9c:	6573006f 	ldrbvs	r0, [r3, #-111]!	; 0x6f
    1aa0:	6c616972 	stclvs	9, cr6, [r1], #-456	; 0xfffffe38
    1aa4:	7465675f 	strbtvc	r6, [r5], #-1887	; 0x75f
    1aa8:	65730073 	ldrbvs	r0, [r3, #-115]!	; 0x73
    1aac:	6c616972 	stclvs	9, cr6, [r1], #-456	; 0xfffffe38
    1ab0:	696e695f 	stmdbvs	lr!, {r0, r1, r2, r3, r4, r6, r8, fp, sp, lr}^
    1ab4:	69740074 	ldmdbvs	r4!, {r2, r4, r5, r6}^
    1ab8:	6200656d 	andvs	r6, r0, #457179136	; 0x1b400000
    1abc:	756b6361 	strbvc	r6, [fp, #-865]!	; 0x361
    1ac0:	70675f70 	rsbvc	r5, r7, r0, ror pc
    1ac4:	755f6f69 	ldrbvc	r6, [pc, #-3945]	; b63 <__standby_start+0xb63>
    1ac8:	00747261 	rsbseq	r7, r4, r1, ror #4
    1acc:	69726573 	ldmdbvs	r2!, {r0, r1, r4, r5, r6, r8, sl, sp, lr}^
    1ad0:	675f6c61 	ldrbvs	r6, [pc, -r1, ror #24]
    1ad4:	635f7465 	cmpvs	pc, #1694498816	; 0x65000000
    1ad8:	00726168 	rsbseq	r6, r2, r8, ror #2
    1adc:	69726573 	ldmdbvs	r2!, {r0, r1, r4, r5, r6, r8, sl, sp, lr}^
    1ae0:	695f6c61 	ldmdbvs	pc, {r0, r5, r6, sl, fp, sp, lr}^	; <UNPREDICTABLE>
    1ae4:	5f74696e 	svcpl	0x0074696e
    1ae8:	6d6d6f6e 	stclvs	15, cr6, [sp, #-440]!	; 0xfffffe48
    1aec:	72730075 	rsbsvc	r0, r3, #117	; 0x75
    1af0:	72665f63 	rsbvc	r5, r6, #396	; 0x18c
    1af4:	73007165 	movwvc	r7, #357	; 0x165
    1af8:	61697265 	cmnvs	r9, r5, ror #4
    1afc:	75705f6c 	ldrbvc	r5, [r0, #-3948]!	; 0xf6c
    1b00:	73007374 	movwvc	r7, #884	; 0x374
    1b04:	61697265 	cmnvs	r9, r5, ror #4
    1b08:	75705f6c 	ldrbvc	r5, [r0, #-3948]!	; 0xf6c
    1b0c:	68635f74 	stmdavs	r3!, {r2, r4, r5, r6, r8, r9, sl, fp, ip, lr}^
    1b10:	70007261 	andvc	r7, r0, r1, ror #4
    1b14:	6b6c6332 	blvs	1b1a7e4 <__standby_start+0x1b1a7e4>
    1b18:	72657300 	rsbvc	r7, r5, #0
    1b1c:	5f6c6169 	svcpl	0x006c6169
    1b20:	74696e69 	strbtvc	r6, [r9], #-3689	; 0xe69
    1b24:	665f6465 	ldrbvs	r6, [pc], -r5, ror #8
    1b28:	0067616c 	rsbeq	r6, r7, ip, ror #2
    1b2c:	5f756363 	svcpl	0x00756363
    1b30:	00676572 	rsbeq	r6, r7, r2, ror r5
    1b34:	5f756d6d 	svcpl	0x00756d6d
    1b38:	67616c66 	strbvs	r6, [r1, -r6, ror #24]!
    1b3c:	72657300 	rsbvc	r7, r5, #0
    1b40:	5f6c6169 	svcpl	0x006c6169
    1b44:	73746567 	cmnvc	r4, #432013312	; 0x19c00000
    1b48:	6d6f6e5f 	stclvs	14, cr6, [pc, #-380]!	; 19d4 <__standby_start+0x19d4>
    1b4c:	6200756d 	andvs	r7, r0, #457179136	; 0x1b400000
    1b50:	756b6361 	strbvc	r6, [fp, #-865]!	; 0x361
    1b54:	63635f70 	cmnvs	r3, #448	; 0x1c0
    1b58:	61755f75 	cmnvs	r5, r5, ror pc
    1b5c:	725f7472 	subsvc	r7, pc, #1912602624	; 0x72000000
    1b60:	74657365 	strbtvc	r7, [r5], #-869	; 0x365
    1b64:	63726100 	cmnvs	r2, #0
    1b68:	72612f68 	rsbvc	r2, r1, #416	; 0x1a0
    1b6c:	616d2f6d 	cmnvs	sp, sp, ror #30
    1b70:	732d6863 	teqvc	sp, #6488064	; 0x630000
    1b74:	69786e75 	ldmdbvs	r8!, {r0, r2, r4, r5, r6, r9, sl, fp, sp, lr}^
    1b78:	2f6d702f 	svccs	0x006d702f
    1b7c:	6e617473 	mcrvs	4, 3, r7, cr1, cr3, {3}
    1b80:	2f796264 	svccs	0x00796264
    1b84:	2e2e2f2e 	cdpcs	15, 2, cr2, cr14, cr14, {1}
    1b88:	6d656d2f 	stclvs	13, cr6, [r5, #-188]!	; 0xffffff44
    1b8c:	7265735f 	rsbvc	r7, r5, #2080374785	; 0x7c000001
    1b90:	2e6c6169 	powcsez	f6, f4, #1.0
    1b94:	65730063 	ldrbvs	r0, [r3, #-99]!	; 0x63
    1b98:	6c616972 	stclvs	9, cr6, [r1], #-456	; 0xfffffe38
    1b9c:	7475705f 	ldrbtvc	r7, [r5], #-95	; 0x5f
    1ba0:	6168635f 	cmnvs	r8, pc, asr r3
    1ba4:	6f6e5f72 	svcvs	0x006e5f72
    1ba8:	00756d6d 	rsbseq	r6, r5, sp, ror #26
    1bac:	69726573 	ldmdbvs	r2!, {r0, r1, r4, r5, r6, r8, sl, sp, lr}^
    1bb0:	675f6c61 	ldrbvs	r6, [pc, -r1, ror #24]
    1bb4:	635f7465 	cmpvs	pc, #1694498816	; 0x65000000
    1bb8:	5f726168 	svcpl	0x00726168
    1bbc:	6d6d6f6e 	stclvs	15, cr6, [sp, #-440]!	; 0xfffffe48
    1bc0:	65730075 	ldrbvs	r0, [r3, #-117]!	; 0x75
    1bc4:	6c616972 	stclvs	9, cr6, [r1], #-456	; 0xfffffe38
    1bc8:	6978655f 	ldmdbvs	r8!, {r0, r1, r2, r3, r4, r6, r8, sl, sp, lr}^
    1bcc:	61620074 	smcvs	8196	; 0x2004
    1bd0:	70756b63 	rsbsvc	r6, r5, r3, ror #22
    1bd4:	7563635f 	strbvc	r6, [r3, #-863]!	; 0x35f
    1bd8:	7261755f 	rsbvc	r7, r1, #398458880	; 0x17c00000
    1bdc:	73700074 	cmnvc	r0, #116	; 0x74
    1be0:	73006372 	movwvc	r6, #882	; 0x372
    1be4:	5f657a69 	svcpl	0x00657a69
    1be8:	72610074 	rsbvc	r0, r1, #116	; 0x74
    1bec:	64007367 	strvs	r7, [r0], #-871	; 0x367
    1bf0:	74696769 	strbtvc	r6, [r9], #-1897	; 0x769
    1bf4:	7274735f 	rsbsvc	r7, r4, #2080374785	; 0x7c000001
    1bf8:	00676e69 	rsbeq	r6, r7, r9, ror #28
    1bfc:	63617473 	cmnvs	r1, #1929379840	; 0x73000000
    1c00:	6564006b 	strbvs	r0, [r4, #-107]!	; 0x6b
    1c04:	67677562 	strbvs	r7, [r7, -r2, ror #10]!
    1c08:	625f7265 	subsvs	r7, pc, #1342177286	; 0x50000006
    1c0c:	65666675 	strbvs	r6, [r6, #-1653]!	; 0x675
    1c10:	64700072 	ldrbtvs	r0, [r0], #-114	; 0x72
    1c14:	00747365 	rsbseq	r7, r4, r5, ror #6
    1c18:	6e675f5f 	mcrvs	15, 3, r5, cr7, cr15, {2}
    1c1c:	765f6375 			; <UNDEFINED> instruction: 0x765f6375
    1c20:	696c5f61 	stmdbvs	ip!, {r0, r5, r6, r8, r9, sl, fp, ip, lr}^
    1c24:	5f007473 	svcpl	0x00007473
    1c28:	5f61765f 	svcpl	0x0061765f
    1c2c:	7473696c 	ldrbtvc	r6, [r3], #-2412	; 0x96c
    1c30:	69727000 	ldmdbvs	r2!, {ip, sp, lr}^
    1c34:	615f746e 	cmpvs	pc, lr, ror #8
    1c38:	6e67696c 	cdpvs	9, 6, cr6, cr7, cr12, {3}
    1c3c:	72747300 	rsbsvc	r7, r4, #0
    1c40:	00797063 	rsbseq	r7, r9, r3, rrx
    1c44:	616f7469 	cmnvs	pc, r9, ror #8
    1c48:	72747300 	rsbsvc	r7, r4, #0
    1c4c:	7461636e 	strbtvc	r6, [r1], #-878	; 0x36e
    1c50:	726f6600 	rsbvc	r6, pc, #0
    1c54:	0074616d 	rsbseq	r6, r4, sp, ror #2
    1c58:	6c727473 	cfldrdvs	mvd7, [r2], #-460	; 0xfffffe34
    1c5c:	5f006e65 	svcpl	0x00006e65
    1c60:	0070615f 	rsbseq	r6, r0, pc, asr r1
    1c64:	68637261 	stmdavs	r3!, {r0, r5, r6, r9, ip, sp, lr}^
    1c68:	6d72612f 	ldfvse	f6, [r2, #-188]!	; 0xffffff44
    1c6c:	63616d2f 	cmnvs	r1, #3008	; 0xbc0
    1c70:	75732d68 	ldrbvc	r2, [r3, #-3432]!	; 0xd68
    1c74:	2f69786e 	svccs	0x0069786e
    1c78:	732f6d70 	teqvc	pc, #7168	; 0x1c00
    1c7c:	646e6174 	strbtvs	r6, [lr], #-372	; 0x174
    1c80:	2e2f7962 	cdpcs	9, 2, cr7, cr15, cr2, {3}
    1c84:	2f2e2e2f 	svccs	0x002e2e2f
    1c88:	5f6d656d 	svcpl	0x006d656d
    1c8c:	6e697270 	mcrvs	2, 3, r7, cr9, cr0, {3}
    1c90:	632e6b74 	teqvs	lr, #118784	; 0x1d000
    1c94:	6c696600 	stclvs	6, cr6, [r9], #-0
    1c98:	68635f6c 	stmdavs	r3!, {r2, r3, r5, r6, r8, r9, sl, fp, ip, lr}^
    1c9c:	6f747500 	svcvs	0x00747500
    1ca0:	72700061 	rsbsvc	r0, r0, #97	; 0x61
    1ca4:	6b746e69 	blvs	1d1d650 <__standby_start+0x1d1d650>
    1ca8:	64617200 	strbtvs	r7, [r1], #-512	; 0x200
    1cac:	70007869 	andvc	r7, r0, r9, ror #16
    1cb0:	746e6972 	strbtvc	r6, [lr], #-2418	; 0x972
    1cb4:	6f6e5f6b 	svcvs	0x006e5f6b
    1cb8:	00756d6d 	rsbseq	r6, r5, sp, ror #26
    1cbc:	6167656e 	cmnvs	r7, lr, ror #10
    1cc0:	65766974 	ldrbvs	r6, [r6, #-2420]!	; 0x974
    1cc4:	6d5f5f00 	ldclvs	15, cr5, [pc, #-0]	; 1ccc <__standby_start+0x1ccc>
    1cc8:	645f6d65 	ldrbvs	r6, [pc], #-3429	; 1cd0 <__standby_start+0x1cd0>
    1ccc:	00307669 	eorseq	r7, r0, r9, ror #12
    1cd0:	51706d74 	cmnpl	r0, r4, ror sp
    1cd4:	00746f75 	rsbseq	r6, r4, r5, ror pc
    1cd8:	69766964 	ldmdbvs	r6!, {r2, r5, r6, r8, fp, sp, lr}^
    1cdc:	726f6973 	rsbvc	r6, pc, #1884160	; 0x1cc000
    1ce0:	76696400 	strbtvc	r6, [r9], -r0, lsl #8
    1ce4:	6e656469 	cdpvs	4, 6, cr6, cr5, cr9, {3}
    1ce8:	61720064 	cmnvs	r2, r4, rrx
    1cec:	696c5f77 	stmdbvs	ip!, {r0, r1, r2, r4, r5, r6, r8, r9, sl, fp, ip, lr}^
    1cf0:	64755f62 	ldrbtvs	r5, [r5], #-3938	; 0xf62
    1cf4:	74007669 	strvc	r7, [r0], #-1641	; 0x669
    1cf8:	6944706d 	stmdbvs	r4, {r0, r2, r3, r5, r6, ip, sp, lr}^
    1cfc:	72610076 	rsbvc	r0, r1, #118	; 0x76
    1d00:	612f6863 	teqvs	pc, r3, ror #16
    1d04:	6d2f6d72 	stcvs	13, cr6, [pc, #-456]!	; 1b44 <__standby_start+0x1b44>
    1d08:	2d686361 	stclcs	3, cr6, [r8, #-388]!	; 0xfffffe7c
    1d0c:	786e7573 	stmdavc	lr!, {r0, r1, r4, r5, r6, r8, sl, ip, sp, lr}^
    1d10:	6d702f69 	ldclvs	15, cr2, [r0, #-420]!	; 0xfffffe5c
    1d14:	6174732f 	cmnvs	r4, pc, lsr #6
    1d18:	7962646e 	stmdbvc	r2!, {r1, r2, r3, r5, r6, sl, sp, lr}^
    1d1c:	2e2f2e2f 	cdpcs	14, 2, cr2, cr15, cr15, {1}
    1d20:	656d2f2e 	strbvs	r2, [sp, #-3886]!	; 0xf2e
    1d24:	69645f6d 	stmdbvs	r4!, {r0, r2, r3, r5, r6, r8, r9, sl, fp, ip, lr}^
    1d28:	62696c76 	rsbvs	r6, r9, #30208	; 0x7600
    1d2c:	00632e63 	rsbeq	r2, r3, r3, ror #28
    1d30:	5f6d656d 	svcpl	0x006d656d
    1d34:	5f746e69 	svcpl	0x00746e69
    1d38:	74697865 	strbtvc	r7, [r9], #-2149	; 0x865
    1d3c:	6d656d00 	stclvs	13, cr6, [r5, #-0]
    1d40:	6575715f 	ldrbvs	r7, [r5, #-351]!	; 0x15f
    1d44:	695f7972 	ldmdbvs	pc, {r1, r4, r5, r6, r8, fp, ip, sp, lr}^	; <UNPREDICTABLE>
    1d48:	6100746e 	tstvs	r0, lr, ror #8
    1d4c:	2f686372 	svccs	0x00686372
    1d50:	2f6d7261 	svccs	0x006d7261
    1d54:	6863616d 	stmdavs	r3!, {r0, r2, r3, r5, r6, r8, sp, lr}^
    1d58:	6e75732d 	cdpvs	3, 7, cr7, cr5, cr13, {1}
    1d5c:	702f6978 	eorvc	r6, pc, r8, ror r9	; <UNPREDICTABLE>
    1d60:	74732f6d 	ldrbtvc	r2, [r3], #-3949	; 0xf6d
    1d64:	62646e61 	rsbvs	r6, r4, #1552	; 0x610
    1d68:	2f2e2f79 	svccs	0x002e2f79
    1d6c:	6d2f2e2e 	stcvs	14, cr2, [pc, #-184]!	; 1cbc <__standby_start+0x1cbc>
    1d70:	695f6d65 	ldmdbvs	pc, {r0, r2, r5, r6, r8, sl, fp, sp, lr}^	; <UNPREDICTABLE>
    1d74:	632e746e 	teqvs	lr, #1845493760	; 0x6e000000
    1d78:	63694700 	cmnvs	r9, #0
    1d7c:	73694443 	cmnvc	r9, #1124073472	; 0x43000000
    1d80:	656d0063 	strbvs	r0, [sp, #-99]!	; 0x63
    1d84:	6e695f6d 	cdpvs	15, 6, cr5, cr9, cr13, {3}
    1d88:	6e695f74 	mcrvs	15, 3, r5, cr9, cr4, {3}
    1d8c:	65007469 	strvs	r7, [r0, #-1129]	; 0x469
    1d90:	6c62616e 	stfvse	f6, [r2], #-440	; 0xfffffe48
    1d94:	69625f65 	stmdbvs	r2!, {r0, r2, r5, r6, r8, r9, sl, fp, ip, lr}^
    1d98:	6d740074 	ldclvs	0, cr0, [r4, #-464]!	; 0xfffffe30
    1d9c:	70724770 	rsbsvc	r4, r2, r0, ror r7
    1da0:	706d7400 	rsbvc	r7, sp, r0, lsl #8
    1da4:	00637253 	rsbeq	r7, r3, r3, asr r2
    1da8:	5f6d656d 	svcpl	0x006d656d
    1dac:	62616e65 	rsbvs	r6, r1, #1616	; 0x650
    1db0:	695f656c 	ldmdbvs	pc, {r2, r3, r5, r6, r8, sl, sp, lr}^	; <UNPREDICTABLE>
    1db4:	4700746e 	strmi	r7, [r0, -lr, ror #8]
    1db8:	44446369 	strbmi	r6, [r4], #-873	; 0x369
    1dbc:	00637369 	rsbeq	r7, r3, r9, ror #6
    1dc0:	676f4457 			; <UNDEFINED> instruction: 0x676f4457
    1dc4:	72495f31 	subvc	r5, r9, #196	; 0xc4
    1dc8:	74535f71 	ldrbvc	r5, [r3], #-3953	; 0xf71
    1dcc:	76410061 	strbvc	r0, [r1], -r1, rrx
    1dd0:	6e433173 	mcrvs	1, 2, r3, cr3, cr3, {3}
    1dd4:	6e490074 	mcrvs	0, 2, r0, cr9, cr4, {3}
    1dd8:	6c744374 	ldclvs	3, cr4, [r4], #-464	; 0xfffffe30
    1ddc:	726d5400 	rsbvc	r5, sp, #0
    1de0:	746e4930 	strbtvc	r4, [lr], #-2352	; 0x930
    1de4:	006c6156 	rsbeq	r6, ip, r6, asr r1
    1de8:	676f4457 			; <UNDEFINED> instruction: 0x676f4457
    1dec:	74435f31 	strbvc	r5, [r3], #-3889	; 0xf31
    1df0:	525f6c72 	subspl	r6, pc, #29184	; 0x7200
    1df4:	54006765 	strpl	r6, [r0], #-1893	; 0x765
    1df8:	4331726d 	teqmi	r1, #-805306362	; 0xd0000006
    1dfc:	54006c74 	strpl	r6, [r0], #-3188	; 0xc74
    1e00:	4330726d 	teqmi	r0, #-805306362	; 0xd0000006
    1e04:	6156746e 	cmpvs	r6, lr, ror #8
    1e08:	6d54006c 	ldclvs	0, cr0, [r4, #-432]	; 0xfffffe50
    1e0c:	74433572 	strbvc	r3, [r3], #-1394	; 0x572
    1e10:	6d54006c 	ldclvs	0, cr0, [r4, #-432]	; 0xfffffe50
    1e14:	6e493272 	mcrvs	2, 2, r3, cr9, cr2, {3}
    1e18:	6c615674 	stclvs	6, cr5, [r1], #-464	; 0xfffffe30
    1e1c:	6d5f5f00 	ldclvs	15, cr5, [pc, #-0]	; 1e24 <__standby_start+0x1e24>
    1e20:	745f6d65 	ldrbvc	r6, [pc], #-3429	; 1e28 <__standby_start+0x1e28>
    1e24:	725f726d 	subsvc	r7, pc, #-805306362	; 0xd0000006
    1e28:	745f6765 	ldrbvc	r6, [pc], #-1893	; 1e30 <__standby_start+0x1e30>
    1e2c:	726d5400 	rsbvc	r5, sp, #0
    1e30:	746e4332 	strbtvc	r4, [lr], #-818	; 0x332
    1e34:	006c6156 	rsbeq	r6, ip, r6, asr r1
    1e38:	63746157 	cmnvs	r4, #-1073741803	; 0xc0000015
    1e3c:	676f4468 	strbvs	r4, [pc, -r8, ror #8]!
    1e40:	72495f31 	subvc	r5, r9, #196	; 0xc4
    1e44:	6e455f71 	mcrvs	15, 2, r5, cr5, cr1, {3}
    1e48:	6b61425f 	blvs	18527cc <__standby_start+0x18527cc>
    1e4c:	6d656d00 	stclvs	13, cr6, [r5, #-0]
    1e50:	726d745f 	rsbvc	r7, sp, #1593835520	; 0x5f000000
    1e54:	6978655f 	ldmdbvs	r8!, {r0, r1, r2, r3, r4, r6, r8, sl, sp, lr}^
    1e58:	6d540074 	ldclvs	0, cr0, [r4, #-464]	; 0xfffffe30
    1e5c:	6e493472 	mcrvs	4, 2, r3, cr9, cr2, {3}
    1e60:	6c615674 	stclvs	6, cr5, [r1], #-464	; 0xfffffe30
    1e64:	726d5400 	rsbvc	r5, sp, #0
    1e68:	746e4334 	strbtvc	r4, [lr], #-820	; 0x334
    1e6c:	006c6156 	rsbeq	r6, ip, r6, asr r1
    1e70:	63746157 	cmnvs	r4, #-1073741803	; 0xc0000015
    1e74:	676f4468 	strbvs	r4, [pc, -r8, ror #8]!
    1e78:	6f435f31 	svcvs	0x00435f31
    1e7c:	6769666e 	strbvs	r6, [r9, -lr, ror #12]!
    1e80:	6765525f 			; <UNDEFINED> instruction: 0x6765525f
    1e84:	6b61425f 	blvs	1852808 <__standby_start+0x1852808>
    1e88:	73657200 	cmnvc	r5, #0
    1e8c:	65767265 	ldrbvs	r7, [r6, #-613]!	; 0x265
    1e90:	54003864 	strpl	r3, [r0], #-2148	; 0x864
    1e94:	4332726d 	teqmi	r2, #-805306362	; 0xd0000006
    1e98:	57006c74 	smlsdxpl	r0, r4, ip, r6
    1e9c:	31676f44 	cmncc	r7, r4, asr #30
    1ea0:	646f4d5f 	strbtvs	r4, [pc], #-3423	; 1ea8 <__standby_start+0x1ea8>
    1ea4:	65525f65 	ldrbvs	r5, [r2, #-3941]	; 0xf65
    1ea8:	61570067 	cmpvs	r7, r7, rrx
    1eac:	44686374 	strbtmi	r6, [r8], #-884	; 0x374
    1eb0:	5f31676f 	svcpl	0x0031676f
    1eb4:	5f646f4d 	svcpl	0x00646f4d
    1eb8:	5f676552 	svcpl	0x00676552
    1ebc:	006b6142 	rsbeq	r6, fp, r2, asr #2
    1ec0:	5f6d656d 	svcpl	0x006d656d
    1ec4:	5f726d74 	svcpl	0x00726d74
    1ec8:	62616e65 	rsbvs	r6, r1, #1616	; 0x650
    1ecc:	775f656c 	ldrbvc	r6, [pc, -ip, ror #10]
    1ed0:	68637461 	stmdavs	r3!, {r0, r5, r6, sl, ip, sp, lr}^
    1ed4:	00676f64 	rsbeq	r6, r7, r4, ror #30
    1ed8:	5f6d656d 	svcpl	0x006d656d
    1edc:	5f726d74 	svcpl	0x00726d74
    1ee0:	74696e69 	strbtvc	r6, [r9], #-3689	; 0xe69
    1ee4:	6f445700 	svcvs	0x00445700
    1ee8:	495f3167 	ldmdbmi	pc, {r0, r1, r2, r5, r6, r8, ip, sp}^	; <UNPREDICTABLE>
    1eec:	455f7172 	ldrbmi	r7, [pc, #-370]	; 1d82 <__standby_start+0x1d82>
    1ef0:	656d006e 	strbvs	r0, [sp, #-110]!	; 0x6e
    1ef4:	6d745f6d 	ldclvs	15, cr5, [r4, #-436]!	; 0xfffffe4c
    1ef8:	65725f72 	ldrbvs	r5, [r2, #-3954]!	; 0xf72
    1efc:	726f7473 	rsbvc	r7, pc, #1929379840	; 0x73000000
    1f00:	5f5f0065 	svcpl	0x005f0065
    1f04:	5f4d454d 	svcpl	0x004d454d
    1f08:	5f524d54 	svcpl	0x00524d54
    1f0c:	00474552 	subeq	r4, r7, r2, asr r5
    1f10:	5f6d656d 	svcpl	0x006d656d
    1f14:	5f726d74 	svcpl	0x00726d74
    1f18:	61736964 	cmnvs	r3, r4, ror #18
    1f1c:	5f656c62 	svcpl	0x00656c62
    1f20:	63746177 	cmnvs	r4, #-1073741795	; 0xc000001d
    1f24:	676f6468 	strbvs	r6, [pc, -r8, ror #8]!
    1f28:	726d5400 	rsbvc	r5, sp, #0
    1f2c:	746e4931 	strbtvc	r4, [lr], #-2353	; 0x931
    1f30:	006c6156 	rsbeq	r6, ip, r6, asr r1
    1f34:	726d7470 	rsbvc	r7, sp, #1879048192	; 0x70000000
    1f38:	6174735f 	cmnvs	r4, pc, asr r3
    1f3c:	41006574 	tstmi	r0, r4, ror r5
    1f40:	69447376 	stmdbvs	r4, {r1, r2, r4, r5, r6, r8, r9, ip, sp, lr}^
    1f44:	6d540076 	ldclvs	0, cr0, [r4, #-472]	; 0xfffffe28
    1f48:	74433372 	strbvc	r3, [r3], #-882	; 0x372
    1f4c:	7641006c 	strbvc	r0, [r1], -ip, rrx
    1f50:	6c744373 	ldclvs	3, cr4, [r4], #-460	; 0xfffffe34
    1f54:	746e4900 	strbtvc	r4, [lr], #-2304	; 0x900
    1f58:	00617453 	rsbeq	r7, r1, r3, asr r4
    1f5c:	31726d54 	cmncc	r2, r4, asr sp
    1f60:	56746e43 	ldrbtpl	r6, [r4], -r3, asr #28
    1f64:	54006c61 	strpl	r6, [r0], #-3169	; 0xc61
    1f68:	4933726d 	ldmdbmi	r3!, {r0, r2, r3, r5, r6, r9, ip, sp, lr}
    1f6c:	6156746e 	cmpvs	r6, lr, ror #8
    1f70:	4457006c 	ldrbmi	r0, [r7], #-108	; 0x6c
    1f74:	5f31676f 	svcpl	0x0031676f
    1f78:	5f676643 	svcpl	0x00676643
    1f7c:	00676552 	rsbeq	r6, r7, r2, asr r5
    1f80:	30737641 	rsbscc	r7, r3, r1, asr #12
    1f84:	00746e43 	rsbseq	r6, r4, r3, asr #28
    1f88:	35726d54 	ldrbcc	r6, [r2, #-3412]!	; 0xd54
    1f8c:	56746e49 	ldrbtpl	r6, [r4], -r9, asr #28
    1f90:	61006c61 	tstvs	r0, r1, ror #24
    1f94:	2f686372 	svccs	0x00686372
    1f98:	2f6d7261 	svccs	0x006d7261
    1f9c:	6863616d 	stmdavs	r3!, {r0, r2, r3, r5, r6, r8, sp, lr}^
    1fa0:	6e75732d 	cdpvs	3, 7, cr7, cr5, cr13, {1}
    1fa4:	702f6978 	eorvc	r6, pc, r8, ror r9	; <UNPREDICTABLE>
    1fa8:	74732f6d 	ldrbtvc	r2, [r3], #-3949	; 0xf6d
    1fac:	62646e61 	rsbvs	r6, r4, #1552	; 0x610
    1fb0:	2f2e2f79 	svccs	0x002e2f79
    1fb4:	6d2f2e2e 	stcvs	14, cr2, [pc, #-184]!	; 1f04 <__standby_start+0x1f04>
    1fb8:	745f6d65 	ldrbvc	r6, [pc], #-3429	; 1fc0 <__standby_start+0x1fc0>
    1fbc:	632e726d 	teqvs	lr, #-805306362	; 0xd0000006
    1fc0:	726d5400 	rsbvc	r5, sp, #0
    1fc4:	746e4335 	strbtvc	r4, [lr], #-821	; 0x335
    1fc8:	006c6156 	rsbeq	r6, ip, r6, asr r1
    1fcc:	52726d54 	rsbspl	r6, r2, #5376	; 0x1500
    1fd0:	54006765 	strpl	r6, [r0], #-1893	; 0x765
    1fd4:	4330726d 	teqmi	r0, #-805306362	; 0xd0000006
    1fd8:	54006c74 	strpl	r6, [r0], #-3188	; 0xc74
    1fdc:	4334726d 	teqmi	r4, #-805306362	; 0xd0000006
    1fe0:	6d006c74 	stcvs	12, cr6, [r0, #-464]	; 0xfffffe30
    1fe4:	745f6d65 	ldrbvc	r6, [pc], #-3429	; 1fec <__standby_start+0x1fec>
    1fe8:	735f726d 	cmpvc	pc, #-805306362	; 0xd0000006
    1fec:	00657661 	rsbeq	r7, r5, r1, ror #12
    1ff0:	68637261 	stmdavs	r3!, {r0, r5, r6, r9, ip, sp, lr}^
    1ff4:	6d72612f 	ldfvse	f6, [r2, #-188]!	; 0xffffff44
    1ff8:	63616d2f 	cmnvs	r1, #3008	; 0xbc0
    1ffc:	75732d68 	ldrbvc	r2, [r3, #-3432]!	; 0xd68
    2000:	2f69786e 	svccs	0x0069786e
    2004:	732f6d70 	teqvc	pc, #7168	; 0x1c00
    2008:	646e6174 	strbtvs	r6, [lr], #-372	; 0x174
    200c:	2e2f7962 	cdpcs	9, 2, cr7, cr15, cr2, {3}
    2010:	2f2e2e2f 	svccs	0x002e2e2f
    2014:	5f6d656d 	svcpl	0x006d656d
    2018:	74736d74 	ldrbtvc	r6, [r3], #-3444	; 0xd74
    201c:	632e706d 	teqvs	lr, #109	; 0x6d
    2020:	63726100 	cmnvs	r2, #0
    2024:	72612f68 	rsbvc	r2, r1, #416	; 0x1a0
    2028:	616d2f6d 	cmnvs	sp, sp, ror #30
    202c:	732d6863 	teqvc	sp, #6488064	; 0x630000
    2030:	69786e75 	ldmdbvs	r8!, {r0, r2, r4, r5, r6, r9, sl, fp, sp, lr}^
    2034:	2f6d702f 	svccs	0x006d702f
    2038:	6e617473 	mcrvs	4, 3, r7, cr1, cr3, {3}
    203c:	2f796264 	svccs	0x00796264
    2040:	2e2e2f2e 	cdpcs	15, 2, cr2, cr14, cr14, {1}
    2044:	6d656d2f 	stclvs	13, cr6, [r5, #-188]!	; 0xffffff44
    2048:	6b6c635f 	blvs	1b1adcc <__standby_start+0x1b1adcc>
    204c:	6d00632e 	stcvs	3, cr6, [r0, #-184]	; 0xffffff48
    2050:	635f6d65 	cmpvs	pc, #6464	; 0x1940
    2054:	675f6b6c 	ldrbvs	r6, [pc, -ip, ror #22]
    2058:	6d5f7465 	cfldrdvs	mvd7, [pc, #-404]	; 1ecc <__standby_start+0x1ecc>
    205c:	00637369 	rsbeq	r7, r3, r9, ror #6
    2060:	5f697861 	svcpl	0x00697861
    2064:	00766964 	rsbseq	r6, r6, r4, ror #18
    2068:	5f6d656d 	svcpl	0x006d656d
    206c:	5f6b6c63 	svcpl	0x006b6c63
    2070:	74696e69 	strbtvc	r6, [r9], #-3689	; 0xe69
    2074:	6d656d00 	stclvs	13, cr6, [r5, #-0]
    2078:	6b6c635f 	blvs	1b1adfc <__standby_start+0x1b1adfc>
    207c:	7465735f 	strbtvc	r7, [r5], #-863	; 0x35f
    2080:	73696d5f 	cmnvc	r9, #6080	; 0x17c0
    2084:	6c700063 	ldclvs	0, cr0, [r0], #-396	; 0xfffffe74
    2088:	61665f6c 	cmnvs	r6, ip, ror #30
    208c:	726f7463 	rsbvc	r7, pc, #1660944384	; 0x63000000
    2090:	6d00745f 	cfstrsvs	mvf7, [r0, #-380]	; 0xfffffe84
    2094:	635f6d65 	cmpvs	pc, #6464	; 0x1940
    2098:	675f6b6c 	ldrbvs	r6, [pc, -ip, ror #22]
    209c:	635f7465 	cmpvs	pc, #1694498816	; 0x65000000
    20a0:	665f7570 			; <UNDEFINED> instruction: 0x665f7570
    20a4:	00716572 	rsbseq	r6, r1, r2, ror r5
    20a8:	5f6d656d 	svcpl	0x006d656d
    20ac:	5f6b6c63 	svcpl	0x006b6c63
    20b0:	64746567 	ldrbtvs	r6, [r4], #-1383	; 0x567
    20b4:	6d007669 	stcvs	6, cr7, [r0, #-420]	; 0xfffffe5c
    20b8:	635f6d65 	cmpvs	pc, #6464	; 0x1940
    20bc:	735f6b6c 	cmpvc	pc, #110592	; 0x1b000
    20c0:	00657661 	rsbeq	r7, r5, r1, ror #12
    20c4:	5f6b6c63 	svcpl	0x006b6c63
    20c8:	00766964 	rsbseq	r6, r6, r4, ror #18
    20cc:	5f626861 	svcpl	0x00626861
    20d0:	5f627061 	svcpl	0x00627061
    20d4:	00766964 	rsbseq	r6, r6, r4, ror #18
    20d8:	316c6c70 	smccc	50880	; 0xc6c0
    20dc:	6e75745f 	mrcvs	4, 3, r7, cr5, cr15, {2}
    20e0:	75636300 	strbvc	r6, [r3, #-768]!	; 0x300
    20e4:	6765725f 			; <UNDEFINED> instruction: 0x6765725f
    20e8:	6361625f 	cmnvs	r1, #-268435451	; 0xf0000005
    20ec:	656d006b 	strbvs	r0, [sp, #-107]!	; 0x6b
    20f0:	6c635f6d 	stclvs	15, cr5, [r3], #-436	; 0xfffffe4c
    20f4:	65735f6b 	ldrbvs	r5, [r3, #-3947]!	; 0xf6b
    20f8:	6c705f74 	ldclvs	15, cr5, [r0], #-464	; 0xfffffe30
    20fc:	61665f6c 	cmnvs	r6, ip, ror #30
    2100:	726f7463 	rsbvc	r7, pc, #1660944384	; 0x63000000
    2104:	6d656d00 	stclvs	13, cr6, [r5, #-0]
    2108:	6b6c635f 	blvs	1b1ae8c <__standby_start+0x1b1ae8c>
    210c:	7465675f 	strbtvc	r6, [r5], #-1887	; 0x75f
    2110:	6c6c705f 	stclvs	0, cr7, [ip], #-380	; 0xfffffe84
    2114:	6361665f 	cmnvs	r1, #99614720	; 0x5f00000
    2118:	00726f74 	rsbseq	r6, r2, r4, ror pc
    211c:	5f6b6c63 	svcpl	0x006b6c63
    2120:	6373696d 	cmnvs	r3, #1785856	; 0x1b4000
    2124:	6d656d00 	stclvs	13, cr6, [r5, #-0]
    2128:	6b6c635f 	blvs	1b1aeac <__standby_start+0x1b1aeac>
    212c:	7465735f 	strbtvc	r7, [r5], #-863	; 0x35f
    2130:	00766964 	rsbseq	r6, r6, r4, ror #18
    2134:	5f6d656d 	svcpl	0x006d656d
    2138:	5f746567 	svcpl	0x00746567
    213c:	70006162 	andvc	r6, r0, r2, ror #2
    2140:	5f6b6c63 	svcpl	0x006b6c63
    2144:	74617473 	strbtvc	r7, [r1], #-1139	; 0x473
    2148:	6c630065 	stclvs	0, cr0, [r3], #-404	; 0xfffffe6c
    214c:	69645f6b 	stmdbvs	r4!, {r0, r1, r3, r5, r6, r8, r9, sl, fp, ip, lr}^
    2150:	00745f76 	rsbseq	r5, r4, r6, ror pc
    2154:	5f6d656d 	svcpl	0x006d656d
    2158:	5f6b6c63 	svcpl	0x006b6c63
    215c:	74736572 	ldrbtvc	r6, [r3], #-1394	; 0x572
    2160:	0065726f 	rsbeq	r7, r5, pc, ror #4
    2164:	5f6b6c63 	svcpl	0x006b6c63
    2168:	6373696d 	cmnvs	r3, #1785856	; 0x1b4000
    216c:	7000745f 	andvc	r7, r0, pc, asr r4
    2170:	5f366c6c 	svcpl	0x00366c6c
    2174:	73616962 	cmnvc	r1, #1605632	; 0x188000
    2178:	6c6c7000 	stclvs	0, cr7, [ip], #-0
    217c:	69625f31 	stmdbvs	r2!, {r0, r4, r5, r8, r9, sl, fp, ip, lr}^
    2180:	61007361 	tstvs	r0, r1, ror #6
    2184:	2f686372 	svccs	0x00686372
    2188:	2f6d7261 	svccs	0x006d7261
    218c:	6863616d 	stmdavs	r3!, {r0, r2, r3, r5, r6, r8, sp, lr}^
    2190:	6e75732d 	cdpvs	3, 7, cr7, cr5, cr13, {1}
    2194:	702f6978 	eorvc	r6, pc, r8, ror r9	; <UNPREDICTABLE>
    2198:	74732f6d 	ldrbtvc	r2, [r3], #-3949	; 0xf6d
    219c:	62646e61 	rsbvs	r6, r4, #1552	; 0x610
    21a0:	2f2e2f79 	svccs	0x002e2f79
    21a4:	6d2f2e2e 	stcvs	14, cr2, [pc, #-184]!	; 20f4 <__standby_start+0x20f4>
    21a8:	685f6d65 	ldmdavs	pc, {r0, r2, r5, r6, r8, sl, fp, sp, lr}^	; <UNPREDICTABLE>
    21ac:	69707377 	ldmdbvs	r0!, {r0, r1, r2, r4, r5, r6, r8, r9, ip, sp, lr}^
    21b0:	636f6c6e 	cmnvs	pc, #28160	; 0x6e00
    21b4:	00632e6b 	rsbeq	r2, r3, fp, ror #28

Disassembly of section .comment:

00000000 <.comment>:
   0:	3a434347 	bcc	10d0d24 <__standby_start+0x10d0d24>
   4:	72632820 	rsbvc	r2, r3, #2097152	; 0x200000
   8:	7473736f 	ldrbtvc	r7, [r3], #-879	; 0x36f
   c:	2d6c6f6f 	stclcs	15, cr6, [ip, #-444]!	; 0xfffffe44
  10:	6c20474e 	stcvs	7, cr4, [r0], #-312	; 0xfffffec8
  14:	72616e69 	rsbvc	r6, r1, #1680	; 0x690
  18:	2e312d6f 	cdpcs	13, 3, cr2, cr1, cr15, {3}
  1c:	312e3331 	teqcc	lr, r1, lsr r3
  20:	3130322d 	teqcc	r0, sp, lsr #4
  24:	32302e32 	eorscc	r2, r0, #800	; 0x320
  28:	3130322d 	teqcc	r0, sp, lsr #4
  2c:	32323032 	eorscc	r3, r2, #50	; 0x32
  30:	202d2032 	eorcs	r2, sp, r2, lsr r0
  34:	616e694c 	cmnvs	lr, ip, asr #18
  38:	47206f72 			; <UNDEFINED> instruction: 0x47206f72
  3c:	32204343 	eorcc	r4, r0, #201326593	; 0xc000001
  40:	2e323130 	mrccs	1, 1, r3, cr2, cr0, {1}
  44:	20293230 	eorcs	r3, r9, r0, lsr r2
  48:	2e362e34 	mrccs	14, 1, r2, cr6, cr4, {1}
  4c:	30322033 	eorscc	r2, r2, r3, lsr r0
  50:	32303231 	eorscc	r3, r0, #268435459	; 0x10000003
  54:	28203130 	stmdacs	r0!, {r4, r5, r8, ip, sp}
  58:	72657270 	rsbvc	r7, r5, #7
  5c:	61656c65 	cmnvs	r5, r5, ror #24
  60:	00296573 	eoreq	r6, r9, r3, ror r5

Disassembly of section .ARM.attributes:

00000000 <.ARM.attributes>:
   0:	00003241 	andeq	r3, r0, r1, asr #4
   4:	61656100 	cmnvs	r5, r0, lsl #2
   8:	01006962 	tsteq	r0, r2, ror #18
   c:	00000028 	andeq	r0, r0, r8, lsr #32
  10:	412d3705 	teqmi	sp, r5, lsl #14
  14:	070a0600 	streq	r0, [sl, -r0, lsl #12]
  18:	09010841 	stmdbeq	r1, {r0, r6, fp}
  1c:	12040a02 	andne	r0, r4, #8192	; 0x2000
  20:	15011404 	strne	r1, [r1, #-1028]	; 0x404
  24:	18031701 	stmdane	r3, {r0, r8, r9, sl, ip}
  28:	1b021a01 	blne	86834 <__standby_start+0x86834>
  2c:	22021e03 	andcs	r1, r2, #48	; 0x30
  30:	Address 0x00000030 is out of bounds.


Disassembly of section .debug_frame:

00000000 <.debug_frame>:
   0:	0000000c 	andeq	r0, r0, ip
   4:	ffffffff 			; <UNDEFINED> instruction: 0xffffffff
   8:	7c020001 	stcvc	0, cr0, [r2], {1}
   c:	000d0c0e 	andeq	r0, sp, lr, lsl #24
  10:	0000001c 	andeq	r0, r0, ip, lsl r0
  14:	00000000 	andeq	r0, r0, r0
  18:	f0000000 			; <UNDEFINED> instruction: 0xf0000000
  1c:	00000454 	andeq	r0, r0, r4, asr r4
  20:	8e180e42 	cdphi	14, 1, cr0, cr8, cr2, {2}
  24:	86028701 	strhi	r8, [r2], -r1, lsl #14
  28:	84048503 	strhi	r8, [r4], #-1283	; 0x503
  2c:	00068305 	andeq	r8, r6, r5, lsl #6
  30:	0000000c 	andeq	r0, r0, ip
  34:	ffffffff 			; <UNDEFINED> instruction: 0xffffffff
  38:	7c020001 	stcvc	0, cr0, [r2], {1}
  3c:	000d0c0e 	andeq	r0, sp, lr, lsl #24
  40:	0000000c 	andeq	r0, r0, ip
  44:	00000030 	andeq	r0, r0, r0, lsr r0
  48:	f0000454 			; <UNDEFINED> instruction: 0xf0000454
  4c:	00000030 	andeq	r0, r0, r0, lsr r0
  50:	0000000c 	andeq	r0, r0, ip
  54:	00000030 	andeq	r0, r0, r0, lsr r0
  58:	f0000484 			; <UNDEFINED> instruction: 0xf0000484
  5c:	00000014 	andeq	r0, r0, r4, lsl r0
  60:	0000000c 	andeq	r0, r0, ip
  64:	ffffffff 			; <UNDEFINED> instruction: 0xffffffff
  68:	7c020001 	stcvc	0, cr0, [r2], {1}
  6c:	000d0c0e 	andeq	r0, sp, lr, lsl #24
  70:	0000000c 	andeq	r0, r0, ip
  74:	00000060 	andeq	r0, r0, r0, rrx
  78:	f0000498 			; <UNDEFINED> instruction: 0xf0000498
  7c:	00000028 	andeq	r0, r0, r8, lsr #32
  80:	0000000c 	andeq	r0, r0, ip
  84:	00000060 	andeq	r0, r0, r0, rrx
  88:	f00004c0 			; <UNDEFINED> instruction: 0xf00004c0
  8c:	00000008 	andeq	r0, r0, r8
  90:	0000000c 	andeq	r0, r0, ip
  94:	00000060 	andeq	r0, r0, r0, rrx
  98:	f00004c8 			; <UNDEFINED> instruction: 0xf00004c8
  9c:	00000024 	andeq	r0, r0, r4, lsr #32
  a0:	0000000c 	andeq	r0, r0, ip
  a4:	00000060 	andeq	r0, r0, r0, rrx
  a8:	f00004ec 			; <UNDEFINED> instruction: 0xf00004ec
  ac:	00000038 	andeq	r0, r0, r8, lsr r0
  b0:	0000000c 	andeq	r0, r0, ip
  b4:	00000060 	andeq	r0, r0, r0, rrx
  b8:	f0000524 			; <UNDEFINED> instruction: 0xf0000524
  bc:	00000020 	andeq	r0, r0, r0, lsr #32
  c0:	0000000c 	andeq	r0, r0, ip
  c4:	ffffffff 			; <UNDEFINED> instruction: 0xffffffff
  c8:	7c020001 	stcvc	0, cr0, [r2], {1}
  cc:	000d0c0e 	andeq	r0, sp, lr, lsl #24
  d0:	0000000c 	andeq	r0, r0, ip
  d4:	000000c0 	andeq	r0, r0, r0, asr #1
  d8:	f0000544 			; <UNDEFINED> instruction: 0xf0000544
  dc:	00000008 	andeq	r0, r0, r8
  e0:	0000000c 	andeq	r0, r0, ip
  e4:	000000c0 	andeq	r0, r0, r0, asr #1
  e8:	f000054c 			; <UNDEFINED> instruction: 0xf000054c
  ec:	00000008 	andeq	r0, r0, r8
  f0:	0000000c 	andeq	r0, r0, ip
  f4:	000000c0 	andeq	r0, r0, r0, asr #1
  f8:	f0000554 			; <UNDEFINED> instruction: 0xf0000554
  fc:	00000008 	andeq	r0, r0, r8
 100:	0000000c 	andeq	r0, r0, ip
 104:	000000c0 	andeq	r0, r0, r0, asr #1
 108:	f000055c 			; <UNDEFINED> instruction: 0xf000055c
 10c:	00000008 	andeq	r0, r0, r8
 110:	0000000c 	andeq	r0, r0, ip
 114:	ffffffff 			; <UNDEFINED> instruction: 0xffffffff
 118:	7c020001 	stcvc	0, cr0, [r2], {1}
 11c:	000d0c0e 	andeq	r0, sp, lr, lsl #24
 120:	00000018 	andeq	r0, r0, r8, lsl r0
 124:	00000110 	andeq	r0, r0, r0, lsl r1
 128:	f0000564 			; <UNDEFINED> instruction: 0xf0000564
 12c:	00000060 	andeq	r0, r0, r0, rrx
 130:	8e100e42 	cdphi	14, 1, cr0, cr0, cr2, {2}
 134:	84028501 	strhi	r8, [r2], #-1281	; 0x501
 138:	00048303 	andeq	r8, r4, r3, lsl #6
 13c:	0000000c 	andeq	r0, r0, ip
 140:	00000110 	andeq	r0, r0, r0, lsl r1
 144:	f00005c4 			; <UNDEFINED> instruction: 0xf00005c4
 148:	00000020 	andeq	r0, r0, r0, lsr #32
 14c:	0000000c 	andeq	r0, r0, ip
 150:	00000110 	andeq	r0, r0, r0, lsl r1
 154:	f00005e4 			; <UNDEFINED> instruction: 0xf00005e4
 158:	00000028 	andeq	r0, r0, r8, lsr #32
 15c:	0000000c 	andeq	r0, r0, ip
 160:	ffffffff 			; <UNDEFINED> instruction: 0xffffffff
 164:	7c020001 	stcvc	0, cr0, [r2], {1}
 168:	000d0c0e 	andeq	r0, sp, lr, lsl #24
 16c:	0000001c 	andeq	r0, r0, ip, lsl r0
 170:	0000015c 	andeq	r0, r0, ip, asr r1
 174:	f000060c 			; <UNDEFINED> instruction: 0xf000060c
 178:	000001a0 	andeq	r0, r0, r0, lsr #3
 17c:	8e140e44 	cdphi	14, 1, cr0, cr4, cr4, {2}
 180:	86028701 	strhi	r8, [r2], -r1, lsl #14
 184:	84048503 	strhi	r8, [r4], #-1283	; 0x503
 188:	200e4205 	andcs	r4, lr, r5, lsl #4
 18c:	00000018 	andeq	r0, r0, r8, lsl r0
 190:	0000015c 	andeq	r0, r0, ip, asr r1
 194:	f00007ac 			; <UNDEFINED> instruction: 0xf00007ac
 198:	000000b8 	strheq	r0, [r0], -r8
 19c:	8e0c0e44 	cdphi	14, 0, cr0, cr12, cr4, {2}
 1a0:	84028501 	strhi	r8, [r2], #-1281	; 0x501
 1a4:	180e4403 	stmdane	lr, {r0, r1, sl, lr}
 1a8:	0000000c 	andeq	r0, r0, ip
 1ac:	ffffffff 			; <UNDEFINED> instruction: 0xffffffff
 1b0:	7c020001 	stcvc	0, cr0, [r2], {1}
 1b4:	000d0c0e 	andeq	r0, sp, lr, lsl #24
 1b8:	0000000c 	andeq	r0, r0, ip
 1bc:	000001a8 	andeq	r0, r0, r8, lsr #3
 1c0:	f0000864 			; <UNDEFINED> instruction: 0xf0000864
 1c4:	0000004c 	andeq	r0, r0, ip, asr #32
 1c8:	00000014 	andeq	r0, r0, r4, lsl r0
 1cc:	000001a8 	andeq	r0, r0, r8, lsr #3
 1d0:	f00008b0 			; <UNDEFINED> instruction: 0xf00008b0
 1d4:	00000044 	andeq	r0, r0, r4, asr #32
 1d8:	8e080e42 	cdphi	14, 0, cr0, cr8, cr2, {2}
 1dc:	00028401 	andeq	r8, r2, r1, lsl #8
 1e0:	00000014 	andeq	r0, r0, r4, lsl r0
 1e4:	000001a8 	andeq	r0, r0, r8, lsr #3
 1e8:	f00008f4 			; <UNDEFINED> instruction: 0xf00008f4
 1ec:	000002b4 			; <UNDEFINED> instruction: 0x000002b4
 1f0:	85080e44 	strhi	r0, [r8, #-3652]	; 0xe44
 1f4:	00028401 	andeq	r8, r2, r1, lsl #8
 1f8:	0000000c 	andeq	r0, r0, ip
 1fc:	ffffffff 			; <UNDEFINED> instruction: 0xffffffff
 200:	7c020001 	stcvc	0, cr0, [r2], {1}
 204:	000d0c0e 	andeq	r0, sp, lr, lsl #24
 208:	0000000c 	andeq	r0, r0, ip
 20c:	000001f8 	strdeq	r0, [r0], -r8
 210:	f0000ba8 			; <UNDEFINED> instruction: 0xf0000ba8
 214:	00000008 	andeq	r0, r0, r8
 218:	0000000c 	andeq	r0, r0, ip
 21c:	000001f8 	strdeq	r0, [r0], -r8
 220:	f0000bb0 			; <UNDEFINED> instruction: 0xf0000bb0
 224:	00000008 	andeq	r0, r0, r8
 228:	0000000c 	andeq	r0, r0, ip
 22c:	000001f8 	strdeq	r0, [r0], -r8
 230:	f0000bb8 			; <UNDEFINED> instruction: 0xf0000bb8
 234:	00000008 	andeq	r0, r0, r8
 238:	0000000c 	andeq	r0, r0, ip
 23c:	000001f8 	strdeq	r0, [r0], -r8
 240:	f0000bc0 			; <UNDEFINED> instruction: 0xf0000bc0
 244:	00000008 	andeq	r0, r0, r8
 248:	0000000c 	andeq	r0, r0, ip
 24c:	ffffffff 			; <UNDEFINED> instruction: 0xffffffff
 250:	7c020001 	stcvc	0, cr0, [r2], {1}
 254:	000d0c0e 	andeq	r0, sp, lr, lsl #24
 258:	00000014 	andeq	r0, r0, r4, lsl r0
 25c:	00000248 	andeq	r0, r0, r8, asr #4
 260:	f0000bc8 			; <UNDEFINED> instruction: 0xf0000bc8
 264:	0000002c 	andeq	r0, r0, ip, lsr #32
 268:	8e080e44 	cdphi	14, 0, cr0, cr8, cr4, {2}
 26c:	00028401 	andeq	r8, r2, r1, lsl #8
 270:	00000014 	andeq	r0, r0, r4, lsl r0
 274:	00000248 	andeq	r0, r0, r8, asr #4
 278:	f0000bf4 			; <UNDEFINED> instruction: 0xf0000bf4
 27c:	0000002c 	andeq	r0, r0, ip, lsr #32
 280:	8e080e42 	cdphi	14, 0, cr0, cr8, cr2, {2}
 284:	00028301 	andeq	r8, r2, r1, lsl #6
 288:	00000018 	andeq	r0, r0, r8, lsl r0
 28c:	00000248 	andeq	r0, r0, r8, asr #4
 290:	f0000c20 			; <UNDEFINED> instruction: 0xf0000c20
 294:	00000078 	andeq	r0, r0, r8, ror r0
 298:	8e100e42 	cdphi	14, 1, cr0, cr0, cr2, {2}
 29c:	84028501 	strhi	r8, [r2], #-1281	; 0x501
 2a0:	00048303 	andeq	r8, r4, r3, lsl #6
 2a4:	00000014 	andeq	r0, r0, r4, lsl r0
 2a8:	00000248 	andeq	r0, r0, r8, asr #4
 2ac:	f0000c98 			; <UNDEFINED> instruction: 0xf0000c98
 2b0:	00000084 	andeq	r0, r0, r4, lsl #1
 2b4:	8e080e42 	cdphi	14, 0, cr0, cr8, cr2, {2}
 2b8:	00028401 	andeq	r8, r2, r1, lsl #8
 2bc:	00000018 	andeq	r0, r0, r8, lsl r0
 2c0:	00000248 	andeq	r0, r0, r8, asr #4
 2c4:	f0000d1c 			; <UNDEFINED> instruction: 0xf0000d1c
 2c8:	0000009c 	muleq	r0, ip, r0
 2cc:	8e100e42 	cdphi	14, 1, cr0, cr0, cr2, {2}
 2d0:	84028501 	strhi	r8, [r2], #-1281	; 0x501
 2d4:	00048303 	andeq	r8, r4, r3, lsl #6
 2d8:	00000018 	andeq	r0, r0, r8, lsl r0
 2dc:	00000248 	andeq	r0, r0, r8, asr #4
 2e0:	f0000db8 			; <UNDEFINED> instruction: 0xf0000db8
 2e4:	00000078 	andeq	r0, r0, r8, ror r0
 2e8:	8e100e42 	cdphi	14, 1, cr0, cr0, cr2, {2}
 2ec:	84028501 	strhi	r8, [r2], #-1281	; 0x501
 2f0:	00048303 	andeq	r8, r4, r3, lsl #6
 2f4:	0000000c 	andeq	r0, r0, ip
 2f8:	ffffffff 			; <UNDEFINED> instruction: 0xffffffff
 2fc:	7c020001 	stcvc	0, cr0, [r2], {1}
 300:	000d0c0e 	andeq	r0, sp, lr, lsl #24
 304:	0000000c 	andeq	r0, r0, ip
 308:	000002f4 	strdeq	r0, [r0], -r4
 30c:	f0000e30 			; <UNDEFINED> instruction: 0xf0000e30
 310:	00000008 	andeq	r0, r0, r8
 314:	0000000c 	andeq	r0, r0, ip
 318:	000002f4 	strdeq	r0, [r0], -r4
 31c:	f0000e38 			; <UNDEFINED> instruction: 0xf0000e38
 320:	00000008 	andeq	r0, r0, r8
 324:	00000010 	andeq	r0, r0, r0, lsl r0
 328:	000002f4 	strdeq	r0, [r0], -r4
 32c:	f0000e40 			; <UNDEFINED> instruction: 0xf0000e40
 330:	000000c4 	andeq	r0, r0, r4, asr #1
 334:	00080e44 	andeq	r0, r8, r4, asr #28
 338:	00000010 	andeq	r0, r0, r0, lsl r0
 33c:	000002f4 	strdeq	r0, [r0], -r4
 340:	f0000f04 			; <UNDEFINED> instruction: 0xf0000f04
 344:	000000a4 	andeq	r0, r0, r4, lsr #1
 348:	00080e44 	andeq	r0, r8, r4, asr #28
 34c:	00000010 	andeq	r0, r0, r0, lsl r0
 350:	000002f4 	strdeq	r0, [r0], -r4
 354:	f0000fa8 			; <UNDEFINED> instruction: 0xf0000fa8
 358:	00000054 	andeq	r0, r0, r4, asr r0
 35c:	00080e44 	andeq	r0, r8, r4, asr #28
 360:	00000010 	andeq	r0, r0, r0, lsl r0
 364:	000002f4 	strdeq	r0, [r0], -r4
 368:	f0000ffc 			; <UNDEFINED> instruction: 0xf0000ffc
 36c:	0000002c 	andeq	r0, r0, ip, lsr #32
 370:	00080e44 	andeq	r0, r8, r4, asr #28
 374:	0000000c 	andeq	r0, r0, ip
 378:	000002f4 	strdeq	r0, [r0], -r4
 37c:	f0001028 			; <UNDEFINED> instruction: 0xf0001028
 380:	00000020 	andeq	r0, r0, r0, lsr #32
 384:	00000010 	andeq	r0, r0, r0, lsl r0
 388:	000002f4 	strdeq	r0, [r0], -r4
 38c:	f0001048 			; <UNDEFINED> instruction: 0xf0001048
 390:	000000ec 	andeq	r0, r0, ip, ror #1
 394:	00080e44 	andeq	r0, r8, r4, asr #28
 398:	0000000c 	andeq	r0, r0, ip
 39c:	000002f4 	strdeq	r0, [r0], -r4
 3a0:	f0001134 			; <UNDEFINED> instruction: 0xf0001134
 3a4:	00000034 	andeq	r0, r0, r4, lsr r0
 3a8:	0000000c 	andeq	r0, r0, ip
 3ac:	ffffffff 			; <UNDEFINED> instruction: 0xffffffff
 3b0:	7c020001 	stcvc	0, cr0, [r2], {1}
 3b4:	000d0c0e 	andeq	r0, sp, lr, lsl #24
 3b8:	0000000c 	andeq	r0, r0, ip
 3bc:	000003a8 	andeq	r0, r0, r8, lsr #7
 3c0:	f0001168 			; <UNDEFINED> instruction: 0xf0001168
 3c4:	00000008 	andeq	r0, r0, r8
 3c8:	0000000c 	andeq	r0, r0, ip
 3cc:	000003a8 	andeq	r0, r0, r8, lsr #7
 3d0:	f0001170 			; <UNDEFINED> instruction: 0xf0001170
 3d4:	00000008 	andeq	r0, r0, r8
 3d8:	0000000c 	andeq	r0, r0, ip
 3dc:	000003a8 	andeq	r0, r0, r8, lsr #7
 3e0:	f0001178 			; <UNDEFINED> instruction: 0xf0001178
 3e4:	00000024 	andeq	r0, r0, r4, lsr #32
 3e8:	0000000c 	andeq	r0, r0, ip
 3ec:	000003a8 	andeq	r0, r0, r8, lsr #7
 3f0:	f000119c 			; <UNDEFINED> instruction: 0xf000119c
 3f4:	00000020 	andeq	r0, r0, r0, lsr #32
 3f8:	0000000c 	andeq	r0, r0, ip
 3fc:	ffffffff 			; <UNDEFINED> instruction: 0xffffffff
 400:	7c020001 	stcvc	0, cr0, [r2], {1}
 404:	000d0c0e 	andeq	r0, sp, lr, lsl #24
 408:	0000000c 	andeq	r0, r0, ip
 40c:	000003f8 	strdeq	r0, [r0], -r8
 410:	f00011bc 			; <UNDEFINED> instruction: 0xf00011bc
 414:	00000028 	andeq	r0, r0, r8, lsr #32
 418:	0000000c 	andeq	r0, r0, ip
 41c:	000003f8 	strdeq	r0, [r0], -r8
 420:	f00011e4 			; <UNDEFINED> instruction: 0xf00011e4
 424:	00000008 	andeq	r0, r0, r8
 428:	00000018 	andeq	r0, r0, r8, lsl r0
 42c:	000003f8 	strdeq	r0, [r0], -r8
 430:	f00011ec 			; <UNDEFINED> instruction: 0xf00011ec
 434:	00000094 	muleq	r0, r4, r0
 438:	8e100e42 	cdphi	14, 1, cr0, cr0, cr2, {2}
 43c:	84028501 	strhi	r8, [r2], #-1281	; 0x501
 440:	00048303 	andeq	r8, r4, r3, lsl #6
 444:	00000014 	andeq	r0, r0, r4, lsl r0
 448:	000003f8 	strdeq	r0, [r0], -r8
 44c:	f0001280 			; <UNDEFINED> instruction: 0xf0001280
 450:	0000002c 	andeq	r0, r0, ip, lsr #32
 454:	8e080e42 	cdphi	14, 0, cr0, cr8, cr2, {2}
 458:	00028401 	andeq	r8, r2, r1, lsl #8
 45c:	0000000c 	andeq	r0, r0, ip
 460:	ffffffff 			; <UNDEFINED> instruction: 0xffffffff
 464:	7c020001 	stcvc	0, cr0, [r2], {1}
 468:	000d0c0e 	andeq	r0, sp, lr, lsl #24
 46c:	00000010 	andeq	r0, r0, r0, lsl r0
 470:	0000045c 	andeq	r0, r0, ip, asr r4
 474:	f00012ac 			; <UNDEFINED> instruction: 0xf00012ac
 478:	00000020 	andeq	r0, r0, r0, lsr #32
 47c:	00080e42 	andeq	r0, r8, r2, asr #28
 480:	0000000c 	andeq	r0, r0, ip
 484:	0000045c 	andeq	r0, r0, ip, asr r4
 488:	f00012cc 			; <UNDEFINED> instruction: 0xf00012cc
 48c:	00000004 	andeq	r0, r0, r4
 490:	0000000c 	andeq	r0, r0, ip
 494:	0000045c 	andeq	r0, r0, ip, asr r4
 498:	f00012d0 			; <UNDEFINED> instruction: 0xf00012d0
 49c:	00000004 	andeq	r0, r0, r4
 4a0:	0000000c 	andeq	r0, r0, ip
 4a4:	0000045c 	andeq	r0, r0, ip, asr r4
 4a8:	f00012d4 			; <UNDEFINED> instruction: 0xf00012d4
 4ac:	00000004 	andeq	r0, r0, r4
 4b0:	0000000c 	andeq	r0, r0, ip
 4b4:	0000045c 	andeq	r0, r0, ip, asr r4
 4b8:	f00012d8 			; <UNDEFINED> instruction: 0xf00012d8
 4bc:	00000004 	andeq	r0, r0, r4
 4c0:	0000000c 	andeq	r0, r0, ip
 4c4:	0000045c 	andeq	r0, r0, ip, asr r4
 4c8:	f00012dc 			; <UNDEFINED> instruction: 0xf00012dc
 4cc:	00000020 	andeq	r0, r0, r0, lsr #32
 4d0:	0000000c 	andeq	r0, r0, ip
 4d4:	0000045c 	andeq	r0, r0, ip, asr r4
 4d8:	f00012fc 			; <UNDEFINED> instruction: 0xf00012fc
 4dc:	00000004 	andeq	r0, r0, r4
 4e0:	00000010 	andeq	r0, r0, r0, lsl r0
 4e4:	0000045c 	andeq	r0, r0, ip, asr r4
 4e8:	f0001300 			; <UNDEFINED> instruction: 0xf0001300
 4ec:	00000028 	andeq	r0, r0, r8, lsr #32
 4f0:	00080e42 	andeq	r0, r8, r2, asr #28
 4f4:	0000000c 	andeq	r0, r0, ip
 4f8:	0000045c 	andeq	r0, r0, ip, asr r4
 4fc:	f0001328 			; <UNDEFINED> instruction: 0xf0001328
 500:	00000010 	andeq	r0, r0, r0, lsl r0
 504:	00000018 	andeq	r0, r0, r8, lsl r0
 508:	0000045c 	andeq	r0, r0, ip, asr r4
 50c:	f0001338 			; <UNDEFINED> instruction: 0xf0001338
 510:	00000038 	andeq	r0, r0, r8, lsr r0
 514:	8e100e42 	cdphi	14, 1, cr0, cr0, cr2, {2}
 518:	84028501 	strhi	r8, [r2], #-1281	; 0x501
 51c:	00048303 	andeq	r8, r4, r3, lsl #6
 520:	00000010 	andeq	r0, r0, r0, lsl r0
 524:	0000045c 	andeq	r0, r0, ip, asr r4
 528:	f0001370 			; <UNDEFINED> instruction: 0xf0001370
 52c:	0000001c 	andeq	r0, r0, ip, lsl r0
 530:	00080e42 	andeq	r0, r8, r2, asr #28
 534:	00000010 	andeq	r0, r0, r0, lsl r0
 538:	0000045c 	andeq	r0, r0, ip, asr r4
 53c:	f000138c 			; <UNDEFINED> instruction: 0xf000138c
 540:	0000001c 	andeq	r0, r0, ip, lsl r0
 544:	00080e42 	andeq	r0, r8, r2, asr #28
 548:	0000000c 	andeq	r0, r0, ip
 54c:	0000045c 	andeq	r0, r0, ip, asr r4
 550:	f00013a8 			; <UNDEFINED> instruction: 0xf00013a8
 554:	00000018 	andeq	r0, r0, r8, lsl r0
 558:	0000000c 	andeq	r0, r0, ip
 55c:	0000045c 	andeq	r0, r0, ip, asr r4
 560:	f00013c0 			; <UNDEFINED> instruction: 0xf00013c0
 564:	00000018 	andeq	r0, r0, r8, lsl r0
 568:	0000000c 	andeq	r0, r0, ip
 56c:	0000045c 	andeq	r0, r0, ip, asr r4
 570:	f00013d8 			; <UNDEFINED> instruction: 0xf00013d8
 574:	00000018 	andeq	r0, r0, r8, lsl r0
 578:	00000018 	andeq	r0, r0, r8, lsl r0
 57c:	0000045c 	andeq	r0, r0, ip, asr r4
 580:	f00013f0 			; <UNDEFINED> instruction: 0xf00013f0
 584:	00000034 	andeq	r0, r0, r4, lsr r0
 588:	8e100e42 	cdphi	14, 1, cr0, cr0, cr2, {2}
 58c:	85028601 	strhi	r8, [r2, #-1537]	; 0x601
 590:	00048403 	andeq	r8, r4, r3, lsl #8
 594:	0000000c 	andeq	r0, r0, ip
 598:	ffffffff 			; <UNDEFINED> instruction: 0xffffffff
 59c:	7c020001 	stcvc	0, cr0, [r2], {1}
 5a0:	000d0c0e 	andeq	r0, sp, lr, lsl #24
 5a4:	0000000c 	andeq	r0, r0, ip
 5a8:	00000594 	muleq	r0, r4, r5
 5ac:	f0001424 			; <UNDEFINED> instruction: 0xf0001424
 5b0:	0000002c 	andeq	r0, r0, ip, lsr #32
 5b4:	0000000c 	andeq	r0, r0, ip
 5b8:	00000594 	muleq	r0, r4, r5
 5bc:	f0001450 			; <UNDEFINED> instruction: 0xf0001450
 5c0:	0000001c 	andeq	r0, r0, ip, lsl r0
 5c4:	0000000c 	andeq	r0, r0, ip
 5c8:	00000594 	muleq	r0, r4, r5
 5cc:	f000146c 			; <UNDEFINED> instruction: 0xf000146c
 5d0:	00000024 	andeq	r0, r0, r4, lsr #32
 5d4:	0000000c 	andeq	r0, r0, ip
 5d8:	00000594 	muleq	r0, r4, r5
 5dc:	f0001490 			; <UNDEFINED> instruction: 0xf0001490
 5e0:	00000008 	andeq	r0, r0, r8
 5e4:	0000000c 	andeq	r0, r0, ip
 5e8:	00000594 	muleq	r0, r4, r5
 5ec:	f0001498 			; <UNDEFINED> instruction: 0xf0001498
 5f0:	00000010 	andeq	r0, r0, r0, lsl r0
 5f4:	00000014 	andeq	r0, r0, r4, lsl r0
 5f8:	00000594 	muleq	r0, r4, r5
 5fc:	f00014a8 			; <UNDEFINED> instruction: 0xf00014a8
 600:	00000028 	andeq	r0, r0, r8, lsr #32
 604:	8e080e42 	cdphi	14, 0, cr0, cr8, cr2, {2}
 608:	00028401 	andeq	r8, r2, r1, lsl #8
 60c:	00000018 	andeq	r0, r0, r8, lsl r0
 610:	00000594 	muleq	r0, r4, r5
 614:	f00014d0 			; <UNDEFINED> instruction: 0xf00014d0
 618:	00000080 	andeq	r0, r0, r0, lsl #1
 61c:	8e100e42 	cdphi	14, 1, cr0, cr0, cr2, {2}
 620:	84028501 	strhi	r8, [r2], #-1281	; 0x501
 624:	00048303 	andeq	r8, r4, r3, lsl #6
 628:	0000000c 	andeq	r0, r0, ip
 62c:	00000594 	muleq	r0, r4, r5
 630:	f0001550 			; <UNDEFINED> instruction: 0xf0001550
 634:	0000000c 	andeq	r0, r0, ip
 638:	0000000c 	andeq	r0, r0, ip
 63c:	00000594 	muleq	r0, r4, r5
 640:	f000155c 			; <UNDEFINED> instruction: 0xf000155c
 644:	0000002c 	andeq	r0, r0, ip, lsr #32
 648:	0000000c 	andeq	r0, r0, ip
 64c:	00000594 	muleq	r0, r4, r5
 650:	f0001588 			; <UNDEFINED> instruction: 0xf0001588
 654:	0000002c 	andeq	r0, r0, ip, lsr #32
 658:	0000000c 	andeq	r0, r0, ip
 65c:	00000594 	muleq	r0, r4, r5
 660:	f00015b4 			; <UNDEFINED> instruction: 0xf00015b4
 664:	0000002c 	andeq	r0, r0, ip, lsr #32
 668:	0000000c 	andeq	r0, r0, ip
 66c:	ffffffff 			; <UNDEFINED> instruction: 0xffffffff
 670:	7c020001 	stcvc	0, cr0, [r2], {1}
 674:	000d0c0e 	andeq	r0, sp, lr, lsl #24
 678:	0000000c 	andeq	r0, r0, ip
 67c:	00000668 	andeq	r0, r0, r8, ror #12
 680:	f00015e0 			; <UNDEFINED> instruction: 0xf00015e0
 684:	0000003c 	andeq	r0, r0, ip, lsr r0
 688:	0000000c 	andeq	r0, r0, ip
 68c:	00000668 	andeq	r0, r0, r8, ror #12
 690:	f000161c 			; <UNDEFINED> instruction: 0xf000161c
 694:	00000064 	andeq	r0, r0, r4, rrx
 698:	0000000c 	andeq	r0, r0, ip
 69c:	ffffffff 			; <UNDEFINED> instruction: 0xffffffff
 6a0:	7c020001 	stcvc	0, cr0, [r2], {1}
 6a4:	000d0c0e 	andeq	r0, sp, lr, lsl #24
 6a8:	00000018 	andeq	r0, r0, r8, lsl r0
 6ac:	00000698 	muleq	r0, r8, r6
 6b0:	f0001bc0 			; <UNDEFINED> instruction: 0xf0001bc0
 6b4:	000000c0 	andeq	r0, r0, r0, asr #1
 6b8:	8e100e42 	cdphi	14, 1, cr0, cr0, cr2, {2}
 6bc:	84028501 	strhi	r8, [r2], #-1281	; 0x501
 6c0:	00048303 	andeq	r8, r4, r3, lsl #6
 6c4:	00000018 	andeq	r0, r0, r8, lsl r0
 6c8:	00000698 	muleq	r0, r8, r6
 6cc:	f0001c80 			; <UNDEFINED> instruction: 0xf0001c80
 6d0:	000000a0 	andeq	r0, r0, r0, lsr #1
 6d4:	8e100e42 	cdphi	14, 1, cr0, cr0, cr2, {2}
 6d8:	84028501 	strhi	r8, [r2], #-1281	; 0x501
 6dc:	00048303 	andeq	r8, r4, r3, lsl #6
 6e0:	00000014 	andeq	r0, r0, r4, lsl r0
 6e4:	00000698 	muleq	r0, r8, r6
 6e8:	f0001d20 			; <UNDEFINED> instruction: 0xf0001d20
 6ec:	00000090 	muleq	r0, r0, r0
 6f0:	84040e44 	strhi	r0, [r4], #-3652	; 0xe44
 6f4:	00000001 	andeq	r0, r0, r1
 6f8:	00000014 	andeq	r0, r0, r4, lsl r0
 6fc:	00000698 	muleq	r0, r8, r6
 700:	f0001db0 			; <UNDEFINED> instruction: 0xf0001db0
 704:	0000008c 	andeq	r0, r0, ip, lsl #1
 708:	84040e44 	strhi	r0, [r4], #-3652	; 0xe44
 70c:	00000001 	andeq	r0, r0, r1
 710:	00000018 	andeq	r0, r0, r8, lsl r0
 714:	00000698 	muleq	r0, r8, r6
 718:	f0001e3c 			; <UNDEFINED> instruction: 0xf0001e3c
 71c:	000000a0 	andeq	r0, r0, r0, lsr #1
 720:	8e100e42 	cdphi	14, 1, cr0, cr0, cr2, {2}
 724:	84028501 	strhi	r8, [r2], #-1281	; 0x501
 728:	00048303 	andeq	r8, r4, r3, lsl #6
 72c:	0000000c 	andeq	r0, r0, ip
 730:	00000698 	muleq	r0, r8, r6
 734:	f0001edc 			; <UNDEFINED> instruction: 0xf0001edc
 738:	00000034 	andeq	r0, r0, r4, lsr r0
 73c:	00000014 	andeq	r0, r0, r4, lsl r0
 740:	00000698 	muleq	r0, r8, r6
 744:	f0001f10 			; <UNDEFINED> instruction: 0xf0001f10
 748:	00000090 	muleq	r0, r0, r0
 74c:	84040e44 	strhi	r0, [r4], #-3652	; 0xe44
 750:	00000001 	andeq	r0, r0, r1
 754:	00000014 	andeq	r0, r0, r4, lsl r0
 758:	00000698 	muleq	r0, r8, r6
 75c:	f0001fa0 			; <UNDEFINED> instruction: 0xf0001fa0
 760:	0000008c 	andeq	r0, r0, ip, lsl #1
 764:	84040e44 	strhi	r0, [r4], #-3652	; 0xe44
 768:	00000001 	andeq	r0, r0, r1
 76c:	0000000c 	andeq	r0, r0, ip
 770:	ffffffff 			; <UNDEFINED> instruction: 0xffffffff
 774:	7c020001 	stcvc	0, cr0, [r2], {1}
 778:	000d0c0e 	andeq	r0, sp, lr, lsl #24
 77c:	00000020 	andeq	r0, r0, r0, lsr #32
 780:	0000076c 	andeq	r0, r0, ip, ror #14
 784:	f000202c 			; <UNDEFINED> instruction: 0xf000202c
 788:	000000bc 	strheq	r0, [r0], -ip
 78c:	8e1c0e42 	cdphi	14, 1, cr0, cr12, cr2, {2}
 790:	88028a01 	stmdahi	r2, {r0, r9, fp, pc}
 794:	86048703 	strhi	r8, [r4], -r3, lsl #14
 798:	84068505 	strhi	r8, [r6], #-1285	; 0x505
 79c:	480e4c07 	stmdami	lr, {r0, r1, r2, sl, fp, lr}
 7a0:	0000001c 	andeq	r0, r0, ip, lsl r0
 7a4:	0000076c 	andeq	r0, r0, ip, ror #14
 7a8:	f00020e8 			; <UNDEFINED> instruction: 0xf00020e8
 7ac:	000000a8 	andeq	r0, r0, r8, lsr #1
 7b0:	87100e42 	ldrhi	r0, [r0, -r2, asr #28]
 7b4:	85028601 	strhi	r8, [r2, #-1537]	; 0x601
 7b8:	4c048403 	cfstrsmi	mvf8, [r4], {3}
 7bc:	0000280e 	andeq	r2, r0, lr, lsl #16
 7c0:	0000001c 	andeq	r0, r0, ip, lsl r0
 7c4:	0000076c 	andeq	r0, r0, ip, ror #14
 7c8:	f0002190 			; <UNDEFINED> instruction: 0xf0002190
 7cc:	000000e8 	andeq	r0, r0, r8, ror #1
 7d0:	88140e42 	ldmdahi	r4, {r1, r6, r9, sl, fp}
 7d4:	86028701 	strhi	r8, [r2], -r1, lsl #14
 7d8:	84048503 	strhi	r8, [r4], #-1283	; 0x503
 7dc:	400e4a05 	andmi	r4, lr, r5, lsl #20
 7e0:	00000030 	andeq	r0, r0, r0, lsr r0
 7e4:	0000076c 	andeq	r0, r0, ip, ror #14
 7e8:	f0002278 			; <UNDEFINED> instruction: 0xf0002278
 7ec:	000002d0 	ldrdeq	r0, [r0], -r0	; <UNPREDICTABLE>
 7f0:	83100e42 	tsthi	r0, #1056	; 0x420
 7f4:	81028201 	tsthi	r2, r1, lsl #4
 7f8:	42048003 	andmi	r8, r4, #3
 7fc:	058e300e 	streq	r3, [lr, #14]
 800:	0789068a 	streq	r0, [r9, sl, lsl #13]
 804:	09870888 	stmibeq	r7, {r3, r7, fp}
 808:	0b850a86 	bleq	fe143228 <__bss_end+0xe13fc0c>
 80c:	0e420c84 	cdpeq	12, 4, cr0, cr2, cr4, {4}
 810:	00000048 	andeq	r0, r0, r8, asr #32
 814:	00000030 	andeq	r0, r0, r0, lsr r0
 818:	0000076c 	andeq	r0, r0, ip, ror #14
 81c:	f0002548 			; <UNDEFINED> instruction: 0xf0002548
 820:	000002d0 	ldrdeq	r0, [r0], -r0	; <UNPREDICTABLE>
 824:	83100e42 	tsthi	r0, #1056	; 0x420
 828:	81028201 	tsthi	r2, r1, lsl #4
 82c:	42048003 	andmi	r8, r4, #3
 830:	058e300e 	streq	r3, [lr, #14]
 834:	0789068a 	streq	r0, [r9, sl, lsl #13]
 838:	09870888 	stmibeq	r7, {r3, r7, fp}
 83c:	0b850a86 	bleq	fe14325c <__bss_end+0xe13fc40>
 840:	0e420c84 	cdpeq	12, 4, cr0, cr2, cr4, {4}
 844:	00000048 	andeq	r0, r0, r8, asr #32
 848:	0000000c 	andeq	r0, r0, ip
 84c:	ffffffff 			; <UNDEFINED> instruction: 0xffffffff
 850:	7c020001 	stcvc	0, cr0, [r2], {1}
 854:	000d0c0e 	andeq	r0, sp, lr, lsl #24
 858:	0000000c 	andeq	r0, r0, ip
 85c:	00000848 	andeq	r0, r0, r8, asr #16
 860:	f00029f4 			; <UNDEFINED> instruction: 0xf00029f4
 864:	0000000c 	andeq	r0, r0, ip
 868:	0000000c 	andeq	r0, r0, ip
 86c:	00000848 	andeq	r0, r0, r8, asr #16
 870:	f0002a00 			; <UNDEFINED> instruction: 0xf0002a00
 874:	0000004c 	andeq	r0, r0, ip, asr #32
 878:	0000000c 	andeq	r0, r0, ip
 87c:	ffffffff 			; <UNDEFINED> instruction: 0xffffffff
 880:	7c020001 	stcvc	0, cr0, [r2], {1}
 884:	000d0c0e 	andeq	r0, sp, lr, lsl #24
 888:	00000014 	andeq	r0, r0, r4, lsl r0
 88c:	00000878 	andeq	r0, r0, r8, ror r8
 890:	f0002a4c 			; <UNDEFINED> instruction: 0xf0002a4c
 894:	00000090 	muleq	r0, r0, r0
 898:	8e080e48 	cdphi	14, 0, cr0, cr8, cr8, {2}
 89c:	00028401 	andeq	r8, r2, r1, lsl #8
 8a0:	00000010 	andeq	r0, r0, r0, lsl r0
 8a4:	00000878 	andeq	r0, r0, r8, ror r8
 8a8:	f0002adc 			; <UNDEFINED> instruction: 0xf0002adc
 8ac:	00000054 	andeq	r0, r0, r4, asr r0
 8b0:	00080e44 	andeq	r0, r8, r4, asr #28
 8b4:	00000014 	andeq	r0, r0, r4, lsl r0
 8b8:	00000878 	andeq	r0, r0, r8, ror r8
 8bc:	f0002b30 			; <UNDEFINED> instruction: 0xf0002b30
 8c0:	00000058 	andeq	r0, r0, r8, asr r0
 8c4:	85080e44 	strhi	r0, [r8, #-3652]	; 0xe44
 8c8:	00028401 	andeq	r8, r2, r1, lsl #8
 8cc:	0000000c 	andeq	r0, r0, ip
 8d0:	00000878 	andeq	r0, r0, r8, ror r8
 8d4:	f0002b88 			; <UNDEFINED> instruction: 0xf0002b88
 8d8:	00000050 	andeq	r0, r0, r0, asr r0
 8dc:	0000000c 	andeq	r0, r0, ip
 8e0:	ffffffff 			; <UNDEFINED> instruction: 0xffffffff
 8e4:	7c020001 	stcvc	0, cr0, [r2], {1}
 8e8:	000d0c0e 	andeq	r0, sp, lr, lsl #24
 8ec:	0000000c 	andeq	r0, r0, ip
 8f0:	000008dc 	ldrdeq	r0, [r0], -ip
 8f4:	f0002bd8 			; <UNDEFINED> instruction: 0xf0002bd8
 8f8:	00000060 	andeq	r0, r0, r0, rrx
 8fc:	0000000c 	andeq	r0, r0, ip
 900:	000008dc 	ldrdeq	r0, [r0], -ip
 904:	f0002c38 			; <UNDEFINED> instruction: 0xf0002c38
 908:	00000050 	andeq	r0, r0, r0, asr r0
 90c:	0000000c 	andeq	r0, r0, ip
 910:	000008dc 	ldrdeq	r0, [r0], -ip
 914:	f0002c88 			; <UNDEFINED> instruction: 0xf0002c88
 918:	00000038 	andeq	r0, r0, r8, lsr r0
 91c:	0000000c 	andeq	r0, r0, ip
 920:	000008dc 	ldrdeq	r0, [r0], -ip
 924:	f0002cc0 			; <UNDEFINED> instruction: 0xf0002cc0
 928:	00000028 	andeq	r0, r0, r8, lsr #32
 92c:	0000000c 	andeq	r0, r0, ip
 930:	000008dc 	ldrdeq	r0, [r0], -ip
 934:	f0002ce8 			; <UNDEFINED> instruction: 0xf0002ce8
 938:	00000048 	andeq	r0, r0, r8, asr #32
 93c:	0000000c 	andeq	r0, r0, ip
 940:	000008dc 	ldrdeq	r0, [r0], -ip
 944:	f0002d30 			; <UNDEFINED> instruction: 0xf0002d30
 948:	00000040 	andeq	r0, r0, r0, asr #32
 94c:	0000000c 	andeq	r0, r0, ip
 950:	ffffffff 			; <UNDEFINED> instruction: 0xffffffff
 954:	7c020001 	stcvc	0, cr0, [r2], {1}
 958:	000d0c0e 	andeq	r0, sp, lr, lsl #24
 95c:	0000000c 	andeq	r0, r0, ip
 960:	0000094c 	andeq	r0, r0, ip, asr #18
 964:	f0002d70 			; <UNDEFINED> instruction: 0xf0002d70
 968:	00000030 	andeq	r0, r0, r0, lsr r0
 96c:	0000000c 	andeq	r0, r0, ip
 970:	0000094c 	andeq	r0, r0, ip, asr #18
 974:	f0002da0 			; <UNDEFINED> instruction: 0xf0002da0
 978:	00000010 	andeq	r0, r0, r0, lsl r0
 97c:	0000000c 	andeq	r0, r0, ip
 980:	0000094c 	andeq	r0, r0, ip, asr #18
 984:	f0002db0 			; <UNDEFINED> instruction: 0xf0002db0
 988:	0000003c 	andeq	r0, r0, ip, lsr r0
 98c:	0000000c 	andeq	r0, r0, ip
 990:	0000094c 	andeq	r0, r0, ip, asr #18
 994:	f0002dec 			; <UNDEFINED> instruction: 0xf0002dec
 998:	00000034 	andeq	r0, r0, r4, lsr r0
 99c:	00000018 	andeq	r0, r0, r8, lsl r0
 9a0:	0000094c 	andeq	r0, r0, ip, asr #18
 9a4:	f0002e20 			; <UNDEFINED> instruction: 0xf0002e20
 9a8:	00000068 	andeq	r0, r0, r8, rrx
 9ac:	8e100e42 	cdphi	14, 1, cr0, cr0, cr2, {2}
 9b0:	84028501 	strhi	r8, [r2], #-1281	; 0x501
 9b4:	00048303 	andeq	r8, r4, r3, lsl #6
 9b8:	00000014 	andeq	r0, r0, r4, lsl r0
 9bc:	0000094c 	andeq	r0, r0, ip, asr #18
 9c0:	f0002e88 			; <UNDEFINED> instruction: 0xf0002e88
 9c4:	00000048 	andeq	r0, r0, r8, asr #32
 9c8:	84040e44 	strhi	r0, [r4], #-3652	; 0xe44
 9cc:	00000001 	andeq	r0, r0, r1
 9d0:	00000014 	andeq	r0, r0, r4, lsl r0
 9d4:	0000094c 	andeq	r0, r0, ip, asr #18
 9d8:	f0002ed0 			; <UNDEFINED> instruction: 0xf0002ed0
 9dc:	00000060 	andeq	r0, r0, r0, rrx
 9e0:	84040e4c 	strhi	r0, [r4], #-3660	; 0xe4c
 9e4:	00000001 	andeq	r0, r0, r1
 9e8:	00000018 	andeq	r0, r0, r8, lsl r0
 9ec:	0000094c 	andeq	r0, r0, ip, asr #18
 9f0:	f0002f30 			; <UNDEFINED> instruction: 0xf0002f30
 9f4:	00000050 	andeq	r0, r0, r0, asr r0
 9f8:	860c0e4a 	strhi	r0, [ip], -sl, asr #28
 9fc:	84028501 	strhi	r8, [r2], #-1281	; 0x501
 a00:	00000003 	andeq	r0, r0, r3
 a04:	0000000c 	andeq	r0, r0, ip
 a08:	0000094c 	andeq	r0, r0, ip, asr #18
 a0c:	f0002f80 			; <UNDEFINED> instruction: 0xf0002f80
 a10:	00000074 	andeq	r0, r0, r4, ror r0
 a14:	0000000c 	andeq	r0, r0, ip
 a18:	0000094c 	andeq	r0, r0, ip, asr #18
 a1c:	f0002ff4 			; <UNDEFINED> instruction: 0xf0002ff4
 a20:	00000060 	andeq	r0, r0, r0, rrx
 a24:	0000000c 	andeq	r0, r0, ip
 a28:	0000094c 	andeq	r0, r0, ip, asr #18
 a2c:	f0003054 			; <UNDEFINED> instruction: 0xf0003054
 a30:	0000006c 	andeq	r0, r0, ip, rrx
